; Listing generated by Microsoft (R) Optimizing Compiler Version 15.00.20720 

	TTL	c:\Users\Steven\Desktop\CSharp - DllImport\CSharp - DllImport\VS2008\DllImportMango\DllImportMango.cpp
	CODE32

  00000			 AREA	 |.drectve|, DRECTVE
	DCB	"/nodefaultlib:libc.lib "
	DCB	"/nodefaultlib:libcd.lib "
	DCB	"/nodefaultlib:libc.lib "
	DCB	"/nodefaultlib:libcd.lib "
	DCB	"/nodefaultlib:oldnames.lib "
	DCB	"-defaultlib:uuid.lib "
	DCB	"-defaultlib:uuid.lib "
	DCB	"-defaultlib:atls.lib "
	DCB	"/merge:ATL=.rdata "
	DCB	"-defaultlib:coredll.lib "
	DCB	"-defaultlib:ole32.lib "
	DCB	"-defaultlib:oleaut32.lib "
	DCB	"-defaultlib:uuid.lib "
	DCB	"-defaultlib:uuid.lib "
	DCB	"-defaultlib:uuid.lib "
	DCB	"-defaultlib:urlmon.lib "
	DCB	"-defaultlib:aygshell.lib "
	DCB	"-defaultlib:LIBCMT "
	DCB	"-defaultlib:OLDNAMES "

	EXPORT	|??_C@_1BA@JIHHIEDE@?$AAT?$AAy?$AAp?$AAe?$AAL?$AAi?$AAb?$AA?$AA@| [ DATA ] ; `string'
	EXPORT	|??_C@_1BC@EAHCMADO@?$AAS?$AAo?$AAf?$AAt?$AAw?$AAa?$AAr?$AAe?$AA?$AA@| [ DATA ] ; `string'
	EXPORT	|??_C@_1O@GBFINDKL@?$AAS?$AAY?$AAS?$AAT?$AAE?$AAM?$AA?$AA@| [ DATA ] ; `string'
	EXPORT	|??_C@_1BC@IBECJAAI@?$AAS?$AAE?$AAC?$AAU?$AAR?$AAI?$AAT?$AAY?$AA?$AA@| [ DATA ] ; `string'
	EXPORT	|??_C@_17OMAOINJK@?$AAS?$AAA?$AAM?$AA?$AA@| [ DATA ] ; `string'
	EXPORT	|??_C@_19HLLLM@?$AAM?$AAi?$AAm?$AAe?$AA?$AA@| [ DATA ] ; `string'
	EXPORT	|??_C@_1BC@MAICEHGI@?$AAH?$AAa?$AAr?$AAd?$AAw?$AAa?$AAr?$AAe?$AA?$AA@| [ DATA ] ; `string'
	EXPORT	|??_C@_1BE@EKPAFMCP@?$AAI?$AAn?$AAt?$AAe?$AAr?$AAf?$AAa?$AAc?$AAe?$AA?$AA@| [ DATA ] ; `string'
	EXPORT	|??_C@_1BC@NKMMNMGL@?$AAF?$AAi?$AAl?$AAe?$AAT?$AAy?$AAp?$AAe?$AA?$AA@| [ DATA ] ; `string'
	EXPORT	|??_C@_1CK@OEKPKBNA@?$AAC?$AAo?$AAm?$AAp?$AAo?$AAn?$AAe?$AAn?$AAt?$AA?5?$AAC?$AAa?$AAt?$AAe?$AAg?$AAo?$AAr?$AAi?$AAe?$AAs?$AA?$AA@| [ DATA ] ; `string'
	EXPORT	|??_C@_1M@KANJNLFF@?$AAC?$AAL?$AAS?$AAI?$AAD?$AA?$AA@| [ DATA ] ; `string'
	EXPORT	|??_C@_1M@EJNEECMJ@?$AAA?$AAp?$AAp?$AAI?$AAD?$AA?$AA@| [ DATA ] ; `string'
	EXPORT	|??_C@_1O@JDLOHAN@?$AAD?$AAe?$AAl?$AAe?$AAt?$AAe?$AA?$AA@| [ DATA ] ; `string'
	EXPORT	|??_C@_1BC@GCKHIPE@?$AAN?$AAo?$AAR?$AAe?$AAm?$AAo?$AAv?$AAe?$AA?$AA@| [ DATA ] ; `string'
	EXPORT	|??_C@_1BI@JFAIJMHL@?$AAF?$AAo?$AAr?$AAc?$AAe?$AAR?$AAe?$AAm?$AAo?$AAv?$AAe?$AA?$AA@| [ DATA ] ; `string'
	EXPORT	|??_C@_17LLMMEOJD@?$AAV?$AAa?$AAl?$AA?$AA@| [ DATA ] ; `string'
	EXPORT	|??_C@_13OPKGLAFF@?$AAB?$AA?$AA@| [ DATA ] ; `string'
	EXPORT	|??_C@_13MKMNOPIJ@?$AAD?$AA?$AA@| [ DATA ] ; `string'
	EXPORT	|??_C@_13LHMFKAAD@?$AAM?$AA?$AA@| [ DATA ] ; `string'
	EXPORT	|??_C@_13HADIAKP@?$AAS?$AA?$AA@| [ DATA ] ; `string'
	EXPORT	|?m_bInitFailed@CAtlBaseModule@ATL@@2_NA| [ DATA ] ; ATL::CAtlBaseModule::m_bInitFailed
	EXPORT	|?_pPerfRegFunc@ATL@@3P6AJPAUHINSTANCE__@@@ZA| [ DATA ] ; ATL::_pPerfRegFunc
	EXPORT	|?_pPerfUnRegFunc@ATL@@3P6AJXZA| [ DATA ] ; ATL::_pPerfUnRegFunc
	EXPORT	|?_AtlRegisterPerUser@ATL@@3_NA| [ DATA ] ; ATL::_AtlRegisterPerUser
	EXPORT	|?_pAtlModule@ATL@@3PAVCAtlModule@1@A| [ DATA ] ; ATL::_pAtlModule
	EXPORT	|?m_libid@CAtlModule@ATL@@2U_GUID@@A| [ DATA ] ; ATL::CAtlModule::m_libid
	EXPORT	|?rgszNeverDelete@CRegParser@ATL@@1QBQB_WB| [ DATA ] ; ATL::CRegParser::rgszNeverDelete

  00000			 AREA	 |.bss|, NOINIT
|?m_bInitFailed@CAtlBaseModule@ATL@@2_NA| % 0x1		; ATL::CAtlBaseModule::m_bInitFailed

  00000			 AREA	 |.bss|, NOINIT
|?_pPerfRegFunc@ATL@@3P6AJPAUHINSTANCE__@@@ZA| % 0x4	; ATL::_pPerfRegFunc

  00000			 AREA	 |.bss|, NOINIT
|?_pPerfUnRegFunc@ATL@@3P6AJXZA| % 0x4			; ATL::_pPerfUnRegFunc

  00000			 AREA	 |.bss|, NOINIT
|?_AtlRegisterPerUser@ATL@@3_NA| % 0x1			; ATL::_AtlRegisterPerUser

  00000			 AREA	 |.bss|, NOINIT
|?_pAtlModule@ATL@@3PAVCAtlModule@1@A| % 0x4		; ATL::_pAtlModule

  00000			 AREA	 |.bss|, NOINIT
|?m_libid@CAtlModule@ATL@@2U_GUID@@A| % 0x10		; ATL::CAtlModule::m_libid

  00000			 AREA	 |.rdata|, DATA, READONLY
|?rgszNeverDelete@CRegParser@ATL@@1QBQB_WB| DCD |??_C@_1M@EJNEECMJ@?$AAA?$AAp?$AAp?$AAI?$AAD?$AA?$AA@| ; ATL::CRegParser::rgszNeverDelete
	DCD	|??_C@_1M@KANJNLFF@?$AAC?$AAL?$AAS?$AAI?$AAD?$AA?$AA@|
	DCD	|??_C@_1CK@OEKPKBNA@?$AAC?$AAo?$AAm?$AAp?$AAo?$AAn?$AAe?$AAn?$AAt?$AA?5?$AAC?$AAa?$AAt?$AAe?$AAg?$AAo?$AAr?$AAi?$AAe?$AAs?$AA?$AA@|
	DCD	|??_C@_1BC@NKMMNMGL@?$AAF?$AAi?$AAl?$AAe?$AAT?$AAy?$AAp?$AAe?$AA?$AA@|
	DCD	|??_C@_1BE@EKPAFMCP@?$AAI?$AAn?$AAt?$AAe?$AAr?$AAf?$AAa?$AAc?$AAe?$AA?$AA@|
	DCD	|??_C@_1BC@MAICEHGI@?$AAH?$AAa?$AAr?$AAd?$AAw?$AAa?$AAr?$AAe?$AA?$AA@|
	DCD	|??_C@_19HLLLM@?$AAM?$AAi?$AAm?$AAe?$AA?$AA@|
	DCD	|??_C@_17OMAOINJK@?$AAS?$AAA?$AAM?$AA?$AA@|
	DCD	|??_C@_1BC@IBECJAAI@?$AAS?$AAE?$AAC?$AAU?$AAR?$AAI?$AAT?$AAY?$AA?$AA@|
	DCD	|??_C@_1O@GBFINDKL@?$AAS?$AAY?$AAS?$AAT?$AAE?$AAM?$AA?$AA@|
	DCD	|??_C@_1BC@EAHCMADO@?$AAS?$AAo?$AAf?$AAt?$AAw?$AAa?$AAr?$AAe?$AA?$AA@|
	DCD	|??_C@_1BA@JIHHIEDE@?$AAT?$AAy?$AAp?$AAe?$AAL?$AAi?$AAb?$AA?$AA@|

  00000			 AREA	 |.rdata|, DATA, READONLY
|??_C@_1BA@JIHHIEDE@?$AAT?$AAy?$AAp?$AAe?$AAL?$AAi?$AAb?$AA?$AA@| DCB "T", 0x0
	DCB	"y", 0x0, "p", 0x0, "e", 0x0, "L", 0x0, "i", 0x0, "b", 0x0
	DCB	0x0, 0x0				; `string'

  00000			 AREA	 |.rdata|, DATA, READONLY
|??_C@_1BC@EAHCMADO@?$AAS?$AAo?$AAf?$AAt?$AAw?$AAa?$AAr?$AAe?$AA?$AA@| DCB "S"
	DCB	0x0, "o", 0x0, "f", 0x0, "t", 0x0, "w", 0x0, "a", 0x0, "r"
	DCB	0x0, "e", 0x0, 0x0, 0x0			; `string'

  00000			 AREA	 |.rdata|, DATA, READONLY
|??_C@_1O@GBFINDKL@?$AAS?$AAY?$AAS?$AAT?$AAE?$AAM?$AA?$AA@| DCB "S", 0x0, "Y"
	DCB	0x0, "S", 0x0, "T", 0x0, "E", 0x0, "M", 0x0, 0x0, 0x0 ; `string'

  00000			 AREA	 |.rdata|, DATA, READONLY
|??_C@_1BC@IBECJAAI@?$AAS?$AAE?$AAC?$AAU?$AAR?$AAI?$AAT?$AAY?$AA?$AA@| DCB "S"
	DCB	0x0, "E", 0x0, "C", 0x0, "U", 0x0, "R", 0x0, "I", 0x0, "T"
	DCB	0x0, "Y", 0x0, 0x0, 0x0			; `string'

  00000			 AREA	 |.rdata|, DATA, READONLY
|??_C@_17OMAOINJK@?$AAS?$AAA?$AAM?$AA?$AA@| DCB "S", 0x0, "A", 0x0, "M", 0x0
	DCB	0x0, 0x0				; `string'

  00000			 AREA	 |.rdata|, DATA, READONLY
|??_C@_19HLLLM@?$AAM?$AAi?$AAm?$AAe?$AA?$AA@| DCB "M", 0x0, "i", 0x0, "m", 0x0
	DCB	"e", 0x0, 0x0, 0x0			; `string'

  00000			 AREA	 |.rdata|, DATA, READONLY
|??_C@_1BC@MAICEHGI@?$AAH?$AAa?$AAr?$AAd?$AAw?$AAa?$AAr?$AAe?$AA?$AA@| DCB "H"
	DCB	0x0, "a", 0x0, "r", 0x0, "d", 0x0, "w", 0x0, "a", 0x0, "r"
	DCB	0x0, "e", 0x0, 0x0, 0x0			; `string'

  00000			 AREA	 |.rdata|, DATA, READONLY
|??_C@_1BE@EKPAFMCP@?$AAI?$AAn?$AAt?$AAe?$AAr?$AAf?$AAa?$AAc?$AAe?$AA?$AA@| DCB "I"
	DCB	0x0, "n", 0x0, "t", 0x0, "e", 0x0, "r", 0x0, "f", 0x0, "a"
	DCB	0x0, "c", 0x0, "e", 0x0, 0x0, 0x0	; `string'

  00000			 AREA	 |.rdata|, DATA, READONLY
|??_C@_1BC@NKMMNMGL@?$AAF?$AAi?$AAl?$AAe?$AAT?$AAy?$AAp?$AAe?$AA?$AA@| DCB "F"
	DCB	0x0, "i", 0x0, "l", 0x0, "e", 0x0, "T", 0x0, "y", 0x0, "p"
	DCB	0x0, "e", 0x0, 0x0, 0x0			; `string'

  00000			 AREA	 |.rdata|, DATA, READONLY
|??_C@_1CK@OEKPKBNA@?$AAC?$AAo?$AAm?$AAp?$AAo?$AAn?$AAe?$AAn?$AAt?$AA?5?$AAC?$AAa?$AAt?$AAe?$AAg?$AAo?$AAr?$AAi?$AAe?$AAs?$AA?$AA@| DCB "C"
	DCB	0x0, "o", 0x0, "m", 0x0, "p", 0x0, "o", 0x0, "n", 0x0, "e"
	DCB	0x0, "n", 0x0, "t", 0x0, " ", 0x0, "C", 0x0, "a", 0x0, "t"
	DCB	0x0, "e", 0x0, "g", 0x0, "o", 0x0, "r", 0x0, "i", 0x0, "e"
	DCB	0x0, "s", 0x0, 0x0, 0x0			; `string'

  00000			 AREA	 |.rdata|, DATA, READONLY
|??_C@_1M@KANJNLFF@?$AAC?$AAL?$AAS?$AAI?$AAD?$AA?$AA@| DCB "C", 0x0, "L", 0x0
	DCB	"S", 0x0, "I", 0x0, "D", 0x0, 0x0, 0x0	; `string'

  00000			 AREA	 |.rdata|, DATA, READONLY
|??_C@_1M@EJNEECMJ@?$AAA?$AAp?$AAp?$AAI?$AAD?$AA?$AA@| DCB "A", 0x0, "p", 0x0
	DCB	"p", 0x0, "I", 0x0, "D", 0x0, 0x0, 0x0	; `string'

  00000			 AREA	 |.rdata|, DATA, READONLY
|??_C@_1O@JDLOHAN@?$AAD?$AAe?$AAl?$AAe?$AAt?$AAe?$AA?$AA@| DCB "D", 0x0, "e"
	DCB	0x0, "l", 0x0, "e", 0x0, "t", 0x0, "e", 0x0, 0x0, 0x0 ; `string'

  00000			 AREA	 |.rdata|, DATA, READONLY
|??_C@_1BC@GCKHIPE@?$AAN?$AAo?$AAR?$AAe?$AAm?$AAo?$AAv?$AAe?$AA?$AA@| DCB "N"
	DCB	0x0, "o", 0x0, "R", 0x0, "e", 0x0, "m", 0x0, "o", 0x0, "v"
	DCB	0x0, "e", 0x0, 0x0, 0x0			; `string'

  00000			 AREA	 |.rdata|, DATA, READONLY
|??_C@_1BI@JFAIJMHL@?$AAF?$AAo?$AAr?$AAc?$AAe?$AAR?$AAe?$AAm?$AAo?$AAv?$AAe?$AA?$AA@| DCB "F"
	DCB	0x0, "o", 0x0, "r", 0x0, "c", 0x0, "e", 0x0, "R", 0x0, "e"
	DCB	0x0, "m", 0x0, "o", 0x0, "v", 0x0, "e", 0x0, 0x0, 0x0 ; `string'

  00000			 AREA	 |.rdata|, DATA, READONLY
|??_C@_17LLMMEOJD@?$AAV?$AAa?$AAl?$AA?$AA@| DCB "V", 0x0, "a", 0x0, "l", 0x0
	DCB	0x0, 0x0				; `string'

  00000			 AREA	 |.rdata|, DATA, READONLY
|??_C@_13OPKGLAFF@?$AAB?$AA?$AA@| DCB "B", 0x0, 0x0, 0x0 ; `string'

  00000			 AREA	 |.rdata|, DATA, READONLY
|??_C@_13MKMNOPIJ@?$AAD?$AA?$AA@| DCB "D", 0x0, 0x0, 0x0 ; `string'

  00000			 AREA	 |.rdata|, DATA, READONLY
|??_C@_13LHMFKAAD@?$AAM?$AA?$AA@| DCB "M", 0x0, 0x0, 0x0 ; `string'

  00000			 AREA	 |.rdata|, DATA, READONLY
|szStringVal| DCD |??_C@_13HADIAKP@?$AAS?$AA?$AA@|
|multiszStringVal| DCD |??_C@_13LHMFKAAD@?$AAM?$AA?$AA@|
|szDwordVal| DCD |??_C@_13MKMNOPIJ@?$AAD?$AA?$AA@|
|szBinaryVal| DCD |??_C@_13OPKGLAFF@?$AAB?$AA?$AA@|
|szValToken| DCD |??_C@_17LLMMEOJD@?$AAV?$AAa?$AAl?$AA?$AA@|
|szForceRemove| DCD |??_C@_1BI@JFAIJMHL@?$AAF?$AAo?$AAr?$AAc?$AAe?$AAR?$AAe?$AAm?$AAo?$AAv?$AAe?$AA?$AA@|
|szNoRemove| DCD |??_C@_1BC@GCKHIPE@?$AAN?$AAo?$AAR?$AAe?$AAm?$AAo?$AAv?$AAe?$AA?$AA@|
|szDelete| DCD	|??_C@_1O@JDLOHAN@?$AAD?$AAe?$AAl?$AAe?$AAt?$AAe?$AA?$AA@|

  00000			 AREA	 |.rdata|, DATA, READONLY
|??_C@_13HADIAKP@?$AAS?$AA?$AA@| DCB "S", 0x0, 0x0, 0x0	; `string'
	EXPORT	|?InitLibId@CDllImportMangoModule@@SAXXZ| ; CDllImportMangoModule::InitLibId
	IMPORT	|LIBID_DllImportMangoLib|
; File c:\users\steven\desktop\csharp - dllimport\csharp - dllimport\vs2008\dllimportmango\dllimportmango.cpp

  00000			 AREA	 |.pdata|, PDATA
|$T63932| DCD	|$LN5@InitLibId|
	DCD	0x40000e01
; Function compile flags: /Ogspy

  00000			 AREA	 |.text|, CODE, ARM

  00000		 |?InitLibId@CDllImportMangoModule@@SAXXZ| PROC ; CDllImportMangoModule::InitLibId
; Line 16
  00000		 |$LN5@InitLibId|
  00000	e52de004	 str         lr, [sp, #-4]!
  00004		 |$M63929|
  00004	e59f0028	 ldr         r0, [pc, #0x28]
  00008	e59fe020	 ldr         lr, [pc, #0x20]
  0000c	e5903000	 ldr         r3, [r0]
  00010	e5902004	 ldr         r2, [r0, #4]
  00014	e5901008	 ldr         r1, [r0, #8]
  00018	e590000c	 ldr         r0, [r0, #0xC]
  0001c	e58e3000	 str         r3, [lr]
  00020	e58e2004	 str         r2, [lr, #4]
  00024	e58e1008	 str         r1, [lr, #8]
  00028	e58e000c	 str         r0, [lr, #0xC]
  0002c	e49df004	 ldr         pc, [sp], #4
  00030		 |$LN6@InitLibId|
  00030		 |$LN7@InitLibId|
  00030	00000000	 DCD         |?m_libid@CAtlModule@ATL@@2U_GUID@@A|
  00034		 |$LN8@InitLibId|
  00034	00000000	 DCD         |LIBID_DllImportMangoLib|
  00038		 |$M63930|

			 ENDP  ; |?InitLibId@CDllImportMangoModule@@SAXXZ|, CDllImportMangoModule::InitLibId

	EXPORT	|?GetAppId@CDllImportMangoModule@@SAPB_WXZ| ; CDllImportMangoModule::GetAppId
	EXPORT	|??_C@_1EO@NGKFJOBE@?$AA?$HL?$AA4?$AA6?$AAF?$AA0?$AAB?$AA1?$AAF?$AA6?$AA?9?$AAB?$AA3?$AA9?$AA8?$AA?9?$AA4?$AAC?$AAE?$AAC?$AA?9?$AA8?$AA2?$AA1?$AAA?$AA?9?$AA1?$AAF?$AA3?$AA0?$AA4?$AAE?$AA5@| [ DATA ] ; `string'

  00000			 AREA	 |.pdata|, PDATA
|$T63944| DCD	|$LN5@GetAppId|
	DCD	0x40000300

  00000			 AREA	 |.rdata|, DATA, READONLY
|??_C@_1EO@NGKFJOBE@?$AA?$HL?$AA4?$AA6?$AAF?$AA0?$AAB?$AA1?$AAF?$AA6?$AA?9?$AAB?$AA3?$AA9?$AA8?$AA?9?$AA4?$AAC?$AAE?$AAC?$AA?9?$AA8?$AA2?$AA1?$AAA?$AA?9?$AA1?$AAF?$AA3?$AA0?$AA4?$AAE?$AA5@| DCB "{"
	DCB	0x0, "4", 0x0, "6", 0x0, "F", 0x0, "0", 0x0, "B", 0x0, "1"
	DCB	0x0, "F", 0x0, "6", 0x0, "-", 0x0, "B", 0x0, "3", 0x0, "9"
	DCB	0x0, "8", 0x0, "-", 0x0, "4", 0x0, "C", 0x0, "E", 0x0, "C"
	DCB	0x0, "-", 0x0, "8", 0x0, "2", 0x0, "1", 0x0, "A", 0x0, "-"
	DCB	0x0, "1", 0x0, "F", 0x0, "3", 0x0, "0", 0x0, "4", 0x0, "E"
	DCB	0x0, "5", 0x0, "D", 0x0, "9", 0x0, "E", 0x0, "5", 0x0, "7"
	DCB	0x0, "}", 0x0, 0x0, 0x0			; `string'
; Function compile flags: /Ogspy

  00000			 AREA	 |.text|, CODE, ARM

  00000		 |?GetAppId@CDllImportMangoModule@@SAPB_WXZ| PROC ; CDllImportMangoModule::GetAppId
; Line 18
  00000		 |$LN5@GetAppId|
  00000		 |$M63941|
  00000	e59f0000	 ldr         r0, [pc]
  00004	e1a0f00e	 mov         pc, lr
  00008		 |$LN6@GetAppId|
  00008		 |$LN7@GetAppId|
  00008	00000000	 DCD         |??_C@_1EO@NGKFJOBE@?$AA?$HL?$AA4?$AA6?$AAF?$AA0?$AAB?$AA1?$AAF?$AA6?$AA?9?$AAB?$AA3?$AA9?$AA8?$AA?9?$AA4?$AAC?$AAE?$AAC?$AA?9?$AA8?$AA2?$AA1?$AAA?$AA?9?$AA1?$AAF?$AA3?$AA0?$AA4?$AAE?$AA5@|
  0000c		 |$M63942|

			 ENDP  ; |?GetAppId@CDllImportMangoModule@@SAPB_WXZ|, CDllImportMangoModule::GetAppId

	EXPORT	|?DllCanUnloadNow@?$CAtlDllModuleT@VCDllImportMangoModule@@@ATL@@QAAJXZ| ; ATL::CAtlDllModuleT<CDllImportMangoModule>::DllCanUnloadNow
; File c:\program files (x86)\microsoft visual studio 9.0\vc\ce\atlmfc\include\atlbase.h

  00000			 AREA	 |.pdata|, PDATA
|$T63958| DCD	|$LN7@DllCanUnlo|
	DCD	0x40000801
; Function compile flags: /Ogspy

  00000			 AREA	 |.text|, CODE, ARM

  00000		 |?DllCanUnloadNow@?$CAtlDllModuleT@VCDllImportMangoModule@@@ATL@@QAAJXZ| PROC ; ATL::CAtlDllModuleT<CDllImportMangoModule>::DllCanUnloadNow
; Line 3170
  00000		 |$LN7@DllCanUnlo|
  00000	e52de004	 str         lr, [sp, #-4]!
  00004		 |$M63955|
; Line 3172
  00004	e5903000	 ldr         r3, [r0]
  00008	e1a0e00f	 mov         lr, pc
  0000c	e593f00c	 ldr         pc, [r3, #0xC]
  00010	e3500000	 cmp         r0, #0
  00014	03a00000	 moveq       r0, #0
  00018	13a00001	 movne       r0, #1
; Line 3173
  0001c	e49df004	 ldr         pc, [sp], #4
  00020		 |$M63956|

			 ENDP  ; |?DllCanUnloadNow@?$CAtlDllModuleT@VCDllImportMangoModule@@@ATL@@QAAJXZ|, ATL::CAtlDllModuleT<CDllImportMangoModule>::DllCanUnloadNow

	EXPORT	|?IsEqualGUID@@YAHABU_GUID@@0@Z|	; IsEqualGUID
	IMPORT	|memcmp|
; File c:\program files (x86)\windows mobile 6 sdk\pocketpc\include\armv4i\objbase.h

  00000			 AREA	 |.pdata|, PDATA
|$T63972| DCD	|$LN7@IsEqualGUI|
	DCD	0x40000701
; Function compile flags: /Ogspy

  00000			 AREA	 |.text|, CODE, ARM

  00000		 |?IsEqualGUID@@YAHABU_GUID@@0@Z| PROC	; IsEqualGUID
; Line 493
  00000		 |$LN7@IsEqualGUI|
  00000	e52de004	 str         lr, [sp, #-4]!
  00004		 |$M63969|
; Line 494
  00004	e3a02010	 mov         r2, #0x10
  00008	eb000000	 bl          memcmp
  0000c	e3500000	 cmp         r0, #0
  00010	03a00001	 moveq       r0, #1
  00014	13a00000	 movne       r0, #0
; Line 495
  00018	e49df004	 ldr         pc, [sp], #4
  0001c		 |$M63970|

			 ENDP  ; |?IsEqualGUID@@YAHABU_GUID@@0@Z|, IsEqualGUID

	EXPORT	|?_DllMain@?$CAtlDllModuleT@VCDllImportMangoModule@@@ATL@@QAAHKPAX@Z| ; ATL::CAtlDllModuleT<CDllImportMangoModule>::_DllMain
; File c:\program files (x86)\microsoft visual studio 9.0\vc\ce\atlmfc\include\atlbase.h

  00000			 AREA	 |.pdata|, PDATA
|$T63982| DCD	|$LN7@DllMain|
	DCD	0x40000a00
; Function compile flags: /Ogspy

  00000			 AREA	 |.text|, CODE, ARM

  00000		 |?_DllMain@?$CAtlDllModuleT@VCDllImportMangoModule@@@ATL@@QAAHKPAX@Z| PROC ; ATL::CAtlDllModuleT<CDllImportMangoModule>::_DllMain
; Line 3150
  00000		 |$LN7@DllMain|
  00000		 |$M63979|
; Line 3151
  00000	e3510001	 cmp         r1, #1
  00004	1a000004	 bne         |$LN1@DllMain|
; Line 3153
  00008	e59f3014	 ldr         r3, [pc, #0x14]
  0000c	e5d33000	 ldrb        r3, [r3]
  00010	e3530000	 cmp         r3, #0
; Line 3156
  00014	13a00000	 movne       r0, #0
; Line 3167
  00018	11a0f00e	 movne       pc, lr
  0001c		 |$LN1@DllMain|
; Line 3166
  0001c	e3a00001	 mov         r0, #1
; Line 3167
  00020	e1a0f00e	 mov         pc, lr
  00024		 |$LN8@DllMain|
  00024		 |$LN9@DllMain|
  00024	00000000	 DCD         |?m_bInitFailed@CAtlBaseModule@ATL@@2_NA|
  00028		 |$M63980|

			 ENDP  ; |?_DllMain@?$CAtlDllModuleT@VCDllImportMangoModule@@@ATL@@QAAHKPAX@Z|, ATL::CAtlDllModuleT<CDllImportMangoModule>::_DllMain

	EXPORT	|??$AtlMultiply@I@ATL@@YAJPAIII@Z|	; ATL::AtlMultiply<unsigned int>
; File c:\program files (x86)\microsoft visual studio 9.0\vc\ce\atlmfc\include\atlalloc.h

  00000			 AREA	 |.pdata|, PDATA
|$T63999| DCD	|$LN7@AtlMultipl|
	DCD	0x40000e01
; Function compile flags: /Ogspy

  00000			 AREA	 |.text|, CODE, ARM

  00000		 |??$AtlMultiply@I@ATL@@YAJPAIII@Z| PROC ; ATL::AtlMultiply<unsigned int>
; Line 137
  00000		 |$LN7@AtlMultipl|
  00000	e24dd008	 sub         sp, sp, #8
  00004		 |$M63996|
; Line 138
  00004	e0832291	 umull       r2, r3, r1, r2
; Line 139
  00008	e3530000	 cmp         r3, #0
  0000c	e58d3004	 str         r3, [sp, #4]
  00010	1a000004	 bne         |$LN4@AtlMultipl|
  00014	e3720001	 cmn         r2, #1
; Line 143
  00018	95802000	 strls       r2, [r0]
; Line 144
  0001c	93a00000	 movls       r0, #0
; Line 145
  00020	928dd008	 addls       sp, sp, #8
  00024	91a0f00e	 movls       pc, lr
  00028		 |$LN4@AtlMultipl|
; Line 141
  00028	e59f0004	 ldr         r0, [pc, #4]	; -2147024809 (0x80070057)
; Line 145
  0002c	e28dd008	 add         sp, sp, #8
  00030	e1a0f00e	 mov         pc, lr
  00034		 |$LN8@AtlMultipl|
  00034		 |$LN9@AtlMultipl|
  00034	80070057	 DCD         0x80070057
  00038		 |$M63997|

			 ENDP  ; |??$AtlMultiply@I@ATL@@YAJPAIII@Z|, ATL::AtlMultiply<unsigned int>

	EXPORT	|??$AtlMultiply@K@ATL@@YAJPAKKK@Z|	; ATL::AtlMultiply<unsigned long>

  00000			 AREA	 |.pdata|, PDATA
|$T64016| DCD	|$LN7@AtlMultipl@2|
	DCD	0x40000e01
; Function compile flags: /Ogspy

  00000			 AREA	 |.text|, CODE, ARM

  00000		 |??$AtlMultiply@K@ATL@@YAJPAKKK@Z| PROC ; ATL::AtlMultiply<unsigned long>
; Line 161
  00000		 |$LN7@AtlMultipl@2|
  00000	e24dd008	 sub         sp, sp, #8
  00004		 |$M64013|
; Line 162
  00004	e0832291	 umull       r2, r3, r1, r2
; Line 163
  00008	e3530000	 cmp         r3, #0
  0000c	e58d3004	 str         r3, [sp, #4]
  00010	1a000004	 bne         |$LN4@AtlMultipl@2|
  00014	e3720001	 cmn         r2, #1
; Line 167
  00018	95802000	 strls       r2, [r0]
; Line 168
  0001c	93a00000	 movls       r0, #0
; Line 169
  00020	928dd008	 addls       sp, sp, #8
  00024	91a0f00e	 movls       pc, lr
  00028		 |$LN4@AtlMultipl@2|
; Line 165
  00028	e59f0004	 ldr         r0, [pc, #4]	; -2147024809 (0x80070057)
; Line 169
  0002c	e28dd008	 add         sp, sp, #8
  00030	e1a0f00e	 mov         pc, lr
  00034		 |$LN8@AtlMultipl@2|
  00034		 |$LN9@AtlMultipl@2|
  00034	80070057	 DCD         0x80070057
  00038		 |$M64014|

			 ENDP  ; |??$AtlMultiply@K@ATL@@YAJPAKKK@Z|, ATL::AtlMultiply<unsigned long>

	EXPORT	|?AtlCoTaskMemCAlloc@ATL@@YAPAXKK@Z|	; ATL::AtlCoTaskMemCAlloc
	IMPORT	|CoTaskMemAlloc|

  00000			 AREA	 |.pdata|, PDATA
|$T64040| DCD	|$LN11@AtlCoTaskM|
	DCD	0x40000c01
; Function compile flags: /Ogspy

  00000			 AREA	 |.text|, CODE, ARM

  00000		 |?AtlCoTaskMemCAlloc@ATL@@YAPAXKK@Z| PROC ; ATL::AtlCoTaskMemCAlloc
; Line 196
  00000		 |$LN11@AtlCoTaskM|
  00000	e52de004	 str         lr, [sp, #-4]!
  00004		 |$M64037|
; Line 199
  00004	e0832190	 umull       r2, r3, r0, r1
  00008	e3530000	 cmp         r3, #0
  0000c	8a000005	 bhi         |$LN7@AtlCoTaskM|
  00010	3a000001	 bcc         |$LN8@AtlCoTaskM|
  00014	e3720001	 cmn         r2, #1
  00018	8a000002	 bhi         |$LN7@AtlCoTaskM|
  0001c		 |$LN8@AtlCoTaskM|
; Line 203
  0001c	e1a00002	 mov         r0, r2
  00020	e49de004	 ldr         lr, [sp], #4
  00024	ea000000	 b           CoTaskMemAlloc
  00028		 |$LN7@AtlCoTaskM|
; Line 201
  00028	e3a00000	 mov         r0, #0
; Line 204
  0002c	e49df004	 ldr         pc, [sp], #4
  00030		 |$M64038|

			 ENDP  ; |?AtlCoTaskMemCAlloc@ATL@@YAPAXKK@Z|, ATL::AtlCoTaskMemCAlloc

	EXPORT	|?AtlCoTaskMemRecalloc@ATL@@YAPAXPAXKK@Z| ; ATL::AtlCoTaskMemRecalloc
	IMPORT	|CoTaskMemRealloc|

  00000			 AREA	 |.pdata|, PDATA
|$T64063| DCD	|$LN11@AtlCoTaskM@2|
	DCD	0x40000c01
; Function compile flags: /Ogspy

  00000			 AREA	 |.text|, CODE, ARM

  00000		 |?AtlCoTaskMemRecalloc@ATL@@YAPAXPAXKK@Z| PROC ; ATL::AtlCoTaskMemRecalloc
; Line 207
  00000		 |$LN11@AtlCoTaskM@2|
  00000	e52de004	 str         lr, [sp, #-4]!
  00004		 |$M64060|
; Line 210
  00004	e0832291	 umull       r2, r3, r1, r2
  00008	e3530000	 cmp         r3, #0
  0000c	8a000005	 bhi         |$LN7@AtlCoTaskM@2|
  00010	3a000001	 bcc         |$LN8@AtlCoTaskM@2|
  00014	e3720001	 cmn         r2, #1
  00018	8a000002	 bhi         |$LN7@AtlCoTaskM@2|
  0001c		 |$LN8@AtlCoTaskM@2|
; Line 214
  0001c	e1a01002	 mov         r1, r2
  00020	e49de004	 ldr         lr, [sp], #4
  00024	ea000000	 b           CoTaskMemRealloc
  00028		 |$LN7@AtlCoTaskM@2|
; Line 212
  00028	e3a00000	 mov         r0, #0
; Line 215
  0002c	e49df004	 ldr         pc, [sp], #4
  00030		 |$M64061|

			 ENDP  ; |?AtlCoTaskMemRecalloc@ATL@@YAPAXPAXKK@Z|, ATL::AtlCoTaskMemRecalloc

	EXPORT	|?Allocate@CCRTAllocator@ATL@@SAPAXI@Z|	; ATL::CCRTAllocator::Allocate
	IMPORT	|malloc|

  00000			 AREA	 |.pdata|, PDATA
|$T64073| DCD	|$LN5@Allocate|
	DCD	0x40000100
; Function compile flags: /Ogspy

  00000			 AREA	 |.text|, CODE, ARM

  00000		 |?Allocate@CCRTAllocator@ATL@@SAPAXI@Z| PROC ; ATL::CCRTAllocator::Allocate
; Line 242
  00000		 |$LN5@Allocate|
  00000		 |$M64070|
; Line 243
  00000	ea000000	 b           malloc
  00004		 |$M64071|

			 ENDP  ; |?Allocate@CCRTAllocator@ATL@@SAPAXI@Z|, ATL::CCRTAllocator::Allocate

	EXPORT	|?Free@CCRTAllocator@ATL@@SAXPAX@Z|	; ATL::CCRTAllocator::Free
	IMPORT	|free|

  00000			 AREA	 |.pdata|, PDATA
|$T64081| DCD	|$LN5@Free|
	DCD	0x40000100
; Function compile flags: /Ogspy

  00000			 AREA	 |.text|, CODE, ARM

  00000		 |?Free@CCRTAllocator@ATL@@SAXPAX@Z| PROC ; ATL::CCRTAllocator::Free
; Line 247
  00000		 |$LN5@Free|
  00000		 |$M64078|
; Line 248
  00000	ea000000	 b           free
  00004		 |$M64079|

			 ENDP  ; |?Free@CCRTAllocator@ATL@@SAXPAX@Z|, ATL::CCRTAllocator::Free

	EXPORT	|?lstrlenW@ATL@@YAIPB_W@Z|		; ATL::lstrlenW
	IMPORT	|wcslen|
; File c:\program files (x86)\microsoft visual studio 9.0\vc\ce\atlmfc\include\atlosapice.h

  00000			 AREA	 |.pdata|, PDATA
|$T64094| DCD	|$LN7@lstrlenW|
	DCD	0x40000601
; Function compile flags: /Ogspy

  00000			 AREA	 |.text|, CODE, ARM

  00000		 |?lstrlenW@ATL@@YAIPB_W@Z| PROC	; ATL::lstrlenW
; Line 867
  00000		 |$LN7@lstrlenW|
  00000	e52de004	 str         lr, [sp, #-4]!
  00004		 |$M64091|
  00004	e3500000	 cmp         r0, #0
; Line 868
  00008	149de004	 ldrne       lr, [sp], #4
  0000c	1a000000	 bne         wcslen
  00010	e3a00000	 mov         r0, #0
; Line 869
  00014	e49df004	 ldr         pc, [sp], #4
  00018		 |$M64092|

			 ENDP  ; |?lstrlenW@ATL@@YAIPB_W@Z|, ATL::lstrlenW

	EXPORT	|?InlineIsEqualGUID@ATL@@YAHABU_GUID@@0@Z| ; ATL::InlineIsEqualGUID

  00000			 AREA	 |.pdata|, PDATA
|$T64107| DCD	|$LN7@InlineIsEq|
	DCD	0x40001200
; Function compile flags: /Ogspy

  00000			 AREA	 |.text|, CODE, ARM

  00000		 |?InlineIsEqualGUID@ATL@@YAHABU_GUID@@0@Z| PROC ; ATL::InlineIsEqualGUID
; Line 1314
  00000		 |$LN7@InlineIsEq|
  00000		 |$M64104|
; Line 1319
  00000	e5902000	 ldr         r2, [r0]
  00004	e5913000	 ldr         r3, [r1]
  00008	e1520003	 cmp         r2, r3
  0000c	1a00000b	 bne         |$LN3@InlineIsEq|
  00010	e5902004	 ldr         r2, [r0, #4]
  00014	e5913004	 ldr         r3, [r1, #4]
  00018	e1520003	 cmp         r2, r3
  0001c	1a000007	 bne         |$LN3@InlineIsEq|
  00020	e5902008	 ldr         r2, [r0, #8]
  00024	e5913008	 ldr         r3, [r1, #8]
  00028	e1520003	 cmp         r2, r3
  0002c	0590200c	 ldreq       r2, [r0, #0xC]
  00030	0591300c	 ldreq       r3, [r1, #0xC]
  00034	01520003	 cmpeq       r2, r3
  00038	03a00001	 moveq       r0, #1
; Line 1320
  0003c	01a0f00e	 moveq       pc, lr
  00040		 |$LN3@InlineIsEq|
; Line 1319
  00040	e3a00000	 mov         r0, #0
; Line 1320
  00044	e1a0f00e	 mov         pc, lr
  00048		 |$M64105|

			 ENDP  ; |?InlineIsEqualGUID@ATL@@YAHABU_GUID@@0@Z|, ATL::InlineIsEqualGUID

	EXPORT	|?_AtlGetConversionACP@ATL@@YAIXZ|	; ATL::_AtlGetConversionACP
; File c:\program files (x86)\microsoft visual studio 9.0\vc\ce\atlmfc\include\atlconv.h

  00000			 AREA	 |.pdata|, PDATA
|$T64116| DCD	|$LN5@AtlGetConv|
	DCD	0x40000200
; Function compile flags: /Ogspy

  00000			 AREA	 |.text|, CODE, ARM

  00000		 |?_AtlGetConversionACP@ATL@@YAIXZ| PROC ; ATL::_AtlGetConversionACP
; Line 109
  00000		 |$LN5@AtlGetConv|
  00000		 |$M64113|
; Line 111
  00000	e3a00000	 mov         r0, #0
; Line 115
  00004	e1a0f00e	 mov         pc, lr
  00008		 |$M64114|

			 ENDP  ; |?_AtlGetConversionACP@ATL@@YAIXZ|, ATL::_AtlGetConversionACP

	EXPORT	|?ocslen@@YAHPB_W@Z|			; ocslen
; File c:\program files (x86)\microsoft visual studio 9.0\vc\ce\atlmfc\include\atlosapice.h

  00000			 AREA	 |.pdata|, PDATA
|$T64133| DCD	|$LN9@ocslen|
	DCD	0x40000601
; Function compile flags: /Ogspy

  00000			 AREA	 |.text|, CODE, ARM

  00000		 |?ocslen@@YAHPB_W@Z| PROC		; ocslen
; File c:\program files (x86)\microsoft visual studio 9.0\vc\ce\atlmfc\include\atlconv.h
; Line 695
  00000		 |$LN9@ocslen|
  00000	e52de004	 str         lr, [sp, #-4]!
  00004		 |$M64130|
  00004	e3500000	 cmp         r0, #0
  00008	149de004	 ldrne       lr, [sp], #4
  0000c	1a000000	 bne         wcslen
  00010	e3a00000	 mov         r0, #0
  00014	e49df004	 ldr         pc, [sp], #4
  00018		 |$M64131|

			 ENDP  ; |?ocslen@@YAHPB_W@Z|, ocslen

	EXPORT	|?ocscpy_s@@YA_NPA_WIPB_W@Z|		; ocscpy_s
	IMPORT	|memcpy_s|
; File c:\program files (x86)\microsoft visual studio 9.0\vc\ce\atlmfc\include\atlosapice.h

  00000			 AREA	 |.pdata|, PDATA
|$T64161| DCD	|$LN13@ocscpy_s|
	DCD	0x40001501
; Function compile flags: /Ogspy

  00000			 AREA	 |.text|, CODE, ARM

  00000		 |?ocscpy_s@@YA_NPA_WIPB_W@Z| PROC	; ocscpy_s
; File c:\program files (x86)\microsoft visual studio 9.0\vc\ce\atlmfc\include\atlconv.h
; Line 698
  00000		 |$LN13@ocscpy_s|
  00000	e92d4070	 stmdb       sp!, {r4 - r6, lr}
  00004		 |$M64158|
  00004	e1b04002	 movs        r4, r2
  00008	e1a05001	 mov         r5, r1
  0000c	e1a06000	 mov         r6, r0
  00010	0a000002	 beq         |$LN9@ocscpy_s|
  00014	e1a00004	 mov         r0, r4
  00018	eb000000	 bl          wcslen
  0001c	ea000000	 b           |$LN10@ocscpy_s|
  00020		 |$LN9@ocscpy_s|
  00020	e3a00000	 mov         r0, #0
  00024		 |$LN10@ocscpy_s|
  00024	e2803001	 add         r3, r0, #1
  00028	e1a03083	 mov         r3, r3, lsl #1
  0002c	e1a02004	 mov         r2, r4
  00030	e1a01085	 mov         r1, r5, lsl #1
  00034	e1a00006	 mov         r0, r6
  00038	eb000000	 bl          memcpy_s
  0003c	e3500000	 cmp         r0, #0
  00040	03a03001	 moveq       r3, #1
  00044	020300ff	 andeq       r0, r3, #0xFF
  00048	13a03000	 movne       r3, #0
  0004c	120300ff	 andne       r0, r3, #0xFF
  00050	e8bd8070	 ldmia       sp!, {r4 - r6, pc}
  00054		 |$M64159|

			 ENDP  ; |?ocscpy_s@@YA_NPA_WIPB_W@Z|, ocscpy_s

	EXPORT	|?OLE2CT_EX@@YAPB_WPB_WI@Z|		; OLE2CT_EX

  00000			 AREA	 |.pdata|, PDATA
|$T64171| DCD	|$LN5@OLE2CT_EX|
	DCD	0x40000100
; Function compile flags: /Ogspy

  00000			 AREA	 |.text|, CODE, ARM

  00000		 |?OLE2CT_EX@@YAPB_WPB_WI@Z| PROC	; OLE2CT_EX
; Line 724
  00000		 |$LN5@OLE2CT_EX|
  00000		 |$M64168|
  00000	e1a0f00e	 mov         pc, lr
  00004		 |$M64169|

			 ENDP  ; |?OLE2CT_EX@@YAPB_WPB_WI@Z|, OLE2CT_EX

	EXPORT	|?T2OLE_EX@@YAPA_WPA_WI@Z|		; T2OLE_EX

  00000			 AREA	 |.pdata|, PDATA
|$T64181| DCD	|$LN5@T2OLE_EX|
	DCD	0x40000100
; Function compile flags: /Ogspy

  00000			 AREA	 |.text|, CODE, ARM

  00000		 |?T2OLE_EX@@YAPA_WPA_WI@Z| PROC	; T2OLE_EX
; Line 726
  00000		 |$LN5@T2OLE_EX|
  00000		 |$M64178|
  00000	e1a0f00e	 mov         pc, lr
  00004		 |$M64179|

			 ENDP  ; |?T2OLE_EX@@YAPA_WPA_WI@Z|, T2OLE_EX

	EXPORT	|?_AtlRaiseException@ATL@@YAXKK@Z|	; ATL::_AtlRaiseException
	IMPORT	|RaiseException|
; File c:\program files (x86)\microsoft visual studio 9.0\vc\ce\atlmfc\include\atlexcept.h

  00000			 AREA	 |.pdata|, PDATA
|$T64190| DCD	|$LN5@AtlRaiseEx|
	DCD	0x40000300
; Function compile flags: /Ogspy

  00000			 AREA	 |.text|, CODE, ARM

  00000		 |?_AtlRaiseException@ATL@@YAXKK@Z| PROC ; ATL::_AtlRaiseException
; Line 28
  00000		 |$LN5@AtlRaiseEx|
  00000		 |$M64187|
; Line 29
  00000	e3a03000	 mov         r3, #0
  00004	e3a02000	 mov         r2, #0
  00008	ea000000	 b           RaiseException
  0000c		 |$M64188|

			 ENDP  ; |?_AtlRaiseException@ATL@@YAXKK@Z|, ATL::_AtlRaiseException

	EXPORT	|??0CAtlException@ATL@@QAA@J@Z|		; ATL::CAtlException::CAtlException

  00000			 AREA	 |.pdata|, PDATA
|$T64201| DCD	|$LN5@CAtlExcept|
	DCD	0x40000200
; Function compile flags: /Ogspy

  00000			 AREA	 |.text|, CODE, ARM

  00000		 |??0CAtlException@ATL@@QAA@J@Z| PROC	; ATL::CAtlException::CAtlException
; Line 49
  00000		 |$LN5@CAtlExcept|
  00000		 |$M64198|
  00000	e5801000	 str         r1, [r0]
; Line 50
  00004	e1a0f00e	 mov         pc, lr
  00008		 |$M64199|

			 ENDP  ; |??0CAtlException@ATL@@QAA@J@Z|, ATL::CAtlException::CAtlException

	EXPORT	|?AtlThrowImpl@ATL@@YAXJ@Z|		; ATL::AtlThrowImpl
	EXPORT	|_TI1?AVCAtlException@ATL@@| [ DATA ]
	EXPORT	|_CTA1?AVCAtlException@ATL@@| [ DATA ]
	EXPORT	|_CT??_R0?AVCAtlException@ATL@@@84| [ DATA ]
	EXPORT	|??_R0?AVCAtlException@ATL@@@8| [ DATA ] ; ATL::CAtlException `RTTI Type Descriptor'
	IMPORT	|__CxxThrowException|
	IMPORT	|??_7type_info@@6B@|			; type_info::`vftable'

  00000			 AREA	 |.pdata|, PDATA
|$T64217| DCD	|$LN9@AtlThrowIm|
	DCD	0x40000802

  00000			 AREA	 |.data|, DATA
|??_R0?AVCAtlException@ATL@@@8| DCD |??_7type_info@@6B@| ; ATL::CAtlException `RTTI Type Descriptor'
	DCD	0x0
	DCB	".?AVCAtlException@ATL@@", 0x0

  00000			 AREA	 |.xdata$x|, DATA, READONLY
|_CT??_R0?AVCAtlException@ATL@@@84| DCD 0x0
	DCD	|??_R0?AVCAtlException@ATL@@@8|
	DCD	0x0
	DCD	0xffffffff
	%	4
	DCD	0x4
	DCD	0x0

  00000			 AREA	 |.xdata$x|, DATA, READONLY
|_CTA1?AVCAtlException@ATL@@| DCD 0x1
	DCD	|_CT??_R0?AVCAtlException@ATL@@@84|

  00000			 AREA	 |.xdata$x|, DATA, READONLY
|_TI1?AVCAtlException@ATL@@| DCD 0x0
	DCD	0x0
	DCD	0x0
	DCD	|_CTA1?AVCAtlException@ATL@@|
; Function compile flags: /Ogspy

  00000			 AREA	 |.text|, CODE, ARM

  00000		 |?AtlThrowImpl@ATL@@YAXJ@Z| PROC	; ATL::AtlThrowImpl
; Line 70
  00000		 |$LN9@AtlThrowIm|
  00000	e52de004	 str         lr, [sp, #-4]!
  00004	e24dd004	 sub         sp, sp, #4
  00008		 |$M64214|
  00008	e1a03000	 mov         r3, r0
; Line 82
  0000c	e59f1008	 ldr         r1, [pc, #8]
  00010	e28d0000	 add         r0, sp, #0
  00014	e58d3000	 str         r3, [sp]
  00018	eb000000	 bl          __CxxThrowException
  0001c		 |$LN11@AtlThrowIm|
  0001c		 |$LN12@AtlThrowIm|
  0001c	00000000	 DCD         |_TI1?AVCAtlException@ATL@@|
  00020		 |$LN10@AtlThrowIm|
  00020		 |$LN6@AtlThrowIm|
  00020		 |$M64215|

			 ENDP  ; |?AtlThrowImpl@ATL@@YAXJ@Z|, ATL::AtlThrowImpl

	EXPORT	|?wcsstr@@YAPA_WPA_WPB_W@Z|		; wcsstr
	IMPORT	|wcsstr|
; File c:\program files (x86)\windows mobile 6 sdk\pocketpc\include\armv4i\wchar.h

  00000			 AREA	 |.pdata|, PDATA
|$T64231| DCD	|$LN5@wcsstr|
	DCD	0x40000100
; Function compile flags: /Ogspy

  00000			 AREA	 |.text|, CODE, ARM

  00000		 |?wcsstr@@YAPA_WPA_WPB_W@Z| PROC	; wcsstr
; Line 123
  00000		 |$LN5@wcsstr|
  00000		 |$M64228|
  00000	ea000000	 b           wcsstr
  00004		 |$M64229|

			 ENDP  ; |?wcsstr@@YAPA_WPA_WPB_W@Z|, wcsstr

	EXPORT	|?AtlCrtErrorCheck@ATL@@YAHH@Z|		; ATL::AtlCrtErrorCheck
; File c:\program files (x86)\microsoft visual studio 9.0\vc\ce\atlmfc\include\atlchecked.h

  00000			 AREA	 |.pdata|, PDATA
|$T64243| DCD	|$LN13@AtlCrtErro|
	DCD	0x40001501
; Function compile flags: /Ogspy

  00000			 AREA	 |.text|, CODE, ARM

  00000		 |?AtlCrtErrorCheck@ATL@@YAHH@Z| PROC	; ATL::AtlCrtErrorCheck
; Line 33
  00000		 |$LN13@AtlCrtErro|
  00000	e52de004	 str         lr, [sp, #-4]!
  00004		 |$M64240|
  00004	e3500000	 cmp         r0, #0
; Line 34
  00008	0a00000f	 beq         |$LN9@AtlCrtErro|
  0000c	e350000c	 cmp         r0, #0xC
  00010	0a00000a	 beq         |$LN4@AtlCrtErro|
  00014	e3500016	 cmp         r0, #0x16
  00018	0a000006	 beq         |$LN3@AtlCrtErro|
  0001c	e3500022	 cmp         r0, #0x22
  00020	0a000004	 beq         |$LN3@AtlCrtErro|
  00024	e3500050	 cmp         r0, #0x50
  00028	0a000007	 beq         |$LN9@AtlCrtErro|
  0002c	e3a03116	 mov         r3, #0x16, 2
; Line 47
  00030	e3830901	 orr         r0, r3, #1, 18	; 16384 (0x4000)
  00034	eb000000	 bl          |?AtlThrowImpl@ATL@@YAXJ@Z|
  00038		 |$LN14@AtlCrtErro|
  00038		 |$LN3@AtlCrtErro|
; Line 41
  00038	e59f0010	 ldr         r0, [pc, #0x10]	; -2147024809 (0x80070057)
  0003c	eb000000	 bl          |?AtlThrowImpl@ATL@@YAXJ@Z|
  00040		 |$LN15@AtlCrtErro|
  00040		 |$LN4@AtlCrtErro|
  00040	e3a0313a	 mov         r3, #0x3A, 2
  00044	e3830807	 orr         r0, r3, #7, 16	; 458752 (0x70000)
  00048	eb000000	 bl          |?AtlThrowImpl@ATL@@YAXJ@Z|
  0004c		 |$LN16@AtlCrtErro|
  0004c		 |$LN9@AtlCrtErro|
; Line 51
  0004c	e49df004	 ldr         pc, [sp], #4
  00050		 |$LN17@AtlCrtErro|
  00050		 |$LN18@AtlCrtErro|
  00050	80070057	 DCD         0x80070057
  00054		 |$LN10@AtlCrtErro|
  00054		 |$M64241|

			 ENDP  ; |?AtlCrtErrorCheck@ATL@@YAHH@Z|, ATL::AtlCrtErrorCheck

	EXPORT	|?memcpy_s@Checked@ATL@@YAXPAXIPBXI@Z|	; ATL::Checked::memcpy_s

  00000			 AREA	 |.pdata|, PDATA
|$T64259| DCD	|$LN5@memcpy_s|
	DCD	0x40000401
; Function compile flags: /Ogspy

  00000			 AREA	 |.text|, CODE, ARM

  00000		 |?memcpy_s@Checked@ATL@@YAXPAXIPBXI@Z| PROC ; ATL::Checked::memcpy_s
; Line 66
  00000		 |$LN5@memcpy_s|
  00000	e52de004	 str         lr, [sp, #-4]!
  00004		 |$M64256|
; Line 67
  00004	eb000000	 bl          memcpy_s
  00008	e49de004	 ldr         lr, [sp], #4
  0000c	ea000000	 b           |?AtlCrtErrorCheck@ATL@@YAHH@Z|
  00010		 |$M64257|

			 ENDP  ; |?memcpy_s@Checked@ATL@@YAXPAXIPBXI@Z|, ATL::Checked::memcpy_s

	EXPORT	|?wcscpy_s@Checked@ATL@@YAXPA_WIPB_W@Z|	; ATL::Checked::wcscpy_s
	IMPORT	|wcscpy_s|

  00000			 AREA	 |.pdata|, PDATA
|$T64269| DCD	|$LN5@wcscpy_s|
	DCD	0x40000401
; Function compile flags: /Ogspy

  00000			 AREA	 |.text|, CODE, ARM

  00000		 |?wcscpy_s@Checked@ATL@@YAXPA_WIPB_W@Z| PROC ; ATL::Checked::wcscpy_s
; Line 86
  00000		 |$LN5@wcscpy_s|
  00000	e52de004	 str         lr, [sp, #-4]!
  00004		 |$M64266|
; Line 87
  00004	eb000000	 bl          wcscpy_s
  00008	e49de004	 ldr         lr, [sp], #4
  0000c	ea000000	 b           |?AtlCrtErrorCheck@ATL@@YAHH@Z|
  00010		 |$M64267|

			 ENDP  ; |?wcscpy_s@Checked@ATL@@YAXPA_WIPB_W@Z|, ATL::Checked::wcscpy_s

	EXPORT	|?wcsncpy_s@Checked@ATL@@YAHPA_WIPB_WI@Z| ; ATL::Checked::wcsncpy_s
	IMPORT	|wcsncpy_s|

  00000			 AREA	 |.pdata|, PDATA
|$T64282| DCD	|$LN5@wcsncpy_s|
	DCD	0x40000401
; Function compile flags: /Ogspy

  00000			 AREA	 |.text|, CODE, ARM

  00000		 |?wcsncpy_s@Checked@ATL@@YAHPA_WIPB_WI@Z| PROC ; ATL::Checked::wcsncpy_s
; Line 101
  00000		 |$LN5@wcsncpy_s|
  00000	e52de004	 str         lr, [sp, #-4]!
  00004		 |$M64279|
; Line 102
  00004	eb000000	 bl          wcsncpy_s
  00008	e49de004	 ldr         lr, [sp], #4
  0000c	ea000000	 b           |?AtlCrtErrorCheck@ATL@@YAHH@Z|
  00010		 |$M64280|

			 ENDP  ; |?wcsncpy_s@Checked@ATL@@YAHPA_WIPB_WI@Z|, ATL::Checked::wcsncpy_s

	EXPORT	|?tcsncpy_s@Checked@ATL@@YAHPA_WIPB_WI@Z| ; ATL::Checked::tcsncpy_s

  00000			 AREA	 |.pdata|, PDATA
|$T64295| DCD	|$LN5@tcsncpy_s|
	DCD	0x40000401
; Function compile flags: /Ogspy

  00000			 AREA	 |.text|, CODE, ARM

  00000		 |?tcsncpy_s@Checked@ATL@@YAHPA_WIPB_WI@Z| PROC ; ATL::Checked::tcsncpy_s
; Line 106
  00000		 |$LN5@tcsncpy_s|
  00000	e52de004	 str         lr, [sp, #-4]!
  00004		 |$M64292|
; Line 107
  00004	eb000000	 bl          wcsncpy_s
  00008	e49de004	 ldr         lr, [sp], #4
  0000c	ea000000	 b           |?AtlCrtErrorCheck@ATL@@YAHH@Z|
  00010		 |$M64293|

			 ENDP  ; |?tcsncpy_s@Checked@ATL@@YAHPA_WIPB_WI@Z|, ATL::Checked::tcsncpy_s

	EXPORT	|??0CComCriticalSection@ATL@@QAA@XZ|	; ATL::CComCriticalSection::CComCriticalSection
	IMPORT	|memset|
; File c:\program files (x86)\microsoft visual studio 9.0\vc\ce\atlmfc\include\atlcore.h

  00000			 AREA	 |.pdata|, PDATA
|$T64306| DCD	|$LN5@CComCritic|
	DCD	0x40000701
; Function compile flags: /Ogspy

  00000			 AREA	 |.text|, CODE, ARM

  00000		 |??0CComCriticalSection@ATL@@QAA@XZ| PROC ; ATL::CComCriticalSection::CComCriticalSection
; Line 159
  00000		 |$LN5@CComCritic|
  00000	e92d4010	 stmdb       sp!, {r4, lr}
  00004		 |$M64303|
  00004	e1a04000	 mov         r4, r0
; Line 161
  00008	e3a02014	 mov         r2, #0x14
  0000c	e3a01000	 mov         r1, #0
  00010	eb000000	 bl          memset
; Line 162
  00014	e1a00004	 mov         r0, r4
  00018	e8bd8010	 ldmia       sp!, {r4, pc}
  0001c		 |$M64304|

			 ENDP  ; |??0CComCriticalSection@ATL@@QAA@XZ|, ATL::CComCriticalSection::CComCriticalSection

	EXPORT	|??1CComCriticalSection@ATL@@QAA@XZ|	; ATL::CComCriticalSection::~CComCriticalSection

  00000			 AREA	 |.pdata|, PDATA
|$T64313| DCD	|$LN5@CComCritic@2|
	DCD	0x40000100
; Function compile flags: /Ogspy

  00000			 AREA	 |.text|, CODE, ARM

  00000		 |??1CComCriticalSection@ATL@@QAA@XZ| PROC ; ATL::CComCriticalSection::~CComCriticalSection
; Line 164
  00000		 |$LN5@CComCritic@2|
  00000		 |$M64310|
; Line 165
  00000	e1a0f00e	 mov         pc, lr
  00004		 |$M64311|

			 ENDP  ; |??1CComCriticalSection@ATL@@QAA@XZ|, ATL::CComCriticalSection::~CComCriticalSection

	EXPORT	|?Lock@CComCriticalSection@ATL@@QAAJXZ|	; ATL::CComCriticalSection::Lock
	IMPORT	|EnterCriticalSection|

  00000			 AREA	 |.pdata|, PDATA
|$T64323| DCD	|$LN5@Lock|
	DCD	0x40000401
; Function compile flags: /Ogspy

  00000			 AREA	 |.text|, CODE, ARM

  00000		 |?Lock@CComCriticalSection@ATL@@QAAJXZ| PROC ; ATL::CComCriticalSection::Lock
; Line 167
  00000		 |$LN5@Lock|
  00000	e52de004	 str         lr, [sp, #-4]!
  00004		 |$M64320|
; Line 168
  00004	eb000000	 bl          EnterCriticalSection
; Line 169
  00008	e3a00000	 mov         r0, #0
; Line 170
  0000c	e49df004	 ldr         pc, [sp], #4
  00010		 |$M64321|

			 ENDP  ; |?Lock@CComCriticalSection@ATL@@QAAJXZ|, ATL::CComCriticalSection::Lock

	EXPORT	|?Unlock@CComCriticalSection@ATL@@QAAJXZ| ; ATL::CComCriticalSection::Unlock
	IMPORT	|LeaveCriticalSection|

  00000			 AREA	 |.pdata|, PDATA
|$T64333| DCD	|$LN5@Unlock|
	DCD	0x40000401
; Function compile flags: /Ogspy

  00000			 AREA	 |.text|, CODE, ARM

  00000		 |?Unlock@CComCriticalSection@ATL@@QAAJXZ| PROC ; ATL::CComCriticalSection::Unlock
; Line 172
  00000		 |$LN5@Unlock|
  00000	e52de004	 str         lr, [sp, #-4]!
  00004		 |$M64330|
; Line 173
  00004	eb000000	 bl          LeaveCriticalSection
; Line 174
  00008	e3a00000	 mov         r0, #0
; Line 175
  0000c	e49df004	 ldr         pc, [sp], #4
  00010		 |$M64331|

			 ENDP  ; |?Unlock@CComCriticalSection@ATL@@QAAJXZ|, ATL::CComCriticalSection::Unlock

	EXPORT	|?Init@CComCriticalSection@ATL@@QAAJXZ|	; ATL::CComCriticalSection::Init
	IMPORT	|InitializeCriticalSection|
	IMPORT	|__C_specific_handler|

  00000			 AREA	 |.pdata|, PDATA
|$T64361| DCD	|$LN19@Init|
	DCD	0xc0000f04

  00000			 AREA	 |.pdata|, PDATA
|$T64363| DCD	|$LN7@Init|
	DCD	0x40000701

  00000			 AREA	 |.xdata|, DATA
|$T64359| DCD	0x1
	DCD	|$LN11@Init|
	DCD	|$LN12@Init|
	DCD	|$LN7@Init|
	DCD	|$LN8@Init|
; Function compile flags: /Ogspy

  00000			 AREA	 |.text|, CODE, ARM

  00000	00000000	 DCD         |__C_specific_handler|
  00004	00000000	 DCD         |$T64359|

  00008		 |?Init@CComCriticalSection@ATL@@QAAJXZ| PROC ; ATL::CComCriticalSection::Init
; Line 177
  00008		 |$LN19@Init|
  00008	e1a0c00d	 mov         r12, sp
  0000c	e92d5800	 stmdb       sp!, {r11, r12, lr}
  00010	e28db00c	 add         r11, sp, #0xC
  00014	e24dd008	 sub         sp, sp, #8
  00018		 |$LN17@Init|
  00018		 |$LN11@Init|
; Line 181
  00018	eb000000	 bl          InitializeCriticalSection
; Line 182
  0001c	e3a00000	 mov         r0, #0
  00020	e50b0014	 str         r0, [r11, #-0x14]
  00024		 |$LN12@Init|
; Line 183
  00024	ea000004	 b           |$LN2@Init|
  00028		 |$LN8@Init|
; Line 185
  00028	e3a0313a	 mov         r3, #0x3A, 2
; Line 187
  0002c	e3830807	 orr         r0, r3, #7, 16	; 458752 (0x70000)
  00030	e50b0014	 str         r0, [r11, #-0x14]
  00034	ea000000	 b           |$LN2@Init|
  00038		 |$LN16@Init|
; Line 189
  00038	e51b0010	 ldr         r0, [r11, #-0x10]
  0003c		 |$LN2@Init|
; Line 190
  0003c	e24bd00c	 sub         sp, r11, #0xC
  00040	e89da800	 ldmia       sp, {r11, sp, pc}

			 ENDP  ; |?Init@CComCriticalSection@ATL@@QAAJXZ|, ATL::CComCriticalSection::Init

  00044		 |$LN7@Init|
  00044		 |$LN18@Init|
; Line 185
  00044	e52de004	 str         lr, [sp, #-4]!
  00048		 |$LN10@Init|
  00048		 |$LN21@Init|
  00048	e5903000	 ldr         r3, [r0]
  0004c	e5933000	 ldr         r3, [r3]
  00050	e353015f	 cmp         r3, #0x5F, 2	; -1073741801 (0xc0000017)
  00054	03a00001	 moveq       r0, #1
  00058	13a00000	 movne       r0, #0
  0005c		 |$LN9@Init|
  0005c	e49df004	 ldr         pc, [sp], #4
  00060		 |$LN22@Init|
  00060		 |$LN20@Init|
	EXPORT	|?Term@CComCriticalSection@ATL@@QAAJXZ|	; ATL::CComCriticalSection::Term
	IMPORT	|DeleteCriticalSection|

  00000			 AREA	 |.pdata|, PDATA
|$T64377| DCD	|$LN5@Term|
	DCD	0x40000401
; Function compile flags: /Ogspy

  00000			 AREA	 |.text|, CODE, ARM

  00000		 |?Term@CComCriticalSection@ATL@@QAAJXZ| PROC ; ATL::CComCriticalSection::Term
; Line 193
  00000		 |$LN5@Term|
  00000	e52de004	 str         lr, [sp, #-4]!
  00004		 |$M64374|
; Line 194
  00004	eb000000	 bl          DeleteCriticalSection
; Line 195
  00008	e3a00000	 mov         r0, #0
; Line 196
  0000c	e49df004	 ldr         pc, [sp], #4
  00010		 |$M64375|

			 ENDP  ; |?Term@CComCriticalSection@ATL@@QAAJXZ|, ATL::CComCriticalSection::Term

	EXPORT	|??0CComSafeDeleteCriticalSection@ATL@@QAA@XZ| ; ATL::CComSafeDeleteCriticalSection::CComSafeDeleteCriticalSection

  00000			 AREA	 |.pdata|, PDATA
|$T64390| DCD	|$LN7@CComSafeDe|
	DCD	0x40000901
; Function compile flags: /Ogspy

  00000			 AREA	 |.text|, CODE, ARM

  00000		 |??0CComSafeDeleteCriticalSection@ATL@@QAA@XZ| PROC ; ATL::CComSafeDeleteCriticalSection::CComSafeDeleteCriticalSection
; Line 222
  00000		 |$LN7@CComSafeDe|
  00000	e92d4010	 stmdb       sp!, {r4, lr}
  00004		 |$M64387|
  00004	e1a04000	 mov         r4, r0
  00008	e3a02014	 mov         r2, #0x14
  0000c	e3a01000	 mov         r1, #0
  00010	eb000000	 bl          memset
  00014	e3a03000	 mov         r3, #0
  00018	e5c43014	 strb        r3, [r4, #0x14]
; Line 223
  0001c	e1a00004	 mov         r0, r4
  00020	e8bd8010	 ldmia       sp!, {r4, pc}
  00024		 |$M64388|

			 ENDP  ; |??0CComSafeDeleteCriticalSection@ATL@@QAA@XZ|, ATL::CComSafeDeleteCriticalSection::CComSafeDeleteCriticalSection

	EXPORT	|??1CComSafeDeleteCriticalSection@ATL@@QAA@XZ| ; ATL::CComSafeDeleteCriticalSection::~CComSafeDeleteCriticalSection

  00000			 AREA	 |.pdata|, PDATA
|$T64404| DCD	|$LN10@CComSafeDe@2|
	DCD	0x40000701
; Function compile flags: /Ogspy

  00000			 AREA	 |.text|, CODE, ARM

  00000		 |??1CComSafeDeleteCriticalSection@ATL@@QAA@XZ| PROC ; ATL::CComSafeDeleteCriticalSection::~CComSafeDeleteCriticalSection
; Line 226
  00000		 |$LN10@CComSafeDe@2|
  00000	e52de004	 str         lr, [sp, #-4]!
  00004		 |$M64401|
; Line 227
  00004	e5d03014	 ldrb        r3, [r0, #0x14]
  00008	e3530000	 cmp         r3, #0
; Line 231
  0000c	13a03000	 movne       r3, #0
  00010	15c03014	 strneb      r3, [r0, #0x14]
; Line 232
  00014	1b000000	 blne        DeleteCriticalSection
; Line 233
  00018	e49df004	 ldr         pc, [sp], #4
  0001c		 |$M64402|

			 ENDP  ; |??1CComSafeDeleteCriticalSection@ATL@@QAA@XZ|, ATL::CComSafeDeleteCriticalSection::~CComSafeDeleteCriticalSection

	EXPORT	|?Init@CComSafeDeleteCriticalSection@ATL@@QAAJXZ| ; ATL::CComSafeDeleteCriticalSection::Init

  00000			 AREA	 |.pdata|, PDATA
|$T64415| DCD	|$LN6@Init@2|
	DCD	0x40000701
; Function compile flags: /Ogspy

  00000			 AREA	 |.text|, CODE, ARM

  00000		 |?Init@CComSafeDeleteCriticalSection@ATL@@QAAJXZ| PROC ; ATL::CComSafeDeleteCriticalSection::Init
; Line 236
  00000		 |$LN6@Init@2|
  00000	e92d4010	 stmdb       sp!, {r4, lr}
  00004		 |$M64412|
  00004	e1a04000	 mov         r4, r0
; Line 238
  00008	eb000000	 bl          |?Init@CComCriticalSection@ATL@@QAAJXZ|
  0000c	e3500000	 cmp         r0, #0
; Line 241
  00010	53a03001	 movpl       r3, #1
  00014	55c43014	 strplb      r3, [r4, #0x14]
; Line 244
  00018	e8bd8010	 ldmia       sp!, {r4, pc}
  0001c		 |$M64413|

			 ENDP  ; |?Init@CComSafeDeleteCriticalSection@ATL@@QAAJXZ|, ATL::CComSafeDeleteCriticalSection::Init

	EXPORT	|?Lock@CComSafeDeleteCriticalSection@ATL@@QAAJXZ| ; ATL::CComSafeDeleteCriticalSection::Lock

  00000			 AREA	 |.pdata|, PDATA
|$T64428| DCD	|$LN10@Lock@2|
	DCD	0x40000401
; Function compile flags: /Ogspy

  00000			 AREA	 |.text|, CODE, ARM

  00000		 |?Lock@CComSafeDeleteCriticalSection@ATL@@QAAJXZ| PROC ; ATL::CComSafeDeleteCriticalSection::Lock
; Line 257
  00000		 |$LN10@Lock@2|
  00000	e52de004	 str         lr, [sp, #-4]!
  00004		 |$M64425|
; Line 264
  00004	eb000000	 bl          EnterCriticalSection
  00008	e3a00000	 mov         r0, #0
; Line 265
  0000c	e49df004	 ldr         pc, [sp], #4
  00010		 |$M64426|

			 ENDP  ; |?Lock@CComSafeDeleteCriticalSection@ATL@@QAAJXZ|, ATL::CComSafeDeleteCriticalSection::Lock

	EXPORT	|?GetModuleInstance@CAtlBaseModule@ATL@@QAAPAUHINSTANCE__@@XZ| ; ATL::CAtlBaseModule::GetModuleInstance

  00000			 AREA	 |.pdata|, PDATA
|$T64438| DCD	|$LN5@GetModuleI|
	DCD	0x40000200
; Function compile flags: /Ogspy

  00000			 AREA	 |.text|, CODE, ARM

  00000		 |?GetModuleInstance@CAtlBaseModule@ATL@@QAAPAUHINSTANCE__@@XZ| PROC ; ATL::CAtlBaseModule::GetModuleInstance
; Line 311
  00000		 |$LN5@GetModuleI|
  00000		 |$M64435|
; Line 312
  00000	e5900004	 ldr         r0, [r0, #4]
; Line 313
  00004	e1a0f00e	 mov         pc, lr
  00008		 |$M64436|

			 ENDP  ; |?GetModuleInstance@CAtlBaseModule@ATL@@QAAPAUHINSTANCE__@@XZ|, ATL::CAtlBaseModule::GetModuleInstance

	EXPORT	|?AtlHresultFromLastError@ATL@@YAJXZ|	; ATL::AtlHresultFromLastError
	IMPORT	|GetLastError|
; File c:\program files (x86)\microsoft visual studio 9.0\vc\ce\atlmfc\include\atlcomcli.h

  00000			 AREA	 |.pdata|, PDATA
|$T64450| DCD	|$LN7@AtlHresult|
	DCD	0x40000a01
; Function compile flags: /Ogspy

  00000			 AREA	 |.text|, CODE, ARM

  00000		 |?AtlHresultFromLastError@ATL@@YAJXZ| PROC ; ATL::AtlHresultFromLastError
; Line 32
  00000		 |$LN7@AtlHresult|
  00000	e52de004	 str         lr, [sp, #-4]!
  00004		 |$M64447|
; Line 33
  00004	eb000000	 bl          GetLastError
; Line 34
  00008	e3500000	 cmp         r0, #0
  0000c	c3a03cff	 movgt       r3, #0xFF, 24
  00010	c38330ff	 orrgt       r3, r3, #0xFF
  00014	c3a01102	 movgt       r1, #2, 2
  00018	c0002003	 andgt       r2, r0, r3
  0001c	c3813807	 orrgt       r3, r1, #7, 16	; 458752 (0x70000)
  00020	c1820003	 orrgt       r0, r2, r3
; Line 35
  00024	e49df004	 ldr         pc, [sp], #4
  00028		 |$M64448|

			 ENDP  ; |?AtlHresultFromLastError@ATL@@YAJXZ|, ATL::AtlHresultFromLastError

	EXPORT	|?AtlHresultFromWin32@ATL@@YAJK@Z|	; ATL::AtlHresultFromWin32

  00000			 AREA	 |.pdata|, PDATA
|$T64462| DCD	|$LN7@AtlHresult@2|
	DCD	0x40000800
; Function compile flags: /Ogspy

  00000			 AREA	 |.text|, CODE, ARM

  00000		 |?AtlHresultFromWin32@ATL@@YAJK@Z| PROC ; ATL::AtlHresultFromWin32
; Line 38
  00000		 |$LN7@AtlHresult@2|
  00000		 |$M64459|
; Line 39
  00000	e3500000	 cmp         r0, #0
  00004	c3a03cff	 movgt       r3, #0xFF, 24
  00008	c38330ff	 orrgt       r3, r3, #0xFF
  0000c	c3a01102	 movgt       r1, #2, 2
  00010	c0002003	 andgt       r2, r0, r3
  00014	c3813807	 orrgt       r3, r1, #7, 16	; 458752 (0x70000)
  00018	c1820003	 orrgt       r0, r2, r3
; Line 40
  0001c	e1a0f00e	 mov         pc, lr
  00020		 |$M64460|

			 ENDP  ; |?AtlHresultFromWin32@ATL@@YAJK@Z|, ATL::AtlHresultFromWin32

	EXPORT	|??0CComBSTR@ATL@@QAA@XZ|		; ATL::CComBSTR::CComBSTR

  00000			 AREA	 |.pdata|, PDATA
|$T64472| DCD	|$LN5@CComBSTR|
	DCD	0x40000300
; Function compile flags: /Ogspy

  00000			 AREA	 |.text|, CODE, ARM

  00000		 |??0CComBSTR@ATL@@QAA@XZ| PROC		; ATL::CComBSTR::CComBSTR
; Line 591
  00000		 |$LN5@CComBSTR|
  00000		 |$M64469|
; Line 593
  00000	e3a03000	 mov         r3, #0
  00004	e5803000	 str         r3, [r0]
; Line 594
  00008	e1a0f00e	 mov         pc, lr
  0000c		 |$M64470|

			 ENDP  ; |??0CComBSTR@ATL@@QAA@XZ|, ATL::CComBSTR::CComBSTR

	EXPORT	|?Length@CComBSTR@ATL@@QBAIXZ|		; ATL::CComBSTR::Length
	IMPORT	|SysStringLen|

  00000			 AREA	 |.pdata|, PDATA
|$T64482| DCD	|$LN5@Length|
	DCD	0x40000200
; Function compile flags: /Ogspy

  00000			 AREA	 |.text|, CODE, ARM

  00000		 |?Length@CComBSTR@ATL@@QBAIXZ| PROC	; ATL::CComBSTR::Length
; Line 700
  00000		 |$LN5@Length|
  00000		 |$M64479|
; Line 701
  00000	e5900000	 ldr         r0, [r0]
  00004	ea000000	 b           SysStringLen
  00008		 |$M64480|

			 ENDP  ; |?Length@CComBSTR@ATL@@QBAIXZ|, ATL::CComBSTR::Length

	EXPORT	|??BCComBSTR@ATL@@QBAPA_WXZ|		; ATL::CComBSTR::operator wchar_t *

  00000			 AREA	 |.pdata|, PDATA
|$T64492| DCD	|$LN5@operator|
	DCD	0x40000200
; Function compile flags: /Ogspy

  00000			 AREA	 |.text|, CODE, ARM

  00000		 |??BCComBSTR@ATL@@QBAPA_WXZ| PROC	; ATL::CComBSTR::operator wchar_t *
; Line 710
  00000		 |$LN5@operator|
  00000		 |$M64489|
; Line 711
  00000	e5900000	 ldr         r0, [r0]
; Line 712
  00004	e1a0f00e	 mov         pc, lr
  00008		 |$M64490|

			 ENDP  ; |??BCComBSTR@ATL@@QBAPA_WXZ|, ATL::CComBSTR::operator wchar_t *

	EXPORT	|??ICComBSTR@ATL@@QAAPAPA_WXZ|		; ATL::CComBSTR::operator&

  00000			 AREA	 |.pdata|, PDATA
|$T64502| DCD	|$LN5@operator@2|
	DCD	0x40000100
; Function compile flags: /Ogspy

  00000			 AREA	 |.text|, CODE, ARM

  00000		 |??ICComBSTR@ATL@@QAAPAPA_WXZ| PROC	; ATL::CComBSTR::operator&
; Line 722
  00000		 |$LN5@operator@2|
  00000		 |$M64499|
; Line 733
  00000	e1a0f00e	 mov         pc, lr
  00004		 |$M64500|

			 ENDP  ; |??ICComBSTR@ATL@@QAAPAPA_WXZ|, ATL::CComBSTR::operator&

	EXPORT	|??7CComBSTR@ATL@@QBA_NXZ|		; ATL::CComBSTR::operator!

  00000			 AREA	 |.pdata|, PDATA
|$T64514| DCD	|$LN7@operator@3|
	DCD	0x40000700
; Function compile flags: /Ogspy

  00000			 AREA	 |.text|, CODE, ARM

  00000		 |??7CComBSTR@ATL@@QBA_NXZ| PROC	; ATL::CComBSTR::operator!
; Line 822
  00000		 |$LN7@operator@3|
  00000		 |$M64511|
; Line 827
  00000	e5903000	 ldr         r3, [r0]
  00004	e3530000	 cmp         r3, #0
  00008	03a03001	 moveq       r3, #1
  0000c	020300ff	 andeq       r0, r3, #0xFF
  00010	13a03000	 movne       r3, #0
  00014	120300ff	 andne       r0, r3, #0xFF
; Line 830
  00018	e1a0f00e	 mov         pc, lr
  0001c		 |$M64512|

			 ENDP  ; |??7CComBSTR@ATL@@QBA_NXZ|, ATL::CComBSTR::operator!

	EXPORT	|??8CComBSTR@ATL@@QBA_NH@Z|		; ATL::CComBSTR::operator==

  00000			 AREA	 |.pdata|, PDATA
|$T64531| DCD	|$LN9@operator@4|
	DCD	0x40000700
; Function compile flags: /Ogspy

  00000			 AREA	 |.text|, CODE, ARM

  00000		 |??8CComBSTR@ATL@@QBA_NH@Z| PROC	; ATL::CComBSTR::operator==
; Line 1161
  00000		 |$LN9@operator@4|
  00000		 |$M64528|
; Line 1164
  00000	e5903000	 ldr         r3, [r0]
  00004	e3530000	 cmp         r3, #0
  00008	03a03001	 moveq       r3, #1
  0000c	020300ff	 andeq       r0, r3, #0xFF
  00010	13a03000	 movne       r3, #0
  00014	120300ff	 andne       r0, r3, #0xFF
; Line 1165
  00018	e1a0f00e	 mov         pc, lr
  0001c		 |$M64529|

			 ENDP  ; |??8CComBSTR@ATL@@QBA_NH@Z|, ATL::CComBSTR::operator==

	EXPORT	|??1CComBSTR@ATL@@QAA@XZ|		; ATL::CComBSTR::~CComBSTR
	IMPORT	|SysFreeString|

  00000			 AREA	 |.pdata|, PDATA
|$T64539| DCD	|$LN5@CComBSTR@2|
	DCD	0x40000200
; Function compile flags: /Ogspy

  00000			 AREA	 |.text|, CODE, ARM

  00000		 |??1CComBSTR@ATL@@QAA@XZ| PROC		; ATL::CComBSTR::~CComBSTR
; Line 1454
  00000		 |$LN5@CComBSTR@2|
  00000		 |$M64536|
; Line 1455
  00000	e5900000	 ldr         r0, [r0]
  00004	ea000000	 b           SysFreeString
  00008		 |$M64537|

			 ENDP  ; |??1CComBSTR@ATL@@QAA@XZ|, ATL::CComBSTR::~CComBSTR

	EXPORT	|?ExecuteObjectMain@CAtlComModule@ATL@@QAAX_N@Z| ; ATL::CAtlComModule::ExecuteObjectMain
; File c:\program files (x86)\microsoft visual studio 9.0\vc\ce\atlmfc\include\atlbase.h

  00000			 AREA	 |.pdata|, PDATA
|$T64553| DCD	|$LN13@ExecuteObj|
	DCD	0x40000f01
; Function compile flags: /Ogspy

  00000			 AREA	 |.text|, CODE, ARM

  00000		 |?ExecuteObjectMain@CAtlComModule@ATL@@QAAX_N@Z| PROC ; ATL::CAtlComModule::ExecuteObjectMain
; Line 2442
  00000		 |$LN13@ExecuteObj|
  00000	e92d4070	 stmdb       sp!, {r4 - r6, lr}
  00004		 |$M64550|
  00004	e1a06001	 mov         r6, r1
  00008	e1a05000	 mov         r5, r0
; Line 2443
  0000c	e5954008	 ldr         r4, [r5, #8]
  00010	ea000005	 b           |$LN10@ExecuteObj|
  00014		 |$LL4@ExecuteObj|
; Line 2445
  00014	e5943000	 ldr         r3, [r4]
  00018	e3530000	 cmp         r3, #0
; Line 2446
  0001c	11a00006	 movne       r0, r6
  00020	11a0e00f	 movne       lr, pc
  00024	1593f01c	 ldrne       pc, [r3, #0x1C]
  00028	e2844004	 add         r4, r4, #4
  0002c		 |$LN10@ExecuteObj|
  0002c	e595300c	 ldr         r3, [r5, #0xC]
  00030	e1540003	 cmp         r4, r3
  00034	3afffff6	 bcc         |$LL4@ExecuteObj|
; Line 2448
  00038	e8bd8070	 ldmia       sp!, {r4 - r6, pc}
  0003c		 |$M64551|

			 ENDP  ; |?ExecuteObjectMain@CAtlComModule@ATL@@QAAX_N@Z|, ATL::CAtlComModule::ExecuteObjectMain

	EXPORT	|?EscapeSingleQuote@CAtlModule@ATL@@SAXPA_WIPB_W@Z| ; ATL::CAtlModule::EscapeSingleQuote

  00000			 AREA	 |.pdata|, PDATA
|$T64567| DCD	|$LN13@EscapeSing|
	DCD	0x40001701
; Function compile flags: /Ogspy

  00000			 AREA	 |.text|, CODE, ARM

  00000		 |?EscapeSingleQuote@CAtlModule@ATL@@SAXPA_WIPB_W@Z| PROC ; ATL::CAtlModule::EscapeSingleQuote
; Line 2909
  00000		 |$LN13@EscapeSing|
  00000	e52de004	 str         lr, [sp, #-4]!
  00004		 |$M64564|
  00004	e3510000	 cmp         r1, #0
; Line 2910
  00008	0a000012	 beq         |$LN6@EscapeSing|
; Line 2916
  0000c	e3a03000	 mov         r3, #0
  00010	e251e001	 subs        lr, r1, #1
  00014	0a00000d	 beq         |$LN10@EscapeSing|
  00018		 |$LL4@EscapeSing|
  00018	e1d210b0	 ldrh        r1, [r2]
  0001c	e3510000	 cmp         r1, #0
  00020	0a00000a	 beq         |$LN10@EscapeSing|
; Line 2918
  00024	e0c010b2	 strh        r1, [r0], #2
; Line 2920
  00028	e1d210b0	 ldrh        r1, [r2]
  0002c	e3510027	 cmp         r1, #0x27
  00030	1a000002	 bne         |$LN1@EscapeSing|
  00034	e2833001	 add         r3, r3, #1
  00038	e153000e	 cmp         r3, lr
; Line 2921
  0003c	30c010b2	 strcch      r1, [r0], #2
  00040		 |$LN1@EscapeSing|
  00040	e2833001	 add         r3, r3, #1
  00044	e153000e	 cmp         r3, lr
; Line 2922
  00048	e2822002	 add         r2, r2, #2
  0004c	3afffff1	 bcc         |$LL4@EscapeSing|
  00050		 |$LN10@EscapeSing|
; Line 2924
  00050	e3a03000	 mov         r3, #0
  00054	e1c030b0	 strh        r3, [r0]
  00058		 |$LN6@EscapeSing|
; Line 2925
  00058	e49df004	 ldr         pc, [sp], #4
  0005c		 |$M64565|

			 ENDP  ; |?EscapeSingleQuote@CAtlModule@ATL@@SAXPA_WIPB_W@Z|, ATL::CAtlModule::EscapeSingleQuote

	EXPORT	|??0_ATL_MODULE70@ATL@@QAA@XZ|		; ATL::_ATL_MODULE70::_ATL_MODULE70

  00000			 AREA	 |.pdata|, PDATA
|$T64581| DCD	|$LN7@ATL_MODULE|
	DCD	0x40000801
; Function compile flags: /Ogspy

  00000			 AREA	 |.text|, CODE, ARM

  00000		 |??0_ATL_MODULE70@ATL@@QAA@XZ| PROC	; ATL::_ATL_MODULE70::_ATL_MODULE70
  00000		 |$LN7@ATL_MODULE|
  00000	e92d4010	 stmdb       sp!, {r4, lr}
  00004		 |$M64578|
  00004	e1a04000	 mov         r4, r0
  00008	e3a02014	 mov         r2, #0x14
  0000c	e3a01000	 mov         r1, #0
  00010	e284000c	 add         r0, r4, #0xC
  00014	eb000000	 bl          memset
  00018	e1a00004	 mov         r0, r4
  0001c	e8bd8010	 ldmia       sp!, {r4, pc}
  00020		 |$M64579|

			 ENDP  ; |??0_ATL_MODULE70@ATL@@QAA@XZ|, ATL::_ATL_MODULE70::_ATL_MODULE70

	EXPORT	|??1_ATL_MODULE70@ATL@@QAA@XZ|		; ATL::_ATL_MODULE70::~_ATL_MODULE70

  00000			 AREA	 |.pdata|, PDATA
|$T64591| DCD	|$LN7@ATL_MODULE@2|
	DCD	0x40000100
; Function compile flags: /Ogspy

  00000			 AREA	 |.text|, CODE, ARM

  00000		 |??1_ATL_MODULE70@ATL@@QAA@XZ| PROC	; ATL::_ATL_MODULE70::~_ATL_MODULE70
  00000		 |$LN7@ATL_MODULE@2|
  00000		 |$M64588|
  00000	e1a0f00e	 mov         pc, lr
  00004		 |$M64589|

			 ENDP  ; |??1_ATL_MODULE70@ATL@@QAA@XZ|, ATL::_ATL_MODULE70::~_ATL_MODULE70

	EXPORT	|??0CRegKey@ATL@@QAA@XZ|		; ATL::CRegKey::CRegKey

  00000			 AREA	 |.pdata|, PDATA
|$T64601| DCD	|$LN5@CRegKey|
	DCD	0x40000300
; Function compile flags: /Ogspy

  00000			 AREA	 |.text|, CODE, ARM

  00000		 |??0CRegKey@ATL@@QAA@XZ| PROC		; ATL::CRegKey::CRegKey
; Line 5281
  00000		 |$LN5@CRegKey|
  00000		 |$M64598|
  00000	e3a03000	 mov         r3, #0
  00004	e5803000	 str         r3, [r0]
; Line 5282
  00008	e1a0f00e	 mov         pc, lr
  0000c		 |$M64599|

			 ENDP  ; |??0CRegKey@ATL@@QAA@XZ|, ATL::CRegKey::CRegKey

	EXPORT	|??BCRegKey@ATL@@QBAPAUHKEY__@@XZ|	; ATL::CRegKey::operator HKEY__ *

  00000			 AREA	 |.pdata|, PDATA
|$T64611| DCD	|$LN5@operator@5|
	DCD	0x40000200
; Function compile flags: /Ogspy

  00000			 AREA	 |.text|, CODE, ARM

  00000		 |??BCRegKey@ATL@@QBAPAUHKEY__@@XZ| PROC ; ATL::CRegKey::operator HKEY__ *
; Line 5318
  00000		 |$LN5@operator@5|
  00000		 |$M64608|
  00000	e5900000	 ldr         r0, [r0]
  00004	e1a0f00e	 mov         pc, lr
  00008		 |$M64609|

			 ENDP  ; |??BCRegKey@ATL@@QBAPAUHKEY__@@XZ|, ATL::CRegKey::operator HKEY__ *

	EXPORT	|?Detach@CRegKey@ATL@@QAAPAUHKEY__@@XZ|	; ATL::CRegKey::Detach

  00000			 AREA	 |.pdata|, PDATA
|$T64622| DCD	|$LN5@Detach|
	DCD	0x40000500
; Function compile flags: /Ogspy

  00000			 AREA	 |.text|, CODE, ARM

  00000		 |?Detach@CRegKey@ATL@@QAAPAUHKEY__@@XZ| PROC ; ATL::CRegKey::Detach
; Line 5321
  00000		 |$LN5@Detach|
  00000		 |$M64619|
  00000	e1a03000	 mov         r3, r0
; Line 5323
  00004	e5930000	 ldr         r0, [r3]
  00008	e3a02000	 mov         r2, #0
  0000c	e5832000	 str         r2, [r3]
; Line 5328
  00010	e1a0f00e	 mov         pc, lr
  00014		 |$M64620|

			 ENDP  ; |?Detach@CRegKey@ATL@@QAAPAUHKEY__@@XZ|, ATL::CRegKey::Detach

	EXPORT	|?Attach@CRegKey@ATL@@QAAXPAUHKEY__@@@Z| ; ATL::CRegKey::Attach

  00000			 AREA	 |.pdata|, PDATA
|$T64631| DCD	|$LN8@Attach|
	DCD	0x40000200
; Function compile flags: /Ogspy

  00000			 AREA	 |.text|, CODE, ARM

  00000		 |?Attach@CRegKey@ATL@@QAAXPAUHKEY__@@@Z| PROC ; ATL::CRegKey::Attach
; Line 5331
  00000		 |$LN8@Attach|
  00000		 |$M64628|
; Line 5333
  00000	e5801000	 str         r1, [r0]
; Line 5337
  00004	e1a0f00e	 mov         pc, lr
  00008		 |$M64629|

			 ENDP  ; |?Attach@CRegKey@ATL@@QAAXPAUHKEY__@@@Z|, ATL::CRegKey::Attach

	EXPORT	|?DeleteSubKey@CRegKey@ATL@@QAAJPB_W@Z|	; ATL::CRegKey::DeleteSubKey
	IMPORT	|RegDeleteKeyW|

  00000			 AREA	 |.pdata|, PDATA
|$T64642| DCD	|$LN8@DeleteSubK|
	DCD	0x40000200
; Function compile flags: /Ogspy

  00000			 AREA	 |.text|, CODE, ARM

  00000		 |?DeleteSubKey@CRegKey@ATL@@QAAJPB_W@Z| PROC ; ATL::CRegKey::DeleteSubKey
; Line 5340
  00000		 |$LN8@DeleteSubK|
  00000		 |$M64639|
; Line 5370
  00000	e5900000	 ldr         r0, [r0]
  00004	ea000000	 b           RegDeleteKeyW
  00008		 |$M64640|

			 ENDP  ; |?DeleteSubKey@CRegKey@ATL@@QAAJPB_W@Z|, ATL::CRegKey::DeleteSubKey

	EXPORT	|?DeleteValue@CRegKey@ATL@@QAAJPB_W@Z|	; ATL::CRegKey::DeleteValue
	IMPORT	|RegDeleteValueW|

  00000			 AREA	 |.pdata|, PDATA
|$T64653| DCD	|$LN8@DeleteValu|
	DCD	0x40000200
; Function compile flags: /Ogspy

  00000			 AREA	 |.text|, CODE, ARM

  00000		 |?DeleteValue@CRegKey@ATL@@QAAJPB_W@Z| PROC ; ATL::CRegKey::DeleteValue
; Line 5374
  00000		 |$LN8@DeleteValu|
  00000		 |$M64650|
; Line 5376
  00000	e5900000	 ldr         r0, [r0]
  00004	ea000000	 b           RegDeleteValueW
  00008		 |$M64651|

			 ENDP  ; |?DeleteValue@CRegKey@ATL@@QAAJPB_W@Z|, ATL::CRegKey::DeleteValue

	EXPORT	|?Close@CRegKey@ATL@@QAAJXZ|		; ATL::CRegKey::Close
	IMPORT	|RegCloseKey|

  00000			 AREA	 |.pdata|, PDATA
|$T64664| DCD	|$LN6@Close|
	DCD	0x40000b01
; Function compile flags: /Ogspy

  00000			 AREA	 |.text|, CODE, ARM

  00000		 |?Close@CRegKey@ATL@@QAAJXZ| PROC	; ATL::CRegKey::Close
; Line 5380
  00000		 |$LN6@Close|
  00000	e92d4010	 stmdb       sp!, {r4, lr}
  00004		 |$M64661|
  00004	e1a04000	 mov         r4, r0
; Line 5382
  00008	e5943000	 ldr         r3, [r4]
  0000c	e3a00000	 mov         r0, #0
  00010	e3530000	 cmp         r3, #0
  00014	0a000003	 beq         |$LN1@Close|
; Line 5384
  00018	e1a00003	 mov         r0, r3
  0001c	eb000000	 bl          RegCloseKey
; Line 5385
  00020	e3a03000	 mov         r3, #0
  00024	e5843000	 str         r3, [r4]
  00028		 |$LN1@Close|
; Line 5391
  00028	e8bd8010	 ldmia       sp!, {r4, pc}
  0002c		 |$M64662|

			 ENDP  ; |?Close@CRegKey@ATL@@QAAJXZ|, ATL::CRegKey::Close

	EXPORT	|?Create@CRegKey@ATL@@QAAJPAUHKEY__@@PB_WPA_WKKPAU_SECURITY_ATTRIBUTES@@PAK@Z| ; ATL::CRegKey::Create
	IMPORT	|RegCreateKeyExW|

  00000			 AREA	 |.pdata|, PDATA
|$T64685| DCD	|$LN10@Create|
	DCD	0x40002702
; Function compile flags: /Ogspy

  00000			 AREA	 |.text|, CODE, ARM

  00000		 |?Create@CRegKey@ATL@@QAAJPAUHKEY__@@PB_WPA_WKKPAU_SECURITY_ATTRIBUTES@@PAK@Z| PROC ; ATL::CRegKey::Create
; Line 5426
  00000		 |$LN10@Create|
  00000	e92d4ff0	 stmdb       sp!, {r4 - r11, lr}
  00004	e24dd01c	 sub         sp, sp, #0x1C
  00008		 |$M64682|
  00008	e1a08002	 mov         r8, r2
  0000c	e1a09001	 mov         r9, r1
  00010	e1a0a000	 mov         r10, r0
; Line 5431
  00014	e59de048	 ldr         lr, [sp, #0x48]
  00018	e59d4044	 ldr         r4, [sp, #0x44]
  0001c	e59d5040	 ldr         r5, [sp, #0x40]
  00020	e3a0b000	 mov         r11, #0
  00024	e28d6018	 add         r6, sp, #0x18
  00028	e28d7014	 add         r7, sp, #0x14
  0002c	e3a02000	 mov         r2, #0
  00030	e1a01008	 mov         r1, r8
  00034	e1a00009	 mov         r0, r9
  00038	e58de008	 str         lr, [sp, #8]
  0003c	e58d4004	 str         r4, [sp, #4]
  00040	e58d5000	 str         r5, [sp]
  00044	e58db014	 str         r11, [sp, #0x14]
  00048	e58d6010	 str         r6, [sp, #0x10]
  0004c	e58d700c	 str         r7, [sp, #0xC]
  00050	eb000000	 bl          RegCreateKeyExW
; Line 5432
  00054	e59d204c	 ldr         r2, [sp, #0x4C]
  00058	e3520000	 cmp         r2, #0
; Line 5433
  0005c	159d3018	 ldrne       r3, [sp, #0x18]
  00060	15823000	 strne       r3, [r2]
; Line 5434
  00064	e3500000	 cmp         r0, #0
  00068	1a000009	 bne         |$LN1@Create|
; Line 5436
  0006c	e59a3000	 ldr         r3, [r10]
  00070	e3a00000	 mov         r0, #0
  00074	e3530000	 cmp         r3, #0
  00078	0a000003	 beq         |$LN5@Create|
  0007c	e1a00003	 mov         r0, r3
  00080	eb000000	 bl          RegCloseKey
  00084	e3a03000	 mov         r3, #0
  00088	e58a3000	 str         r3, [r10]
  0008c		 |$LN5@Create|
; Line 5437
  0008c	e59d3014	 ldr         r3, [sp, #0x14]
  00090	e58a3000	 str         r3, [r10]
  00094		 |$LN1@Create|
; Line 5443
  00094	e28dd01c	 add         sp, sp, #0x1C
  00098	e8bd8ff0	 ldmia       sp!, {r4 - r11, pc}
  0009c		 |$M64683|

			 ENDP  ; |?Create@CRegKey@ATL@@QAAJPAUHKEY__@@PB_WPA_WKKPAU_SECURITY_ATTRIBUTES@@PAK@Z|, ATL::CRegKey::Create

	EXPORT	|?Open@CRegKey@ATL@@QAAJPAUHKEY__@@PB_WK@Z| ; ATL::CRegKey::Open
	IMPORT	|RegOpenKeyExW|

  00000			 AREA	 |.pdata|, PDATA
|$T64705| DCD	|$LN12@Open|
	DCD	0x40001b02
; Function compile flags: /Ogspy

  00000			 AREA	 |.text|, CODE, ARM

  00000		 |?Open@CRegKey@ATL@@QAAJPAUHKEY__@@PB_WK@Z| PROC ; ATL::CRegKey::Open
; Line 5446
  00000		 |$LN12@Open|
  00000	e92d4070	 stmdb       sp!, {r4 - r6, lr}
  00004	e24dd008	 sub         sp, sp, #8
  00008		 |$M64702|
  00008	e1a04002	 mov         r4, r2
  0000c	e1a05001	 mov         r5, r1
  00010	e1a06000	 mov         r6, r0
; Line 5448
  00014	e3a02000	 mov         r2, #0
; Line 5449
  00018	e58d2004	 str         r2, [sp, #4]
  0001c	e28de004	 add         lr, sp, #4
  00020	e3a02000	 mov         r2, #0
  00024	e1a01004	 mov         r1, r4
  00028	e1a00005	 mov         r0, r5
  0002c	e58de000	 str         lr, [sp]
  00030	eb000000	 bl          RegOpenKeyExW
  00034	e3500000	 cmp         r0, #0
; Line 5450
  00038	1a000009	 bne         |$LN1@Open|
; Line 5452
  0003c	e5963000	 ldr         r3, [r6]
  00040	e3a00000	 mov         r0, #0
  00044	e3530000	 cmp         r3, #0
  00048	0a000003	 beq         |$LN7@Open|
  0004c	e1a00003	 mov         r0, r3
  00050	eb000000	 bl          RegCloseKey
  00054	e3a03000	 mov         r3, #0
  00058	e5863000	 str         r3, [r6]
  0005c		 |$LN7@Open|
; Line 5454
  0005c	e59d3004	 ldr         r3, [sp, #4]
  00060	e5863000	 str         r3, [r6]
  00064		 |$LN1@Open|
; Line 5460
  00064	e28dd008	 add         sp, sp, #8
  00068	e8bd8070	 ldmia       sp!, {r4 - r6, pc}
  0006c		 |$M64703|

			 ENDP  ; |?Open@CRegKey@ATL@@QAAJPAUHKEY__@@PB_WK@Z|, ATL::CRegKey::Open

	EXPORT	|?SetDWORDValue@CRegKey@ATL@@QAAJPB_WK@Z| ; ATL::CRegKey::SetDWORDValue
	IMPORT	|RegSetValueExW|

  00000			 AREA	 |.pdata|, PDATA
|$T64716| DCD	|$LN8@SetDWORDVa|
	DCD	0x40000e04
; Function compile flags: /Ogspy

  00000			 AREA	 |.text|, CODE, ARM

  00000		 |?SetDWORDValue@CRegKey@ATL@@QAAJPB_WK@Z| PROC ; ATL::CRegKey::SetDWORDValue
; Line 5764
  00000		 |$LN8@SetDWORDVa|
  00000	e1a0c00d	 mov         r12, sp
  00004	e92d000f	 stmdb       sp!, {r0 - r3}
  00008	e92d5010	 stmdb       sp!, {r4, r12, lr}
  0000c	e24dd008	 sub         sp, sp, #8
  00010		 |$M64713|
; Line 5766
  00010	e5900000	 ldr         r0, [r0]
  00014	e3a04004	 mov         r4, #4
  00018	e28de01c	 add         lr, sp, #0x1C
  0001c	e3a03004	 mov         r3, #4
  00020	e3a02000	 mov         r2, #0
  00024	e58d4004	 str         r4, [sp, #4]
  00028	e58de000	 str         lr, [sp]
  0002c	eb000000	 bl          RegSetValueExW
; Line 5767
  00030	e28dd008	 add         sp, sp, #8
  00034	e89da010	 ldmia       sp, {r4, sp, pc}
  00038		 |$M64714|

			 ENDP  ; |?SetDWORDValue@CRegKey@ATL@@QAAJPB_WK@Z|, ATL::CRegKey::SetDWORDValue

	EXPORT	|?SetStringValue@CRegKey@ATL@@QAAJPB_W0K@Z| ; ATL::CRegKey::SetStringValue
; File c:\program files (x86)\microsoft visual studio 9.0\vc\ce\atlmfc\include\atlosapice.h

  00000			 AREA	 |.pdata|, PDATA
|$T64738| DCD	|$LN18@SetStringV|
	DCD	0x40001602
; Function compile flags: /Ogspy

  00000			 AREA	 |.text|, CODE, ARM

  00000		 |?SetStringValue@CRegKey@ATL@@QAAJPB_W0K@Z| PROC ; ATL::CRegKey::SetStringValue
; File c:\program files (x86)\microsoft visual studio 9.0\vc\ce\atlmfc\include\atlbase.h
; Line 5778
  00000		 |$LN18@SetStringV|
  00000	e92d40f0	 stmdb       sp!, {r4 - r7, lr}
  00004	e24dd008	 sub         sp, sp, #8
  00008		 |$M64735|
  00008	e1a05003	 mov         r5, r3
  0000c	e1b04002	 movs        r4, r2
  00010	e1a06001	 mov         r6, r1
  00014	e1a07000	 mov         r7, r0
; Line 5780
  00018	03a0000d	 moveq       r0, #0xD
; Line 5784
  0001c	028dd008	 addeq       sp, sp, #8
  00020	08bd80f0	 ldmeqia     sp!, {r4 - r7, pc}
; Line 5783
  00024	e1a00004	 mov         r0, r4
  00028	eb000000	 bl          wcslen
  0002c	e2803001	 add         r3, r0, #1
  00030	e5970000	 ldr         r0, [r7]
  00034	e1a03083	 mov         r3, r3, lsl #1
  00038	e58d3004	 str         r3, [sp, #4]
  0003c	e1a03005	 mov         r3, r5
  00040	e3a02000	 mov         r2, #0
  00044	e1a01006	 mov         r1, r6
  00048	e58d4000	 str         r4, [sp]
  0004c	eb000000	 bl          RegSetValueExW
; Line 5784
  00050	e28dd008	 add         sp, sp, #8
  00054	e8bd80f0	 ldmia       sp!, {r4 - r7, pc}
  00058		 |$M64736|

			 ENDP  ; |?SetStringValue@CRegKey@ATL@@QAAJPB_W0K@Z|, ATL::CRegKey::SetStringValue

	EXPORT	|?SetMultiStringValue@CRegKey@ATL@@QAAJPB_W0@Z| ; ATL::CRegKey::SetMultiStringValue
; File c:\program files (x86)\microsoft visual studio 9.0\vc\ce\atlmfc\include\atlosapice.h

  00000			 AREA	 |.pdata|, PDATA
|$T64763| DCD	|$LN22@SetMultiSt|
	DCD	0x40001e02
; Function compile flags: /Ogspy

  00000			 AREA	 |.text|, CODE, ARM

  00000		 |?SetMultiStringValue@CRegKey@ATL@@QAAJPB_W0@Z| PROC ; ATL::CRegKey::SetMultiStringValue
; File c:\program files (x86)\microsoft visual studio 9.0\vc\ce\atlmfc\include\atlbase.h
; Line 5787
  00000		 |$LN22@SetMultiSt|
  00000	e92d41f0	 stmdb       sp!, {r4 - r8, lr}
  00004	e24dd008	 sub         sp, sp, #8
  00008		 |$M64760|
  00008	e1b06002	 movs        r6, r2
  0000c	e1a07001	 mov         r7, r1
  00010	e1a08000	 mov         r8, r0
; Line 5793
  00014	03a0000d	 moveq       r0, #0xD
; Line 5809
  00018	028dd008	 addeq       sp, sp, #8
  0001c	08bd81f0	 ldmeqia     sp!, {r4 - r8, pc}
; Line 5798
  00020	e3a05000	 mov         r5, #0
; Line 5799
  00024	e1a04006	 mov         r4, r6
  00028		 |$LL3@SetMultiSt|
; Line 5802
  00028	e3540000	 cmp         r4, #0
  0002c	0a000002	 beq         |$LN17@SetMultiSt|
  00030	e1a00004	 mov         r0, r4
  00034	eb000000	 bl          wcslen
  00038	ea000000	 b           |$LN18@SetMultiSt|
  0003c		 |$LN17@SetMultiSt|
  0003c	e3a00000	 mov         r0, #0
  00040		 |$LN18@SetMultiSt|
  00040	e2803001	 add         r3, r0, #1
; Line 5803
  00044	e0844083	 add         r4, r4, r3, lsl #1
; Line 5804
  00048	e0855083	 add         r5, r5, r3, lsl #1
; Line 5805
  0004c	e3530001	 cmp         r3, #1
  00050	1afffff4	 bne         |$LL3@SetMultiSt|
; Line 5808
  00054	e5980000	 ldr         r0, [r8]
  00058	e3a03007	 mov         r3, #7
  0005c	e3a02000	 mov         r2, #0
  00060	e1a01007	 mov         r1, r7
  00064	e58d5004	 str         r5, [sp, #4]
  00068	e58d6000	 str         r6, [sp]
  0006c	eb000000	 bl          RegSetValueExW
; Line 5809
  00070	e28dd008	 add         sp, sp, #8
  00074	e8bd81f0	 ldmia       sp!, {r4 - r8, pc}
  00078		 |$M64761|

			 ENDP  ; |?SetMultiStringValue@CRegKey@ATL@@QAAJPB_W0@Z|, ATL::CRegKey::SetMultiStringValue

	EXPORT	|?IsEqualKey@CExpansionVectorEqualHelper@ATL@@SA_NQA_W0@Z| ; ATL::CExpansionVectorEqualHelper::IsEqualKey
	IMPORT	|lstrcmpiW|
; File c:\program files (x86)\microsoft visual studio 9.0\vc\ce\atlmfc\include\statreg.h

  00000			 AREA	 |.pdata|, PDATA
|$T64774| DCD	|$LN6@IsEqualKey|
	DCD	0x40000601
; Function compile flags: /Ogspy

  00000			 AREA	 |.text|, CODE, ARM

  00000		 |?IsEqualKey@CExpansionVectorEqualHelper@ATL@@SA_NQA_W0@Z| PROC ; ATL::CExpansionVectorEqualHelper::IsEqualKey
; Line 74
  00000		 |$LN6@IsEqualKey|
  00000	e52de004	 str         lr, [sp, #-4]!
  00004		 |$M64771|
; Line 75
  00004	eb000000	 bl          lstrcmpiW
  00008	e3500000	 cmp         r0, #0
; Line 76
  0000c	03a00001	 moveq       r0, #1
; Line 77
  00010	13a00000	 movne       r0, #0
; Line 78
  00014	e49df004	 ldr         pc, [sp], #4
  00018		 |$M64772|

			 ENDP  ; |?IsEqualKey@CExpansionVectorEqualHelper@ATL@@SA_NQA_W0@Z|, ATL::CExpansionVectorEqualHelper::IsEqualKey

	EXPORT	|?GenerateError@CRegParser@ATL@@IAAJI@Z| ; ATL::CRegParser::GenerateError

  00000			 AREA	 |.pdata|, PDATA
|$T64783| DCD	|$LN5@GenerateEr|
	DCD	0x40000300
; Function compile flags: /Ogspy

  00000			 AREA	 |.text|, CODE, ARM

  00000		 |?GenerateError@CRegParser@ATL@@IAAJI@Z| PROC ; ATL::CRegParser::GenerateError
; Line 170
  00000		 |$LN5@GenerateEr|
  00000		 |$M64780|
  00000	e3a03126	 mov         r3, #0x26, 2
  00004	e3830802	 orr         r0, r3, #2, 16	; 131072 (0x20000)
  00008	e1a0f00e	 mov         pc, lr
  0000c		 |$M64781|

			 ENDP  ; |?GenerateError@CRegParser@ATL@@IAAJI@Z|, ATL::CRegParser::GenerateError

	EXPORT	|?EndOfVar@CRegParser@ATL@@IAAHXZ|	; ATL::CRegParser::EndOfVar
	IMPORT	|CharNextW|

  00000			 AREA	 |.pdata|, PDATA
|$T64795| DCD	|$LN7@EndOfVar|
	DCD	0x40000c01
; Function compile flags: /Ogspy

  00000			 AREA	 |.text|, CODE, ARM

  00000		 |?EndOfVar@CRegParser@ATL@@IAAHXZ| PROC ; ATL::CRegParser::EndOfVar
; Line 174
  00000		 |$LN7@EndOfVar|
  00000	e52de004	 str         lr, [sp, #-4]!
  00004		 |$M64792|
  00004	e5900000	 ldr         r0, [r0]
  00008	e1d030b0	 ldrh        r3, [r0]
  0000c	e3530027	 cmp         r3, #0x27
  00010	1a000004	 bne         |$LN3@EndOfVar|
  00014	eb000000	 bl          CharNextW
  00018	e1d030b0	 ldrh        r3, [r0]
  0001c	e3530027	 cmp         r3, #0x27
  00020	13a00001	 movne       r0, #1
  00024	149df004	 ldrne       pc, [sp], #4
  00028		 |$LN3@EndOfVar|
  00028	e3a00000	 mov         r0, #0
  0002c	e49df004	 ldr         pc, [sp], #4
  00030		 |$M64793|

			 ENDP  ; |?EndOfVar@CRegParser@ATL@@IAAHXZ|, ATL::CRegParser::EndOfVar

	EXPORT	|??0CParseBuffer@CRegParser@ATL@@QAA@H@Z| ; ATL::CRegParser::CParseBuffer::CParseBuffer
; File c:\program files (x86)\microsoft visual studio 9.0\vc\ce\atlmfc\include\atlalloc.h

  00000			 AREA	 |.pdata|, PDATA
|$T64830| DCD	|$LN15@CParseBuff|
	DCD	0x40001601
; Function compile flags: /Ogspy

  00000			 AREA	 |.text|, CODE, ARM

  00000		 |??0CParseBuffer@CRegParser@ATL@@QAA@H@Z| PROC ; ATL::CRegParser::CParseBuffer::CParseBuffer
; File c:\program files (x86)\microsoft visual studio 9.0\vc\ce\atlmfc\include\statreg.h
; Line 190
  00000		 |$LN15@CParseBuff|
  00000	e92d4030	 stmdb       sp!, {r4, r5, lr}
  00004		 |$M64827|
  00004	e1a04000	 mov         r4, r0
; Line 192
  00008	e3510064	 cmp         r1, #0x64
; Line 193
  0000c	b3a01ffa	 movlt       r1, #0xFA, 30
; Line 196
  00010	e3a03002	 mov         r3, #2
  00014	e0830391	 umull       r0, r3, r1, r3
  00018	e3a05000	 mov         r5, #0
  0001c	e3530000	 cmp         r3, #0
  00020	e5841004	 str         r1, [r4, #4]
  00024	e5845000	 str         r5, [r4]
  00028	8a000004	 bhi         |$LN11@CParseBuff|
  0002c	3a000001	 bcc         |$LN12@CParseBuff|
  00030	e3700001	 cmn         r0, #1
  00034	8a000001	 bhi         |$LN11@CParseBuff|
  00038		 |$LN12@CParseBuff|
  00038	eb000000	 bl          CoTaskMemAlloc
  0003c	ea000000	 b           |$LN6@CParseBuff|
  00040		 |$LN11@CParseBuff|
  00040	e3a00000	 mov         r0, #0
  00044		 |$LN6@CParseBuff|
; Line 197
  00044	e3500000	 cmp         r0, #0
  00048	e5840008	 str         r0, [r4, #8]
; Line 198
  0004c	11c050b0	 strneh      r5, [r0]
; Line 199
  00050	e1a00004	 mov         r0, r4
  00054	e8bd8030	 ldmia       sp!, {r4, r5, pc}
  00058		 |$M64828|

			 ENDP  ; |??0CParseBuffer@CRegParser@ATL@@QAA@H@Z|, ATL::CRegParser::CParseBuffer::CParseBuffer

	EXPORT	|??1CParseBuffer@CRegParser@ATL@@QAA@XZ| ; ATL::CRegParser::CParseBuffer::~CParseBuffer
	IMPORT	|CoTaskMemFree|

  00000			 AREA	 |.pdata|, PDATA
|$T64838| DCD	|$LN5@CParseBuff@2|
	DCD	0x40000200
; Function compile flags: /Ogspy

  00000			 AREA	 |.text|, CODE, ARM

  00000		 |??1CParseBuffer@CRegParser@ATL@@QAA@XZ| PROC ; ATL::CRegParser::CParseBuffer::~CParseBuffer
; Line 201
  00000		 |$LN5@CParseBuff@2|
  00000		 |$M64835|
; Line 202
  00000	e5900008	 ldr         r0, [r0, #8]
  00004	ea000000	 b           CoTaskMemFree
  00008		 |$M64836|

			 ENDP  ; |??1CParseBuffer@CRegParser@ATL@@QAA@XZ|, ATL::CRegParser::CParseBuffer::~CParseBuffer

	EXPORT	|?Append@CParseBuffer@CRegParser@ATL@@QAAHPB_WH@Z| ; ATL::CRegParser::CParseBuffer::Append
; File c:\program files (x86)\microsoft visual studio 9.0\vc\ce\atlmfc\include\atlchecked.h

  00000			 AREA	 |.pdata|, PDATA
|$T64888| DCD	|$LN28@Append|
	DCD	0x40003d01
; Function compile flags: /Ogspy

  00000			 AREA	 |.text|, CODE, ARM

  00000		 |?Append@CParseBuffer@CRegParser@ATL@@QAAHPB_WH@Z| PROC ; ATL::CRegParser::CParseBuffer::Append
; File c:\program files (x86)\microsoft visual studio 9.0\vc\ce\atlmfc\include\statreg.h
; Line 205
  00000		 |$LN28@Append|
  00000	e92d4070	 stmdb       sp!, {r4 - r6, lr}
  00004		 |$M64885|
  00004	e1a05002	 mov         r5, r2
  00008	e1a06001	 mov         r6, r1
  0000c	e1a04000	 mov         r4, r0
; Line 207
  00010	e594e000	 ldr         lr, [r4]
  00014	e08e3005	 add         r3, lr, r5
  00018	e2830001	 add         r0, r3, #1
; Line 208
  0001c	e150000e	 cmp         r0, lr
  00020	da000031	 ble         |$LN8@Append|
  00024	e1500005	 cmp         r0, r5
  00028	da00002f	 ble         |$LN8@Append|
; Line 211
  0002c	e5943004	 ldr         r3, [r4, #4]
  00030	e1500003	 cmp         r0, r3
  00034	ba000013	 blt         |$LN7@Append|
  00038		 |$LL6@Append|
; Line 214
  00038	e5943004	 ldr         r3, [r4, #4]
  0003c	e3730107	 cmn         r3, #7, 2
  00040	ca000029	 bgt         |$LN8@Append|
; Line 216
  00044	e1a0e083	 mov         lr, r3, lsl #1
  00048	e1a0300e	 mov         r3, lr
  0004c	e1500003	 cmp         r0, r3
  00050	e584e004	 str         lr, [r4, #4]
  00054	aafffff7	 bge         |$LL6@Append|
; Line 218
  00058	e3a03002	 mov         r3, #2
  0005c	e083139e	 umull       r1, r3, lr, r3
  00060	e5940008	 ldr         r0, [r4, #8]
  00064	e3530000	 cmp         r3, #0
  00068	8a00001f	 bhi         |$LN8@Append|
  0006c	3a000001	 bcc         |$LN25@Append|
  00070	e3710001	 cmn         r1, #1
  00074	8a00001c	 bhi         |$LN8@Append|
  00078		 |$LN25@Append|
  00078	eb000000	 bl          CoTaskMemRealloc
  0007c	e3500000	 cmp         r0, #0
; Line 219
  00080	0a000019	 beq         |$LN8@Append|
; Line 221
  00084	e5840008	 str         r0, [r4, #8]
  00088		 |$LN7@Append|
; Line 223
  00088	e5943000	 ldr         r3, [r4]
  0008c	e1b00003	 movs        r0, r3
  00090	4a000015	 bmi         |$LN8@Append|
  00094	e5943004	 ldr         r3, [r4, #4]
  00098	e1500003	 cmp         r0, r3
  0009c	aa000012	 bge         |$LN8@Append|
  000a0	e0431000	 sub         r1, r3, r0
  000a4	e1510003	 cmp         r1, r3
  000a8	ca00000f	 bgt         |$LN8@Append|
; Line 229
  000ac	e5942008	 ldr         r2, [r4, #8]
  000b0	e1a01081	 mov         r1, r1, lsl #1
  000b4	e1a03085	 mov         r3, r5, lsl #1
  000b8	e0820080	 add         r0, r2, r0, lsl #1
  000bc	e1a02006	 mov         r2, r6
  000c0	eb000000	 bl          memcpy_s
  000c4	eb000000	 bl          |?AtlCrtErrorCheck@ATL@@YAHH@Z|
; Line 230
  000c8	e5943000	 ldr         r3, [r4]
; Line 231
  000cc	e5942008	 ldr         r2, [r4, #8]
  000d0	e3a01000	 mov         r1, #0
  000d4	e0833005	 add         r3, r3, r5
  000d8	e0822083	 add         r2, r2, r3, lsl #1
  000dc	e5843000	 str         r3, [r4]
  000e0	e1c210b0	 strh        r1, [r2]
; Line 233
  000e4	e3a00001	 mov         r0, #1
; Line 234
  000e8	e8bd8070	 ldmia       sp!, {r4 - r6, pc}
  000ec		 |$LN8@Append|
; Line 209
  000ec	e3a00000	 mov         r0, #0
; Line 234
  000f0	e8bd8070	 ldmia       sp!, {r4 - r6, pc}
  000f4		 |$M64886|

			 ENDP  ; |?Append@CParseBuffer@CRegParser@ATL@@QAAHPB_WH@Z|, ATL::CRegParser::CParseBuffer::Append

	EXPORT	|?AddChar@CParseBuffer@CRegParser@ATL@@QAAHPB_W@Z| ; ATL::CRegParser::CParseBuffer::AddChar

  00000			 AREA	 |.pdata|, PDATA
|$T64899| DCD	|$LN5@AddChar|
	DCD	0x40000200
; Function compile flags: /Ogspy

  00000			 AREA	 |.text|, CODE, ARM

  00000		 |?AddChar@CParseBuffer@CRegParser@ATL@@QAAHPB_W@Z| PROC ; ATL::CRegParser::CParseBuffer::AddChar
; Line 237
  00000		 |$LN5@AddChar|
  00000		 |$M64896|
; Line 243
  00000	e3a02001	 mov         r2, #1
  00004	ea000000	 b           |?Append@CParseBuffer@CRegParser@ATL@@QAAHPB_WH@Z|
  00008		 |$M64897|

			 ENDP  ; |?AddChar@CParseBuffer@CRegParser@ATL@@QAAHPB_W@Z|, ATL::CRegParser::CParseBuffer::AddChar

	EXPORT	|?Detach@CParseBuffer@CRegParser@ATL@@QAAPA_WXZ| ; ATL::CRegParser::CParseBuffer::Detach

  00000			 AREA	 |.pdata|, PDATA
|$T64910| DCD	|$LN5@Detach@2|
	DCD	0x40000700
; Function compile flags: /Ogspy

  00000			 AREA	 |.text|, CODE, ARM

  00000		 |?Detach@CParseBuffer@CRegParser@ATL@@QAAPA_WXZ| PROC ; ATL::CRegParser::CParseBuffer::Detach
; Line 261
  00000		 |$LN5@Detach@2|
  00000		 |$M64907|
  00000	e1a03000	 mov         r3, r0
; Line 262
  00004	e5930008	 ldr         r0, [r3, #8]
; Line 263
  00008	e3a02000	 mov         r2, #0
  0000c	e5832008	 str         r2, [r3, #8]
; Line 264
  00010	e5832000	 str         r2, [r3]
  00014	e5832004	 str         r2, [r3, #4]
; Line 266
  00018	e1a0f00e	 mov         pc, lr
  0001c		 |$M64908|

			 ENDP  ; |?Detach@CParseBuffer@CRegParser@ATL@@QAAPA_WXZ|, ATL::CRegParser::CParseBuffer::Detach

	EXPORT	|?FinalConstruct@CRegObject@ATL@@QAAJXZ| ; ATL::CRegObject::FinalConstruct
; File c:\program files (x86)\microsoft visual studio 9.0\vc\ce\atlmfc\include\atlcore.h

  00000			 AREA	 |.pdata|, PDATA
|$T64928| DCD	|$LN8@FinalConst|
	DCD	0x40000801
; Function compile flags: /Ogspy

  00000			 AREA	 |.text|, CODE, ARM

  00000		 |?FinalConstruct@CRegObject@ATL@@QAAJXZ| PROC ; ATL::CRegObject::FinalConstruct
; File c:\program files (x86)\microsoft visual studio 9.0\vc\ce\atlmfc\include\statreg.h
; Line 301
  00000		 |$LN8@FinalConst|
  00000	e92d4010	 stmdb       sp!, {r4, lr}
  00004		 |$M64925|
  00004	e1a04000	 mov         r4, r0
  00008	e2840010	 add         r0, r4, #0x10
  0000c	eb000000	 bl          |?Init@CComCriticalSection@ATL@@QAAJXZ|
  00010	e3500000	 cmp         r0, #0
  00014	53a03001	 movpl       r3, #1
  00018	55c43024	 strplb      r3, [r4, #0x24]
  0001c	e8bd8010	 ldmia       sp!, {r4, pc}
  00020		 |$M64926|

			 ENDP  ; |?FinalConstruct@CRegObject@ATL@@QAAJXZ|, ATL::CRegObject::FinalConstruct

	EXPORT	|??1CComAutoDeleteCriticalSection@ATL@@QAA@XZ| ; ATL::CComAutoDeleteCriticalSection::~CComAutoDeleteCriticalSection

  00000			 AREA	 |.pdata|, PDATA
|$T64950| DCD	|$LN12@CComAutoDe|
	DCD	0x40000701
; Function compile flags: /Ogspy

  00000			 AREA	 |.text|, CODE, ARM

  00000		 |??1CComAutoDeleteCriticalSection@ATL@@QAA@XZ| PROC ; ATL::CComAutoDeleteCriticalSection::~CComAutoDeleteCriticalSection
  00000		 |$LN12@CComAutoDe|
  00000	e52de004	 str         lr, [sp, #-4]!
  00004		 |$M64947|
  00004	e5d03014	 ldrb        r3, [r0, #0x14]
  00008	e3530000	 cmp         r3, #0
  0000c	13a03000	 movne       r3, #0
  00010	15c03014	 strneb      r3, [r0, #0x14]
  00014	1b000000	 blne        DeleteCriticalSection
  00018	e49df004	 ldr         pc, [sp], #4
  0001c		 |$M64948|

			 ENDP  ; |??1CComAutoDeleteCriticalSection@ATL@@QAA@XZ|, ATL::CComAutoDeleteCriticalSection::~CComAutoDeleteCriticalSection

	EXPORT	|??_B?1??VTFromRegType@CRegParser@ATL@@KAHPB_WAAG@Z@51| [ DATA ] ; `ATL::CRegParser::VTFromRegType'::`2'::`local static guard'
	EXPORT	|?VTFromRegType@CRegParser@ATL@@KAHPB_WAAG@Z| ; ATL::CRegParser::VTFromRegType
	EXPORT	|?map@?1??VTFromRegType@CRegParser@ATL@@KAHPB_WAAG@Z@4QBUtypemap@?1??123@KAH01@Z@B| [ DATA ] ; `ATL::CRegParser::VTFromRegType'::`2'::map

  00000			 AREA	 |.bss|, NOINIT
|??_B?1??VTFromRegType@CRegParser@ATL@@KAHPB_WAAG@Z@51| % 0x4 ; `ATL::CRegParser::VTFromRegType'::`2'::`local static guard'

  00000			 AREA	 |.bss|, NOINIT
|?map@?1??VTFromRegType@CRegParser@ATL@@KAHPB_WAAG@Z@4QBUtypemap@?1??123@KAH01@Z@B| % 0x20 ; `ATL::CRegParser::VTFromRegType'::`2'::map

  00000			 AREA	 |.pdata|, PDATA
|$T64966| DCD	|$LN14@VTFromRegT|
	DCD	0x40003301
; Function compile flags: /Ogspy

  00000			 AREA	 |.text|, CODE, ARM

  00000		 |?VTFromRegType@CRegParser@ATL@@KAHPB_WAAG@Z| PROC ; ATL::CRegParser::VTFromRegType
; Line 651
  00000		 |$LN14@VTFromRegT|
  00000	e92d41f0	 stmdb       sp!, {r4 - r8, lr}
  00004		 |$M64963|
  00004	e1a07001	 mov         r7, r1
  00008	e1a08000	 mov         r8, r0
; Line 661
  0000c	e59f40b4	 ldr         r4, [pc, #0xB4]
  00010	e59f60ac	 ldr         r6, [pc, #0xAC]
  00014	e5945000	 ldr         r5, [r4]
  00018	e3150001	 tst         r5, #1
  0001c	1a000012	 bne         |$LN5@VTFromRegT|
  00020	e59f3098	 ldr         r3, [pc, #0x98]
; Line 662
  00024	e59f2090	 ldr         r2, [pc, #0x90]
  00028	e3a01008	 mov         r1, #8
  0002c	e5863000	 str         r3, [r6]
  00030	e3a03901	 mov         r3, #1, 18
; Line 663
  00034	e59fe07c	 ldr         lr, [pc, #0x7C]
  00038	e3833008	 orr         r3, r3, #8
  0003c	e1c610b4	 strh        r1, [r6, #4]
  00040	e5862008	 str         r2, [r6, #8]
; Line 664
  00044	e59f2068	 ldr         r2, [pc, #0x68]
  00048	e1c630bc	 strh        r3, [r6, #0xC]
  0004c	e3a03013	 mov         r3, #0x13
  00050	e586e010	 str         lr, [r6, #0x10]
  00054	e1c631b4	 strh        r3, [r6, #0x14]
  00058	e5862018	 str         r2, [r6, #0x18]
  0005c	e3a02011	 mov         r2, #0x11
  00060	e3853001	 orr         r3, r5, #1
  00064	e1c621bc	 strh        r2, [r6, #0x1C]
  00068	e5843000	 str         r3, [r4]
  0006c		 |$LN5@VTFromRegT|
; Line 669
  0006c	e3a04000	 mov         r4, #0
  00070	e1a05006	 mov         r5, r6
  00074		 |$LL4@VTFromRegT|
; Line 671
  00074	e5951000	 ldr         r1, [r5]
  00078	e1a00008	 mov         r0, r8
  0007c	eb000000	 bl          lstrcmpiW
  00080	e3500000	 cmp         r0, #0
  00084	0a000005	 beq         |$LN10@VTFromRegT|
  00088	e2844001	 add         r4, r4, #1
  0008c	e3540004	 cmp         r4, #4
  00090	e2855008	 add         r5, r5, #8
  00094	3afffff6	 bcc         |$LL4@VTFromRegT|
; Line 678
  00098	e3a00000	 mov         r0, #0
; Line 680
  0009c	e8bd81f0	 ldmia       sp!, {r4 - r8, pc}
  000a0		 |$LN10@VTFromRegT|
; Line 673
  000a0	e0863184	 add         r3, r6, r4, lsl #3
  000a4	e1d330b4	 ldrh        r3, [r3, #4]
; Line 674
  000a8	e3a00001	 mov         r0, #1
  000ac	e1c730b0	 strh        r3, [r7]
; Line 680
  000b0	e8bd81f0	 ldmia       sp!, {r4 - r8, pc}
  000b4		 |$LN15@VTFromRegT|
  000b4		 |$LN16@VTFromRegT|
  000b4	00000000	 DCD         |??_C@_13OPKGLAFF@?$AAB?$AA?$AA@|
  000b8		 |$LN17@VTFromRegT|
  000b8	00000000	 DCD         |??_C@_13MKMNOPIJ@?$AAD?$AA?$AA@|
  000bc		 |$LN18@VTFromRegT|
  000bc	00000000	 DCD         |??_C@_13LHMFKAAD@?$AAM?$AA?$AA@|
  000c0		 |$LN19@VTFromRegT|
  000c0	00000000	 DCD         |??_C@_13HADIAKP@?$AAS?$AA?$AA@|
  000c4		 |$LN20@VTFromRegT|
  000c4	00000000	 DCD         |?map@?1??VTFromRegType@CRegParser@ATL@@KAHPB_WAAG@Z@4QBUtypemap@?1??123@KAH01@Z@B|
  000c8		 |$LN21@VTFromRegT|
  000c8	00000000	 DCD         |??_B?1??VTFromRegType@CRegParser@ATL@@KAHPB_WAAG@Z@51|
  000cc		 |$M64964|

			 ENDP  ; |?VTFromRegType@CRegParser@ATL@@KAHPB_WAAG@Z|, ATL::CRegParser::VTFromRegType

	EXPORT	|?ChToByte@CRegParser@ATL@@KAE_W@Z|	; ATL::CRegParser::ChToByte

  00000			 AREA	 |.pdata|, PDATA
|$T64985| DCD	|$LN12@ChToByte|
	DCD	0x40001600
; Function compile flags: /Ogspy

  00000			 AREA	 |.text|, CODE, ARM

  00000		 |?ChToByte@CRegParser@ATL@@KAE_W@Z| PROC ; ATL::CRegParser::ChToByte
; Line 683
  00000		 |$LN12@ChToByte|
  00000		 |$M64982|
; Line 684
  00000	e3500030	 cmp         r0, #0x30
  00004	ba000011	 blt         |$LN1@ChToByte|
  00008	e3500039	 cmp         r0, #0x39
  0000c	da00000c	 ble         |$LN4@ChToByte|
  00010	e3500040	 cmp         r0, #0x40
  00014	da00000d	 ble         |$LN1@ChToByte|
  00018	e3500046	 cmp         r0, #0x46
  0001c	da000005	 ble         |$LN3@ChToByte|
  00020	e2403061	 sub         r3, r0, #0x61
  00024	e3530005	 cmp         r3, #5
  00028	8a000008	 bhi         |$LN1@ChToByte|
; Line 710
  0002c	e28030a9	 add         r3, r0, #0xA9
; Line 696
  00030	e20300ff	 and         r0, r3, #0xFF
; Line 716
  00034	e1a0f00e	 mov         pc, lr
  00038		 |$LN3@ChToByte|
; Line 703
  00038	e28030c9	 add         r3, r0, #0xC9
; Line 696
  0003c	e20300ff	 and         r0, r3, #0xFF
; Line 716
  00040	e1a0f00e	 mov         pc, lr
  00044		 |$LN4@ChToByte|
; Line 696
  00044	e28030d0	 add         r3, r0, #0xD0
  00048	e20300ff	 and         r0, r3, #0xFF
; Line 716
  0004c	e1a0f00e	 mov         pc, lr
  00050		 |$LN1@ChToByte|
; Line 714
  00050	e3a00000	 mov         r0, #0
; Line 716
  00054	e1a0f00e	 mov         pc, lr
  00058		 |$M64983|

			 ENDP  ; |?ChToByte@CRegParser@ATL@@KAE_W@Z|, ATL::CRegParser::ChToByte

	EXPORT	|?HKeyFromString@CRegParser@ATL@@KAPAUHKEY__@@PA_W@Z| ; ATL::CRegParser::HKeyFromString
	EXPORT	|?map@?1??HKeyFromString@CRegParser@ATL@@KAPAUHKEY__@@PA_W@Z@4QBUkeymap@?1??123@KAPAU4@0@Z@B| [ DATA ] ; `ATL::CRegParser::HKeyFromString'::`2'::map
	EXPORT	|??_C@_19NCHLBIN@?$AAH?$AAK?$AAC?$AAR?$AA?$AA@| [ DATA ] ; `string'
	EXPORT	|??_C@_19JAPAIJDE@?$AAH?$AAK?$AAC?$AAU?$AA?$AA@| [ DATA ] ; `string'
	EXPORT	|??_C@_19PEALEEJB@?$AAH?$AAK?$AAL?$AAM?$AA?$AA@| [ DATA ] ; `string'
	EXPORT	|??_C@_17PJOJPMPB@?$AAH?$AAK?$AAU?$AA?$AA@| [ DATA ] ; `string'
	EXPORT	|??_C@_1CE@PACHPJFI@?$AAH?$AAK?$AAE?$AAY?$AA_?$AAC?$AAL?$AAA?$AAS?$AAS?$AAE?$AAS?$AA_?$AAR?$AAO?$AAO?$AAT?$AA?$AA@| [ DATA ] ; `string'
	EXPORT	|??_C@_1CE@HLHNCBPM@?$AAH?$AAK?$AAE?$AAY?$AA_?$AAC?$AAU?$AAR?$AAR?$AAE?$AAN?$AAT?$AA_?$AAU?$AAS?$AAE?$AAR?$AA?$AA@| [ DATA ] ; `string'
	EXPORT	|??_C@_1CG@GFBEANJL@?$AAH?$AAK?$AAE?$AAY?$AA_?$AAL?$AAO?$AAC?$AAA?$AAL?$AA_?$AAM?$AAA?$AAC?$AAH?$AAI?$AAN?$AAE?$AA?$AA@| [ DATA ] ; `string'
	EXPORT	|??_C@_1BG@BGODANIO@?$AAH?$AAK?$AAE?$AAY?$AA_?$AAU?$AAS?$AAE?$AAR?$AAS?$AA?$AA@| [ DATA ] ; `string'

  00000			 AREA	 |.pdata|, PDATA
|$T64999| DCD	|$LN12@HKeyFromSt|
	DCD	0x40001401

  00000			 AREA	 |.rdata|, DATA, READONLY
|??_C@_1BG@BGODANIO@?$AAH?$AAK?$AAE?$AAY?$AA_?$AAU?$AAS?$AAE?$AAR?$AAS?$AA?$AA@| DCB "H"
	DCB	0x0, "K", 0x0, "E", 0x0, "Y", 0x0, "_", 0x0, "U", 0x0, "S"
	DCB	0x0, "E", 0x0, "R", 0x0, "S", 0x0, 0x0, 0x0 ; `string'

  00000			 AREA	 |.rdata|, DATA, READONLY
|??_C@_1CG@GFBEANJL@?$AAH?$AAK?$AAE?$AAY?$AA_?$AAL?$AAO?$AAC?$AAA?$AAL?$AA_?$AAM?$AAA?$AAC?$AAH?$AAI?$AAN?$AAE?$AA?$AA@| DCB "H"
	DCB	0x0, "K", 0x0, "E", 0x0, "Y", 0x0, "_", 0x0, "L", 0x0, "O"
	DCB	0x0, "C", 0x0, "A", 0x0, "L", 0x0, "_", 0x0, "M", 0x0, "A"
	DCB	0x0, "C", 0x0, "H", 0x0, "I", 0x0, "N", 0x0, "E", 0x0, 0x0
	DCB	0x0					; `string'

  00000			 AREA	 |.rdata|, DATA, READONLY
|??_C@_1CE@HLHNCBPM@?$AAH?$AAK?$AAE?$AAY?$AA_?$AAC?$AAU?$AAR?$AAR?$AAE?$AAN?$AAT?$AA_?$AAU?$AAS?$AAE?$AAR?$AA?$AA@| DCB "H"
	DCB	0x0, "K", 0x0, "E", 0x0, "Y", 0x0, "_", 0x0, "C", 0x0, "U"
	DCB	0x0, "R", 0x0, "R", 0x0, "E", 0x0, "N", 0x0, "T", 0x0, "_"
	DCB	0x0, "U", 0x0, "S", 0x0, "E", 0x0, "R", 0x0, 0x0, 0x0 ; `string'

  00000			 AREA	 |.rdata|, DATA, READONLY
|??_C@_1CE@PACHPJFI@?$AAH?$AAK?$AAE?$AAY?$AA_?$AAC?$AAL?$AAA?$AAS?$AAS?$AAE?$AAS?$AA_?$AAR?$AAO?$AAO?$AAT?$AA?$AA@| DCB "H"
	DCB	0x0, "K", 0x0, "E", 0x0, "Y", 0x0, "_", 0x0, "C", 0x0, "L"
	DCB	0x0, "A", 0x0, "S", 0x0, "S", 0x0, "E", 0x0, "S", 0x0, "_"
	DCB	0x0, "R", 0x0, "O", 0x0, "O", 0x0, "T", 0x0, 0x0, 0x0 ; `string'

  00000			 AREA	 |.rdata|, DATA, READONLY
|??_C@_17PJOJPMPB@?$AAH?$AAK?$AAU?$AA?$AA@| DCB "H", 0x0, "K", 0x0, "U", 0x0
	DCB	0x0, 0x0				; `string'

  00000			 AREA	 |.rdata|, DATA, READONLY
|??_C@_19PEALEEJB@?$AAH?$AAK?$AAL?$AAM?$AA?$AA@| DCB "H", 0x0, "K", 0x0, "L"
	DCB	0x0, "M", 0x0, 0x0, 0x0			; `string'

  00000			 AREA	 |.rdata|, DATA, READONLY
|??_C@_19JAPAIJDE@?$AAH?$AAK?$AAC?$AAU?$AA?$AA@| DCB "H", 0x0, "K", 0x0, "C"
	DCB	0x0, "U", 0x0, 0x0, 0x0			; `string'

  00000			 AREA	 |.rdata|, DATA, READONLY
|??_C@_19NCHLBIN@?$AAH?$AAK?$AAC?$AAR?$AA?$AA@| DCB "H", 0x0, "K", 0x0, "C"
	DCB	0x0, "R", 0x0, 0x0, 0x0			; `string'

  00000			 AREA	 |.rdata|, DATA, READONLY
|?map@?1??HKeyFromString@CRegParser@ATL@@KAPAUHKEY__@@PA_W@Z@4QBUkeymap@?1??123@KAPAU4@0@Z@B| DCD |??_C@_19NCHLBIN@?$AAH?$AAK?$AAC?$AAR?$AA?$AA@| ; `ATL::CRegParser::HKeyFromString'::`2'::map
	DCD	0x80000000
	DCD	|??_C@_19JAPAIJDE@?$AAH?$AAK?$AAC?$AAU?$AA?$AA@|
	DCD	0x80000001
	DCD	|??_C@_19PEALEEJB@?$AAH?$AAK?$AAL?$AAM?$AA?$AA@|
	DCD	0x80000002
	DCD	|??_C@_17PJOJPMPB@?$AAH?$AAK?$AAU?$AA?$AA@|
	DCD	0x80000003
	DCD	|??_C@_1CE@PACHPJFI@?$AAH?$AAK?$AAE?$AAY?$AA_?$AAC?$AAL?$AAA?$AAS?$AAS?$AAE?$AAS?$AA_?$AAR?$AAO?$AAO?$AAT?$AA?$AA@|
	DCD	0x80000000
	DCD	|??_C@_1CE@HLHNCBPM@?$AAH?$AAK?$AAE?$AAY?$AA_?$AAC?$AAU?$AAR?$AAR?$AAE?$AAN?$AAT?$AA_?$AAU?$AAS?$AAE?$AAR?$AA?$AA@|
	DCD	0x80000001
	DCD	|??_C@_1CG@GFBEANJL@?$AAH?$AAK?$AAE?$AAY?$AA_?$AAL?$AAO?$AAC?$AAA?$AAL?$AA_?$AAM?$AAA?$AAC?$AAH?$AAI?$AAN?$AAE?$AA?$AA@|
	DCD	0x80000002
	DCD	|??_C@_1BG@BGODANIO@?$AAH?$AAK?$AAE?$AAY?$AA_?$AAU?$AAS?$AAE?$AAR?$AAS?$AA?$AA@|
	DCD	0x80000003
; Function compile flags: /Ogspy

  00000			 AREA	 |.text|, CODE, ARM

  00000		 |?HKeyFromString@CRegParser@ATL@@KAPAUHKEY__@@PA_W@Z| PROC ; ATL::CRegParser::HKeyFromString
; Line 719
  00000		 |$LN12@HKeyFromSt|
  00000	e92d40f0	 stmdb       sp!, {r4 - r7, lr}
  00004		 |$M64996|
  00004	e1a07000	 mov         r7, r0
; Line 746
  00008	e59f603c	 ldr         r6, [pc, #0x3C]
  0000c	e3a04000	 mov         r4, #0
  00010	e1a05006	 mov         r5, r6
  00014		 |$LL4@HKeyFromSt|
; Line 748
  00014	e5951000	 ldr         r1, [r5]
  00018	e1a00007	 mov         r0, r7
  0001c	eb000000	 bl          lstrcmpiW
  00020	e3500000	 cmp         r0, #0
  00024	0a000005	 beq         |$LN8@HKeyFromSt|
  00028	e2844001	 add         r4, r4, #1
  0002c	e3540008	 cmp         r4, #8
  00030	e2855008	 add         r5, r5, #8
  00034	3afffff6	 bcc         |$LL4@HKeyFromSt|
; Line 751
  00038	e3a00000	 mov         r0, #0
; Line 752
  0003c	e8bd80f0	 ldmia       sp!, {r4 - r7, pc}
  00040		 |$LN8@HKeyFromSt|
; Line 749
  00040	e2863004	 add         r3, r6, #4
  00044	e7930184	 ldr         r0, [r3, +r4, lsl #3]
; Line 752
  00048	e8bd80f0	 ldmia       sp!, {r4 - r7, pc}
  0004c		 |$LN13@HKeyFromSt|
  0004c		 |$LN14@HKeyFromSt|
  0004c	00000000	 DCD         |?map@?1??HKeyFromString@CRegParser@ATL@@KAPAUHKEY__@@PA_W@Z@4QBUkeymap@?1??123@KAPAU4@0@Z@B|
  00050		 |$M64997|

			 ENDP  ; |?HKeyFromString@CRegParser@ATL@@KAPAUHKEY__@@PA_W@Z|, ATL::CRegParser::HKeyFromString

	EXPORT	|?StrChrW@CRegParser@ATL@@KAPA_WPA_W_W@Z| ; ATL::CRegParser::StrChrW

  00000			 AREA	 |.pdata|, PDATA
|$T65017| DCD	|$LN13@StrChrW|
	DCD	0x40001201
; Function compile flags: /Ogspy

  00000			 AREA	 |.text|, CODE, ARM

  00000		 |?StrChrW@CRegParser@ATL@@KAPA_WPA_W_W@Z| PROC ; ATL::CRegParser::StrChrW
; Line 755
  00000		 |$LN13@StrChrW|
  00000	e92d4030	 stmdb       sp!, {r4, r5, lr}
  00004		 |$M65014|
  00004	e1a05001	 mov         r5, r1
  00008	e3500000	 cmp         r0, #0
; Line 756
  0000c	e3a04000	 mov         r4, #0
; Line 758
  00010	1a000005	 bne         |$LN7@StrChrW|
; Line 759
  00014	e3a04000	 mov         r4, #0
; Line 771
  00018	e1a00004	 mov         r0, r4
  0001c	e8bd8030	 ldmia       sp!, {r4, r5, pc}
  00020		 |$LL3@StrChrW|
; Line 763
  00020	e1530005	 cmp         r3, r5
  00024	0a000005	 beq         |$LN8@StrChrW|
; Line 768
  00028	eb000000	 bl          CharNextW
  0002c		 |$LN7@StrChrW|
  0002c	e1d030b0	 ldrh        r3, [r0]
  00030	e3530000	 cmp         r3, #0
  00034	1afffff9	 bne         |$LL3@StrChrW|
; Line 771
  00038	e1a00004	 mov         r0, r4
  0003c	e8bd8030	 ldmia       sp!, {r4, r5, pc}
  00040		 |$LN8@StrChrW|
; Line 765
  00040	e1a04000	 mov         r4, r0
; Line 771
  00044	e8bd8030	 ldmia       sp!, {r4, r5, pc}
  00048		 |$M65015|

			 ENDP  ; |?StrChrW@CRegParser@ATL@@KAPA_WPA_W_W@Z|, ATL::CRegParser::StrChrW

	EXPORT	|??0CRegParser@ATL@@QAA@PAVCRegObject@1@@Z| ; ATL::CRegParser::CRegParser

  00000			 AREA	 |.pdata|, PDATA
|$T65028| DCD	|$LN5@CRegParser|
	DCD	0x40000400
; Function compile flags: /Ogspy

  00000			 AREA	 |.text|, CODE, ARM

  00000		 |??0CRegParser@ATL@@QAA@PAVCRegObject@1@@Z| PROC ; ATL::CRegParser::CRegParser
; Line 774
  00000		 |$LN5@CRegParser|
  00000		 |$M65025|
; Line 776
  00000	e3a03000	 mov         r3, #0
  00004	e5803000	 str         r3, [r0]
  00008	e5801004	 str         r1, [r0, #4]
; Line 777
  0000c	e1a0f00e	 mov         pc, lr
  00010		 |$M65026|

			 ENDP  ; |??0CRegParser@ATL@@QAA@PAVCRegObject@1@@Z|, ATL::CRegParser::CRegParser

	EXPORT	|?IsSpace@CRegParser@ATL@@IAAH_W@Z|	; ATL::CRegParser::IsSpace

  00000			 AREA	 |.pdata|, PDATA
|$T65038| DCD	|$LN8@IsSpace|
	DCD	0x40000d00
; Function compile flags: /Ogspy

  00000			 AREA	 |.text|, CODE, ARM

  00000		 |?IsSpace@CRegParser@ATL@@IAAH_W@Z| PROC ; ATL::CRegParser::IsSpace
; Line 780
  00000		 |$LN8@IsSpace|
  00000		 |$M65035|
  00000	e1a03001	 mov         r3, r1
; Line 781
  00004	e3530009	 cmp         r3, #9
  00008	ba000007	 blt         |$LN2@IsSpace|
  0000c	e353000a	 cmp         r3, #0xA
  00010	da000003	 ble         |$LN1@IsSpace|
  00014	e353000d	 cmp         r3, #0xD
  00018	0a000001	 beq         |$LN1@IsSpace|
  0001c	e3530020	 cmp         r3, #0x20
  00020	1a000001	 bne         |$LN2@IsSpace|
  00024		 |$LN1@IsSpace|
; Line 787
  00024	e3a00001	 mov         r0, #1
; Line 791
  00028	e1a0f00e	 mov         pc, lr
  0002c		 |$LN2@IsSpace|
; Line 790
  0002c	e3a00000	 mov         r0, #0
; Line 791
  00030	e1a0f00e	 mov         pc, lr
  00034		 |$M65036|

			 ENDP  ; |?IsSpace@CRegParser@ATL@@IAAH_W@Z|, ATL::CRegParser::IsSpace

	EXPORT	|?SkipWhiteSpace@CRegParser@ATL@@IAAXXZ| ; ATL::CRegParser::SkipWhiteSpace

  00000			 AREA	 |.pdata|, PDATA
|$T65055| DCD	|$LN14@SkipWhiteS|
	DCD	0x40001001
; Function compile flags: /Ogspy

  00000			 AREA	 |.text|, CODE, ARM

  00000		 |?SkipWhiteSpace@CRegParser@ATL@@IAAXXZ| PROC ; ATL::CRegParser::SkipWhiteSpace
; Line 794
  00000		 |$LN14@SkipWhiteS|
  00000	e92d4010	 stmdb       sp!, {r4, lr}
  00004		 |$M65052|
  00004	e1a04000	 mov         r4, r0
  00008		 |$LL2@SkipWhiteS|
; Line 795
  00008	e5940000	 ldr         r0, [r4]
  0000c	e1d030b0	 ldrh        r3, [r0]
  00010	e3530009	 cmp         r3, #9
  00014	ba000008	 blt         |$LN6@SkipWhiteS|
  00018	e353000a	 cmp         r3, #0xA
  0001c	da000003	 ble         |$LN5@SkipWhiteS|
  00020	e353000d	 cmp         r3, #0xD
  00024	0a000001	 beq         |$LN5@SkipWhiteS|
  00028	e3530020	 cmp         r3, #0x20
  0002c	1a000002	 bne         |$LN6@SkipWhiteS|
  00030		 |$LN5@SkipWhiteS|
; Line 796
  00030	eb000000	 bl          CharNextW
  00034	e5840000	 str         r0, [r4]
  00038	eafffff2	 b           |$LL2@SkipWhiteS|
; Line 795
  0003c		 |$LN6@SkipWhiteS|
; Line 797
  0003c	e8bd8010	 ldmia       sp!, {r4, pc}
  00040		 |$M65053|

			 ENDP  ; |?SkipWhiteSpace@CRegParser@ATL@@IAAXXZ|, ATL::CRegParser::SkipWhiteSpace

	EXPORT	|?NextToken@CRegParser@ATL@@IAAJPA_W@Z|	; ATL::CRegParser::NextToken

  00000			 AREA	 |.pdata|, PDATA
|$T65112| DCD	|$LN54@NextToken|
	DCD	0x40006201
; Function compile flags: /Ogspy

  00000			 AREA	 |.text|, CODE, ARM

  00000		 |?NextToken@CRegParser@ATL@@IAAJPA_W@Z| PROC ; ATL::CRegParser::NextToken
; Line 802
  00000		 |$LN54@NextToken|
  00000	e92d40f0	 stmdb       sp!, {r4 - r7, lr}
  00004		 |$M65109|
  00004	e1a05001	 mov         r5, r1
  00008	e1a04000	 mov         r4, r0
; Line 803
  0000c	eb000000	 bl          |?SkipWhiteSpace@CRegParser@ATL@@IAAXXZ|
; Line 806
  00010	e5940000	 ldr         r0, [r4]
  00014	e1d030b0	 ldrh        r3, [r0]
  00018	e3530000	 cmp         r3, #0
; Line 807
  0001c	0a000056	 beq         |$LN42@NextToken|
; Line 812
  00020	e3530027	 cmp         r3, #0x27
  00024	1a000032	 bne         |$LN50@NextToken|
; Line 814
  00028	eb000000	 bl          CharNextW
  0002c	e5840000	 str         r0, [r4]
; Line 816
  00030	e1d030b0	 ldrh        r3, [r0]
  00034	e3530000	 cmp         r3, #0
  00038	0a000022	 beq         |$LN14@NextToken|
  0003c	e2857a02	 add         r7, r5, #2, 20	; 8192 (0x2000)
  00040		 |$LL15@NextToken|
  00040	e5940000	 ldr         r0, [r4]
  00044	e1d030b0	 ldrh        r3, [r0]
  00048	e3530027	 cmp         r3, #0x27
  0004c	1a000003	 bne         |$LN24@NextToken|
  00050	eb000000	 bl          CharNextW
  00054	e1d030b0	 ldrh        r3, [r0]
  00058	e3530027	 cmp         r3, #0x27
  0005c	1a000019	 bne         |$LN14@NextToken|
  00060		 |$LN24@NextToken|
; Line 818
  00060	e5940000	 ldr         r0, [r4]
  00064	e1d030b0	 ldrh        r3, [r0]
  00068	e3530027	 cmp         r3, #0x27
  0006c	1a000001	 bne         |$LN13@NextToken|
; Line 819
  00070	eb000000	 bl          CharNextW
  00074	e5840000	 str         r0, [r4]
  00078		 |$LN13@NextToken|
; Line 821
  00078	e5946000	 ldr         r6, [r4]
; Line 822
  0007c	e1a00006	 mov         r0, r6
  00080	eb000000	 bl          CharNextW
; Line 824
  00084	e0403006	 sub         r3, r0, r6
  00088	e1a020c3	 mov         r2, r3, asr #1
; Line 827
  0008c	e2823001	 add         r3, r2, #1
  00090	e0853083	 add         r3, r5, r3, lsl #1
  00094	e1530007	 cmp         r3, r7
  00098	e5840000	 str         r0, [r4]
  0009c	2a000036	 bcs         |$LN42@NextToken|
; Line 830
  000a0	e3520000	 cmp         r2, #0
  000a4	da000003	 ble         |$LN9@NextToken|
  000a8		 |$LL11@NextToken|
; Line 831
  000a8	e0d630b2	 ldrh        r3, [r6], #2
  000ac	e2522001	 subs        r2, r2, #1
  000b0	e0c530b2	 strh        r3, [r5], #2
  000b4	1afffffb	 bne         |$LL11@NextToken|
  000b8		 |$LN9@NextToken|
; Line 816
  000b8	e5943000	 ldr         r3, [r4]
  000bc	e1d330b0	 ldrh        r3, [r3]
  000c0	e3530000	 cmp         r3, #0
  000c4	1affffdd	 bne         |$LL15@NextToken|
  000c8		 |$LN14@NextToken|
; Line 834
  000c8	e5943000	 ldr         r3, [r4]
  000cc	e1d330b0	 ldrh        r3, [r3]
  000d0	e3530000	 cmp         r3, #0
; Line 837
  000d4	0a000028	 beq         |$LN42@NextToken|
; Line 840
  000d8	e3a03000	 mov         r3, #0
  000dc	e1c530b0	 strh        r3, [r5]
; Line 841
  000e0	e5940000	 ldr         r0, [r4]
  000e4	eb000000	 bl          CharNextW
  000e8	e5840000	 str         r0, [r4]
; Line 864
  000ec	e3a00000	 mov         r0, #0
; Line 865
  000f0	e8bd80f0	 ldmia       sp!, {r4 - r7, pc}
  000f4		 |$LN50@NextToken|
  000f4	e2857a02	 add         r7, r5, #2, 20	; 8192 (0x2000)
  000f8		 |$LL6@NextToken|
; Line 847
  000f8	e5946000	 ldr         r6, [r4]
  000fc	e1d630b0	 ldrh        r3, [r6]
  00100	e3530009	 cmp         r3, #9
  00104	ba000005	 blt         |$LN31@NextToken|
  00108	e353000a	 cmp         r3, #0xA
  0010c	da000016	 ble         |$LN5@NextToken|
  00110	e353000d	 cmp         r3, #0xD
  00114	0a000014	 beq         |$LN5@NextToken|
  00118	e3530020	 cmp         r3, #0x20
  0011c	0a000012	 beq         |$LN5@NextToken|
  00120		 |$LN31@NextToken|
; Line 850
  00120	e1a00006	 mov         r0, r6
  00124	eb000000	 bl          CharNextW
; Line 852
  00128	e0403006	 sub         r3, r0, r6
  0012c	e1a020c3	 mov         r2, r3, asr #1
; Line 855
  00130	e2823001	 add         r3, r2, #1
  00134	e0853083	 add         r3, r5, r3, lsl #1
  00138	e1530007	 cmp         r3, r7
  0013c	e5840000	 str         r0, [r4]
  00140	2a00000d	 bcs         |$LN42@NextToken|
; Line 858
  00144	e3520000	 cmp         r2, #0
  00148	da000003	 ble         |$LN1@NextToken|
  0014c		 |$LL3@NextToken|
; Line 859
  0014c	e0d630b2	 ldrh        r3, [r6], #2
  00150	e2522001	 subs        r2, r2, #1
  00154	e0c530b2	 strh        r3, [r5], #2
  00158	1afffffb	 bne         |$LL3@NextToken|
  0015c		 |$LN1@NextToken|
; Line 847
  0015c	e5943000	 ldr         r3, [r4]
  00160	e1d330b0	 ldrh        r3, [r3]
  00164	e3530000	 cmp         r3, #0
  00168	1affffe2	 bne         |$LL6@NextToken|
  0016c		 |$LN5@NextToken|
; Line 862
  0016c	e3a03000	 mov         r3, #0
  00170	e1c530b0	 strh        r3, [r5]
; Line 864
  00174	e3a00000	 mov         r0, #0
; Line 865
  00178	e8bd80f0	 ldmia       sp!, {r4 - r7, pc}
  0017c		 |$LN42@NextToken|
; Line 864
  0017c	e3a03126	 mov         r3, #0x26, 2
; Line 856
  00180	e3830802	 orr         r0, r3, #2, 16	; 131072 (0x20000)
; Line 865
  00184	e8bd80f0	 ldmia       sp!, {r4 - r7, pc}
  00188		 |$M65110|

			 ENDP  ; |?NextToken@CRegParser@ATL@@IAAJPA_W@Z|, ATL::CRegParser::NextToken

	EXPORT	|?CanForceRemoveKey@CRegParser@ATL@@IAAHPB_W@Z| ; ATL::CRegParser::CanForceRemoveKey

  00000			 AREA	 |.pdata|, PDATA
|$T65126| DCD	|$LN12@CanForceRe|
	DCD	0x40001201
; Function compile flags: /Ogspy

  00000			 AREA	 |.text|, CODE, ARM

  00000		 |?CanForceRemoveKey@CRegParser@ATL@@IAAHPB_W@Z| PROC ; ATL::CRegParser::CanForceRemoveKey
; Line 999
  00000		 |$LN12@CanForceRe|
  00000	e92d4070	 stmdb       sp!, {r4 - r6, lr}
  00004		 |$M65123|
  00004	e1a06001	 mov         r6, r1
; Line 1000
  00008	e59f5034	 ldr         r5, [pc, #0x34]
  0000c	e3a04000	 mov         r4, #0
  00010		 |$LL4@CanForceRe|
; Line 1001
  00010	e5951000	 ldr         r1, [r5]
  00014	e1a00006	 mov         r0, r6
  00018	eb000000	 bl          lstrcmpiW
  0001c	e3500000	 cmp         r0, #0
  00020	0a000005	 beq         |$LN8@CanForceRe|
  00024	e2844001	 add         r4, r4, #1
  00028	e354000c	 cmp         r4, #0xC
  0002c	e2855004	 add         r5, r5, #4
  00030	bafffff6	 blt         |$LL4@CanForceRe|
; Line 1004
  00034	e3a00001	 mov         r0, #1
; Line 1005
  00038	e8bd8070	 ldmia       sp!, {r4 - r6, pc}
  0003c		 |$LN8@CanForceRe|
; Line 1002
  0003c	e3a00000	 mov         r0, #0
; Line 1005
  00040	e8bd8070	 ldmia       sp!, {r4 - r6, pc}
  00044		 |$LN13@CanForceRe|
  00044		 |$LN14@CanForceRe|
  00044	00000000	 DCD         |?rgszNeverDelete@CRegParser@ATL@@1QBQB_WB|
  00048		 |$M65124|

			 ENDP  ; |?CanForceRemoveKey@CRegParser@ATL@@IAAHPB_W@Z|, ATL::CRegParser::CanForceRemoveKey

	EXPORT	|?HasSubKeys@CRegParser@ATL@@IAAHPAUHKEY__@@@Z| ; ATL::CRegParser::HasSubKeys
	IMPORT	|RegQueryInfoKeyW|

  00000			 AREA	 |.pdata|, PDATA
|$T65140| DCD	|$LN8@HasSubKeys|
	DCD	0x40001d02
; Function compile flags: /Ogspy

  00000			 AREA	 |.text|, CODE, ARM

  00000		 |?HasSubKeys@CRegParser@ATL@@IAAHPAUHKEY__@@@Z| PROC ; ATL::CRegParser::HasSubKeys
; Line 1008
  00000		 |$LN8@HasSubKeys|
  00000	e52de004	 str         lr, [sp, #-4]!
  00004	e24dd024	 sub         sp, sp, #0x24
  00008		 |$M65137|
  00008	e1a00001	 mov         r0, r1
; Line 1009
  0000c	e3a02000	 mov         r2, #0
; Line 1013
  00010	e28d3020	 add         r3, sp, #0x20
  00014	e58d2020	 str         r2, [sp, #0x20]
  00018	e58d3000	 str         r3, [sp]
  0001c	e3a0e000	 mov         lr, #0
  00020	e3a03000	 mov         r3, #0
  00024	e3a02000	 mov         r2, #0
  00028	e3a01000	 mov         r1, #0
  0002c	e58de01c	 str         lr, [sp, #0x1C]
  00030	e58de018	 str         lr, [sp, #0x18]
  00034	e58de014	 str         lr, [sp, #0x14]
  00038	e58de010	 str         lr, [sp, #0x10]
  0003c	e58de00c	 str         lr, [sp, #0xC]
  00040	e58de008	 str         lr, [sp, #8]
  00044	e58de004	 str         lr, [sp, #4]
  00048	eb000000	 bl          RegQueryInfoKeyW
  0004c	e3500000	 cmp         r0, #0
; Line 1017
  00050	1a000004	 bne         |$LN4@HasSubKeys|
; Line 1020
  00054	e59d3020	 ldr         r3, [sp, #0x20]
  00058	e3530000	 cmp         r3, #0
  0005c	13a00001	 movne       r0, #1
; Line 1021
  00060	128dd024	 addne       sp, sp, #0x24
  00064	149df004	 ldrne       pc, [sp], #4
  00068		 |$LN4@HasSubKeys|
; Line 1020
  00068	e3a00000	 mov         r0, #0
; Line 1021
  0006c	e28dd024	 add         sp, sp, #0x24
  00070	e49df004	 ldr         pc, [sp], #4
  00074		 |$M65138|

			 ENDP  ; |?HasSubKeys@CRegParser@ATL@@IAAHPAUHKEY__@@@Z|, ATL::CRegParser::HasSubKeys

	EXPORT	|__$ArrayPad$| [ DATA ]
	EXPORT	|?SkipAssignment@CRegParser@ATL@@IAAJPA_W@Z| ; ATL::CRegParser::SkipAssignment
	IMPORT	|__GSHandlerCheck|
	IMPORT	|__security_cookie|
	IMPORT	|__security_check_cookie|

  00000			 AREA	 |.pdata|, PDATA
|$T65164| DCD	|$LN10@SkipAssign|
	DCD	0xc0002a03

  00000			 AREA	 |.xdata|, DATA
|$T65160| DCD	0xffffffec
; Function compile flags: /Ogspy

  00000			 AREA	 |.text|, CODE, ARM

  00000	00000000	 DCD         |__GSHandlerCheck|
  00004	00000000	 DCD         |$T65160|

  00008		 |?SkipAssignment@CRegParser@ATL@@IAAJPA_W@Z| PROC ; ATL::CRegParser::SkipAssignment
; Line 1052
  00008		 |$LN10@SkipAssign|
  00008	e92d4070	 stmdb       sp!, {r4 - r6, lr}
  0000c	e59fc098	 ldr         r12, [pc, #0x98]
  00010	e08dd00c	 add         sp, sp, r12
  00014		 |$M65161|
  00014	e1a06001	 mov         r6, r1
  00018	e1a05000	 mov         r5, r0
  0001c	e59f3084	 ldr         r3, [pc, #0x84]
  00020	e5933000	 ldr         r3, [r3]
  00024	e28dca02	 add         r12, sp, #2, 20	; 8192 (0x2000)
  00028	e58c3000	 str         r3, [r12]
; Line 1056
  0002c	e1d630b0	 ldrh        r3, [r6]
  00030	e353003d	 cmp         r3, #0x3D
  00034	1a000012	 bne         |$LN1@SkipAssign|
; Line 1058
  00038	eb000000	 bl          |?NextToken@CRegParser@ATL@@IAAJPA_W@Z|
  0003c	e1b04000	 movs        r4, r0
  00040	5a000003	 bpl         |$LN3@SkipAssign|
  00044		 |$LN7@SkipAssign|
; Line 1059
  00044	e28d0a02	 add         r0, sp, #2, 20	; 8192 (0x2000)
  00048	e5900000	 ldr         r0, [r0]
  0004c	eb000000	 bl          __security_check_cookie
  00050	ea00000f	 b           |$LN5@SkipAssign|
  00054		 |$LN3@SkipAssign|
; Line 1061
  00054	e1a00005	 mov         r0, r5
  00058	eb000000	 bl          |?SkipWhiteSpace@CRegParser@ATL@@IAAXXZ|
; Line 1062
  0005c	e28d1000	 add         r1, sp, #0
  00060	e1a00005	 mov         r0, r5
  00064	eb000000	 bl          |?NextToken@CRegParser@ATL@@IAAJPA_W@Z|
  00068	e1b04000	 movs        r4, r0
; Line 1063
  0006c	4afffff4	 bmi         |$LN7@SkipAssign|
; Line 1064
  00070	e1a01006	 mov         r1, r6
  00074	e1a00005	 mov         r0, r5
  00078	eb000000	 bl          |?NextToken@CRegParser@ATL@@IAAJPA_W@Z|
  0007c	e1b04000	 movs        r4, r0
; Line 1065
  00080	4affffef	 bmi         |$LN7@SkipAssign|
  00084		 |$LN1@SkipAssign|
; Line 1068
  00084	e28d0a02	 add         r0, sp, #2, 20	; 8192 (0x2000)
  00088	e5900000	 ldr         r0, [r0]
  0008c	eb000000	 bl          __security_check_cookie
  00090	e3a04000	 mov         r4, #0
  00094		 |$LN5@SkipAssign|
; Line 1069
  00094	e1a00004	 mov         r0, r4
  00098	e3a0ca02	 mov         r12, #2, 20
  0009c	e38cc004	 orr         r12, r12, #4
  000a0	e08dd00c	 add         sp, sp, r12
  000a4	e8bd8070	 ldmia       sp!, {r4 - r6, pc}
  000a8		 |$LN11@SkipAssign|
  000a8		 |$LN12@SkipAssign|
  000a8	00000000	 DCD         |__security_cookie|
  000ac		 |$LN13@SkipAssign|
  000ac	ffffdffc	 DCD         0xffffdffc
  000b0		 |$M65162|

			 ENDP  ; |?SkipAssignment@CRegParser@ATL@@IAAJPA_W@Z|, ATL::CRegParser::SkipAssignment

	EXPORT	|??0CComAutoDeleteCriticalSection@ATL@@QAA@XZ| ; ATL::CComAutoDeleteCriticalSection::CComAutoDeleteCriticalSection

  00000			 AREA	 |.pdata|, PDATA
|$T65187| DCD	|$LN10@CComAutoDe@2|
	DCD	0x40000901
; Function compile flags: /Ogspy

  00000			 AREA	 |.text|, CODE, ARM

  00000		 |??0CComAutoDeleteCriticalSection@ATL@@QAA@XZ| PROC ; ATL::CComAutoDeleteCriticalSection::CComAutoDeleteCriticalSection
  00000		 |$LN10@CComAutoDe@2|
  00000	e92d4010	 stmdb       sp!, {r4, lr}
  00004		 |$M65184|
  00004	e1a04000	 mov         r4, r0
  00008	e3a02014	 mov         r2, #0x14
  0000c	e3a01000	 mov         r1, #0
  00010	eb000000	 bl          memset
  00014	e3a03000	 mov         r3, #0
  00018	e5c43014	 strb        r3, [r4, #0x14]
  0001c	e1a00004	 mov         r0, r4
  00020	e8bd8010	 ldmia       sp!, {r4, pc}
  00024		 |$M65185|

			 ENDP  ; |??0CComAutoDeleteCriticalSection@ATL@@QAA@XZ|, ATL::CComAutoDeleteCriticalSection::CComAutoDeleteCriticalSection

	EXPORT	|??0IUnknown@@QAA@XZ|			; IUnknown::IUnknown

  00000			 AREA	 |.pdata|, PDATA
|$T65197| DCD	|$LN5@IUnknown|
	DCD	0x40000100
; Function compile flags: /Ogspy

  00000			 AREA	 |.text|, CODE, ARM

  00000		 |??0IUnknown@@QAA@XZ| PROC		; IUnknown::IUnknown
  00000		 |$LN5@IUnknown|
  00000		 |$M65194|
  00000	e1a0f00e	 mov         pc, lr
  00004		 |$M65195|

			 ENDP  ; |??0IUnknown@@QAA@XZ|, IUnknown::IUnknown

; File c:\program files (x86)\microsoft visual studio 9.0\vc\ce\atlmfc\include\atlbase.h

  00000			 AREA	 |.pdata|, PDATA
|$T65213| DCD	|$LN18@AtlFindExt|
	DCD	0x40001701
; Function compile flags: /Ogspy

  00000			 AREA	 |.text|, CODE, ARM

  00000		 |?AtlFindExtension@ATL@@YAPA_WPB_W@Z| PROC ; ATL::AtlFindExtension
; Line 6555
  00000		 |$LN18@AtlFindExt|
  00000	e92d4010	 stmdb       sp!, {r4, lr}
  00004		 |$M65210|
  00004	e3500000	 cmp         r0, #0
; Line 6557
  00008	e3a04000	 mov         r4, #0
  0000c	0a000010	 beq         |$LN12@AtlFindExt|
; Line 6559
  00010	e1d030b0	 ldrh        r3, [r0]
  00014	e3530000	 cmp         r3, #0
  00018	0a00000c	 beq         |$LN15@AtlFindExt|
  0001c		 |$LL7@AtlFindExt|
; Line 6561
  0001c	e353002e	 cmp         r3, #0x2E
  00020	0a000003	 beq         |$LN2@AtlFindExt|
  00024	e353005c	 cmp         r3, #0x5C
  00028	1a000002	 bne         |$LN4@AtlFindExt|
; Line 6564
  0002c	e3a04000	 mov         r4, #0
; Line 6565
  00030	ea000000	 b           |$LN4@AtlFindExt|
  00034		 |$LN2@AtlFindExt|
; Line 6567
  00034	e1a04000	 mov         r4, r0
  00038		 |$LN4@AtlFindExt|
; Line 6572
  00038	eb000000	 bl          CharNextW
  0003c	e1d030b0	 ldrh        r3, [r0]
  00040	e3530000	 cmp         r3, #0
  00044	1afffff4	 bne         |$LL7@AtlFindExt|
; Line 6574
  00048	e3540000	 cmp         r4, #0
  0004c	1a000000	 bne         |$LN12@AtlFindExt|
  00050		 |$LN15@AtlFindExt|
  00050	e1a04000	 mov         r4, r0
  00054		 |$LN12@AtlFindExt|
; Line 6575
  00054	e1a00004	 mov         r0, r4
  00058	e8bd8010	 ldmia       sp!, {r4, pc}
  0005c		 |$M65211|

			 ENDP  ; |?AtlFindExtension@ATL@@YAPA_WPB_W@Z|, ATL::AtlFindExtension

	EXPORT	|?AtlGetPerUserRegistration@ATL@@YAJPA_N@Z| ; ATL::AtlGetPerUserRegistration

  00000			 AREA	 |.pdata|, PDATA
|$T65223| DCD	|$LN6@AtlGetPerU|
	DCD	0x40000900
; Function compile flags: /Ogspy

  00000			 AREA	 |.text|, CODE, ARM

  00000		 |?AtlGetPerUserRegistration@ATL@@YAJPA_N@Z| PROC ; ATL::AtlGetPerUserRegistration
; Line 6587
  00000		 |$LN6@AtlGetPerU|
  00000		 |$M65220|
  00000	e1b02000	 movs        r2, r0
; Line 6588
  00004	03a0310e	 moveq       r3, #0xE, 2
; Line 6589
  00008	03830901	 orreq       r0, r3, #1, 18	; 16384 (0x4000)
; Line 6591
  0000c	159f300c	 ldrne       r3, [pc, #0xC]
; Line 6592
  00010	13a00000	 movne       r0, #0
  00014	15d33000	 ldrneb      r3, [r3]
  00018	15c23000	 strneb      r3, [r2]
; Line 6593
  0001c	e1a0f00e	 mov         pc, lr
  00020		 |$LN7@AtlGetPerU|
  00020		 |$LN8@AtlGetPerU|
  00020	00000000	 DCD         |?_AtlRegisterPerUser@ATL@@3_NA|
  00024		 |$M65221|

			 ENDP  ; |?AtlGetPerUserRegistration@ATL@@YAJPA_N@Z|, ATL::AtlGetPerUserRegistration


  00000			 AREA	 |.pdata|, PDATA
|$T65241| DCD	|$LN13@AtlGetDirL|
	DCD	0x40001901
; Function compile flags: /Ogspy

  00000			 AREA	 |.text|, CODE, ARM

  00000		 |?AtlGetDirLen@ATL@@YAIPB_W@Z| PROC	; ATL::AtlGetDirLen
; Line 6830
  00000		 |$LN13@AtlGetDirL|
  00000	e92d4070	 stmdb       sp!, {r4 - r6, lr}
  00004		 |$M65238|
  00004	e1b04000	 movs        r4, r0
; Line 6833
  00008	03a00000	 moveq       r0, #0
; Line 6849
  0000c	08bd8070	 ldmeqia     sp!, {r4 - r6, pc}
; Line 6837
  00010	e1d430b0	 ldrh        r3, [r4]
  00014	e1a06004	 mov         r6, r4
  00018	e1a05004	 mov         r5, r4
  0001c	ea00000b	 b           |$LN10@AtlGetDirL|
  00020		 |$LL4@AtlGetDirL|
; Line 6840
  00020	e1a00005	 mov         r0, r5
  00024	eb000000	 bl          CharNextW
; Line 6843
  00028	e1d530b0	 ldrh        r3, [r5]
  0002c	e1a05000	 mov         r5, r0
  00030	e353005c	 cmp         r3, #0x5C
  00034	0a000003	 beq         |$LN1@AtlGetDirL|
  00038	e353002f	 cmp         r3, #0x2F
  0003c	0a000001	 beq         |$LN1@AtlGetDirL|
  00040	e353003a	 cmp         r3, #0x3A
  00044	1a000000	 bne         |$LN2@AtlGetDirL|
  00048		 |$LN1@AtlGetDirL|
; Line 6844
  00048	e1a06005	 mov         r6, r5
  0004c		 |$LN2@AtlGetDirL|
; Line 6837
  0004c	e1d530b0	 ldrh        r3, [r5]
  00050		 |$LN10@AtlGetDirL|
; Line 6845
  00050	e3530000	 cmp         r3, #0
  00054	1afffff1	 bne         |$LL4@AtlGetDirL|
; Line 6848
  00058	e0463004	 sub         r3, r6, r4
  0005c	e1a000c3	 mov         r0, r3, asr #1
; Line 6849
  00060	e8bd8070	 ldmia       sp!, {r4 - r6, pc}
  00064		 |$M65239|

			 ENDP  ; |?AtlGetDirLen@ATL@@YAIPB_W@Z|, ATL::AtlGetDirLen

	EXPORT	|?AtlUnRegisterTypeLib@ATL@@YAJPAUHINSTANCE__@@PB_W@Z| ; ATL::AtlUnRegisterTypeLib

  00000			 AREA	 |.pdata|, PDATA
|$T65250| DCD	|$LN5@AtlUnRegis|
	DCD	0x40000300
; Function compile flags: /Ogspy

  00000			 AREA	 |.text|, CODE, ARM

  00000		 |?AtlUnRegisterTypeLib@ATL@@YAJPAUHINSTANCE__@@PB_W@Z| PROC ; ATL::AtlUnRegisterTypeLib
; Line 6853
  00000		 |$LN5@AtlUnRegis|
  00000		 |$M65247|
  00000	e3a03106	 mov         r3, #6, 2
; Line 6901
  00004	e3830901	 orr         r0, r3, #1, 18	; 16384 (0x4000)
; Line 6904
  00008	e1a0f00e	 mov         pc, lr
  0000c		 |$M65248|

			 ENDP  ; |?AtlUnRegisterTypeLib@ATL@@YAJPAUHINSTANCE__@@PB_W@Z|, ATL::AtlUnRegisterTypeLib

	EXPORT	|?AtlComModuleUnregisterServer@ATL@@YAJPAU_ATL_COM_MODULE70@1@HPBU_GUID@@@Z| ; ATL::AtlComModuleUnregisterServer

  00000			 AREA	 |.pdata|, PDATA
|$T65277| DCD	|$LN22@AtlComModu|
	DCD	0x40000900
; Function compile flags: /Ogspy

  00000			 AREA	 |.text|, CODE, ARM

  00000		 |?AtlComModuleUnregisterServer@ATL@@YAJPAU_ATL_COM_MODULE70@1@HPBU_GUID@@@Z| PROC ; ATL::AtlComModuleUnregisterServer
; Line 7012
  00000		 |$LN22@AtlComModu|
  00000		 |$M65274|
  00000	e3500000	 cmp         r0, #0
; Line 7015
  00004	059f0014	 ldreq       r0, [pc, #0x14]	; -2147024809 (0x80070057)
; Line 7043
  00008	01a0f00e	 moveq       pc, lr
; Line 7017
  0000c	e3a00000	 mov         r0, #0
; Line 7039
  00010	e3510000	 cmp         r1, #0
  00014	13a03106	 movne       r3, #6, 2
; Line 7040
  00018	13830901	 orrne       r0, r3, #1, 18	; 16384 (0x4000)
; Line 7043
  0001c	e1a0f00e	 mov         pc, lr
  00020		 |$LN23@AtlComModu|
  00020		 |$LN24@AtlComModu|
  00020	80070057	 DCD         0x80070057
  00024		 |$M65275|

			 ENDP  ; |?AtlComModuleUnregisterServer@ATL@@YAJPAU_ATL_COM_MODULE70@1@HPBU_GUID@@@Z|, ATL::AtlComModuleUnregisterServer

	EXPORT	|?AtlCallTermFunc@ATL@@YAXPAU_ATL_MODULE70@1@@Z| ; ATL::AtlCallTermFunc
	IMPORT	|??3@YAXPAX@Z|				; operator delete
; File c:\program files (x86)\microsoft visual studio 9.0\vc\ce\atlmfc\include\atlexcept.h

  00000			 AREA	 |.pdata|, PDATA
|$T65297| DCD	|$LN14@AtlCallTer|
	DCD	0x40001601
; Function compile flags: /Ogspy

  00000			 AREA	 |.text|, CODE, ARM

  00000		 |?AtlCallTermFunc@ATL@@YAXPAU_ATL_MODULE70@1@@Z| PROC ; ATL::AtlCallTermFunc
; File c:\program files (x86)\microsoft visual studio 9.0\vc\ce\atlmfc\include\atlbase.inl
; Line 427
  00000		 |$LN14@AtlCallTer|
  00000	e92d4030	 stmdb       sp!, {r4, r5, lr}
  00004		 |$M65294|
  00004	e1b04000	 movs        r4, r0
; Line 428
  00008	1a000004	 bne         |$LN3@AtlCallTer|
; Line 429
  0000c	e3a03000	 mov         r3, #0
  00010	e3a02000	 mov         r2, #0
  00014	e3a01001	 mov         r1, #1
  00018	e3a00117	 mov         r0, #0x17, 2
  0001c	eb000000	 bl          RaiseException
  00020		 |$LN15@AtlCallTer|
  00020		 |$LN3@AtlCallTer|
; Line 431
  00020	e5943008	 ldr         r3, [r4, #8]
  00024	e1b05003	 movs        r5, r3
; Line 433
  00028	0a000007	 beq         |$LN1@AtlCallTer|
  0002c		 |$LL2@AtlCallTer|
; Line 435
  0002c	e5950004	 ldr         r0, [r5, #4]
  00030	e1a0e00f	 mov         lr, pc
  00034	e595f000	 ldr         pc, [r5]
; Line 437
  00038	e1a00005	 mov         r0, r5
  0003c	e5955008	 ldr         r5, [r5, #8]
  00040	eb000000	 bl          |??3@YAXPAX@Z|
; Line 438
  00044	e3550000	 cmp         r5, #0
  00048	1afffff7	 bne         |$LL2@AtlCallTer|
  0004c		 |$LN1@AtlCallTer|
; Line 440
  0004c	e3a03000	 mov         r3, #0
  00050	e5843008	 str         r3, [r4, #8]
; Line 441
  00054	e8bd8030	 ldmia       sp!, {r4, r5, pc}
  00058		 |$LN11@AtlCallTer|
  00058		 |$M65295|

			 ENDP  ; |?AtlCallTermFunc@ATL@@YAXPAU_ATL_MODULE70@1@@Z|, ATL::AtlCallTermFunc

	EXPORT	|??0?$CAtlSafeAllocBufferManager@VCCRTAllocator@ATL@@@_ATL_SAFE_ALLOCA_IMPL@ATL@@QAA@XZ| ; ATL::_ATL_SAFE_ALLOCA_IMPL::CAtlSafeAllocBufferManager<ATL::CCRTAllocator>::CAtlSafeAllocBufferManager<ATL::CCRTAllocator>
; File c:\program files (x86)\microsoft visual studio 9.0\vc\ce\atlmfc\include\atlalloc.h

  00000			 AREA	 |.pdata|, PDATA
|$T65308| DCD	|$LN5@CAtlSafeAl|
	DCD	0x40000300
; Function compile flags: /Ogspy

  00000			 AREA	 |.text|, CODE, ARM

  00000		 |??0?$CAtlSafeAllocBufferManager@VCCRTAllocator@ATL@@@_ATL_SAFE_ALLOCA_IMPL@ATL@@QAA@XZ| PROC ; ATL::_ATL_SAFE_ALLOCA_IMPL::CAtlSafeAllocBufferManager<ATL::CCRTAllocator>::CAtlSafeAllocBufferManager<ATL::CCRTAllocator>
; Line 658
  00000		 |$LN5@CAtlSafeAl|
  00000		 |$M65305|
  00000	e3a03000	 mov         r3, #0
  00004	e5803000	 str         r3, [r0]
  00008	e1a0f00e	 mov         pc, lr
  0000c		 |$M65306|

			 ENDP  ; |??0?$CAtlSafeAllocBufferManager@VCCRTAllocator@ATL@@@_ATL_SAFE_ALLOCA_IMPL@ATL@@QAA@XZ|, ATL::_ATL_SAFE_ALLOCA_IMPL::CAtlSafeAllocBufferManager<ATL::CCRTAllocator>::CAtlSafeAllocBufferManager<ATL::CCRTAllocator>

	EXPORT	|??1?$CAtlSafeAllocBufferManager@VCCRTAllocator@ATL@@@_ATL_SAFE_ALLOCA_IMPL@ATL@@QAA@XZ| ; ATL::_ATL_SAFE_ALLOCA_IMPL::CAtlSafeAllocBufferManager<ATL::CCRTAllocator>::~CAtlSafeAllocBufferManager<ATL::CCRTAllocator>

  00000			 AREA	 |.pdata|, PDATA
|$T65324| DCD	|$LN13@CAtlSafeAl@2|
	DCD	0x40000b01
; Function compile flags: /Ogspy

  00000			 AREA	 |.text|, CODE, ARM

  00000		 |??1?$CAtlSafeAllocBufferManager@VCCRTAllocator@ATL@@@_ATL_SAFE_ALLOCA_IMPL@ATL@@QAA@XZ| PROC ; ATL::_ATL_SAFE_ALLOCA_IMPL::CAtlSafeAllocBufferManager<ATL::CCRTAllocator>::~CAtlSafeAllocBufferManager<ATL::CCRTAllocator>
; Line 672
  00000		 |$LN13@CAtlSafeAl@2|
  00000	e92d4010	 stmdb       sp!, {r4, lr}
  00004		 |$M65321|
  00004	e1a04000	 mov         r4, r0
; Line 674
  00008	ea000003	 b           |$LN10@CAtlSafeAl@2|
  0000c		 |$LL2@CAtlSafeAl@2|
; Line 676
  0000c	e5940000	 ldr         r0, [r4]
; Line 677
  00010	e5903000	 ldr         r3, [r0]
; Line 678
  00014	e5843000	 str         r3, [r4]
  00018	eb000000	 bl          free
  0001c		 |$LN10@CAtlSafeAl@2|
  0001c	e5943000	 ldr         r3, [r4]
  00020	e3530000	 cmp         r3, #0
  00024	1afffff8	 bne         |$LL2@CAtlSafeAl@2|
; Line 680
  00028	e8bd8010	 ldmia       sp!, {r4, pc}
  0002c		 |$M65322|

			 ENDP  ; |??1?$CAtlSafeAllocBufferManager@VCCRTAllocator@ATL@@@_ATL_SAFE_ALLOCA_IMPL@ATL@@QAA@XZ|, ATL::_ATL_SAFE_ALLOCA_IMPL::CAtlSafeAllocBufferManager<ATL::CCRTAllocator>::~CAtlSafeAllocBufferManager<ATL::CCRTAllocator>

	EXPORT	|??0?$CSimpleMap@PA_WPA_WVCExpansionVectorEqualHelper@ATL@@@ATL@@QAA@XZ| ; ATL::CSimpleMap<wchar_t *,wchar_t *,ATL::CExpansionVectorEqualHelper>::CSimpleMap<wchar_t *,wchar_t *,ATL::CExpansionVectorEqualHelper>
; File c:\program files (x86)\microsoft visual studio 9.0\vc\ce\atlmfc\include\atlsimpcoll.h

  00000			 AREA	 |.pdata|, PDATA
|$T65334| DCD	|$LN5@CSimpleMap|
	DCD	0x40000500
; Function compile flags: /Ogspy

  00000			 AREA	 |.text|, CODE, ARM

  00000		 |??0?$CSimpleMap@PA_WPA_WVCExpansionVectorEqualHelper@ATL@@@ATL@@QAA@XZ| PROC ; ATL::CSimpleMap<wchar_t *,wchar_t *,ATL::CExpansionVectorEqualHelper>::CSimpleMap<wchar_t *,wchar_t *,ATL::CExpansionVectorEqualHelper>
; Line 299
  00000		 |$LN5@CSimpleMap|
  00000		 |$M65331|
  00000	e3a03000	 mov         r3, #0
  00004	e5803000	 str         r3, [r0]
  00008	e5803004	 str         r3, [r0, #4]
  0000c	e5803008	 str         r3, [r0, #8]
  00010	e1a0f00e	 mov         pc, lr
  00014		 |$M65332|

			 ENDP  ; |??0?$CSimpleMap@PA_WPA_WVCExpansionVectorEqualHelper@ATL@@@ATL@@QAA@XZ|, ATL::CSimpleMap<wchar_t *,wchar_t *,ATL::CExpansionVectorEqualHelper>::CSimpleMap<wchar_t *,wchar_t *,ATL::CExpansionVectorEqualHelper>

	EXPORT	|?GetSize@?$CSimpleMap@PA_WPA_WVCExpansionVectorEqualHelper@ATL@@@ATL@@QBAHXZ| ; ATL::CSimpleMap<wchar_t *,wchar_t *,ATL::CExpansionVectorEqualHelper>::GetSize

  00000			 AREA	 |.pdata|, PDATA
|$T65344| DCD	|$LN5@GetSize|
	DCD	0x40000200
; Function compile flags: /Ogspy

  00000			 AREA	 |.text|, CODE, ARM

  00000		 |?GetSize@?$CSimpleMap@PA_WPA_WVCExpansionVectorEqualHelper@ATL@@@ATL@@QBAHXZ| PROC ; ATL::CSimpleMap<wchar_t *,wchar_t *,ATL::CExpansionVectorEqualHelper>::GetSize
; Line 308
  00000		 |$LN5@GetSize|
  00000		 |$M65341|
; Line 309
  00000	e5900008	 ldr         r0, [r0, #8]
; Line 310
  00004	e1a0f00e	 mov         pc, lr
  00008		 |$M65342|

			 ENDP  ; |?GetSize@?$CSimpleMap@PA_WPA_WVCExpansionVectorEqualHelper@ATL@@@ATL@@QBAHXZ|, ATL::CSimpleMap<wchar_t *,wchar_t *,ATL::CExpansionVectorEqualHelper>::GetSize

	EXPORT	|?RemoveAll@?$CSimpleMap@PA_WPA_WVCExpansionVectorEqualHelper@ATL@@@ATL@@QAAXXZ| ; ATL::CSimpleMap<wchar_t *,wchar_t *,ATL::CExpansionVectorEqualHelper>::RemoveAll

  00000			 AREA	 |.pdata|, PDATA
|$T65354| DCD	|$LN12@RemoveAll|
	DCD	0x40001101
; Function compile flags: /Ogspy

  00000			 AREA	 |.text|, CODE, ARM

  00000		 |?RemoveAll@?$CSimpleMap@PA_WPA_WVCExpansionVectorEqualHelper@ATL@@@ATL@@QAAXXZ| PROC ; ATL::CSimpleMap<wchar_t *,wchar_t *,ATL::CExpansionVectorEqualHelper>::RemoveAll
; Line 358
  00000		 |$LN12@RemoveAll|
  00000	e92d4030	 stmdb       sp!, {r4, r5, lr}
  00004		 |$M65351|
  00004	e1a04000	 mov         r4, r0
; Line 359
  00008	e5943000	 ldr         r3, [r4]
  0000c	e3a05000	 mov         r5, #0
  00010	e3530000	 cmp         r3, #0
  00014	0a000002	 beq         |$LN5@RemoveAll|
; Line 366
  00018	e1a00003	 mov         r0, r3
  0001c	eb000000	 bl          free
; Line 367
  00020	e5845000	 str         r5, [r4]
  00024		 |$LN5@RemoveAll|
; Line 369
  00024	e5943004	 ldr         r3, [r4, #4]
  00028	e3530000	 cmp         r3, #0
  0002c	0a000002	 beq         |$LN1@RemoveAll|
; Line 371
  00030	e1a00003	 mov         r0, r3
  00034	eb000000	 bl          free
; Line 372
  00038	e5845004	 str         r5, [r4, #4]
  0003c		 |$LN1@RemoveAll|
; Line 375
  0003c	e5845008	 str         r5, [r4, #8]
; Line 376
  00040	e8bd8030	 ldmia       sp!, {r4, r5, pc}
  00044		 |$M65352|

			 ENDP  ; |?RemoveAll@?$CSimpleMap@PA_WPA_WVCExpansionVectorEqualHelper@ATL@@@ATL@@QAAXXZ|, ATL::CSimpleMap<wchar_t *,wchar_t *,ATL::CExpansionVectorEqualHelper>::RemoveAll

	EXPORT	|?GetKeyAt@?$CSimpleMap@PA_WPA_WVCExpansionVectorEqualHelper@ATL@@@ATL@@QBAAAPA_WH@Z| ; ATL::CSimpleMap<wchar_t *,wchar_t *,ATL::CExpansionVectorEqualHelper>::GetKeyAt
; File c:\program files (x86)\microsoft visual studio 9.0\vc\ce\atlmfc\include\atlexcept.h

  00000			 AREA	 |.pdata|, PDATA
|$T65370| DCD	|$LN11@GetKeyAt|
	DCD	0x40000e01
; Function compile flags: /Ogspy

  00000			 AREA	 |.text|, CODE, ARM

  00000		 |?GetKeyAt@?$CSimpleMap@PA_WPA_WVCExpansionVectorEqualHelper@ATL@@@ATL@@QBAAAPA_WH@Z| PROC ; ATL::CSimpleMap<wchar_t *,wchar_t *,ATL::CExpansionVectorEqualHelper>::GetKeyAt
; File c:\program files (x86)\microsoft visual studio 9.0\vc\ce\atlmfc\include\atlsimpcoll.h
; Line 403
  00000		 |$LN11@GetKeyAt|
  00000	e52de004	 str         lr, [sp, #-4]!
  00004		 |$M65367|
  00004	e3510000	 cmp         r1, #0
; Line 405
  00008	4a000004	 bmi         |$LN1@GetKeyAt|
  0000c	e5903008	 ldr         r3, [r0, #8]
  00010	e1510003	 cmp         r1, r3
; Line 408
  00014	b5903000	 ldrlt       r3, [r0]
; Line 409
  00018	b0830101	 addlt       r0, r3, r1, lsl #2
  0001c	b49df004	 ldrlt       pc, [sp], #4
  00020		 |$LN1@GetKeyAt|
  00020	e3a03103	 mov         r3, #3, 2
  00024	e383008c	 orr         r0, r3, #0x8C
  00028	e3a03000	 mov         r3, #0
  0002c	e3a02000	 mov         r2, #0
  00030	e3a01001	 mov         r1, #1
  00034	eb000000	 bl          RaiseException
  00038		 |$LN12@GetKeyAt|
  00038		 |$LN8@GetKeyAt|
  00038		 |$M65368|

			 ENDP  ; |?GetKeyAt@?$CSimpleMap@PA_WPA_WVCExpansionVectorEqualHelper@ATL@@@ATL@@QBAAAPA_WH@Z|, ATL::CSimpleMap<wchar_t *,wchar_t *,ATL::CExpansionVectorEqualHelper>::GetKeyAt

	EXPORT	|?GetValueAt@?$CSimpleMap@PA_WPA_WVCExpansionVectorEqualHelper@ATL@@@ATL@@QBAAAPA_WH@Z| ; ATL::CSimpleMap<wchar_t *,wchar_t *,ATL::CExpansionVectorEqualHelper>::GetValueAt
; File c:\program files (x86)\microsoft visual studio 9.0\vc\ce\atlmfc\include\atlexcept.h

  00000			 AREA	 |.pdata|, PDATA
|$T65387| DCD	|$LN11@GetValueAt|
	DCD	0x40000e01
; Function compile flags: /Ogspy

  00000			 AREA	 |.text|, CODE, ARM

  00000		 |?GetValueAt@?$CSimpleMap@PA_WPA_WVCExpansionVectorEqualHelper@ATL@@@ATL@@QBAAAPA_WH@Z| PROC ; ATL::CSimpleMap<wchar_t *,wchar_t *,ATL::CExpansionVectorEqualHelper>::GetValueAt
; File c:\program files (x86)\microsoft visual studio 9.0\vc\ce\atlmfc\include\atlsimpcoll.h
; Line 411
  00000		 |$LN11@GetValueAt|
  00000	e52de004	 str         lr, [sp, #-4]!
  00004		 |$M65384|
  00004	e3510000	 cmp         r1, #0
; Line 413
  00008	4a000004	 bmi         |$LN1@GetValueAt|
  0000c	e5903008	 ldr         r3, [r0, #8]
  00010	e1510003	 cmp         r1, r3
; Line 416
  00014	b5903004	 ldrlt       r3, [r0, #4]
; Line 417
  00018	b0830101	 addlt       r0, r3, r1, lsl #2
  0001c	b49df004	 ldrlt       pc, [sp], #4
  00020		 |$LN1@GetValueAt|
  00020	e3a03103	 mov         r3, #3, 2
  00024	e383008c	 orr         r0, r3, #0x8C
  00028	e3a03000	 mov         r3, #0
  0002c	e3a02000	 mov         r2, #0
  00030	e3a01001	 mov         r1, #1
  00034	eb000000	 bl          RaiseException
  00038		 |$LN12@GetValueAt|
  00038		 |$LN8@GetValueAt|
  00038		 |$M65385|

			 ENDP  ; |?GetValueAt@?$CSimpleMap@PA_WPA_WVCExpansionVectorEqualHelper@ATL@@@ATL@@QBAAAPA_WH@Z|, ATL::CSimpleMap<wchar_t *,wchar_t *,ATL::CExpansionVectorEqualHelper>::GetValueAt

	EXPORT	|??0?$CAutoVectorPtr@_W@ATL@@QAA@XZ|	; ATL::CAutoVectorPtr<wchar_t>::CAutoVectorPtr<wchar_t>
; File c:\program files (x86)\microsoft visual studio 9.0\vc\ce\atlmfc\include\atlbase.h

  00000			 AREA	 |.pdata|, PDATA
|$T65398| DCD	|$LN5@CAutoVecto|
	DCD	0x40000300
; Function compile flags: /Ogspy

  00000			 AREA	 |.text|, CODE, ARM

  00000		 |??0?$CAutoVectorPtr@_W@ATL@@QAA@XZ| PROC ; ATL::CAutoVectorPtr<wchar_t>::CAutoVectorPtr<wchar_t>
; Line 638
  00000		 |$LN5@CAutoVecto|
  00000		 |$M65395|
  00000	e3a03000	 mov         r3, #0
  00004	e5803000	 str         r3, [r0]
; Line 639
  00008	e1a0f00e	 mov         pc, lr
  0000c		 |$M65396|

			 ENDP  ; |??0?$CAutoVectorPtr@_W@ATL@@QAA@XZ|, ATL::CAutoVectorPtr<wchar_t>::CAutoVectorPtr<wchar_t>

	EXPORT	|?Attach@?$CAutoVectorPtr@_W@ATL@@QAAXPA_W@Z| ; ATL::CAutoVectorPtr<wchar_t>::Attach

  00000			 AREA	 |.pdata|, PDATA
|$T65407| DCD	|$LN8@Attach@2|
	DCD	0x40000200
; Function compile flags: /Ogspy

  00000			 AREA	 |.text|, CODE, ARM

  00000		 |?Attach@?$CAutoVectorPtr@_W@ATL@@QAAXPA_W@Z| PROC ; ATL::CAutoVectorPtr<wchar_t>::Attach
; Line 718
  00000		 |$LN8@Attach@2|
  00000		 |$M65404|
; Line 720
  00000	e5801000	 str         r1, [r0]
; Line 721
  00004	e1a0f00e	 mov         pc, lr
  00008		 |$M65405|

			 ENDP  ; |?Attach@?$CAutoVectorPtr@_W@ATL@@QAAXPA_W@Z|, ATL::CAutoVectorPtr<wchar_t>::Attach

	EXPORT	|?Detach@?$CAutoVectorPtr@_W@ATL@@QAAPA_WXZ| ; ATL::CAutoVectorPtr<wchar_t>::Detach

  00000			 AREA	 |.pdata|, PDATA
|$T65418| DCD	|$LN5@Detach@3|
	DCD	0x40000500
; Function compile flags: /Ogspy

  00000			 AREA	 |.text|, CODE, ARM

  00000		 |?Detach@?$CAutoVectorPtr@_W@ATL@@QAAPA_WXZ| PROC ; ATL::CAutoVectorPtr<wchar_t>::Detach
; Line 724
  00000		 |$LN5@Detach@3|
  00000		 |$M65415|
  00000	e1a03000	 mov         r3, r0
; Line 728
  00004	e5930000	 ldr         r0, [r3]
  00008	e3a02000	 mov         r2, #0
  0000c	e5832000	 str         r2, [r3]
; Line 731
  00010	e1a0f00e	 mov         pc, lr
  00014		 |$M65416|

			 ENDP  ; |?Detach@?$CAutoVectorPtr@_W@ATL@@QAAPA_WXZ|, ATL::CAutoVectorPtr<wchar_t>::Detach

	EXPORT	|??0?$CTempBuffer@_W$0EAA@VCCRTAllocator@ATL@@@ATL@@QAA@XZ| ; ATL::CTempBuffer<wchar_t,1024,ATL::CCRTAllocator>::CTempBuffer<wchar_t,1024,ATL::CCRTAllocator>
; File c:\program files (x86)\microsoft visual studio 9.0\vc\ce\atlmfc\include\atlalloc.h

  00000			 AREA	 |.pdata|, PDATA
|$T65428| DCD	|$LN5@CTempBuffe|
	DCD	0x40000300
; Function compile flags: /Ogspy

  00000			 AREA	 |.text|, CODE, ARM

  00000		 |??0?$CTempBuffer@_W$0EAA@VCCRTAllocator@ATL@@@ATL@@QAA@XZ| PROC ; ATL::CTempBuffer<wchar_t,1024,ATL::CCRTAllocator>::CTempBuffer<wchar_t,1024,ATL::CCRTAllocator>
; Line 457
  00000		 |$LN5@CTempBuffe|
  00000		 |$M65425|
  00000	e3a03000	 mov         r3, #0
  00004	e5803000	 str         r3, [r0]
; Line 458
  00008	e1a0f00e	 mov         pc, lr
  0000c		 |$M65426|

			 ENDP  ; |??0?$CTempBuffer@_W$0EAA@VCCRTAllocator@ATL@@@ATL@@QAA@XZ|, ATL::CTempBuffer<wchar_t,1024,ATL::CCRTAllocator>::CTempBuffer<wchar_t,1024,ATL::CCRTAllocator>

	EXPORT	|??B?$CTempBuffer@_W$0EAA@VCCRTAllocator@ATL@@@ATL@@QBAPA_WXZ| ; ATL::CTempBuffer<wchar_t,1024,ATL::CCRTAllocator>::operator wchar_t *

  00000			 AREA	 |.pdata|, PDATA
|$T65438| DCD	|$LN5@operator@6|
	DCD	0x40000200
; Function compile flags: /Ogspy

  00000			 AREA	 |.text|, CODE, ARM

  00000		 |??B?$CTempBuffer@_W$0EAA@VCCRTAllocator@ATL@@@ATL@@QBAPA_WXZ| PROC ; ATL::CTempBuffer<wchar_t,1024,ATL::CCRTAllocator>::operator wchar_t *
; Line 474
  00000		 |$LN5@operator@6|
  00000		 |$M65435|
; Line 475
  00000	e5900000	 ldr         r0, [r0]
; Line 476
  00004	e1a0f00e	 mov         pc, lr
  00008		 |$M65436|

			 ENDP  ; |??B?$CTempBuffer@_W$0EAA@VCCRTAllocator@ATL@@@ATL@@QBAPA_WXZ|, ATL::CTempBuffer<wchar_t,1024,ATL::CCRTAllocator>::operator wchar_t *

	EXPORT	|??0?$CTempBuffer@_W$0BAA@VCCRTAllocator@ATL@@@ATL@@QAA@XZ| ; ATL::CTempBuffer<wchar_t,256,ATL::CCRTAllocator>::CTempBuffer<wchar_t,256,ATL::CCRTAllocator>

  00000			 AREA	 |.pdata|, PDATA
|$T65448| DCD	|$LN5@CTempBuffe@2|
	DCD	0x40000300
; Function compile flags: /Ogspy

  00000			 AREA	 |.text|, CODE, ARM

  00000		 |??0?$CTempBuffer@_W$0BAA@VCCRTAllocator@ATL@@@ATL@@QAA@XZ| PROC ; ATL::CTempBuffer<wchar_t,256,ATL::CCRTAllocator>::CTempBuffer<wchar_t,256,ATL::CCRTAllocator>
; Line 457
  00000		 |$LN5@CTempBuffe@2|
  00000		 |$M65445|
  00000	e3a03000	 mov         r3, #0
  00004	e5803000	 str         r3, [r0]
; Line 458
  00008	e1a0f00e	 mov         pc, lr
  0000c		 |$M65446|

			 ENDP  ; |??0?$CTempBuffer@_W$0BAA@VCCRTAllocator@ATL@@@ATL@@QAA@XZ|, ATL::CTempBuffer<wchar_t,256,ATL::CCRTAllocator>::CTempBuffer<wchar_t,256,ATL::CCRTAllocator>

	EXPORT	|??B?$CTempBuffer@_W$0BAA@VCCRTAllocator@ATL@@@ATL@@QBAPA_WXZ| ; ATL::CTempBuffer<wchar_t,256,ATL::CCRTAllocator>::operator wchar_t *

  00000			 AREA	 |.pdata|, PDATA
|$T65458| DCD	|$LN5@operator@7|
	DCD	0x40000200
; Function compile flags: /Ogspy

  00000			 AREA	 |.text|, CODE, ARM

  00000		 |??B?$CTempBuffer@_W$0BAA@VCCRTAllocator@ATL@@@ATL@@QBAPA_WXZ| PROC ; ATL::CTempBuffer<wchar_t,256,ATL::CCRTAllocator>::operator wchar_t *
; Line 474
  00000		 |$LN5@operator@7|
  00000		 |$M65455|
; Line 475
  00000	e5900000	 ldr         r0, [r0]
; Line 476
  00004	e1a0f00e	 mov         pc, lr
  00008		 |$M65456|

			 ENDP  ; |??B?$CTempBuffer@_W$0BAA@VCCRTAllocator@ATL@@@ATL@@QBAPA_WXZ|, ATL::CTempBuffer<wchar_t,256,ATL::CCRTAllocator>::operator wchar_t *

	EXPORT	|??0?$CTempBuffer@E$0BAA@VCCRTAllocator@ATL@@@ATL@@QAA@XZ| ; ATL::CTempBuffer<unsigned char,256,ATL::CCRTAllocator>::CTempBuffer<unsigned char,256,ATL::CCRTAllocator>

  00000			 AREA	 |.pdata|, PDATA
|$T65468| DCD	|$LN5@CTempBuffe@3|
	DCD	0x40000300
; Function compile flags: /Ogspy

  00000			 AREA	 |.text|, CODE, ARM

  00000		 |??0?$CTempBuffer@E$0BAA@VCCRTAllocator@ATL@@@ATL@@QAA@XZ| PROC ; ATL::CTempBuffer<unsigned char,256,ATL::CCRTAllocator>::CTempBuffer<unsigned char,256,ATL::CCRTAllocator>
; Line 457
  00000		 |$LN5@CTempBuffe@3|
  00000		 |$M65465|
  00000	e3a03000	 mov         r3, #0
  00004	e5803000	 str         r3, [r0]
; Line 458
  00008	e1a0f00e	 mov         pc, lr
  0000c		 |$M65466|

			 ENDP  ; |??0?$CTempBuffer@E$0BAA@VCCRTAllocator@ATL@@@ATL@@QAA@XZ|, ATL::CTempBuffer<unsigned char,256,ATL::CCRTAllocator>::CTempBuffer<unsigned char,256,ATL::CCRTAllocator>

	EXPORT	|??B?$CTempBuffer@E$0BAA@VCCRTAllocator@ATL@@@ATL@@QBAPAEXZ| ; ATL::CTempBuffer<unsigned char,256,ATL::CCRTAllocator>::operator unsigned char *

  00000			 AREA	 |.pdata|, PDATA
|$T65478| DCD	|$LN5@operator@8|
	DCD	0x40000200
; Function compile flags: /Ogspy

  00000			 AREA	 |.text|, CODE, ARM

  00000		 |??B?$CTempBuffer@E$0BAA@VCCRTAllocator@ATL@@@ATL@@QBAPAEXZ| PROC ; ATL::CTempBuffer<unsigned char,256,ATL::CCRTAllocator>::operator unsigned char *
; Line 474
  00000		 |$LN5@operator@8|
  00000		 |$M65475|
; Line 475
  00000	e5900000	 ldr         r0, [r0]
; Line 476
  00004	e1a0f00e	 mov         pc, lr
  00008		 |$M65476|

			 ENDP  ; |??B?$CTempBuffer@E$0BAA@VCCRTAllocator@ATL@@@ATL@@QBAPAEXZ|, ATL::CTempBuffer<unsigned char,256,ATL::CCRTAllocator>::operator unsigned char *

	EXPORT	|??1?$CComPtrBase@UITypeLib@@@ATL@@QAA@XZ| ; ATL::CComPtrBase<ITypeLib>::~CComPtrBase<ITypeLib>
; File c:\program files (x86)\microsoft visual studio 9.0\vc\ce\atlmfc\include\atlcomcli.h

  00000			 AREA	 |.pdata|, PDATA
|$T65486| DCD	|$LN6@CComPtrBas|
	DCD	0x40000701
; Function compile flags: /Ogspy

  00000			 AREA	 |.text|, CODE, ARM

  00000		 |??1?$CComPtrBase@UITypeLib@@@ATL@@QAA@XZ| PROC ; ATL::CComPtrBase<ITypeLib>::~CComPtrBase<ITypeLib>
; Line 150
  00000		 |$LN6@CComPtrBas|
  00000	e52de004	 str         lr, [sp, #-4]!
  00004		 |$M65483|
; Line 151
  00004	e5903000	 ldr         r3, [r0]
  00008	e1b00003	 movs        r0, r3
; Line 152
  0000c	15903000	 ldrne       r3, [r0]
  00010	11a0e00f	 movne       lr, pc
  00014	1593f008	 ldrne       pc, [r3, #8]
; Line 153
  00018	e49df004	 ldr         pc, [sp], #4
  0001c		 |$M65484|

			 ENDP  ; |??1?$CComPtrBase@UITypeLib@@@ATL@@QAA@XZ|, ATL::CComPtrBase<ITypeLib>::~CComPtrBase<ITypeLib>

	EXPORT	|??B?$CComPtrBase@UITypeLib@@@ATL@@QBAPAUITypeLib@@XZ| ; ATL::CComPtrBase<ITypeLib>::operator ITypeLib *

  00000			 AREA	 |.pdata|, PDATA
|$T65496| DCD	|$LN5@operator@9|
	DCD	0x40000200
; Function compile flags: /Ogspy

  00000			 AREA	 |.text|, CODE, ARM

  00000		 |??B?$CComPtrBase@UITypeLib@@@ATL@@QBAPAUITypeLib@@XZ| PROC ; ATL::CComPtrBase<ITypeLib>::operator ITypeLib *
; Line 155
  00000		 |$LN5@operator@9|
  00000		 |$M65493|
; Line 156
  00000	e5900000	 ldr         r0, [r0]
; Line 157
  00004	e1a0f00e	 mov         pc, lr
  00008		 |$M65494|

			 ENDP  ; |??B?$CComPtrBase@UITypeLib@@@ATL@@QBAPAUITypeLib@@XZ|, ATL::CComPtrBase<ITypeLib>::operator ITypeLib *

	EXPORT	|??I?$CComPtrBase@UITypeLib@@@ATL@@QAAPAPAUITypeLib@@XZ| ; ATL::CComPtrBase<ITypeLib>::operator&

  00000			 AREA	 |.pdata|, PDATA
|$T65506| DCD	|$LN5@operator@10|
	DCD	0x40000100
; Function compile flags: /Ogspy

  00000			 AREA	 |.text|, CODE, ARM

  00000		 |??I?$CComPtrBase@UITypeLib@@@ATL@@QAAPAPAUITypeLib@@XZ| PROC ; ATL::CComPtrBase<ITypeLib>::operator&
; Line 166
  00000		 |$LN5@operator@10|
  00000		 |$M65503|
; Line 169
  00000	e1a0f00e	 mov         pc, lr
  00004		 |$M65504|

			 ENDP  ; |??I?$CComPtrBase@UITypeLib@@@ATL@@QAAPAPAUITypeLib@@XZ|, ATL::CComPtrBase<ITypeLib>::operator&

	EXPORT	|??C?$CComPtrBase@UITypeLib@@@ATL@@QBAPAV?$_NoAddRefReleaseOnCComPtr@UITypeLib@@@1@XZ| ; ATL::CComPtrBase<ITypeLib>::operator->

  00000			 AREA	 |.pdata|, PDATA
|$T65516| DCD	|$LN5@operator@11|
	DCD	0x40000200
; Function compile flags: /Ogspy

  00000			 AREA	 |.text|, CODE, ARM

  00000		 |??C?$CComPtrBase@UITypeLib@@@ATL@@QBAPAV?$_NoAddRefReleaseOnCComPtr@UITypeLib@@@1@XZ| PROC ; ATL::CComPtrBase<ITypeLib>::operator->
; Line 171
  00000		 |$LN5@operator@11|
  00000		 |$M65513|
; Line 173
  00000	e5900000	 ldr         r0, [r0]
; Line 174
  00004	e1a0f00e	 mov         pc, lr
  00008		 |$M65514|

			 ENDP  ; |??C?$CComPtrBase@UITypeLib@@@ATL@@QBAPAV?$_NoAddRefReleaseOnCComPtr@UITypeLib@@@1@XZ|, ATL::CComPtrBase<ITypeLib>::operator->

	EXPORT	|?FindKey@?$CSimpleMap@PA_WPA_WVCExpansionVectorEqualHelper@ATL@@@ATL@@QBAHABQA_W@Z| ; ATL::CSimpleMap<wchar_t *,wchar_t *,ATL::CExpansionVectorEqualHelper>::FindKey
; File c:\program files (x86)\microsoft visual studio 9.0\vc\ce\atlmfc\include\statreg.h

  00000			 AREA	 |.pdata|, PDATA
|$T65541| DCD	|$LN15@FindKey|
	DCD	0x40001701
; Function compile flags: /Ogspy

  00000			 AREA	 |.text|, CODE, ARM

  00000		 |?FindKey@?$CSimpleMap@PA_WPA_WVCExpansionVectorEqualHelper@ATL@@@ATL@@QBAHABQA_W@Z| PROC ; ATL::CSimpleMap<wchar_t *,wchar_t *,ATL::CExpansionVectorEqualHelper>::FindKey
; File c:\program files (x86)\microsoft visual studio 9.0\vc\ce\atlmfc\include\atlsimpcoll.h
; Line 420
  00000		 |$LN15@FindKey|
  00000	e92d4070	 stmdb       sp!, {r4 - r6, lr}
  00004		 |$M65538|
  00004	e1a06001	 mov         r6, r1
  00008	e1a05000	 mov         r5, r0
; Line 421
  0000c	e5953008	 ldr         r3, [r5, #8]
  00010	e3a04000	 mov         r4, #0
  00014	e3530000	 cmp         r3, #0
  00018	da00000c	 ble         |$LN2@FindKey|
  0001c		 |$LL4@FindKey|
; Line 423
  0001c	e5953000	 ldr         r3, [r5]
  00020	e5961000	 ldr         r1, [r6]
  00024	e7930104	 ldr         r0, [r3, +r4, lsl #2]
  00028	eb000000	 bl          lstrcmpiW
  0002c	e3500000	 cmp         r0, #0
  00030	03a03001	 moveq       r3, #1
  00034	13a03000	 movne       r3, #0
  00038	e3530000	 cmp         r3, #0
  0003c	1a000004	 bne         |$LN5@FindKey|
  00040	e5953008	 ldr         r3, [r5, #8]
  00044	e2844001	 add         r4, r4, #1
  00048	e1540003	 cmp         r4, r3
  0004c	bafffff2	 blt         |$LL4@FindKey|
  00050		 |$LN2@FindKey|
; Line 426
  00050	e3e04000	 mvn         r4, #0
  00054		 |$LN5@FindKey|
; Line 427
  00054	e1a00004	 mov         r0, r4
  00058	e8bd8070	 ldmia       sp!, {r4 - r6, pc}
  0005c		 |$M65539|

			 ENDP  ; |?FindKey@?$CSimpleMap@PA_WPA_WVCExpansionVectorEqualHelper@ATL@@@ATL@@QBAHABQA_W@Z|, ATL::CSimpleMap<wchar_t *,wchar_t *,ATL::CExpansionVectorEqualHelper>::FindKey

	EXPORT	|?Free@?$CAutoVectorPtr@_W@ATL@@QAAXXZ|	; ATL::CAutoVectorPtr<wchar_t>::Free
; File c:\program files (x86)\microsoft visual studio 9.0\vc\ce\atlmfc\include\atlbase.h

  00000			 AREA	 |.pdata|, PDATA
|$T65550| DCD	|$LN5@Free@2|
	DCD	0x40000701
; Function compile flags: /Ogspy

  00000			 AREA	 |.text|, CODE, ARM

  00000		 |?Free@?$CAutoVectorPtr@_W@ATL@@QAAXXZ| PROC ; ATL::CAutoVectorPtr<wchar_t>::Free
; Line 734
  00000		 |$LN5@Free@2|
  00000	e92d4010	 stmdb       sp!, {r4, lr}
  00004		 |$M65547|
  00004	e1a04000	 mov         r4, r0
; Line 735
  00008	e5940000	 ldr         r0, [r4]
  0000c	eb000000	 bl          |??3@YAXPAX@Z|
; Line 736
  00010	e3a03000	 mov         r3, #0
  00014	e5843000	 str         r3, [r4]
; Line 737
  00018	e8bd8010	 ldmia       sp!, {r4, pc}
  0001c		 |$M65548|

			 ENDP  ; |?Free@?$CAutoVectorPtr@_W@ATL@@QAAXXZ|, ATL::CAutoVectorPtr<wchar_t>::Free

	EXPORT	|?FreeHeap@?$CTempBuffer@_W$0EAA@VCCRTAllocator@ATL@@@ATL@@AAAXXZ| ; ATL::CTempBuffer<wchar_t,1024,ATL::CCRTAllocator>::FreeHeap
; File c:\program files (x86)\microsoft visual studio 9.0\vc\ce\atlmfc\include\atlalloc.h

  00000			 AREA	 |.pdata|, PDATA
|$T65562| DCD	|$LN7@FreeHeap|
	DCD	0x40000200
; Function compile flags: /Ogspy

  00000			 AREA	 |.text|, CODE, ARM

  00000		 |?FreeHeap@?$CTempBuffer@_W$0EAA@VCCRTAllocator@ATL@@@ATL@@AAAXXZ| PROC ; ATL::CTempBuffer<wchar_t,1024,ATL::CCRTAllocator>::FreeHeap
; Line 559
  00000		 |$LN7@FreeHeap|
  00000		 |$M65559|
; Line 560
  00000	e5900000	 ldr         r0, [r0]
  00004	ea000000	 b           free
  00008		 |$M65560|

			 ENDP  ; |?FreeHeap@?$CTempBuffer@_W$0EAA@VCCRTAllocator@ATL@@@ATL@@AAAXXZ|, ATL::CTempBuffer<wchar_t,1024,ATL::CCRTAllocator>::FreeHeap

	EXPORT	|?FreeHeap@?$CTempBuffer@_W$0BAA@VCCRTAllocator@ATL@@@ATL@@AAAXXZ| ; ATL::CTempBuffer<wchar_t,256,ATL::CCRTAllocator>::FreeHeap

  00000			 AREA	 |.pdata|, PDATA
|$T65574| DCD	|$LN7@FreeHeap@2|
	DCD	0x40000200
; Function compile flags: /Ogspy

  00000			 AREA	 |.text|, CODE, ARM

  00000		 |?FreeHeap@?$CTempBuffer@_W$0BAA@VCCRTAllocator@ATL@@@ATL@@AAAXXZ| PROC ; ATL::CTempBuffer<wchar_t,256,ATL::CCRTAllocator>::FreeHeap
; Line 559
  00000		 |$LN7@FreeHeap@2|
  00000		 |$M65571|
; Line 560
  00000	e5900000	 ldr         r0, [r0]
  00004	ea000000	 b           free
  00008		 |$M65572|

			 ENDP  ; |?FreeHeap@?$CTempBuffer@_W$0BAA@VCCRTAllocator@ATL@@@ATL@@AAAXXZ|, ATL::CTempBuffer<wchar_t,256,ATL::CCRTAllocator>::FreeHeap

	EXPORT	|?FreeHeap@?$CTempBuffer@E$0BAA@VCCRTAllocator@ATL@@@ATL@@AAAXXZ| ; ATL::CTempBuffer<unsigned char,256,ATL::CCRTAllocator>::FreeHeap

  00000			 AREA	 |.pdata|, PDATA
|$T65586| DCD	|$LN7@FreeHeap@3|
	DCD	0x40000200
; Function compile flags: /Ogspy

  00000			 AREA	 |.text|, CODE, ARM

  00000		 |?FreeHeap@?$CTempBuffer@E$0BAA@VCCRTAllocator@ATL@@@ATL@@AAAXXZ| PROC ; ATL::CTempBuffer<unsigned char,256,ATL::CCRTAllocator>::FreeHeap
; Line 559
  00000		 |$LN7@FreeHeap@3|
  00000		 |$M65583|
; Line 560
  00000	e5900000	 ldr         r0, [r0]
  00004	ea000000	 b           free
  00008		 |$M65584|

			 ENDP  ; |?FreeHeap@?$CTempBuffer@E$0BAA@VCCRTAllocator@ATL@@@ATL@@AAAXXZ|, ATL::CTempBuffer<unsigned char,256,ATL::CCRTAllocator>::FreeHeap

	EXPORT	|??0?$CComPtrBase@UITypeLib@@@ATL@@IAA@XZ| ; ATL::CComPtrBase<ITypeLib>::CComPtrBase<ITypeLib>
; File c:\program files (x86)\microsoft visual studio 9.0\vc\ce\atlmfc\include\atlcomcli.h

  00000			 AREA	 |.pdata|, PDATA
|$T65596| DCD	|$LN5@CComPtrBas@2|
	DCD	0x40000300
; Function compile flags: /Ogspy

  00000			 AREA	 |.text|, CODE, ARM

  00000		 |??0?$CComPtrBase@UITypeLib@@@ATL@@IAA@XZ| PROC ; ATL::CComPtrBase<ITypeLib>::CComPtrBase<ITypeLib>
; Line 131
  00000		 |$LN5@CComPtrBas@2|
  00000		 |$M65593|
; Line 133
  00000	e3a03000	 mov         r3, #0
  00004	e5803000	 str         r3, [r0]
; Line 134
  00008	e1a0f00e	 mov         pc, lr
  0000c		 |$M65594|

			 ENDP  ; |??0?$CComPtrBase@UITypeLib@@@ATL@@IAA@XZ|, ATL::CComPtrBase<ITypeLib>::CComPtrBase<ITypeLib>

	EXPORT	|?AllocateHeap@?$CTempBuffer@_W$0EAA@VCCRTAllocator@ATL@@@ATL@@AAAXI@Z| ; ATL::CTempBuffer<wchar_t,1024,ATL::CCRTAllocator>::AllocateHeap
; File c:\program files (x86)\microsoft visual studio 9.0\vc\ce\atlmfc\include\atlalloc.h

  00000			 AREA	 |.pdata|, PDATA
|$T65611| DCD	|$LN10@AllocateHe|
	DCD	0x40000b01
; Function compile flags: /Ogspy

  00000			 AREA	 |.text|, CODE, ARM

  00000		 |?AllocateHeap@?$CTempBuffer@_W$0EAA@VCCRTAllocator@ATL@@@ATL@@AAAXI@Z| PROC ; ATL::CTempBuffer<wchar_t,1024,ATL::CCRTAllocator>::AllocateHeap
; Line 539
  00000		 |$LN10@AllocateHe|
  00000	e92d4010	 stmdb       sp!, {r4, lr}
  00004		 |$M65608|
  00004	e1a04000	 mov         r4, r0
; Line 540
  00008	e1a00001	 mov         r0, r1
  0000c	eb000000	 bl          malloc
  00010	e3500000	 cmp         r0, #0
; Line 541
  00014	1a000002	 bne         |$LN1@AllocateHe|
  00018	e3a0313a	 mov         r3, #0x3A, 2
; Line 543
  0001c	e3830807	 orr         r0, r3, #7, 16	; 458752 (0x70000)
  00020	eb000000	 bl          |?AtlThrowImpl@ATL@@YAXJ@Z|
  00024		 |$LN11@AllocateHe|
  00024		 |$LN1@AllocateHe|
; Line 545
  00024	e5840000	 str         r0, [r4]
; Line 546
  00028	e8bd8010	 ldmia       sp!, {r4, pc}
  0002c		 |$LN7@AllocateHe|
  0002c		 |$M65609|

			 ENDP  ; |?AllocateHeap@?$CTempBuffer@_W$0EAA@VCCRTAllocator@ATL@@@ATL@@AAAXI@Z|, ATL::CTempBuffer<wchar_t,1024,ATL::CCRTAllocator>::AllocateHeap

	EXPORT	|?AllocateHeap@?$CTempBuffer@_W$0BAA@VCCRTAllocator@ATL@@@ATL@@AAAXI@Z| ; ATL::CTempBuffer<wchar_t,256,ATL::CCRTAllocator>::AllocateHeap

  00000			 AREA	 |.pdata|, PDATA
|$T65627| DCD	|$LN10@AllocateHe@2|
	DCD	0x40000b01
; Function compile flags: /Ogspy

  00000			 AREA	 |.text|, CODE, ARM

  00000		 |?AllocateHeap@?$CTempBuffer@_W$0BAA@VCCRTAllocator@ATL@@@ATL@@AAAXI@Z| PROC ; ATL::CTempBuffer<wchar_t,256,ATL::CCRTAllocator>::AllocateHeap
; Line 539
  00000		 |$LN10@AllocateHe@2|
  00000	e92d4010	 stmdb       sp!, {r4, lr}
  00004		 |$M65624|
  00004	e1a04000	 mov         r4, r0
; Line 540
  00008	e1a00001	 mov         r0, r1
  0000c	eb000000	 bl          malloc
  00010	e3500000	 cmp         r0, #0
; Line 541
  00014	1a000002	 bne         |$LN1@AllocateHe@2|
  00018	e3a0313a	 mov         r3, #0x3A, 2
; Line 543
  0001c	e3830807	 orr         r0, r3, #7, 16	; 458752 (0x70000)
  00020	eb000000	 bl          |?AtlThrowImpl@ATL@@YAXJ@Z|
  00024		 |$LN11@AllocateHe@2|
  00024		 |$LN1@AllocateHe@2|
; Line 545
  00024	e5840000	 str         r0, [r4]
; Line 546
  00028	e8bd8010	 ldmia       sp!, {r4, pc}
  0002c		 |$LN7@AllocateHe@2|
  0002c		 |$M65625|

			 ENDP  ; |?AllocateHeap@?$CTempBuffer@_W$0BAA@VCCRTAllocator@ATL@@@ATL@@AAAXI@Z|, ATL::CTempBuffer<wchar_t,256,ATL::CCRTAllocator>::AllocateHeap

	EXPORT	|?AllocateHeap@?$CTempBuffer@E$0BAA@VCCRTAllocator@ATL@@@ATL@@AAAXI@Z| ; ATL::CTempBuffer<unsigned char,256,ATL::CCRTAllocator>::AllocateHeap

  00000			 AREA	 |.pdata|, PDATA
|$T65643| DCD	|$LN10@AllocateHe@3|
	DCD	0x40000b01
; Function compile flags: /Ogspy

  00000			 AREA	 |.text|, CODE, ARM

  00000		 |?AllocateHeap@?$CTempBuffer@E$0BAA@VCCRTAllocator@ATL@@@ATL@@AAAXI@Z| PROC ; ATL::CTempBuffer<unsigned char,256,ATL::CCRTAllocator>::AllocateHeap
; Line 539
  00000		 |$LN10@AllocateHe@3|
  00000	e92d4010	 stmdb       sp!, {r4, lr}
  00004		 |$M65640|
  00004	e1a04000	 mov         r4, r0
; Line 540
  00008	e1a00001	 mov         r0, r1
  0000c	eb000000	 bl          malloc
  00010	e3500000	 cmp         r0, #0
; Line 541
  00014	1a000002	 bne         |$LN1@AllocateHe@3|
  00018	e3a0313a	 mov         r3, #0x3A, 2
; Line 543
  0001c	e3830807	 orr         r0, r3, #7, 16	; 458752 (0x70000)
  00020	eb000000	 bl          |?AtlThrowImpl@ATL@@YAXJ@Z|
  00024		 |$LN11@AllocateHe@3|
  00024		 |$LN1@AllocateHe@3|
; Line 545
  00024	e5840000	 str         r0, [r4]
; Line 546
  00028	e8bd8010	 ldmia       sp!, {r4, pc}
  0002c		 |$LN7@AllocateHe@3|
  0002c		 |$M65641|

			 ENDP  ; |?AllocateHeap@?$CTempBuffer@E$0BAA@VCCRTAllocator@ATL@@@ATL@@AAAXI@Z|, ATL::CTempBuffer<unsigned char,256,ATL::CCRTAllocator>::AllocateHeap

	EXPORT	|??0?$Wrapper@PA_W@?$CSimpleMap@PA_WPA_WVCExpansionVectorEqualHelper@ATL@@@ATL@@QAA@ABQA_W@Z| ; ATL::CSimpleMap<wchar_t *,wchar_t *,ATL::CExpansionVectorEqualHelper>::Wrapper<wchar_t *>::Wrapper<wchar_t *>
; File c:\program files (x86)\microsoft visual studio 9.0\vc\ce\atlmfc\include\atlsimpcoll.h

  00000			 AREA	 |.pdata|, PDATA
|$T65655| DCD	|$LN5@Wrapper|
	DCD	0x40000400
; Function compile flags: /Ogspy

  00000			 AREA	 |.text|, CODE, ARM

  00000		 |??0?$Wrapper@PA_W@?$CSimpleMap@PA_WPA_WVCExpansionVectorEqualHelper@ATL@@@ATL@@QAA@ABQA_W@Z| PROC ; ATL::CSimpleMap<wchar_t *,wchar_t *,ATL::CExpansionVectorEqualHelper>::Wrapper<wchar_t *>::Wrapper<wchar_t *>
; Line 454
  00000		 |$LN5@Wrapper|
  00000		 |$M65652|
  00000	e1a02000	 mov         r2, r0
  00004	e5913000	 ldr         r3, [r1]
; Line 455
  00008	e5823000	 str         r3, [r2]
  0000c	e1a0f00e	 mov         pc, lr
  00010		 |$M65653|

			 ENDP  ; |??0?$Wrapper@PA_W@?$CSimpleMap@PA_WPA_WVCExpansionVectorEqualHelper@ATL@@@ATL@@QAA@ABQA_W@Z|, ATL::CSimpleMap<wchar_t *,wchar_t *,ATL::CExpansionVectorEqualHelper>::Wrapper<wchar_t *>::Wrapper<wchar_t *>

	EXPORT	|?Lock@?$CComCritSecLock@VCComCriticalSection@ATL@@@ATL@@QAAJXZ| ; ATL::CComCritSecLock<ATL::CComCriticalSection>::Lock
; File c:\program files (x86)\microsoft visual studio 9.0\vc\ce\atlmfc\include\atlcore.h

  00000			 AREA	 |.pdata|, PDATA
|$T65669| DCD	|$LN8@Lock@3|
	DCD	0x40000801
; Function compile flags: /Ogspy

  00000			 AREA	 |.text|, CODE, ARM

  00000		 |?Lock@?$CComCritSecLock@VCComCriticalSection@ATL@@@ATL@@QAAJXZ| PROC ; ATL::CComCritSecLock<ATL::CComCriticalSection>::Lock
; File c:\program files (x86)\microsoft visual studio 9.0\vc\ce\atlmfc\include\atlbase.h
; Line 344
  00000		 |$LN8@Lock@3|
  00000	e92d4010	 stmdb       sp!, {r4, lr}
  00004		 |$M65666|
  00004	e1a04000	 mov         r4, r0
; Line 348
  00008	e5940000	 ldr         r0, [r4]
  0000c	eb000000	 bl          EnterCriticalSection
; Line 353
  00010	e3a03001	 mov         r3, #1
  00014	e5c43004	 strb        r3, [r4, #4]
; Line 355
  00018	e3a00000	 mov         r0, #0
; Line 356
  0001c	e8bd8010	 ldmia       sp!, {r4, pc}
  00020		 |$M65667|

			 ENDP  ; |?Lock@?$CComCritSecLock@VCComCriticalSection@ATL@@@ATL@@QAAJXZ|, ATL::CComCritSecLock<ATL::CComCriticalSection>::Lock

	EXPORT	|??$AtlMultiplyThrow@I@ATL@@YAIII@Z|	; ATL::AtlMultiplyThrow<unsigned int>
; File c:\program files (x86)\microsoft visual studio 9.0\vc\ce\atlmfc\include\atlalloc.h

  00000			 AREA	 |.pdata|, PDATA
|$T65693| DCD	|$LN13@AtlMultipl@3|
	DCD	0x40000c01
; Function compile flags: /Ogspy

  00000			 AREA	 |.text|, CODE, ARM

  00000		 |??$AtlMultiplyThrow@I@ATL@@YAIII@Z| PROC ; ATL::AtlMultiplyThrow<unsigned int>
; Line 173
  00000		 |$LN13@AtlMultipl@3|
  00000	e52de004	 str         lr, [sp, #-4]!
  00004		 |$M65690|
; Line 175
  00004	e0832190	 umull       r2, r3, r0, r1
  00008	e3530000	 cmp         r3, #0
  0000c	8a000004	 bhi         |$LN7@AtlMultipl@3|
  00010	3a000001	 bcc         |$LN8@AtlMultipl@3|
  00014	e3720001	 cmn         r2, #1
  00018	8a000001	 bhi         |$LN7@AtlMultipl@3|
  0001c		 |$LN8@AtlMultipl@3|
; Line 181
  0001c	e1a00002	 mov         r0, r2
  00020	e49df004	 ldr         pc, [sp], #4
  00024		 |$LN7@AtlMultipl@3|
; Line 178
  00024	e59f0000	 ldr         r0, [pc]		; -2147024809 (0x80070057)
  00028	eb000000	 bl          |?AtlThrowImpl@ATL@@YAXJ@Z|
  0002c		 |$LN15@AtlMultipl@3|
  0002c		 |$LN16@AtlMultipl@3|
  0002c	80070057	 DCD         0x80070057
  00030		 |$LN14@AtlMultipl@3|
  00030		 |$LN10@AtlMultipl@3|
  00030		 |$M65691|

			 ENDP  ; |??$AtlMultiplyThrow@I@ATL@@YAIII@Z|, ATL::AtlMultiplyThrow<unsigned int>

	EXPORT	|??$?2PA_W@?$Wrapper@PA_W@?$CSimpleMap@PA_WPA_WVCExpansionVectorEqualHelper@ATL@@@ATL@@SAPAXIPAPA_W@Z| ; ATL::CSimpleMap<wchar_t *,wchar_t *,ATL::CExpansionVectorEqualHelper>::Wrapper<wchar_t *>::operator new<wchar_t *>
; File c:\program files (x86)\microsoft visual studio 9.0\vc\ce\atlmfc\include\atlsimpcoll.h

  00000			 AREA	 |.pdata|, PDATA
|$T65706| DCD	|$LN5@operator@12|
	DCD	0x40000200
; Function compile flags: /Ogspy

  00000			 AREA	 |.text|, CODE, ARM

  00000		 |??$?2PA_W@?$Wrapper@PA_W@?$CSimpleMap@PA_WPA_WVCExpansionVectorEqualHelper@ATL@@@ATL@@SAPAXIPAPA_W@Z| PROC ; ATL::CSimpleMap<wchar_t *,wchar_t *,ATL::CExpansionVectorEqualHelper>::Wrapper<wchar_t *>::operator new<wchar_t *>
; Line 457
  00000		 |$LN5@operator@12|
  00000		 |$M65703|
; Line 460
  00000	e1a00001	 mov         r0, r1
  00004	e1a0f00e	 mov         pc, lr
  00008		 |$M65704|

			 ENDP  ; |??$?2PA_W@?$Wrapper@PA_W@?$CSimpleMap@PA_WPA_WVCExpansionVectorEqualHelper@ATL@@@ATL@@SAPAXIPAPA_W@Z|, ATL::CSimpleMap<wchar_t *,wchar_t *,ATL::CExpansionVectorEqualHelper>::Wrapper<wchar_t *>::operator new<wchar_t *>

	EXPORT	|??$?3PA_W@?$Wrapper@PA_W@?$CSimpleMap@PA_WPA_WVCExpansionVectorEqualHelper@ATL@@@ATL@@SAXPAXPAPA_W@Z| ; ATL::CSimpleMap<wchar_t *,wchar_t *,ATL::CExpansionVectorEqualHelper>::Wrapper<wchar_t *>::operator delete<wchar_t *>

  00000			 AREA	 |.pdata|, PDATA
|$T65713| DCD	|$LN5@operator@13|
	DCD	0x40000100
; Function compile flags: /Ogspy

  00000			 AREA	 |.text|, CODE, ARM

  00000		 |??$?3PA_W@?$Wrapper@PA_W@?$CSimpleMap@PA_WPA_WVCExpansionVectorEqualHelper@ATL@@@ATL@@SAXPAXPAPA_W@Z| PROC ; ATL::CSimpleMap<wchar_t *,wchar_t *,ATL::CExpansionVectorEqualHelper>::Wrapper<wchar_t *>::operator delete<wchar_t *>
; Line 462
  00000		 |$LN5@operator@13|
  00000		 |$M65710|
; Line 464
  00000	e1a0f00e	 mov         pc, lr
  00004		 |$M65711|

			 ENDP  ; |??$?3PA_W@?$Wrapper@PA_W@?$CSimpleMap@PA_WPA_WVCExpansionVectorEqualHelper@ATL@@@ATL@@SAXPAXPAPA_W@Z|, ATL::CSimpleMap<wchar_t *,wchar_t *,ATL::CExpansionVectorEqualHelper>::Wrapper<wchar_t *>::operator delete<wchar_t *>

	EXPORT	|?Unlock@?$CComCritSecLock@VCComCriticalSection@ATL@@@ATL@@QAAXXZ| ; ATL::CComCritSecLock<ATL::CComCriticalSection>::Unlock
; File c:\program files (x86)\microsoft visual studio 9.0\vc\ce\atlmfc\include\atlcore.h

  00000			 AREA	 |.pdata|, PDATA
|$T65725| DCD	|$LN10@Unlock@2|
	DCD	0x40000701
; Function compile flags: /Ogspy

  00000			 AREA	 |.text|, CODE, ARM

  00000		 |?Unlock@?$CComCritSecLock@VCComCriticalSection@ATL@@@ATL@@QAAXXZ| PROC ; ATL::CComCritSecLock<ATL::CComCriticalSection>::Unlock
; File c:\program files (x86)\microsoft visual studio 9.0\vc\ce\atlmfc\include\atlbase.h
; Line 360
  00000		 |$LN10@Unlock@2|
  00000	e92d4010	 stmdb       sp!, {r4, lr}
  00004		 |$M65722|
  00004	e1a04000	 mov         r4, r0
; Line 362
  00008	e5940000	 ldr         r0, [r4]
  0000c	eb000000	 bl          LeaveCriticalSection
; Line 363
  00010	e3a03000	 mov         r3, #0
  00014	e5c43004	 strb        r3, [r4, #4]
; Line 364
  00018	e8bd8010	 ldmia       sp!, {r4, pc}
  0001c		 |$M65723|

			 ENDP  ; |?Unlock@?$CComCritSecLock@VCComCriticalSection@ATL@@@ATL@@QAAXXZ|, ATL::CComCritSecLock<ATL::CComCriticalSection>::Unlock

	EXPORT	|DllCanUnloadNow|

  00000			 AREA	 |.pdata|, PDATA
|$T65742| DCD	|$LN9@DllCanUnlo@2|
	DCD	0x40000a01
; Function compile flags: /Ogspy

  00000			 AREA	 |.text|, CODE, ARM

  00000		 |DllCanUnloadNow| PROC
; File c:\users\steven\desktop\csharp - dllimport\csharp - dllimport\vs2008\dllimportmango\dllimportmango.cpp
; Line 35
  00000		 |$LN9@DllCanUnlo@2|
  00000	e52de004	 str         lr, [sp, #-4]!
  00004		 |$M65739|
; Line 36
  00004	e59f0018	 ldr         r0, [pc, #0x18]
  00008	e5903000	 ldr         r3, [r0]
  0000c	e1a0e00f	 mov         lr, pc
  00010	e593f00c	 ldr         pc, [r3, #0xC]
  00014	e3500000	 cmp         r0, #0
  00018	03a00000	 moveq       r0, #0
  0001c	13a00001	 movne       r0, #1
; Line 37
  00020	e49df004	 ldr         pc, [sp], #4
  00024		 |$LN10@DllCanUnlo@2|
  00024		 |$LN11@DllCanUnlo@2|
  00024	00000000	 DCD         |?_AtlModule@@3VCDllImportMangoModule@@A|
  00028		 |$M65740|

			 ENDP  ; |DllCanUnloadNow|

	EXPORT	|?DllMain@?$CAtlDllModuleT@VCDllImportMangoModule@@@ATL@@QAAHKPAX@Z| ; ATL::CAtlDllModuleT<CDllImportMangoModule>::DllMain
; File c:\program files (x86)\microsoft visual studio 9.0\vc\ce\atlmfc\include\atlbase.h

  00000			 AREA	 |.pdata|, PDATA
|$T65761| DCD	|$LN9@DllMain@2|
	DCD	0x40000a00
; Function compile flags: /Ogspy

  00000			 AREA	 |.text|, CODE, ARM

  00000		 |?DllMain@?$CAtlDllModuleT@VCDllImportMangoModule@@@ATL@@QAAHKPAX@Z| PROC ; ATL::CAtlDllModuleT<CDllImportMangoModule>::DllMain
; Line 3230
  00000		 |$LN9@DllMain@2|
  00000		 |$M65758|
; Line 3243
  00000	e3510001	 cmp         r1, #1
  00004	1a000004	 bne         |$LN3@DllMain@2|
  00008	e59f3014	 ldr         r3, [pc, #0x14]
  0000c	e5d33000	 ldrb        r3, [r3]
  00010	e3530000	 cmp         r3, #0
  00014	13a00000	 movne       r0, #0
; Line 3245
  00018	11a0f00e	 movne       pc, lr
; Line 3243
  0001c		 |$LN3@DllMain@2|
  0001c	e3a00001	 mov         r0, #1
; Line 3245
  00020	e1a0f00e	 mov         pc, lr
  00024		 |$LN10@DllMain@2|
  00024		 |$LN11@DllMain@2|
  00024	00000000	 DCD         |?m_bInitFailed@CAtlBaseModule@ATL@@2_NA|
  00028		 |$M65759|

			 ENDP  ; |?DllMain@?$CAtlDllModuleT@VCDllImportMangoModule@@@ATL@@QAAHKPAX@Z|, ATL::CAtlDllModuleT<CDllImportMangoModule>::DllMain

	EXPORT	|??9CComBSTR@ATL@@QBA_NH@Z|		; ATL::CComBSTR::operator!=
; File c:\program files (x86)\microsoft visual studio 9.0\vc\ce\atlmfc\include\atlcomcli.h

  00000			 AREA	 |.pdata|, PDATA
|$T65789| DCD	|$LN13@operator@14|
	DCD	0x40000a00
; Function compile flags: /Ogspy

  00000			 AREA	 |.text|, CODE, ARM

  00000		 |??9CComBSTR@ATL@@QBA_NH@Z| PROC	; ATL::CComBSTR::operator!=
; Line 1138
  00000		 |$LN13@operator@14|
  00000		 |$M65786|
; Line 1139
  00000	e5903000	 ldr         r3, [r0]
  00004	e3530000	 cmp         r3, #0
  00008	03a03001	 moveq       r3, #1
  0000c	13a03000	 movne       r3, #0
  00010	e21330ff	 ands        r3, r3, #0xFF
  00014	03a03001	 moveq       r3, #1
  00018	020300ff	 andeq       r0, r3, #0xFF
  0001c	13a03000	 movne       r3, #0
  00020	120300ff	 andne       r0, r3, #0xFF
; Line 1140
  00024	e1a0f00e	 mov         pc, lr
  00028		 |$M65787|

			 ENDP  ; |??9CComBSTR@ATL@@QBA_NH@Z|, ATL::CComBSTR::operator!=

	EXPORT	|?UnregisterServer@CAtlComModule@ATL@@QAAJHPBU_GUID@@@Z| ; ATL::CAtlComModule::UnregisterServer
; File c:\program files (x86)\microsoft visual studio 9.0\vc\ce\atlmfc\include\atlbase.h

  00000			 AREA	 |.pdata|, PDATA
|$T65838| DCD	|$LN24@Unregister|
	DCD	0x40000900
; Function compile flags: /Ogspy

  00000			 AREA	 |.text|, CODE, ARM

  00000		 |?UnregisterServer@CAtlComModule@ATL@@QAAJHPBU_GUID@@@Z| PROC ; ATL::CAtlComModule::UnregisterServer
; Line 2434
  00000		 |$LN24@Unregister|
  00000		 |$M65835|
  00000	e3500000	 cmp         r0, #0
; Line 2435
  00004	059f0014	 ldreq       r0, [pc, #0x14]	; -2147024809 (0x80070057)
; Line 2436
  00008	01a0f00e	 moveq       pc, lr
; Line 2435
  0000c	e3a00000	 mov         r0, #0
  00010	e3510000	 cmp         r1, #0
  00014	13a03106	 movne       r3, #6, 2
  00018	13830901	 orrne       r0, r3, #1, 18	; 16384 (0x4000)
; Line 2436
  0001c	e1a0f00e	 mov         pc, lr
  00020		 |$LN25@Unregister|
  00020		 |$LN26@Unregister|
  00020	80070057	 DCD         0x80070057
  00024		 |$M65836|

			 ENDP  ; |?UnregisterServer@CAtlComModule@ATL@@QAAJHPBU_GUID@@@Z|, ATL::CAtlComModule::UnregisterServer

	EXPORT	|??0CAtlModule@ATL@@QAA@XZ|		; ATL::CAtlModule::CAtlModule
; File c:\program files (x86)\microsoft visual studio 9.0\vc\ce\atlmfc\include\atlcore.h

  00000			 AREA	 |.pdata|, PDATA
|$T65860| DCD	|$LN10@CAtlModule|
	DCD	0x40001901
; Function compile flags: /Ogspy

  00000			 AREA	 |.text|, CODE, ARM

  00000		 |??0CAtlModule@ATL@@QAA@XZ| PROC	; ATL::CAtlModule::CAtlModule
; File c:\program files (x86)\microsoft visual studio 9.0\vc\ce\atlmfc\include\atlbase.h
; Line 2749
  00000		 |$LN10@CAtlModule|
  00000	e92d4010	 stmdb       sp!, {r4, lr}
  00004		 |$M65857|
  00004	e1a04000	 mov         r4, r0
  00008	e2840010	 add         r0, r4, #0x10
  0000c	e3a02014	 mov         r2, #0x14
  00010	e3a01000	 mov         r1, #0
  00014	eb000000	 bl          memset
; Line 2758
  00018	e59f3040	 ldr         r3, [pc, #0x40]
  0001c	e3a02000	 mov         r2, #0
  00020	e5842004	 str         r2, [r4, #4]
  00024	e584200c	 str         r2, [r4, #0xC]
  00028	e5842008	 str         r2, [r4, #8]
; Line 2763
  0002c	e2840010	 add         r0, r4, #0x10
  00030	e5834000	 str         r4, [r3]
  00034	eb000000	 bl          |?Init@CComCriticalSection@ATL@@QAAJXZ|
  00038	e3500000	 cmp         r0, #0
; Line 2767
  0003c	459f3018	 ldrmi       r3, [pc, #0x18]
  00040	43a02001	 movmi       r2, #1
; Line 2773
  00044	41a00004	 movmi       r0, r4
  00048	45c32000	 strmib      r2, [r3]
; Line 2772
  0004c	53a03020	 movpl       r3, #0x20
  00050	55843004	 strpl       r3, [r4, #4]
; Line 2773
  00054	51a00004	 movpl       r0, r4
  00058	e8bd8010	 ldmia       sp!, {r4, pc}
  0005c		 |$LN11@CAtlModule|
  0005c		 |$LN12@CAtlModule|
  0005c	00000000	 DCD         |?m_bInitFailed@CAtlBaseModule@ATL@@2_NA|
  00060		 |$LN13@CAtlModule|
  00060	00000000	 DCD         |?_pAtlModule@ATL@@3PAVCAtlModule@1@A|
  00064		 |$M65858|

			 ENDP  ; |??0CAtlModule@ATL@@QAA@XZ|, ATL::CAtlModule::CAtlModule

	EXPORT	|?Term@CAtlModule@ATL@@QAAXXZ|		; ATL::CAtlModule::Term
; File c:\program files (x86)\microsoft visual studio 9.0\vc\ce\atlmfc\include\atlcore.h

  00000			 AREA	 |.pdata|, PDATA
|$T65876| DCD	|$LN11@Term@2|
	DCD	0x40001001
; Function compile flags: /Ogspy

  00000			 AREA	 |.text|, CODE, ARM

  00000		 |?Term@CAtlModule@ATL@@QAAXXZ| PROC	; ATL::CAtlModule::Term
; File c:\program files (x86)\microsoft visual studio 9.0\vc\ce\atlmfc\include\atlbase.h
; Line 2776
  00000		 |$LN11@Term@2|
  00000	e92d4030	 stmdb       sp!, {r4, r5, lr}
  00004		 |$M65873|
  00004	e1a04000	 mov         r4, r0
; Line 2778
  00008	e5943004	 ldr         r3, [r4, #4]
  0000c	e3530000	 cmp         r3, #0
  00010	0a000009	 beq         |$LN3@Term@2|
; Line 2782
  00014	e594300c	 ldr         r3, [r4, #0xC]
  00018	e3a05000	 mov         r5, #0
  0001c	e3530000	 cmp         r3, #0
  00020	0a000002	 beq         |$LN1@Term@2|
; Line 2784
  00024	e2840004	 add         r0, r4, #4
  00028	eb000000	 bl          |?AtlCallTermFunc@ATL@@YAXPAU_ATL_MODULE70@1@@Z|
; Line 2785
  0002c	e584500c	 str         r5, [r4, #0xC]
  00030		 |$LN1@Term@2|
; Line 2793
  00030	e2840010	 add         r0, r4, #0x10
  00034	eb000000	 bl          DeleteCriticalSection
; Line 2795
  00038	e5845004	 str         r5, [r4, #4]
  0003c		 |$LN3@Term@2|
; Line 2796
  0003c	e8bd8030	 ldmia       sp!, {r4, r5, pc}
  00040		 |$M65874|

			 ENDP  ; |?Term@CAtlModule@ATL@@QAAXXZ|, ATL::CAtlModule::Term

	EXPORT	|??1CAtlModule@ATL@@UAA@XZ|		; ATL::CAtlModule::~CAtlModule
; File c:\program files (x86)\microsoft visual studio 9.0\vc\ce\atlmfc\include\atlcore.h

  00000			 AREA	 |.pdata|, PDATA
|$T65892| DCD	|$LN9@CAtlModule@2|
	DCD	0x40000100
; Function compile flags: /Ogspy

  00000			 AREA	 |.text|, CODE, ARM

  00000		 |??1CAtlModule@ATL@@UAA@XZ| PROC	; ATL::CAtlModule::~CAtlModule
; File c:\program files (x86)\microsoft visual studio 9.0\vc\ce\atlmfc\include\atlbase.h
; Line 2799
  00000		 |$LN9@CAtlModule@2|
  00000		 |$M65889|
; Line 2800
  00000	ea000000	 b           |?Term@CAtlModule@ATL@@QAAXXZ|
  00004		 |$M65890|

			 ENDP  ; |??1CAtlModule@ATL@@UAA@XZ|, ATL::CAtlModule::~CAtlModule

	EXPORT	|??1CRegKey@ATL@@QAA@XZ|		; ATL::CRegKey::~CRegKey

  00000			 AREA	 |.pdata|, PDATA
|$T65905| DCD	|$LN8@CRegKey@2|
	DCD	0x40000a01
; Function compile flags: /Ogspy

  00000			 AREA	 |.text|, CODE, ARM

  00000		 |??1CRegKey@ATL@@QAA@XZ| PROC		; ATL::CRegKey::~CRegKey
; Line 5302
  00000		 |$LN8@CRegKey@2|
  00000	e92d4010	 stmdb       sp!, {r4, lr}
  00004		 |$M65902|
  00004	e1a04000	 mov         r4, r0
  00008	e5943000	 ldr         r3, [r4]
  0000c	e3530000	 cmp         r3, #0
  00010	0a000003	 beq         |$LN3@CRegKey@2|
  00014	e1a00003	 mov         r0, r3
  00018	eb000000	 bl          RegCloseKey
  0001c	e3a03000	 mov         r3, #0
  00020	e5843000	 str         r3, [r4]
  00024		 |$LN3@CRegKey@2|
  00024	e8bd8010	 ldmia       sp!, {r4, pc}
  00028		 |$M65903|

			 ENDP  ; |??1CRegKey@ATL@@QAA@XZ|, ATL::CRegKey::~CRegKey

	EXPORT	|__$ArrayPad$| [ DATA ]
	EXPORT	|?RecurseDeleteKey@CRegKey@ATL@@QAAJPB_W@Z| ; ATL::CRegKey::RecurseDeleteKey
	IMPORT	|RegEnumKeyExW|

  00000			 AREA	 |.pdata|, PDATA
|$T65986| DCD	|$LN39@RecurseDel|
	DCD	0xc0004b02

  00000			 AREA	 |.xdata|, DATA
|$T65982| DCD	0xffffffe0
; Function compile flags: /Ogspy

  00000			 AREA	 |.text|, CODE, ARM

  00000	00000000	 DCD         |__GSHandlerCheck|
  00004	00000000	 DCD         |$T65982|

  00008		 |?RecurseDeleteKey@CRegKey@ATL@@QAAJPB_W@Z| PROC ; ATL::CRegKey::RecurseDeleteKey
; Line 5847
  00008		 |$LN39@RecurseDel|
  00008	e92d43f0	 stmdb       sp!, {r4 - r9, lr}
  0000c	e24ddf89	 sub         sp, sp, #0x89, 30	; 548 (0x224)
  00010		 |$M65983|
  00010	e1a07001	 mov         r7, r1
  00014	e1a06000	 mov         r6, r0
  00018	e59f3110	 ldr         r3, [pc, #0x110]
  0001c	e5933000	 ldr         r3, [r3]
  00020	e58d3220	 str         r3, [sp, #0x220]
; Line 5852
  00024	e5961000	 ldr         r1, [r6]
  00028	e3a03802	 mov         r3, #2, 16
  0002c	e3a0e000	 mov         lr, #0
  00030	e383301f	 orr         r3, r3, #0x1F
  00034	e1a02007	 mov         r2, r7
  00038	e28d0010	 add         r0, sp, #0x10
  0003c	e58de010	 str         lr, [sp, #0x10]
  00040	eb000000	 bl          |?Open@CRegKey@ATL@@QAAJPAUHKEY__@@PB_WK@Z|
  00044	e1b04000	 movs        r4, r0
; Line 5860
  00048	e59d0010	 ldr         r0, [sp, #0x10]
  0004c	0a000002	 beq         |$LN5@RecurseDel|
  00050		 |$LN34@RecurseDel|
  00050	e3500000	 cmp         r0, #0
  00054	0a000030	 beq         |$LN30@RecurseDel|
  00058	ea00002e	 b           |$LN36@RecurseDel|
  0005c		 |$LN5@RecurseDel|
; Line 5866
  0005c	e3a04c01	 mov         r4, #1, 24
  00060	e28de018	 add         lr, sp, #0x18
  00064	e3a08000	 mov         r8, #0
  00068	e28d3014	 add         r3, sp, #0x14
  0006c	e28d2020	 add         r2, sp, #0x20
  00070	e3a01000	 mov         r1, #0
  00074	e58d4014	 str         r4, [sp, #0x14]
  00078	e58de00c	 str         lr, [sp, #0xC]
  0007c	e58d8008	 str         r8, [sp, #8]
  00080	e58d8004	 str         r8, [sp, #4]
  00084	e58d8000	 str         r8, [sp]
  00088	eb000000	 bl          RegEnumKeyExW
  0008c	e3500000	 cmp         r0, #0
  00090	1a000012	 bne         |$LN2@RecurseDel|
  00094	e3a09c01	 mov         r9, #1, 24
  00098	e28d5018	 add         r5, sp, #0x18
  0009c		 |$LL3@RecurseDel|
; Line 5868
  0009c	e28d1020	 add         r1, sp, #0x20
  000a0	e28d0010	 add         r0, sp, #0x10
  000a4	eb000000	 bl          |?RecurseDeleteKey@CRegKey@ATL@@QAAJPB_W@Z|
  000a8	e1b04000	 movs        r4, r0
; Line 5869
  000ac	e59d0010	 ldr         r0, [sp, #0x10]
  000b0	1affffe6	 bne         |$LN34@RecurseDel|
  000b4	e28d3014	 add         r3, sp, #0x14
  000b8	e28d2020	 add         r2, sp, #0x20
  000bc	e3a01000	 mov         r1, #0
; Line 5871
  000c0	e58d9014	 str         r9, [sp, #0x14]
  000c4	e58d500c	 str         r5, [sp, #0xC]
  000c8	e58d8008	 str         r8, [sp, #8]
  000cc	e58d8004	 str         r8, [sp, #4]
  000d0	e58d8000	 str         r8, [sp]
  000d4	eb000000	 bl          RegEnumKeyExW
  000d8	e3500000	 cmp         r0, #0
  000dc	0affffee	 beq         |$LL3@RecurseDel|
  000e0		 |$LN2@RecurseDel|
; Line 5873
  000e0	e59d0010	 ldr         r0, [sp, #0x10]
  000e4	e3500000	 cmp         r0, #0
  000e8	0a000002	 beq         |$LN25@RecurseDel|
  000ec	eb000000	 bl          RegCloseKey
  000f0	e3a03000	 mov         r3, #0
  000f4	e58d3010	 str         r3, [sp, #0x10]
; Line 5874
  000f8		 |$LN25@RecurseDel|
  000f8	e5960000	 ldr         r0, [r6]
  000fc	e1a01007	 mov         r1, r7
  00100	eb000000	 bl          RegDeleteKeyW
  00104	e59d3010	 ldr         r3, [sp, #0x10]
  00108	e1a04000	 mov         r4, r0
  0010c	e3530000	 cmp         r3, #0
  00110	0a000001	 beq         |$LN30@RecurseDel|
  00114	e1a00003	 mov         r0, r3
  00118		 |$LN36@RecurseDel|
  00118	eb000000	 bl          RegCloseKey
  0011c		 |$LN30@RecurseDel|
  0011c	e59d0220	 ldr         r0, [sp, #0x220]
  00120	eb000000	 bl          __security_check_cookie
; Line 5875
  00124	e1a00004	 mov         r0, r4
  00128	e28ddf89	 add         sp, sp, #0x89, 30	; 548 (0x224)
  0012c	e8bd83f0	 ldmia       sp!, {r4 - r9, pc}
  00130		 |$LN40@RecurseDel|
  00130		 |$LN41@RecurseDel|
  00130	00000000	 DCD         |__security_cookie|
  00134		 |$M65984|

			 ENDP  ; |?RecurseDeleteKey@CRegKey@ATL@@QAAJPB_W@Z|, ATL::CRegKey::RecurseDeleteKey

	EXPORT	|?ClearReplacements@CExpansionVector@ATL@@QAAJXZ| ; ATL::CExpansionVector::ClearReplacements
; File c:\program files (x86)\microsoft visual studio 9.0\vc\ce\atlmfc\include\atlexcept.h

  00000			 AREA	 |.pdata|, PDATA
|$T66035| DCD	|$LN29@ClearRepla|
	DCD	0x40002701
; Function compile flags: /Ogspy

  00000			 AREA	 |.text|, CODE, ARM

  00000		 |?ClearReplacements@CExpansionVector@ATL@@QAAJXZ| PROC ; ATL::CExpansionVector::ClearReplacements
; File c:\program files (x86)\microsoft visual studio 9.0\vc\ce\atlmfc\include\statreg.h
; Line 134
  00000		 |$LN29@ClearRepla|
  00000	e92d4030	 stmdb       sp!, {r4, r5, lr}
  00004		 |$M66032|
  00004	e1a05000	 mov         r5, r0
; Line 135
  00008	e5953008	 ldr         r3, [r5, #8]
  0000c	e3a04000	 mov         r4, #0
  00010	e3530000	 cmp         r3, #0
  00014	da000010	 ble         |$LN1@ClearRepla|
  00018		 |$LL3@ClearRepla|
; Line 137
  00018	e3540000	 cmp         r4, #0
  0001c	4a000018	 bmi         |$LN8@ClearRepla|
  00020	e1540003	 cmp         r4, r3
  00024	aa000016	 bge         |$LN8@ClearRepla|
  00028	e5953000	 ldr         r3, [r5]
  0002c	e7930104	 ldr         r0, [r3, +r4, lsl #2]
  00030	eb000000	 bl          |??3@YAXPAX@Z|
; Line 138
  00034	e5953008	 ldr         r3, [r5, #8]
  00038	e1540003	 cmp         r4, r3
  0003c	aa00000a	 bge         |$LN23@ClearRepla|
  00040	e5953004	 ldr         r3, [r5, #4]
  00044	e7930104	 ldr         r0, [r3, +r4, lsl #2]
  00048	eb000000	 bl          |??3@YAXPAX@Z|
  0004c	e5953008	 ldr         r3, [r5, #8]
  00050	e2844001	 add         r4, r4, #1
  00054	e1540003	 cmp         r4, r3
  00058	baffffee	 blt         |$LL3@ClearRepla|
  0005c		 |$LN1@ClearRepla|
; Line 140
  0005c	e1a00005	 mov         r0, r5
  00060	eb000000	 bl          |?RemoveAll@?$CSimpleMap@PA_WPA_WVCExpansionVectorEqualHelper@ATL@@@ATL@@QAAXXZ|
; Line 141
  00064	e3a00000	 mov         r0, #0
; Line 142
  00068	e8bd8030	 ldmia       sp!, {r4, r5, pc}
  0006c		 |$LN23@ClearRepla|
; Line 138
  0006c	e3a03103	 mov         r3, #3, 2
  00070	e383008c	 orr         r0, r3, #0x8C
  00074	e3a03000	 mov         r3, #0
  00078	e3a02000	 mov         r2, #0
  0007c	e3a01001	 mov         r1, #1
  00080	eb000000	 bl          RaiseException
  00084		 |$LN30@ClearRepla|
; Line 137
  00084		 |$LN8@ClearRepla|
  00084	e3a03103	 mov         r3, #3, 2
  00088	e383008c	 orr         r0, r3, #0x8C
  0008c	e3a03000	 mov         r3, #0
  00090	e3a02000	 mov         r2, #0
  00094	e3a01001	 mov         r1, #1
  00098	eb000000	 bl          RaiseException
  0009c		 |$LN31@ClearRepla|
  0009c		 |$LN26@ClearRepla|
  0009c		 |$M66033|

			 ENDP  ; |?ClearReplacements@CExpansionVector@ATL@@QAAJXZ|, ATL::CExpansionVector::ClearReplacements

	EXPORT	|?AddString@CParseBuffer@CRegParser@ATL@@QAAHPB_W@Z| ; ATL::CRegParser::CParseBuffer::AddString
	IMPORT	|__CxxFrameHandler3|
; File c:\program files (x86)\microsoft visual studio 9.0\vc\ce\atlmfc\include\atlalloc.h

  00000			 AREA	 |.pdata|, PDATA
|$T66102| DCD	|$LN38@AddString|
	DCD	0xc0001204

  00000			 AREA	 |.pdata|, PDATA
|$T66105| DCD	|__unwind$66043|
	DCD	0x40000401

  00000			 AREA	 |.rdata|, DATA, READONLY
|__unwindtable$?AddString@CParseBuffer@CRegParser@ATL@@QAAHPB_W@Z| DCD 0xffffffff
	DCD	|__unwind$66043|
|__ehfuncinfo$?AddString@CParseBuffer@CRegParser@ATL@@QAAHPB_W@Z| DCD 0x19930522
	DCD	0x1
	DCD	|__unwindtable$?AddString@CParseBuffer@CRegParser@ATL@@QAAHPB_W@Z|
	DCD	0x0
	DCD	0x0
	DCD	0x3
	DCD	|$T66097|
	DCD	0x0
	DCD	0x1
|$T66097| DCD	|$M66094|
	DCD	0x0
	DCD	|$M66095|
	DCD	0xffffffff
	DCD	|$M66096|
	DCD	0x0
; Function compile flags: /Ogspy

  00000			 AREA	 |.text|, CODE, ARM

  00000	00000000	 DCD         |__CxxFrameHandler3|
  00004	00000000	 DCD         |__ehfuncinfo$?AddString@CParseBuffer@CRegParser@ATL@@QAAHPB_W@Z|

  00008		 |?AddString@CParseBuffer@CRegParser@ATL@@QAAHPB_W@Z| PROC ; ATL::CRegParser::CParseBuffer::AddString
; File c:\program files (x86)\microsoft visual studio 9.0\vc\ce\atlmfc\include\statreg.h
; Line 247
  00008		 |$LN38@AddString|
  00008	e1a0c00d	 mov         r12, sp
  0000c	e92d5830	 stmdb       sp!, {r4, r5, r11, r12, lr}
  00010	e28db014	 add         r11, sp, #0x14
  00014	e24dd004	 sub         sp, sp, #4
  00018		 |$M66099|
  00018	e1b04001	 movs        r4, r1
  0001c	e1a05000	 mov         r5, r0
; Line 250
  00020	03a00000	 moveq       r0, #0
  00024		 |$M66094|
  00024	0a000007	 beq         |$LN3@AddString|
  00028		 |$M66095|
; Line 252
  00028	e3a03000	 mov         r3, #0
  0002c	e50b3018	 str         r3, [r11, #-0x18]
; Line 258
  00030	e1a00004	 mov         r0, r4
  00034		 |$M66096|
  00034	eb000000	 bl          wcslen
  00038	e1a02000	 mov         r2, r0
  0003c	e1a00005	 mov         r0, r5
  00040	e1a01004	 mov         r1, r4
  00044	eb000000	 bl          |?Append@CParseBuffer@CRegParser@ATL@@QAAHPB_WH@Z|
  00048		 |$LN3@AddString|
; Line 259
  00048	e24bd014	 sub         sp, r11, #0x14
  0004c	e89da830	 ldmia       sp, {r4, r5, r11, sp, pc}
  00050		 |$M66100|
  00050		 |__unwind$66043|
  00050	e52de004	 str         lr, [sp, #-4]!
  00054		 |$M66103|
  00054	e24b0018	 sub         r0, r11, #0x18
  00058	eb000000	 bl          |??1?$CAtlSafeAllocBufferManager@VCCRTAllocator@ATL@@@_ATL_SAFE_ALLOCA_IMPL@ATL@@QAA@XZ|
  0005c	e8bd8000	 ldmia       sp!, {pc}
  00060		 |$M66104|

			 ENDP  ; |?AddString@CParseBuffer@CRegParser@ATL@@QAAHPB_W@Z|, ATL::CRegParser::CParseBuffer::AddString

	EXPORT	|?ClearReplacements@CRegObject@ATL@@UAAJXZ| ; ATL::CRegObject::ClearReplacements
; File c:\program files (x86)\microsoft visual studio 9.0\vc\ce\atlmfc\include\atlcore.h

  00000			 AREA	 |.pdata|, PDATA
|$T66132| DCD	|$LN14@ClearRepla@2|
	DCD	0x40000b01
; Function compile flags: /Ogspy

  00000			 AREA	 |.text|, CODE, ARM

  00000		 |?ClearReplacements@CRegObject@ATL@@UAAJXZ| PROC ; ATL::CRegObject::ClearReplacements
; File c:\program files (x86)\microsoft visual studio 9.0\vc\ce\atlmfc\include\statreg.h
; Line 539
  00000		 |$LN14@ClearRepla@2|
  00000	e92d4030	 stmdb       sp!, {r4, r5, lr}
  00004		 |$M66129|
  00004	e1a05000	 mov         r5, r0
; Line 540
  00008	e2850010	 add         r0, r5, #0x10
  0000c	eb000000	 bl          EnterCriticalSection
; Line 541
  00010	e2850004	 add         r0, r5, #4
  00014	eb000000	 bl          |?ClearReplacements@CExpansionVector@ATL@@QAAJXZ|
  00018	e1a04000	 mov         r4, r0
; Line 542
  0001c	e2850010	 add         r0, r5, #0x10
  00020	eb000000	 bl          LeaveCriticalSection
; Line 544
  00024	e1a00004	 mov         r0, r4
  00028	e8bd8030	 ldmia       sp!, {r4, r5, pc}
  0002c		 |$M66130|

			 ENDP  ; |?ClearReplacements@CRegObject@ATL@@UAAJXZ|, ATL::CRegObject::ClearReplacements

	EXPORT	|??0IRegistrarBase@@QAA@XZ|		; IRegistrarBase::IRegistrarBase

  00000			 AREA	 |.pdata|, PDATA
|$T66145| DCD	|$LN7@IRegistrar|
	DCD	0x40000100
; Function compile flags: /Ogspy

  00000			 AREA	 |.text|, CODE, ARM

  00000		 |??0IRegistrarBase@@QAA@XZ| PROC	; IRegistrarBase::IRegistrarBase
  00000		 |$LN7@IRegistrar|
  00000		 |$M66142|
  00000	e1a0f00e	 mov         pc, lr
  00004		 |$M66143|

			 ENDP  ; |??0IRegistrarBase@@QAA@XZ|, IRegistrarBase::IRegistrarBase

	EXPORT	|__$ArrayPad$| [ DATA ]
	EXPORT	|?AtlLoadTypeLib@ATL@@YAJPAUHINSTANCE__@@PB_WPAPA_WPAPAUITypeLib@@@Z| ; ATL::AtlLoadTypeLib
	IMPORT	|SysAllocString|
	IMPORT	|LoadTypeLib|
	IMPORT	|GetModuleFileNameW|
; File c:\program files (x86)\microsoft visual studio 9.0\vc\ce\atlmfc\include\atlalloc.h

  00000			 AREA	 |.pdata|, PDATA
|$T66289| DCD	|$LN87@AtlLoadTyp|
	DCD	0xc0005202

  00000			 AREA	 |.xdata|, DATA
|$T66285| DCD	0xffffffe8
; Function compile flags: /Ogspy

  00000			 AREA	 |.text|, CODE, ARM

  00000	00000000	 DCD         |__GSHandlerCheck|
  00004	00000000	 DCD         |$T66285|

  00008		 |?AtlLoadTypeLib@ATL@@YAJPAUHINSTANCE__@@PB_WPAPA_WPAPAUITypeLib@@@Z| PROC ; ATL::AtlLoadTypeLib
; File c:\program files (x86)\microsoft visual studio 9.0\vc\ce\atlmfc\include\atlbase.h
; Line 6601
  00008		 |$LN87@AtlLoadTyp|
  00008	e92d40f0	 stmdb       sp!, {r4 - r7, lr}
  0000c	e24dde22	 sub         sp, sp, #0x22, 28	; 544 (0x220)
  00010		 |$M66286|
  00010	e1a05003	 mov         r5, r3
  00014	e1a06001	 mov         r6, r1
  00018	e59fe12c	 ldr         lr, [pc, #0x12C]	; -2147024774 (0x8007007a)
  0001c	e59ee000	 ldr         lr, [lr]
  00020	e58de21c	 str         lr, [sp, #0x21C]
  00024	e1b07002	 movs        r7, r2
; Line 6603
  00028	0a00003f	 beq         |$LN10@AtlLoadTyp|
  0002c	e3550000	 cmp         r5, #0
  00030	0a00003d	 beq         |$LN10@AtlLoadTyp|
; Line 6606
  00034	e3a03000	 mov         r3, #0
  00038	e5873000	 str         r3, [r7]
; Line 6613
  0003c	e3a02f41	 mov         r2, #0x41, 30
  00040	e28d1000	 add         r1, sp, #0
  00044	e5853000	 str         r3, [r5]
  00048	eb000000	 bl          GetModuleFileNameW
  0004c	e1b04000	 movs        r4, r0
; Line 6614
  00050	1a000004	 bne         |$LN9@AtlLoadTyp|
; Line 6615
  00054	eb000000	 bl          |?AtlHresultFromLastError@ATL@@YAJXZ|
  00058	e1a04000	 mov         r4, r0
; Line 6673
  0005c		 |$LN1@AtlLoadTyp|
  0005c	e59d021c	 ldr         r0, [sp, #0x21C]
  00060	eb000000	 bl          __security_check_cookie
  00064	ea000034	 b           |$LN12@AtlLoadTyp|
  00068		 |$LN9@AtlLoadTyp|
; Line 6616
  00068	e3540f41	 cmp         r4, #0x41, 30	; 260 (0x104)
  0006c	1a000003	 bne         |$LN7@AtlLoadTyp|
; Line 6617
  00070	e59d021c	 ldr         r0, [sp, #0x21C]
  00074	eb000000	 bl          __security_check_cookie
  00078	e59f40c8	 ldr         r4, [pc, #0xC8]	; -2147024774 (0x8007007a)
  0007c	ea00002e	 b           |$LN12@AtlLoadTyp|
  00080		 |$LN7@AtlLoadTyp|
; Line 6622
  00080	e1dd30b0	 ldrh        r3, [sp]
  00084	e28d0000	 add         r0, sp, #0
  00088	ea000001	 b           |$LN83@AtlLoadTyp|
  0008c		 |$LL36@AtlLoadTyp|
  0008c	eb000000	 bl          CharNextW
  00090	e1d030b0	 ldrh        r3, [r0]
  00094		 |$LN83@AtlLoadTyp|
  00094	e3530000	 cmp         r3, #0
  00098	1afffffb	 bne         |$LL36@AtlLoadTyp|
; Line 6624
  0009c	e3560000	 cmp         r6, #0
  000a0	0a000010	 beq         |$LN60@AtlLoadTyp|
; Line 6631
  000a4	e1a00006	 mov         r0, r6
  000a8	eb000000	 bl          wcslen
; Line 6633
  000ac	e0803004	 add         r3, r0, r4
; Line 6634
  000b0	e1530004	 cmp         r3, r4
  000b4	3a000018	 bcc         |$LN3@AtlLoadTyp|
  000b8	e1530000	 cmp         r3, r0
  000bc	3a000016	 bcc         |$LN3@AtlLoadTyp|
  000c0	e3a02c01	 mov         r2, #1, 24
  000c4	e382100e	 orr         r1, r2, #0xE
  000c8	e1530001	 cmp         r3, r1
  000cc	2a000012	 bcs         |$LN3@AtlLoadTyp|
; Line 6637
  000d0	e28d3000	 add         r3, sp, #0
  000d4	e0830084	 add         r0, r3, r4, lsl #1
  000d8	e1a02006	 mov         r2, r6
  000dc	e0641001	 rsb         r1, r4, r1
  000e0	eb000000	 bl          wcscpy_s
  000e4	eb000000	 bl          |?AtlCrtErrorCheck@ATL@@YAHH@Z|
  000e8		 |$LN60@AtlLoadTyp|
; Line 6647
  000e8	e1a01005	 mov         r1, r5
  000ec	e28d0000	 add         r0, sp, #0
  000f0	eb000000	 bl          LoadTypeLib
  000f4	e1b04000	 movs        r4, r0
; Line 6669
  000f8	4affffd7	 bmi         |$LN1@AtlLoadTyp|
; Line 6671
  000fc	e28d0000	 add         r0, sp, #0
  00100	eb000000	 bl          SysAllocString
  00104	e3500000	 cmp         r0, #0
  00108	e5870000	 str         r0, [r7]
; Line 6672
  0010c	1affffd2	 bne         |$LN1@AtlLoadTyp|
  00110	e3a0313a	 mov         r3, #0x3A, 2
; Line 6673
  00114	e3834807	 orr         r4, r3, #7, 16	; 458752 (0x70000)
; Line 6675
  00118	eaffffcf	 b           |$LN1@AtlLoadTyp|
  0011c		 |$LN3@AtlLoadTyp|
; Line 6635
  0011c	e59d021c	 ldr         r0, [sp, #0x21C]
  00120	eb000000	 bl          __security_check_cookie
  00124	e3a03116	 mov         r3, #0x16, 2
  00128	ea000002	 b           |$LN84@AtlLoadTyp|
  0012c		 |$LN10@AtlLoadTyp|
; Line 6604
  0012c	e59d021c	 ldr         r0, [sp, #0x21C]
  00130	eb000000	 bl          __security_check_cookie
  00134	e3a0310e	 mov         r3, #0xE, 2
  00138		 |$LN84@AtlLoadTyp|
  00138	e3834901	 orr         r4, r3, #1, 18	; 16384 (0x4000)
  0013c		 |$LN12@AtlLoadTyp|
; Line 6676
  0013c	e1a00004	 mov         r0, r4
  00140	e28dde22	 add         sp, sp, #0x22, 28	; 544 (0x220)
  00144	e8bd80f0	 ldmia       sp!, {r4 - r7, pc}
  00148		 |$LN88@AtlLoadTyp|
  00148		 |$LN89@AtlLoadTyp|
  00148	8007007a	 DCD         0x8007007a
  0014c		 |$LN90@AtlLoadTyp|
  0014c	00000000	 DCD         |__security_cookie|
  00150		 |$M66287|

			 ENDP  ; |?AtlLoadTypeLib@ATL@@YAJPAUHINSTANCE__@@PB_WPAPA_WPAPAUITypeLib@@@Z|, ATL::AtlLoadTypeLib

	EXPORT	|??1?$CComPtr@UITypeLib@@@ATL@@QAA@XZ|	; ATL::CComPtr<ITypeLib>::~CComPtr<ITypeLib>

  00000			 AREA	 |.pdata|, PDATA
|$T66305| DCD	|$LN8@CComPtr|
	DCD	0x40000701
; Function compile flags: /Ogspy

  00000			 AREA	 |.text|, CODE, ARM

  00000		 |??1?$CComPtr@UITypeLib@@@ATL@@QAA@XZ| PROC ; ATL::CComPtr<ITypeLib>::~CComPtr<ITypeLib>
  00000		 |$LN8@CComPtr|
  00000	e52de004	 str         lr, [sp, #-4]!
  00004		 |$M66302|
  00004	e5903000	 ldr         r3, [r0]
  00008	e1b00003	 movs        r0, r3
  0000c	15903000	 ldrne       r3, [r0]
  00010	11a0e00f	 movne       lr, pc
  00014	1593f008	 ldrne       pc, [r3, #8]
  00018	e49df004	 ldr         pc, [sp], #4
  0001c		 |$M66303|

			 ENDP  ; |??1?$CComPtr@UITypeLib@@@ATL@@QAA@XZ|, ATL::CComPtr<ITypeLib>::~CComPtr<ITypeLib>

	EXPORT	|??1?$CSimpleMap@PA_WPA_WVCExpansionVectorEqualHelper@ATL@@@ATL@@QAA@XZ| ; ATL::CSimpleMap<wchar_t *,wchar_t *,ATL::CExpansionVectorEqualHelper>::~CSimpleMap<wchar_t *,wchar_t *,ATL::CExpansionVectorEqualHelper>
; File c:\program files (x86)\microsoft visual studio 9.0\vc\ce\atlmfc\include\atlsimpcoll.h

  00000			 AREA	 |.pdata|, PDATA
|$T66313| DCD	|$LN5@CSimpleMap@2|
	DCD	0x40000100
; Function compile flags: /Ogspy

  00000			 AREA	 |.text|, CODE, ARM

  00000		 |??1?$CSimpleMap@PA_WPA_WVCExpansionVectorEqualHelper@ATL@@@ATL@@QAA@XZ| PROC ; ATL::CSimpleMap<wchar_t *,wchar_t *,ATL::CExpansionVectorEqualHelper>::~CSimpleMap<wchar_t *,wchar_t *,ATL::CExpansionVectorEqualHelper>
; Line 302
  00000		 |$LN5@CSimpleMap@2|
  00000		 |$M66310|
; Line 303
  00000	ea000000	 b           |?RemoveAll@?$CSimpleMap@PA_WPA_WVCExpansionVectorEqualHelper@ATL@@@ATL@@QAAXXZ|
  00004		 |$M66311|

			 ENDP  ; |??1?$CSimpleMap@PA_WPA_WVCExpansionVectorEqualHelper@ATL@@@ATL@@QAA@XZ|, ATL::CSimpleMap<wchar_t *,wchar_t *,ATL::CExpansionVectorEqualHelper>::~CSimpleMap<wchar_t *,wchar_t *,ATL::CExpansionVectorEqualHelper>

	EXPORT	|?Lookup@?$CSimpleMap@PA_WPA_WVCExpansionVectorEqualHelper@ATL@@@ATL@@QBAPA_WABQA_W@Z| ; ATL::CSimpleMap<wchar_t *,wchar_t *,ATL::CExpansionVectorEqualHelper>::Lookup
; File c:\program files (x86)\microsoft visual studio 9.0\vc\ce\atlmfc\include\atlexcept.h

  00000			 AREA	 |.pdata|, PDATA
|$T66339| DCD	|$LN15@Lookup|
	DCD	0x40001301
; Function compile flags: /Ogspy

  00000			 AREA	 |.text|, CODE, ARM

  00000		 |?Lookup@?$CSimpleMap@PA_WPA_WVCExpansionVectorEqualHelper@ATL@@@ATL@@QBAPA_WABQA_W@Z| PROC ; ATL::CSimpleMap<wchar_t *,wchar_t *,ATL::CExpansionVectorEqualHelper>::Lookup
; File c:\program files (x86)\microsoft visual studio 9.0\vc\ce\atlmfc\include\atlsimpcoll.h
; Line 389
  00000		 |$LN15@Lookup|
  00000	e92d4010	 stmdb       sp!, {r4, lr}
  00004		 |$M66336|
  00004	e1a04000	 mov         r4, r0
; Line 390
  00008	eb000000	 bl          |?FindKey@?$CSimpleMap@PA_WPA_WVCExpansionVectorEqualHelper@ATL@@@ATL@@QBAHABQA_W@Z|
; Line 391
  0000c	e3700001	 cmn         r0, #1
; Line 392
  00010	03a00000	 moveq       r0, #0
; Line 394
  00014	08bd8010	 ldmeqia     sp!, {r4, pc}
  00018	e3500000	 cmp         r0, #0
  0001c	4a000004	 bmi         |$LN4@Lookup|
  00020	e5943008	 ldr         r3, [r4, #8]
  00024	e1500003	 cmp         r0, r3
  00028	b5943004	 ldrlt       r3, [r4, #4]
  0002c	b7930100	 ldrlt       r0, [r3, +r0, lsl #2]
  00030	b8bd8010	 ldmltia     sp!, {r4, pc}
; Line 393
  00034		 |$LN4@Lookup|
  00034	e3a03103	 mov         r3, #3, 2
  00038	e383008c	 orr         r0, r3, #0x8C
  0003c	e3a03000	 mov         r3, #0
  00040	e3a02000	 mov         r2, #0
  00044	e3a01001	 mov         r1, #1
  00048	eb000000	 bl          RaiseException
  0004c		 |$LN16@Lookup|
  0004c		 |$LN12@Lookup|
  0004c		 |$M66337|

			 ENDP  ; |?Lookup@?$CSimpleMap@PA_WPA_WVCExpansionVectorEqualHelper@ATL@@@ATL@@QBAPA_WABQA_W@Z|, ATL::CSimpleMap<wchar_t *,wchar_t *,ATL::CExpansionVectorEqualHelper>::Lookup

	EXPORT	|??1?$CAutoVectorPtr@_W@ATL@@QAA@XZ|	; ATL::CAutoVectorPtr<wchar_t>::~CAutoVectorPtr<wchar_t>
; File c:\program files (x86)\microsoft visual studio 9.0\vc\ce\atlmfc\include\atlbase.h

  00000			 AREA	 |.pdata|, PDATA
|$T66353| DCD	|$LN7@CAutoVecto@2|
	DCD	0x40000701
; Function compile flags: /Ogspy

  00000			 AREA	 |.text|, CODE, ARM

  00000		 |??1?$CAutoVectorPtr@_W@ATL@@QAA@XZ| PROC ; ATL::CAutoVectorPtr<wchar_t>::~CAutoVectorPtr<wchar_t>
; Line 649
  00000		 |$LN7@CAutoVecto@2|
  00000	e92d4010	 stmdb       sp!, {r4, lr}
  00004		 |$M66350|
  00004	e1a04000	 mov         r4, r0
; Line 650
  00008	e5940000	 ldr         r0, [r4]
  0000c	eb000000	 bl          |??3@YAXPAX@Z|
  00010	e3a03000	 mov         r3, #0
  00014	e5843000	 str         r3, [r4]
; Line 651
  00018	e8bd8010	 ldmia       sp!, {r4, pc}
  0001c		 |$M66351|

			 ENDP  ; |??1?$CAutoVectorPtr@_W@ATL@@QAA@XZ|, ATL::CAutoVectorPtr<wchar_t>::~CAutoVectorPtr<wchar_t>

	EXPORT	|??1?$CTempBuffer@_W$0EAA@VCCRTAllocator@ATL@@@ATL@@QAA@XZ| ; ATL::CTempBuffer<wchar_t,1024,ATL::CCRTAllocator>::~CTempBuffer<wchar_t,1024,ATL::CCRTAllocator>
; File c:\program files (x86)\microsoft visual studio 9.0\vc\ce\atlmfc\include\atlalloc.h

  00000			 AREA	 |.pdata|, PDATA
|$T66361| DCD	|$LN6@CTempBuffe@4|
	DCD	0x40000601
; Function compile flags: /Ogspy

  00000			 AREA	 |.text|, CODE, ARM

  00000		 |??1?$CTempBuffer@_W$0EAA@VCCRTAllocator@ATL@@@ATL@@QAA@XZ| PROC ; ATL::CTempBuffer<wchar_t,1024,ATL::CCRTAllocator>::~CTempBuffer<wchar_t,1024,ATL::CCRTAllocator>
; Line 466
  00000		 |$LN6@CTempBuffe@4|
  00000	e52de004	 str         lr, [sp, #-4]!
  00004		 |$M66358|
; Line 467
  00004	e5902000	 ldr         r2, [r0]
  00008	e2803004	 add         r3, r0, #4
  0000c	e1520003	 cmp         r2, r3
; Line 469
  00010	1b000000	 blne        |?FreeHeap@?$CTempBuffer@_W$0EAA@VCCRTAllocator@ATL@@@ATL@@AAAXXZ|
; Line 471
  00014	e49df004	 ldr         pc, [sp], #4
  00018		 |$M66359|

			 ENDP  ; |??1?$CTempBuffer@_W$0EAA@VCCRTAllocator@ATL@@@ATL@@QAA@XZ|, ATL::CTempBuffer<wchar_t,1024,ATL::CCRTAllocator>::~CTempBuffer<wchar_t,1024,ATL::CCRTAllocator>

	EXPORT	|??1?$CTempBuffer@_W$0BAA@VCCRTAllocator@ATL@@@ATL@@QAA@XZ| ; ATL::CTempBuffer<wchar_t,256,ATL::CCRTAllocator>::~CTempBuffer<wchar_t,256,ATL::CCRTAllocator>

  00000			 AREA	 |.pdata|, PDATA
|$T66369| DCD	|$LN6@CTempBuffe@5|
	DCD	0x40000601
; Function compile flags: /Ogspy

  00000			 AREA	 |.text|, CODE, ARM

  00000		 |??1?$CTempBuffer@_W$0BAA@VCCRTAllocator@ATL@@@ATL@@QAA@XZ| PROC ; ATL::CTempBuffer<wchar_t,256,ATL::CCRTAllocator>::~CTempBuffer<wchar_t,256,ATL::CCRTAllocator>
; Line 466
  00000		 |$LN6@CTempBuffe@5|
  00000	e52de004	 str         lr, [sp, #-4]!
  00004		 |$M66366|
; Line 467
  00004	e5902000	 ldr         r2, [r0]
  00008	e2803004	 add         r3, r0, #4
  0000c	e1520003	 cmp         r2, r3
; Line 469
  00010	1b000000	 blne        |?FreeHeap@?$CTempBuffer@_W$0BAA@VCCRTAllocator@ATL@@@ATL@@AAAXXZ|
; Line 471
  00014	e49df004	 ldr         pc, [sp], #4
  00018		 |$M66367|

			 ENDP  ; |??1?$CTempBuffer@_W$0BAA@VCCRTAllocator@ATL@@@ATL@@QAA@XZ|, ATL::CTempBuffer<wchar_t,256,ATL::CCRTAllocator>::~CTempBuffer<wchar_t,256,ATL::CCRTAllocator>

	EXPORT	|??1?$CTempBuffer@E$0BAA@VCCRTAllocator@ATL@@@ATL@@QAA@XZ| ; ATL::CTempBuffer<unsigned char,256,ATL::CCRTAllocator>::~CTempBuffer<unsigned char,256,ATL::CCRTAllocator>

  00000			 AREA	 |.pdata|, PDATA
|$T66377| DCD	|$LN6@CTempBuffe@6|
	DCD	0x40000601
; Function compile flags: /Ogspy

  00000			 AREA	 |.text|, CODE, ARM

  00000		 |??1?$CTempBuffer@E$0BAA@VCCRTAllocator@ATL@@@ATL@@QAA@XZ| PROC ; ATL::CTempBuffer<unsigned char,256,ATL::CCRTAllocator>::~CTempBuffer<unsigned char,256,ATL::CCRTAllocator>
; Line 466
  00000		 |$LN6@CTempBuffe@6|
  00000	e52de004	 str         lr, [sp, #-4]!
  00004		 |$M66374|
; Line 467
  00004	e5902000	 ldr         r2, [r0]
  00008	e2803004	 add         r3, r0, #4
  0000c	e1520003	 cmp         r2, r3
; Line 469
  00010	1b000000	 blne        |?FreeHeap@?$CTempBuffer@E$0BAA@VCCRTAllocator@ATL@@@ATL@@AAAXXZ|
; Line 471
  00014	e49df004	 ldr         pc, [sp], #4
  00018		 |$M66375|

			 ENDP  ; |??1?$CTempBuffer@E$0BAA@VCCRTAllocator@ATL@@@ATL@@QAA@XZ|, ATL::CTempBuffer<unsigned char,256,ATL::CCRTAllocator>::~CTempBuffer<unsigned char,256,ATL::CCRTAllocator>

	EXPORT	|??0?$CComPtr@UITypeLib@@@ATL@@QAA@XZ|	; ATL::CComPtr<ITypeLib>::CComPtr<ITypeLib>
; File c:\program files (x86)\microsoft visual studio 9.0\vc\ce\atlmfc\include\atlcomcli.h

  00000			 AREA	 |.pdata|, PDATA
|$T66390| DCD	|$LN7@CComPtr@2|
	DCD	0x40000300
; Function compile flags: /Ogspy

  00000			 AREA	 |.text|, CODE, ARM

  00000		 |??0?$CComPtr@UITypeLib@@@ATL@@QAA@XZ| PROC ; ATL::CComPtr<ITypeLib>::CComPtr<ITypeLib>
; Line 276
  00000		 |$LN7@CComPtr@2|
  00000		 |$M66387|
  00000	e3a03000	 mov         r3, #0
  00004	e5803000	 str         r3, [r0]
; Line 278
  00008	e1a0f00e	 mov         pc, lr
  0000c		 |$M66388|

			 ENDP  ; |??0?$CComPtr@UITypeLib@@@ATL@@QAA@XZ|, ATL::CComPtr<ITypeLib>::CComPtr<ITypeLib>

	EXPORT	|?InternalSetAtIndex@?$CSimpleMap@PA_WPA_WVCExpansionVectorEqualHelper@ATL@@@ATL@@QAAXHABQA_W0@Z| ; ATL::CSimpleMap<wchar_t *,wchar_t *,ATL::CExpansionVectorEqualHelper>::InternalSetAtIndex
; File c:\program files (x86)\microsoft visual studio 9.0\vc\ce\atlmfc\include\atlsimpcoll.h

  00000			 AREA	 |.pdata|, PDATA
|$T66425| DCD	|$LN19@InternalSe|
	DCD	0x40000a01
; Function compile flags: /Ogspy

  00000			 AREA	 |.text|, CODE, ARM

  00000		 |?InternalSetAtIndex@?$CSimpleMap@PA_WPA_WVCExpansionVectorEqualHelper@ATL@@@ATL@@QAAXHABQA_W0@Z| PROC ; ATL::CSimpleMap<wchar_t *,wchar_t *,ATL::CExpansionVectorEqualHelper>::InternalSetAtIndex
; Line 468
  00000		 |$LN19@InternalSe|
  00000	e52de004	 str         lr, [sp, #-4]!
  00004		 |$M66422|
; Line 469
  00004	e590e000	 ldr         lr, [r0]
  00008	e09ee101	 adds        lr, lr, r1, lsl #2
  0000c	15922000	 ldrne       r2, [r2]
  00010	158e2000	 strne       r2, [lr]
; Line 470
  00014	e5902004	 ldr         r2, [r0, #4]
  00018	e0922101	 adds        r2, r2, r1, lsl #2
  0001c	15933000	 ldrne       r3, [r3]
  00020	15823000	 strne       r3, [r2]
; Line 471
  00024	e49df004	 ldr         pc, [sp], #4
  00028		 |$M66423|

			 ENDP  ; |?InternalSetAtIndex@?$CSimpleMap@PA_WPA_WVCExpansionVectorEqualHelper@ATL@@@ATL@@QAAXHABQA_W0@Z|, ATL::CSimpleMap<wchar_t *,wchar_t *,ATL::CExpansionVectorEqualHelper>::InternalSetAtIndex

	EXPORT	|?AllocateBytes@?$CTempBuffer@_W$0EAA@VCCRTAllocator@ATL@@@ATL@@QAAPA_WI@Z| ; ATL::CTempBuffer<wchar_t,1024,ATL::CCRTAllocator>::AllocateBytes
; File c:\program files (x86)\microsoft visual studio 9.0\vc\ce\atlmfc\include\atlalloc.h

  00000			 AREA	 |.pdata|, PDATA
|$T66436| DCD	|$LN7@AllocateBy|
	DCD	0x40000b01
; Function compile flags: /Ogspy

  00000			 AREA	 |.text|, CODE, ARM

  00000		 |?AllocateBytes@?$CTempBuffer@_W$0EAA@VCCRTAllocator@ATL@@@ATL@@QAAPA_WI@Z| PROC ; ATL::CTempBuffer<wchar_t,1024,ATL::CCRTAllocator>::AllocateBytes
; Line 523
  00000		 |$LN7@AllocateBy|
  00000	e92d4010	 stmdb       sp!, {r4, lr}
  00004		 |$M66433|
  00004	e1a04000	 mov         r4, r0
; Line 525
  00008	e3510b01	 cmp         r1, #1, 22		; 1024 (0x400)
  0000c	9a000002	 bls         |$LN2@AllocateBy|
; Line 527
  00010	eb000000	 bl          |?AllocateHeap@?$CTempBuffer@_W$0EAA@VCCRTAllocator@ATL@@@ATL@@AAAXI@Z|
; Line 534
  00014	e5940000	 ldr         r0, [r4]
; Line 535
  00018	e8bd8010	 ldmia       sp!, {r4, pc}
  0001c		 |$LN2@AllocateBy|
; Line 531
  0001c	e2843004	 add         r3, r4, #4
  00020	e5843000	 str         r3, [r4]
; Line 534
  00024	e1a00003	 mov         r0, r3
; Line 535
  00028	e8bd8010	 ldmia       sp!, {r4, pc}
  0002c		 |$M66434|

			 ENDP  ; |?AllocateBytes@?$CTempBuffer@_W$0EAA@VCCRTAllocator@ATL@@@ATL@@QAAPA_WI@Z|, ATL::CTempBuffer<wchar_t,1024,ATL::CCRTAllocator>::AllocateBytes

	EXPORT	|?AllocateBytes@?$CTempBuffer@_W$0BAA@VCCRTAllocator@ATL@@@ATL@@QAAPA_WI@Z| ; ATL::CTempBuffer<wchar_t,256,ATL::CCRTAllocator>::AllocateBytes

  00000			 AREA	 |.pdata|, PDATA
|$T66447| DCD	|$LN7@AllocateBy@2|
	DCD	0x40000b01
; Function compile flags: /Ogspy

  00000			 AREA	 |.text|, CODE, ARM

  00000		 |?AllocateBytes@?$CTempBuffer@_W$0BAA@VCCRTAllocator@ATL@@@ATL@@QAAPA_WI@Z| PROC ; ATL::CTempBuffer<wchar_t,256,ATL::CCRTAllocator>::AllocateBytes
; Line 523
  00000		 |$LN7@AllocateBy@2|
  00000	e92d4010	 stmdb       sp!, {r4, lr}
  00004		 |$M66444|
  00004	e1a04000	 mov         r4, r0
; Line 525
  00008	e3510c01	 cmp         r1, #1, 24		; 256 (0x100)
  0000c	9a000002	 bls         |$LN2@AllocateBy@2|
; Line 527
  00010	eb000000	 bl          |?AllocateHeap@?$CTempBuffer@_W$0BAA@VCCRTAllocator@ATL@@@ATL@@AAAXI@Z|
; Line 534
  00014	e5940000	 ldr         r0, [r4]
; Line 535
  00018	e8bd8010	 ldmia       sp!, {r4, pc}
  0001c		 |$LN2@AllocateBy@2|
; Line 531
  0001c	e2843004	 add         r3, r4, #4
  00020	e5843000	 str         r3, [r4]
; Line 534
  00024	e1a00003	 mov         r0, r3
; Line 535
  00028	e8bd8010	 ldmia       sp!, {r4, pc}
  0002c		 |$M66445|

			 ENDP  ; |?AllocateBytes@?$CTempBuffer@_W$0BAA@VCCRTAllocator@ATL@@@ATL@@QAAPA_WI@Z|, ATL::CTempBuffer<wchar_t,256,ATL::CCRTAllocator>::AllocateBytes

	EXPORT	|?AllocateBytes@?$CTempBuffer@E$0BAA@VCCRTAllocator@ATL@@@ATL@@QAAPAEI@Z| ; ATL::CTempBuffer<unsigned char,256,ATL::CCRTAllocator>::AllocateBytes

  00000			 AREA	 |.pdata|, PDATA
|$T66458| DCD	|$LN7@AllocateBy@3|
	DCD	0x40000b01
; Function compile flags: /Ogspy

  00000			 AREA	 |.text|, CODE, ARM

  00000		 |?AllocateBytes@?$CTempBuffer@E$0BAA@VCCRTAllocator@ATL@@@ATL@@QAAPAEI@Z| PROC ; ATL::CTempBuffer<unsigned char,256,ATL::CCRTAllocator>::AllocateBytes
; Line 523
  00000		 |$LN7@AllocateBy@3|
  00000	e92d4010	 stmdb       sp!, {r4, lr}
  00004		 |$M66455|
  00004	e1a04000	 mov         r4, r0
; Line 525
  00008	e3510c01	 cmp         r1, #1, 24		; 256 (0x100)
  0000c	9a000002	 bls         |$LN2@AllocateBy@3|
; Line 527
  00010	eb000000	 bl          |?AllocateHeap@?$CTempBuffer@E$0BAA@VCCRTAllocator@ATL@@@ATL@@AAAXI@Z|
; Line 534
  00014	e5940000	 ldr         r0, [r4]
; Line 535
  00018	e8bd8010	 ldmia       sp!, {r4, pc}
  0001c		 |$LN2@AllocateBy@3|
; Line 531
  0001c	e2843004	 add         r3, r4, #4
  00020	e5843000	 str         r3, [r4]
; Line 534
  00024	e1a00003	 mov         r0, r3
; Line 535
  00028	e8bd8010	 ldmia       sp!, {r4, pc}
  0002c		 |$M66456|

			 ENDP  ; |?AllocateBytes@?$CTempBuffer@E$0BAA@VCCRTAllocator@ATL@@@ATL@@QAAPAEI@Z|, ATL::CTempBuffer<unsigned char,256,ATL::CCRTAllocator>::AllocateBytes

	EXPORT	|??0?$CComCritSecLock@VCComCriticalSection@ATL@@@ATL@@QAA@AAVCComCriticalSection@1@_N@Z| ; ATL::CComCritSecLock<ATL::CComCriticalSection>::CComCritSecLock<ATL::CComCriticalSection>
; File c:\program files (x86)\microsoft visual studio 9.0\vc\ce\atlmfc\include\atlcore.h

  00000			 AREA	 |.pdata|, PDATA
|$T66482| DCD	|$LN12@CComCritSe|
	DCD	0x40000d01
; Function compile flags: /Ogspy

  00000			 AREA	 |.text|, CODE, ARM

  00000		 |??0?$CComCritSecLock@VCComCriticalSection@ATL@@@ATL@@QAA@AAVCComCriticalSection@1@_N@Z| PROC ; ATL::CComCritSecLock<ATL::CComCriticalSection>::CComCritSecLock<ATL::CComCriticalSection>
; File c:\program files (x86)\microsoft visual studio 9.0\vc\ce\atlmfc\include\atlbase.h
; Line 320
  00000		 |$LN12@CComCritSe|
  00000	e92d4010	 stmdb       sp!, {r4, lr}
  00004		 |$M66479|
  00004	e3520000	 cmp         r2, #0
  00008	e1a04000	 mov         r4, r0
  0000c	e3a03000	 mov         r3, #0
  00010	e5c43004	 strb        r3, [r4, #4]
  00014	e5841000	 str         r1, [r4]
; Line 321
  00018	0a000003	 beq         |$LN1@CComCritSe|
; Line 325
  0001c	e1a00001	 mov         r0, r1
  00020	eb000000	 bl          EnterCriticalSection
  00024	e3a03001	 mov         r3, #1
  00028	e5c43004	 strb        r3, [r4, #4]
  0002c		 |$LN1@CComCritSe|
; Line 331
  0002c	e1a00004	 mov         r0, r4
  00030	e8bd8010	 ldmia       sp!, {r4, pc}
  00034		 |$M66480|

			 ENDP  ; |??0?$CComCritSecLock@VCComCriticalSection@ATL@@@ATL@@QAA@AAVCComCriticalSection@1@_N@Z|, ATL::CComCritSecLock<ATL::CComCriticalSection>::CComCritSecLock<ATL::CComCriticalSection>

	EXPORT	|??1?$CComCritSecLock@VCComCriticalSection@ATL@@@ATL@@QAA@XZ| ; ATL::CComCritSecLock<ATL::CComCriticalSection>::~CComCritSecLock<ATL::CComCriticalSection>
; File c:\program files (x86)\microsoft visual studio 9.0\vc\ce\atlmfc\include\atlcore.h

  00000			 AREA	 |.pdata|, PDATA
|$T66502| DCD	|$LN13@CComCritSe@2|
	DCD	0x40000a01
; Function compile flags: /Ogspy

  00000			 AREA	 |.text|, CODE, ARM

  00000		 |??1?$CComCritSecLock@VCComCriticalSection@ATL@@@ATL@@QAA@XZ| PROC ; ATL::CComCritSecLock<ATL::CComCriticalSection>::~CComCritSecLock<ATL::CComCriticalSection>
; File c:\program files (x86)\microsoft visual studio 9.0\vc\ce\atlmfc\include\atlbase.h
; Line 335
  00000		 |$LN13@CComCritSe@2|
  00000	e92d4010	 stmdb       sp!, {r4, lr}
  00004		 |$M66499|
  00004	e1a04000	 mov         r4, r0
; Line 336
  00008	e5d43004	 ldrb        r3, [r4, #4]
  0000c	e3530000	 cmp         r3, #0
  00010	0a000003	 beq         |$LN7@CComCritSe@2|
; Line 338
  00014	e5940000	 ldr         r0, [r4]
  00018	eb000000	 bl          LeaveCriticalSection
  0001c	e3a03000	 mov         r3, #0
  00020	e5c43004	 strb        r3, [r4, #4]
  00024		 |$LN7@CComCritSe@2|
; Line 340
  00024	e8bd8010	 ldmia       sp!, {r4, pc}
  00028		 |$M66500|

			 ENDP  ; |??1?$CComCritSecLock@VCComCriticalSection@ATL@@@ATL@@QAA@XZ|, ATL::CComCritSecLock<ATL::CComCriticalSection>::~CComCritSecLock<ATL::CComCriticalSection>

	EXPORT	|DllMain|

  00000			 AREA	 |.pdata|, PDATA
|$T66526| DCD	|$LN11@DllMain@3|
	DCD	0x40000a00
; Function compile flags: /Ogspy

  00000			 AREA	 |.text|, CODE, ARM

  00000		 |DllMain| PROC
; File c:\users\steven\desktop\csharp - dllimport\csharp - dllimport\vs2008\dllimportmango\dllimportmango.cpp
; Line 27
  00000		 |$LN11@DllMain@3|
  00000		 |$M66523|
; Line 29
  00000	e3510001	 cmp         r1, #1
  00004	1a000004	 bne         |$LN5@DllMain@3|
  00008	e59f3014	 ldr         r3, [pc, #0x14]
  0000c	e5d33000	 ldrb        r3, [r3]
  00010	e3530000	 cmp         r3, #0
  00014	13a00000	 movne       r0, #0
; Line 30
  00018	11a0f00e	 movne       pc, lr
; Line 29
  0001c		 |$LN5@DllMain@3|
  0001c	e3a00001	 mov         r0, #1
; Line 30
  00020	e1a0f00e	 mov         pc, lr
  00024		 |$LN12@DllMain@3|
  00024		 |$LN13@DllMain@3|
  00024	00000000	 DCD         |?m_bInitFailed@CAtlBaseModule@ATL@@2_NA|
  00028		 |$M66524|

			 ENDP  ; |DllMain|

	EXPORT	|??1?$CAtlModuleT@VCDllImportMangoModule@@@ATL@@UAA@XZ| ; ATL::CAtlModuleT<CDllImportMangoModule>::~CAtlModuleT<CDllImportMangoModule>

  00000			 AREA	 |.pdata|, PDATA
|$T66551| DCD	|$LN11@CAtlModule@3|
	DCD	0x40000100
; Function compile flags: /Ogspy

  00000			 AREA	 |.text|, CODE, ARM

  00000		 |??1?$CAtlModuleT@VCDllImportMangoModule@@@ATL@@UAA@XZ| PROC ; ATL::CAtlModuleT<CDllImportMangoModule>::~CAtlModuleT<CDllImportMangoModule>
  00000		 |$LN11@CAtlModule@3|
  00000		 |$M66548|
  00000	ea000000	 b           |?Term@CAtlModule@ATL@@QAAXXZ|
  00004		 |$M66549|

			 ENDP  ; |??1?$CAtlModuleT@VCDllImportMangoModule@@@ATL@@UAA@XZ|, ATL::CAtlModuleT<CDllImportMangoModule>::~CAtlModuleT<CDllImportMangoModule>

	EXPORT	|??0?$CAtlModuleT@VCDllImportMangoModule@@@ATL@@QAA@XZ| ; ATL::CAtlModuleT<CDllImportMangoModule>::CAtlModuleT<CDllImportMangoModule>

  00000			 AREA	 |.pdata|, PDATA
|$T66564| DCD	|$LN7@CAtlModule@4|
	DCD	0x40001101
; Function compile flags: /Ogspy

  00000			 AREA	 |.text|, CODE, ARM

  00000		 |??0?$CAtlModuleT@VCDllImportMangoModule@@@ATL@@QAA@XZ| PROC ; ATL::CAtlModuleT<CDllImportMangoModule>::CAtlModuleT<CDllImportMangoModule>
; File c:\program files (x86)\microsoft visual studio 9.0\vc\ce\atlmfc\include\atlbase.h
; Line 3023
  00000		 |$LN7@CAtlModule@4|
  00000	e92d4030	 stmdb       sp!, {r4, r5, lr}
  00004		 |$M66561|
  00004	e1a04000	 mov         r4, r0
  00008	eb000000	 bl          |??0CAtlModule@ATL@@QAA@XZ|
; Line 3025
  0000c	e59fe02c	 ldr         lr, [pc, #0x2C]
  00010	e59f5024	 ldr         r5, [pc, #0x24]
; Line 3026
  00014	e1a00004	 mov         r0, r4
  00018	e59e3000	 ldr         r3, [lr]
  0001c	e59e2004	 ldr         r2, [lr, #4]
  00020	e59e1008	 ldr         r1, [lr, #8]
  00024	e59ee00c	 ldr         lr, [lr, #0xC]
  00028	e5853000	 str         r3, [r5]
  0002c	e5852004	 str         r2, [r5, #4]
  00030	e5851008	 str         r1, [r5, #8]
  00034	e585e00c	 str         lr, [r5, #0xC]
  00038	e8bd8030	 ldmia       sp!, {r4, r5, pc}
  0003c		 |$LN8@CAtlModule@4|
  0003c		 |$LN9@CAtlModule@4|
  0003c	00000000	 DCD         |?m_libid@CAtlModule@ATL@@2U_GUID@@A|
  00040		 |$LN10@CAtlModule@4|
  00040	00000000	 DCD         |LIBID_DllImportMangoLib|
  00044		 |$M66562|

			 ENDP  ; |??0?$CAtlModuleT@VCDllImportMangoModule@@@ATL@@QAA@XZ|, ATL::CAtlModuleT<CDllImportMangoModule>::CAtlModuleT<CDllImportMangoModule>

	EXPORT	|?UnregisterServer@?$CAtlModuleT@VCDllImportMangoModule@@@ATL@@QAAJHPBU_GUID@@@Z| ; ATL::CAtlModuleT<CDllImportMangoModule>::UnregisterServer

  00000			 AREA	 |.pdata|, PDATA
|$T66638| DCD	|$LN29@Unregister@2|
	DCD	0x40001001
; Function compile flags: /Ogspy

  00000			 AREA	 |.text|, CODE, ARM

  00000		 |?UnregisterServer@?$CAtlModuleT@VCDllImportMangoModule@@@ATL@@QAAJHPBU_GUID@@@Z| PROC ; ATL::CAtlModuleT<CDllImportMangoModule>::UnregisterServer
; Line 3057
  00000		 |$LN29@Unregister@2|
  00000	e92d4010	 stmdb       sp!, {r4, lr}
  00004		 |$M66635|
  00004	e1a04001	 mov         r4, r1
; Line 3065
  00008	e59f202c	 ldr         r2, [pc, #0x2C]
  0000c	e5923000	 ldr         r3, [r2]
  00010	e3530000	 cmp         r3, #0
  00014	0a000003	 beq         |$LN25@Unregister@2|
; Line 3066
  00018	e1a0e00f	 mov         lr, pc
  0001c	e592f000	 ldr         pc, [r2]
  00020	e3500000	 cmp         r0, #0
; Line 3072
  00024	4a000003	 bmi         |$LN7@Unregister@2|
  00028		 |$LN25@Unregister@2|
; Line 3073
  00028	e3540000	 cmp         r4, #0
  0002c	13a03106	 movne       r3, #6, 2
  00030	e3a00000	 mov         r0, #0
  00034	13830901	 orrne       r0, r3, #1, 18	; 16384 (0x4000)
  00038		 |$LN7@Unregister@2|
; Line 3079
  00038	e8bd8010	 ldmia       sp!, {r4, pc}
  0003c		 |$LN30@Unregister@2|
  0003c		 |$LN31@Unregister@2|
  0003c	00000000	 DCD         |?_pPerfUnRegFunc@ATL@@3P6AJXZA|
  00040		 |$M66636|

			 ENDP  ; |?UnregisterServer@?$CAtlModuleT@VCDllImportMangoModule@@@ATL@@QAAJHPBU_GUID@@@Z|, ATL::CAtlModuleT<CDllImportMangoModule>::UnregisterServer

	EXPORT	|??1CExpansionVector@ATL@@QAA@XZ|	; ATL::CExpansionVector::~CExpansionVector
; File c:\program files (x86)\microsoft visual studio 9.0\vc\ce\atlmfc\include\atlsimpcoll.h

  00000			 AREA	 |.pdata|, PDATA
|$T66656| DCD	|$LN9@CExpansion|
	DCD	0xc0000b04

  00000			 AREA	 |.pdata|, PDATA
|$T66659| DCD	|__unwind$66644|
	DCD	0x40000602

  00000			 AREA	 |.rdata|, DATA, READONLY
|__unwindtable$??1CExpansionVector@ATL@@QAA@XZ| DCD 0xffffffff
	DCD	|__unwind$66644|
|__ehfuncinfo$??1CExpansionVector@ATL@@QAA@XZ| DCD 0x19930522
	DCD	0x1
	DCD	|__unwindtable$??1CExpansionVector@ATL@@QAA@XZ|
	DCD	0x0
	DCD	0x0
	DCD	0x1
	DCD	|$T66652|
	DCD	0x0
	DCD	0x1
|$T66652| DCD	|$M66651|
	DCD	0x0
; Function compile flags: /Ogspy

  00000			 AREA	 |.text|, CODE, ARM

  00000	00000000	 DCD         |__CxxFrameHandler3|
  00004	00000000	 DCD         |__ehfuncinfo$??1CExpansionVector@ATL@@QAA@XZ|

  00008		 |??1CExpansionVector@ATL@@QAA@XZ| PROC	; ATL::CExpansionVector::~CExpansionVector
; File c:\program files (x86)\microsoft visual studio 9.0\vc\ce\atlmfc\include\statreg.h
; Line 92
  00008		 |$LN9@CExpansion|
  00008	e1a0c00d	 mov         r12, sp
  0000c	e92d000f	 stmdb       sp!, {r0 - r3}
  00010	e92d5810	 stmdb       sp!, {r4, r11, r12, lr}
  00014	e28db010	 add         r11, sp, #0x10
  00018		 |$M66653|
  00018	e1a04000	 mov         r4, r0
  0001c	e58b4000	 str         r4, [r11]
  00020		 |$M66651|
; Line 93
  00020	eb000000	 bl          |?ClearReplacements@CExpansionVector@ATL@@QAAJXZ|
; Line 94
  00024	e1a00004	 mov         r0, r4
  00028	eb000000	 bl          |?RemoveAll@?$CSimpleMap@PA_WPA_WVCExpansionVectorEqualHelper@ATL@@@ATL@@QAAXXZ|
  0002c	e24bd010	 sub         sp, r11, #0x10
  00030	e89da810	 ldmia       sp, {r4, r11, sp, pc}
  00034		 |$M66654|
  00034		 |__unwind$66644|
  00034	e52de004	 str         lr, [sp, #-4]!
  00038	e24bb010	 sub         r11, r11, #0x10
  0003c		 |$M66657|
  0003c	e59b0000	 ldr         r0, [r11]
  00040	eb000000	 bl          |??1?$CSimpleMap@PA_WPA_WVCExpansionVectorEqualHelper@ATL@@@ATL@@QAA@XZ|
  00044	e28bb010	 add         r11, r11, #0x10
  00048	e8bd8000	 ldmia       sp!, {pc}
  0004c		 |$M66658|

			 ENDP  ; |??1CExpansionVector@ATL@@QAA@XZ|, ATL::CExpansionVector::~CExpansionVector

	EXPORT	|??1CRegObject@ATL@@UAA@XZ|		; ATL::CRegObject::~CRegObject
	EXPORT	|??_7CRegObject@ATL@@6B@| [ DATA ]	; ATL::CRegObject::`vftable'
	EXPORT	|?QueryInterface@CRegObject@ATL@@UAAJABU_GUID@@PAPAX@Z| ; ATL::CRegObject::QueryInterface
	EXPORT	|?AddRef@CRegObject@ATL@@UAAKXZ|	; ATL::CRegObject::AddRef
	EXPORT	|?Release@CRegObject@ATL@@UAAKXZ|	; ATL::CRegObject::Release
	EXPORT	|?AddReplacement@CRegObject@ATL@@UAAJPB_W0@Z| ; ATL::CRegObject::AddReplacement
	IMPORT	|??_ECRegObject@ATL@@UAAPAXI@Z|, WEAK |??_GCRegObject@ATL@@UAAPAXI@Z| ; ATL::CRegObject::`vector deleting destructor', ATL::CRegObject::`scalar deleting destructor'
; File c:\program files (x86)\microsoft visual studio 9.0\vc\ce\atlmfc\include\atlcore.h

  00000			 AREA	 |.pdata|, PDATA
|$T66729| DCD	|$LN29@CRegObject|
	DCD	0xc0001904

  00000			 AREA	 |.pdata|, PDATA
|$T66732| DCD	|__unwind$66665|
	DCD	0x40000702

  00000			 AREA	 |.pdata|, PDATA
|$T66735| DCD	|__unwind$66666|
	DCD	0x40000802

  00000			 AREA	 |.rdata|, DATA, READONLY
|__unwindtable$??1CRegObject@ATL@@UAA@XZ| DCD 0xffffffff
	DCD	|__unwind$66665|
	DCD	0x0
	DCD	|__unwind$66666|
|__ehfuncinfo$??1CRegObject@ATL@@UAA@XZ| DCD 0x19930522
	DCD	0x2
	DCD	|__unwindtable$??1CRegObject@ATL@@UAA@XZ|
	DCD	0x0
	DCD	0x0
	DCD	0x2
	DCD	|$T66725|
	DCD	0x0
	DCD	0x1
|$T66725| DCD	|$M66723|
	DCD	0x1
	DCD	|$M66724|
	DCD	0xffffffff

  00000			 AREA	 |.rdata|, DATA, READONLY
|??_7CRegObject@ATL@@6B@| DCD |?QueryInterface@CRegObject@ATL@@UAAJABU_GUID@@PAPAX@Z| ; ATL::CRegObject::`vftable'
	DCD	|?AddRef@CRegObject@ATL@@UAAKXZ|
	DCD	|?Release@CRegObject@ATL@@UAAKXZ|
	DCD	|?AddReplacement@CRegObject@ATL@@UAAJPB_W0@Z|
	DCD	|?ClearReplacements@CRegObject@ATL@@UAAJXZ|
	DCD	|??_ECRegObject@ATL@@UAAPAXI@Z|
; Function compile flags: /Ogspy

  00000			 AREA	 |.text|, CODE, ARM

  00000	00000000	 DCD         |__CxxFrameHandler3|
  00004	00000000	 DCD         |__ehfuncinfo$??1CRegObject@ATL@@UAA@XZ|

  00008		 |??1CRegObject@ATL@@UAA@XZ| PROC	; ATL::CRegObject::~CRegObject
; File c:\program files (x86)\microsoft visual studio 9.0\vc\ce\atlmfc\include\statreg.h
; Line 300
  00008		 |$LN29@CRegObject|
  00008	e1a0c00d	 mov         r12, sp
  0000c	e92d000f	 stmdb       sp!, {r0 - r3}
  00010	e92d5830	 stmdb       sp!, {r4, r5, r11, r12, lr}
  00014	e28db014	 add         r11, sp, #0x14
  00018		 |$M66726|
  00018	e1a05000	 mov         r5, r0
  0001c	e58b5000	 str         r5, [r11]
  00020	e59f307c	 ldr         r3, [pc, #0x7C]
  00024	e1a04005	 mov         r4, r5
  00028	e4843010	 str         r3, [r4], #0x10
  0002c	e1a00004	 mov         r0, r4
  00030	eb000000	 bl          EnterCriticalSection
  00034	e2850004	 add         r0, r5, #4
  00038		 |$M66723|
  00038	eb000000	 bl          |?ClearReplacements@CExpansionVector@ATL@@QAAJXZ|
  0003c	e1a00004	 mov         r0, r4
  00040	eb000000	 bl          LeaveCriticalSection
  00044	e5d43014	 ldrb        r3, [r4, #0x14]
  00048	e3530000	 cmp         r3, #0
  0004c	13a03000	 movne       r3, #0
  00050	11a00004	 movne       r0, r4
  00054	15c43014	 strneb      r3, [r4, #0x14]
  00058	1b000000	 blne        DeleteCriticalSection
  0005c	e2850004	 add         r0, r5, #4
  00060		 |$M66724|
  00060	eb000000	 bl          |??1CExpansionVector@ATL@@QAA@XZ|
  00064	e24bd014	 sub         sp, r11, #0x14
  00068	e89da830	 ldmia       sp, {r4, r5, r11, sp, pc}
  0006c		 |$M66727|
  0006c		 |__unwind$66665|
  0006c	e52de004	 str         lr, [sp, #-4]!
  00070	e24bb010	 sub         r11, r11, #0x10
  00074		 |$M66730|
  00074	e59b3000	 ldr         r3, [r11]
  00078	e2830004	 add         r0, r3, #4
  0007c	eb000000	 bl          |??1CExpansionVector@ATL@@QAA@XZ|
  00080	e28bb010	 add         r11, r11, #0x10
  00084	e8bd8000	 ldmia       sp!, {pc}
  00088		 |$M66731|
  00088		 |__unwind$66666|
  00088	e52de004	 str         lr, [sp, #-4]!
  0008c	e24bb010	 sub         r11, r11, #0x10
  00090		 |$M66733|
  00090	e59b3000	 ldr         r3, [r11]
  00094	e2830010	 add         r0, r3, #0x10
  00098	eb000000	 bl          |??1CComAutoDeleteCriticalSection@ATL@@QAA@XZ|
  0009c	e28bb010	 add         r11, r11, #0x10
  000a0	e8bd8000	 ldmia       sp!, {pc}
  000a4		 |$LN34@CRegObject|
  000a4		 |$LN35@CRegObject|
  000a4	00000000	 DCD         |??_7CRegObject@ATL@@6B@|
  000a8		 |$M66734|

			 ENDP  ; |??1CRegObject@ATL@@UAA@XZ|, ATL::CRegObject::~CRegObject


  00000			 AREA	 |.pdata|, PDATA
|$T66749| DCD	|$LN5@QueryInter|
	DCD	0x40000300
; Function compile flags: /Ogspy

  00000			 AREA	 |.text|, CODE, ARM

  00000		 |?QueryInterface@CRegObject@ATL@@UAAJABU_GUID@@PAPAX@Z| PROC ; ATL::CRegObject::QueryInterface
; Line 284
  00000		 |$LN5@QueryInter|
  00000		 |$M66746|
  00000	e3a03106	 mov         r3, #6, 2
; Line 286
  00004	e3830901	 orr         r0, r3, #1, 18	; 16384 (0x4000)
; Line 287
  00008	e1a0f00e	 mov         pc, lr
  0000c		 |$M66747|

			 ENDP  ; |?QueryInterface@CRegObject@ATL@@UAAJABU_GUID@@PAPAX@Z|, ATL::CRegObject::QueryInterface


  00000			 AREA	 |.pdata|, PDATA
|$T66758| DCD	|$LN5@AddRef|
	DCD	0x40000200
; Function compile flags: /Ogspy

  00000			 AREA	 |.text|, CODE, ARM

  00000		 |?AddRef@CRegObject@ATL@@UAAKXZ| PROC	; ATL::CRegObject::AddRef
; Line 290
  00000		 |$LN5@AddRef|
  00000		 |$M66755|
; Line 292
  00000	e3a00001	 mov         r0, #1
; Line 293
  00004	e1a0f00e	 mov         pc, lr
  00008		 |$M66756|

			 ENDP  ; |?AddRef@CRegObject@ATL@@UAAKXZ|, ATL::CRegObject::AddRef


  00000			 AREA	 |.pdata|, PDATA
|$T66767| DCD	|$LN5@Release|
	DCD	0x40000200
; Function compile flags: /Ogspy

  00000			 AREA	 |.text|, CODE, ARM

  00000		 |?Release@CRegObject@ATL@@UAAKXZ| PROC	; ATL::CRegObject::Release
; Line 295
  00000		 |$LN5@Release|
  00000		 |$M66764|
; Line 297
  00000	e3a00000	 mov         r0, #0
; Line 298
  00004	e1a0f00e	 mov         pc, lr
  00008		 |$M66765|

			 ENDP  ; |?Release@CRegObject@ATL@@UAAKXZ|, ATL::CRegObject::Release


  00000			 AREA	 |.pdata|, PDATA
|$T66778| DCD	|$LN6@scalar|
	DCD	0x40000901
; Function compile flags: /Ogspy

  00000			 AREA	 |.text|, CODE, ARM

  00000		 |??_GCRegObject@ATL@@UAAPAXI@Z| PROC	; ATL::CRegObject::`scalar deleting destructor'
  00000		 |$LN6@scalar|
  00000	e92d4030	 stmdb       sp!, {r4, r5, lr}
  00004		 |$M66775|
  00004	e1a04001	 mov         r4, r1
  00008	e1a05000	 mov         r5, r0
  0000c	eb000000	 bl          |??1CRegObject@ATL@@UAA@XZ|
  00010	e3140001	 tst         r4, #1
  00014	11a00005	 movne       r0, r5
  00018	1b000000	 blne        |??3@YAXPAX@Z|
  0001c	e1a00005	 mov         r0, r5
  00020	e8bd8030	 ldmia       sp!, {r4, r5, pc}
  00024		 |$M66776|

			 ENDP  ; |??_GCRegObject@ATL@@UAAPAXI@Z|, ATL::CRegObject::`scalar deleting destructor'

	EXPORT	|?StrFromMap@CRegObject@ATL@@QAAPB_WPA_W@Z| ; ATL::CRegObject::StrFromMap
; File c:\program files (x86)\microsoft visual studio 9.0\vc\ce\atlmfc\include\atlcore.h

  00000			 AREA	 |.pdata|, PDATA
|$T66803| DCD	|$LN15@StrFromMap|
	DCD	0x40000e03
; Function compile flags: /Ogspy

  00000			 AREA	 |.text|, CODE, ARM

  00000		 |?StrFromMap@CRegObject@ATL@@QAAPB_WPA_W@Z| PROC ; ATL::CRegObject::StrFromMap
; File c:\program files (x86)\microsoft visual studio 9.0\vc\ce\atlmfc\include\statreg.h
; Line 548
  00000		 |$LN15@StrFromMap|
  00000	e1a0c00d	 mov         r12, sp
  00004	e92d000f	 stmdb       sp!, {r0 - r3}
  00008	e92d5030	 stmdb       sp!, {r4, r5, r12, lr}
  0000c		 |$M66800|
  0000c	e1a05000	 mov         r5, r0
; Line 549
  00010	e2850010	 add         r0, r5, #0x10
  00014	eb000000	 bl          EnterCriticalSection
; Line 550
  00018	e28d1014	 add         r1, sp, #0x14
  0001c	e2850004	 add         r0, r5, #4
  00020	eb000000	 bl          |?Lookup@?$CSimpleMap@PA_WPA_WVCExpansionVectorEqualHelper@ATL@@@ATL@@QBAPA_WABQA_W@Z|
  00024	e1a04000	 mov         r4, r0
; Line 553
  00028	e2850010	 add         r0, r5, #0x10
  0002c	eb000000	 bl          LeaveCriticalSection
; Line 555
  00030	e1a00004	 mov         r0, r4
  00034	e89da030	 ldmia       sp, {r4, r5, sp, pc}
  00038		 |$M66801|

			 ENDP  ; |?StrFromMap@CRegObject@ATL@@QAAPB_WPA_W@Z|, ATL::CRegObject::StrFromMap

	EXPORT	|__$ArrayPad$| [ DATA ]
	EXPORT	|?PreProcessBuffer@CRegParser@ATL@@QAAJPA_WPAPA_W@Z| ; ATL::CRegParser::PreProcessBuffer
	EXPORT	|??_C@_1BE@LJOLIMEM@?$AA?$AN?$AA?6?$AA?7?$AA?$HN?$AA?$AN?$AA?6?$AA?$HN?$AA?$AN?$AA?6?$AA?$AA@| [ DATA ] ; `string'
	EXPORT	|??_C@_1EA@NHKLICFA@?$AAH?$AAK?$AAC?$AAU?$AA?$AN?$AA?6?$AA?$HL?$AA?7?$AAS?$AAo?$AAf?$AAt?$AAw?$AAa?$AAr?$AAe?$AA?$AN?$AA?6?$AA?7?$AA?$HL?$AA?$AN?$AA?6?$AA?7?$AA?7?$AAC?$AAl?$AAa?$AAs?$AAs?$AAe?$AAs?$AA?$AA@| [ DATA ] ; `string'
	IMPORT	|__GSHandlerCheck_EH|

  00000			 AREA	 |.pdata|, PDATA
|$T66962| DCD	|$LN108@PreProcess|
	DCD	0xc000d904

  00000			 AREA	 |.pdata|, PDATA
|$T66965| DCD	|__unwind$66810|
	DCD	0x40000901

  00000			 AREA	 |.rdata|, DATA, READONLY
|__unwindtable$?PreProcessBuffer@CRegParser@ATL@@QAAJPA_WPAPA_W@Z| DCD 0xffffffff
	DCD	|__unwind$66810|
|__ehfuncinfo$?PreProcessBuffer@CRegParser@ATL@@QAAJPA_WPAPA_W@Z| DCD 0x19930522
	DCD	0x1
	DCD	|__unwindtable$?PreProcessBuffer@CRegParser@ATL@@QAAJPA_WPAPA_W@Z|
	DCD	0x0
	DCD	0x0
	DCD	0x2
	DCD	|$T66957|
	DCD	0x0
	DCD	0x1
	DCD	0xffffffd4
|$T66957| DCD	|$M66955|
	DCD	0x0
	DCD	|$M66956|
	DCD	0xffffffff

  00000			 AREA	 |.rdata|, DATA, READONLY
|??_C@_1BE@LJOLIMEM@?$AA?$AN?$AA?6?$AA?7?$AA?$HN?$AA?$AN?$AA?6?$AA?$HN?$AA?$AN?$AA?6?$AA?$AA@| DCB 0xd
	DCB	0x0, 0xa, 0x0, 0x9, 0x0, "}", 0x0, 0xd, 0x0, 0xa, 0x0, "}"
	DCB	0x0, 0xd, 0x0, 0xa, 0x0, 0x0, 0x0	; `string'

  00000			 AREA	 |.rdata|, DATA, READONLY
|??_C@_1EA@NHKLICFA@?$AAH?$AAK?$AAC?$AAU?$AA?$AN?$AA?6?$AA?$HL?$AA?7?$AAS?$AAo?$AAf?$AAt?$AAw?$AAa?$AAr?$AAe?$AA?$AN?$AA?6?$AA?7?$AA?$HL?$AA?$AN?$AA?6?$AA?7?$AA?7?$AAC?$AAl?$AAa?$AAs?$AAs?$AAe?$AAs?$AA?$AA@| DCB "H"
	DCB	0x0, "K", 0x0, "C", 0x0, "U", 0x0, 0xd, 0x0, 0xa, 0x0, "{"
	DCB	0x0, 0x9, 0x0, "S", 0x0, "o", 0x0, "f", 0x0, "t", 0x0, "w"
	DCB	0x0, "a", 0x0, "r", 0x0, "e", 0x0, 0xd, 0x0, 0xa, 0x0, 0x9
	DCB	0x0, "{", 0x0, 0xd, 0x0, 0xa, 0x0, 0x9, 0x0, 0x9, 0x0, "C"
	DCB	0x0, "l", 0x0, "a", 0x0, "s", 0x0, "s", 0x0, "e", 0x0, "s"
	DCB	0x0, 0x0, 0x0				; `string'
; Function compile flags: /Ogspy

  00000			 AREA	 |.text|, CODE, ARM

  00000	00000000	 DCD         |__GSHandlerCheck_EH|
  00004	00000000	 DCD         |__ehfuncinfo$?PreProcessBuffer@CRegParser@ATL@@QAAJPA_WPAPA_W@Z|

  00008		 |?PreProcessBuffer@CRegParser@ATL@@QAAJPA_WPAPA_W@Z| PROC ; ATL::CRegParser::PreProcessBuffer
; Line 1072
  00008		 |$LN108@PreProcess|
  00008	e1a0c00d	 mov         r12, sp
  0000c	e92d5ff0	 stmdb       sp!, {r4 - r12, lr}
  00010	e28db028	 add         r11, sp, #0x28
  00014	e24dd058	 sub         sp, sp, #0x58
  00018		 |$M66959|
  00018	e1a0a002	 mov         r10, r2
  0001c	e1b04001	 movs        r4, r1
  00020	e1a06000	 mov         r6, r0
  00024	e59f3360	 ldr         r3, [pc, #0x360]
  00028	e5933000	 ldr         r3, [r3]
  0002c	e50b302c	 str         r3, [r11, #-0x2C]
; Line 1076
  00030	0a0000c6	 beq         |$LN32@PreProcess|
  00034	e35a0000	 cmp         r10, #0
  00038	0a0000c4	 beq         |$LN32@PreProcess|
; Line 1079
  0003c	e3a03000	 mov         r3, #0
; Line 1080
  00040	e1a00004	 mov         r0, r4
  00044	e58a3000	 str         r3, [r10]
  00048	eb000000	 bl          wcslen
  0004c	e1a01080	 mov         r1, r0, lsl #1
; Line 1081
  00050	e24b007c	 sub         r0, r11, #0x7C
  00054	eb000000	 bl          |??0CParseBuffer@CRegParser@ATL@@QAA@H@Z|
; Line 1082
  00058	e51be074	 ldr         lr, [r11, #-0x74]
  0005c	e35e0000	 cmp         lr, #0
  00060	1a000006	 bne         |$LN31@PreProcess|
; Line 1083
  00064	e3a00000	 mov         r0, #0
  00068	eb000000	 bl          CoTaskMemFree
  0006c	e51b002c	 ldr         r0, [r11, #-0x2C]
  00070	eb000000	 bl          __security_check_cookie
  00074	e3a0313a	 mov         r3, #0x3A, 2
  00078	e3835807	 orr         r5, r3, #7, 16	; 458752 (0x70000)
  0007c	ea0000b7	 b           |$LN34@PreProcess|
  00080		 |$LN31@PreProcess|
; Line 1084
  00080	e5864000	 str         r4, [r6]
; Line 1100
  00084	e1d430b0	 ldrh        r3, [r4]
  00088	e59f22f8	 ldr         r2, [pc, #0x2F8]
  0008c	e3a07000	 mov         r7, #0
  00090	e3530000	 cmp         r3, #0
  00094	e5d23000	 ldrb        r3, [r2]
  00098	e3a04000	 mov         r4, #0
  0009c	e3a05000	 mov         r5, #0
  000a0	e54b307e	 strb        r3, [r11, #-0x7E]
  000a4	e3a09000	 mov         r9, #0
  000a8	e54b707f	 strb        r7, [r11, #-0x7F]
  000ac	e54b4080	 strb        r4, [r11, #-0x80]
  000b0	0a00009b	 beq         |$LN95@PreProcess|
  000b4	e24b806c	 sub         r8, r11, #0x6C
  000b8		 |$LL29@PreProcess|
; Line 1102
  000b8	e3530001	 cmp         r3, #1
  000bc	1a00004a	 bne         |$LN15@PreProcess|
; Line 1107
  000c0	e3590000	 cmp         r9, #0
  000c4	1a00001a	 bne         |$LN25@PreProcess|
; Line 1112
  000c8	e5960000	 ldr         r0, [r6]
  000cc	e59f12b0	 ldr         r1, [pc, #0x2B0]
  000d0	eb000000	 bl          wcsstr
  000d4	e1b03000	 movs        r3, r0
  000d8	0a000015	 beq         |$LN25@PreProcess|
  000dc	e5960000	 ldr         r0, [r6]
  000e0	e1530000	 cmp         r3, r0
  000e4	1a000012	 bne         |$LN25@PreProcess|
; Line 1115
  000e8	eb000000	 bl          CharNextW
  000ec	e1a03000	 mov         r3, r0
; Line 1116
  000f0	e5863000	 str         r3, [r6]
  000f4	eb000000	 bl          CharNextW
  000f8	e1a03000	 mov         r3, r0
; Line 1117
  000fc	e5863000	 str         r3, [r6]
  00100	eb000000	 bl          CharNextW
  00104	e1a03000	 mov         r3, r0
; Line 1118
  00108	e5863000	 str         r3, [r6]
  0010c	eb000000	 bl          CharNextW
; Line 1121
  00110	e59f1268	 ldr         r1, [pc, #0x268]
  00114	e1a03000	 mov         r3, r0
  00118	e24b007c	 sub         r0, r11, #0x7C
  0011c	e5863000	 str         r3, [r6]
  00120		 |$M66955|
  00120	eb000000	 bl          |?AddString@CParseBuffer@CRegParser@ATL@@QAAHPB_W@Z|
  00124	e3500000	 cmp         r0, #0
  00128	0a00003f	 beq         |$LN92@PreProcess|
; Line 1127
  0012c	e3a07001	 mov         r7, #1
  00130	e54b707f	 strb        r7, [r11, #-0x7F]
  00134		 |$LN25@PreProcess|
; Line 1131
  00134	e5960000	 ldr         r0, [r6]
  00138	e1d030b0	 ldrh        r3, [r0]
  0013c	e3530027	 cmp         r3, #0x27
  00140	1a000013	 bne         |$LN18@PreProcess|
; Line 1133
  00144	e3540000	 cmp         r4, #0
; Line 1135
  00148	03a04001	 moveq       r4, #1
; Line 1142
  0014c	054b4080	 streqb      r4, [r11, #-0x80]
  00150	0a00000f	 beq         |$LN18@PreProcess|
  00154	eb000000	 bl          CharNextW
  00158	e1d030b0	 ldrh        r3, [r0]
  0015c	e3530027	 cmp         r3, #0x27
  00160	13a04000	 movne       r4, #0
  00164	154b4080	 strneb      r4, [r11, #-0x80]
  00168	1a000009	 bne         |$LN18@PreProcess|
; Line 1147
  0016c	e5960000	 ldr         r0, [r6]
  00170	eb000000	 bl          CharNextW
  00174	e1a03000	 mov         r3, r0
; Line 1148
  00178	e1a01003	 mov         r1, r3
  0017c	e3a02001	 mov         r2, #1
  00180	e24b007c	 sub         r0, r11, #0x7C
  00184	e5863000	 str         r3, [r6]
  00188	eb000000	 bl          |?Append@CParseBuffer@CRegParser@ATL@@QAAHPB_WH@Z|
  0018c	e3500000	 cmp         r0, #0
  00190	0a000025	 beq         |$LN92@PreProcess|
  00194		 |$LN18@PreProcess|
; Line 1157
  00194	e1b02004	 movs        r2, r4
  00198	05963000	 ldreq       r3, [r6]
  0019c	01d330b0	 ldreqh      r3, [r3]
  001a0	0353007b	 cmpeq       r3, #0x7B
; Line 1159
  001a4	02899001	 addeq       r9, r9, #1
; Line 1162
  001a8	e3520000	 cmp         r2, #0
  001ac	1a00000e	 bne         |$LN15@PreProcess|
  001b0	e5963000	 ldr         r3, [r6]
  001b4	e1d330b0	 ldrh        r3, [r3]
  001b8	e353007d	 cmp         r3, #0x7D
  001bc	1a00000a	 bne         |$LN15@PreProcess|
; Line 1164
  001c0	e2599001	 subs        r9, r9, #1
; Line 1165
  001c4	1a000008	 bne         |$LN15@PreProcess|
  001c8	e3570001	 cmp         r7, #1
  001cc	1a000006	 bne         |$LN15@PreProcess|
; Line 1167
  001d0	e59f11a4	 ldr         r1, [pc, #0x1A4]
  001d4	e24b007c	 sub         r0, r11, #0x7C
  001d8	eb000000	 bl          |?AddString@CParseBuffer@CRegParser@ATL@@QAAHPB_W@Z|
  001dc	e3500000	 cmp         r0, #0
  001e0	0a000011	 beq         |$LN92@PreProcess|
; Line 1173
  001e4	e3a07000	 mov         r7, #0
  001e8	e54b707f	 strb        r7, [r11, #-0x7F]
  001ec		 |$LN15@PreProcess|
; Line 1178
  001ec	e5961000	 ldr         r1, [r6]
  001f0	e1d130b0	 ldrh        r3, [r1]
  001f4	e3530025	 cmp         r3, #0x25
  001f8	1a000006	 bne         |$LN13@PreProcess|
; Line 1180
  001fc	e1a00001	 mov         r0, r1
  00200	eb000000	 bl          CharNextW
  00204	e5860000	 str         r0, [r6]
; Line 1181
  00208	e1d030b0	 ldrh        r3, [r0]
  0020c	e3530025	 cmp         r3, #0x25
  00210	1a000009	 bne         |$LN12@PreProcess|
; Line 1183
  00214	e1a01000	 mov         r1, r0
  00218		 |$LN13@PreProcess|
  00218	e3a02001	 mov         r2, #1
  0021c	e24b007c	 sub         r0, r11, #0x7C
  00220	eb000000	 bl          |?Append@CParseBuffer@CRegParser@ATL@@QAAHPB_WH@Z|
  00224	e3500000	 cmp         r0, #0
  00228	1a00002b	 bne         |$LN2@PreProcess|
  0022c		 |$LN92@PreProcess|
; Line 1224
  0022c	e3a0313a	 mov         r3, #0x3A, 2
; Line 1233
  00230	e51b0074	 ldr         r0, [r11, #-0x74]
  00234	e3835807	 orr         r5, r3, #7, 16	; 458752 (0x70000)
  00238	ea000040	 b           |$LN1@PreProcess|
  0023c		 |$LN12@PreProcess|
; Line 1191
  0023c	e3a01025	 mov         r1, #0x25
  00240	eb000000	 bl          |?StrChrW@CRegParser@ATL@@KAPA_WPA_W_W@Z|
  00244	e1b07000	 movs        r7, r0
; Line 1192
  00248	0a000030	 beq         |$LN88@PreProcess|
; Line 1198
  0024c	e5962000	 ldr         r2, [r6]
  00250	e0473002	 sub         r3, r7, r2
  00254	e1a030c3	 mov         r3, r3, asr #1
  00258	e353001f	 cmp         r3, #0x1F
  0025c	ca000027	 bgt         |$LN89@PreProcess|
; Line 1205
  00260	e3a01020	 mov         r1, #0x20
  00264	e24b006c	 sub         r0, r11, #0x6C
  00268	eb000000	 bl          wcsncpy_s
  0026c	eb000000	 bl          |?AtlCrtErrorCheck@ATL@@YAHH@Z|
; Line 1206
  00270	e5964004	 ldr         r4, [r6, #4]
  00274	e50b8070	 str         r8, [r11, #-0x70]
  00278	e2840010	 add         r0, r4, #0x10
  0027c	eb000000	 bl          EnterCriticalSection
  00280	e24b1070	 sub         r1, r11, #0x70
  00284	e2840004	 add         r0, r4, #4
  00288	eb000000	 bl          |?Lookup@?$CSimpleMap@PA_WPA_WVCExpansionVectorEqualHelper@ATL@@@ATL@@QBAPA_WABQA_W@Z|
  0028c	e1a08000	 mov         r8, r0
  00290	e2840010	 add         r0, r4, #0x10
  00294	eb000000	 bl          LeaveCriticalSection
; Line 1207
  00298	e3580000	 cmp         r8, #0
  0029c	0a00001b	 beq         |$LN88@PreProcess|
; Line 1212
  002a0	e1a01008	 mov         r1, r8
  002a4	e24b007c	 sub         r0, r11, #0x7C
  002a8	eb000000	 bl          |?AddString@CParseBuffer@CRegParser@ATL@@QAAHPB_W@Z|
  002ac	e3500000	 cmp         r0, #0
  002b0	0affffdd	 beq         |$LN92@PreProcess|
; Line 1218
  002b4	ea000002	 b           |$LN102@PreProcess|
  002b8		 |$LL5@PreProcess|
; Line 1219
  002b8	e5960000	 ldr         r0, [r6]
  002bc	eb000000	 bl          CharNextW
  002c0	e5860000	 str         r0, [r6]
  002c4		 |$LN102@PreProcess|
  002c4	e5963000	 ldr         r3, [r6]
  002c8	e1530007	 cmp         r3, r7
  002cc	1afffff9	 bne         |$LL5@PreProcess|
  002d0	e55b707f	 ldrb        r7, [r11, #-0x7F]
  002d4	e55b4080	 ldrb        r4, [r11, #-0x80]
  002d8	e24b806c	 sub         r8, r11, #0x6C
  002dc		 |$LN2@PreProcess|
; Line 1231
  002dc	e5960000	 ldr         r0, [r6]
  002e0	eb000000	 bl          CharNextW
  002e4	e1a03000	 mov         r3, r0
  002e8	e5860000	 str         r0, [r6]
  002ec	e1d330b0	 ldrh        r3, [r3]
  002f0	e3530000	 cmp         r3, #0
  002f4	0a000009	 beq         |$LN97@PreProcess|
  002f8	e55b307e	 ldrb        r3, [r11, #-0x7E]
  002fc	eaffff6d	 b           |$LL29@PreProcess|
  00300		 |$LN89@PreProcess|
; Line 1210
  00300	e3a03116	 mov         r3, #0x16, 2
; Line 1233
  00304	e51b0074	 ldr         r0, [r11, #-0x74]
  00308	e3835901	 orr         r5, r3, #1, 18	; 16384 (0x4000)
  0030c	ea00000b	 b           |$LN1@PreProcess|
  00310		 |$LN88@PreProcess|
; Line 1201
  00310	e3a03126	 mov         r3, #0x26, 2
; Line 1233
  00314	e51b0074	 ldr         r0, [r11, #-0x74]
  00318	e3835802	 orr         r5, r3, #2, 16	; 131072 (0x20000)
  0031c	ea000007	 b           |$LN1@PreProcess|
  00320		 |$LN97@PreProcess|
; Line 1224
  00320	e51be074	 ldr         lr, [r11, #-0x74]
  00324		 |$LN95@PreProcess|
; Line 1234
  00324	e3a03000	 mov         r3, #0
  00328	e3a02000	 mov         r2, #0
  0032c	e3a00000	 mov         r0, #0
  00330	e50b0074	 str         r0, [r11, #-0x74]
  00334	e50b307c	 str         r3, [r11, #-0x7C]
  00338	e50b2078	 str         r2, [r11, #-0x78]
  0033c	e58ae000	 str         lr, [r10]
  00340		 |$LN1@PreProcess|
; Line 1235
  00340	eb000000	 bl          CoTaskMemFree
  00344	e51b002c	 ldr         r0, [r11, #-0x2C]
  00348		 |$M66956|
  00348	eb000000	 bl          __security_check_cookie
  0034c	ea000003	 b           |$LN34@PreProcess|
  00350		 |$LN32@PreProcess|
; Line 1077
  00350	e51b002c	 ldr         r0, [r11, #-0x2C]
  00354	eb000000	 bl          __security_check_cookie
  00358	e3a0310e	 mov         r3, #0xE, 2
  0035c	e3835901	 orr         r5, r3, #1, 18	; 16384 (0x4000)
  00360		 |$LN34@PreProcess|
; Line 1236
  00360	e1a00005	 mov         r0, r5
  00364	e24bd028	 sub         sp, r11, #0x28
  00368	e89daff0	 ldmia       sp, {r4 - r11, sp, pc}
  0036c		 |$M66960|
  0036c		 |__unwind$66810|
  0036c	e52de004	 str         lr, [sp, #-4]!
  00370		 |$M66963|
  00370	e24b007c	 sub         r0, r11, #0x7C
  00374	eb000000	 bl          |??1CParseBuffer@CRegParser@ATL@@QAA@XZ|
  00378	e8bd8000	 ldmia       sp!, {pc}
  0037c		 |$LN111@PreProcess|
  0037c		 |$LN112@PreProcess|
  0037c	00000000	 DCD         |??_C@_1BE@LJOLIMEM@?$AA?$AN?$AA?6?$AA?7?$AA?$HN?$AA?$AN?$AA?6?$AA?$HN?$AA?$AN?$AA?6?$AA?$AA@|
  00380		 |$LN113@PreProcess|
  00380	00000000	 DCD         |??_C@_1EA@NHKLICFA@?$AAH?$AAK?$AAC?$AAU?$AA?$AN?$AA?6?$AA?$HL?$AA?7?$AAS?$AAo?$AAf?$AAt?$AAw?$AAa?$AAr?$AAe?$AA?$AN?$AA?6?$AA?7?$AA?$HL?$AA?$AN?$AA?6?$AA?7?$AA?7?$AAC?$AAl?$AAa?$AAs?$AAs?$AAe?$AAs?$AA?$AA@|
  00384		 |$LN114@PreProcess|
  00384	00000000	 DCD         |??_C@_19NCHLBIN@?$AAH?$AAK?$AAC?$AAR?$AA?$AA@|
  00388		 |$LN115@PreProcess|
  00388	00000000	 DCD         |?_AtlRegisterPerUser@ATL@@3_NA|
  0038c		 |$LN116@PreProcess|
  0038c	00000000	 DCD         |__security_cookie|
  00390		 |$M66964|

			 ENDP  ; |?PreProcessBuffer@CRegParser@ATL@@QAAJPA_WPAPA_W@Z|, ATL::CRegParser::PreProcessBuffer

	EXPORT	|??0CExpansionVector@ATL@@QAA@XZ|	; ATL::CExpansionVector::CExpansionVector

  00000			 AREA	 |.pdata|, PDATA
|$T66987| DCD	|$LN8@CExpansion@2|
	DCD	0x40000500
; Function compile flags: /Ogspy

  00000			 AREA	 |.text|, CODE, ARM

  00000		 |??0CExpansionVector@ATL@@QAA@XZ| PROC	; ATL::CExpansionVector::CExpansionVector
  00000		 |$LN8@CExpansion@2|
  00000		 |$M66984|
  00000	e3a03000	 mov         r3, #0
  00004	e5803000	 str         r3, [r0]
  00008	e5803004	 str         r3, [r0, #4]
  0000c	e5803008	 str         r3, [r0, #8]
  00010	e1a0f00e	 mov         pc, lr
  00014		 |$M66985|

			 ENDP  ; |??0CExpansionVector@ATL@@QAA@XZ|, ATL::CExpansionVector::CExpansionVector

	EXPORT	|__$ArrayPad$| [ DATA ]
	EXPORT	|?AtlRegisterTypeLib@ATL@@YAJPAUHINSTANCE__@@PB_W@Z| ; ATL::AtlRegisterTypeLib
	EXPORT	|??_C@_1CO@FKNHKAMI@?$AAR?$AAe?$AAg?$AAi?$AAs?$AAt?$AAe?$AAr?$AAT?$AAy?$AAp?$AAe?$AAL?$AAi?$AAb?$AAF?$AAo?$AAr?$AAU?$AAs?$AAe?$AAr?$AA?$AA@| [ DATA ] ; `string'
	EXPORT	|??_C@_1BK@EDKOLFBJ@?$AAO?$AAL?$AAE?$AAA?$AAU?$AAT?$AA3?$AA2?$AA?4?$AAD?$AAL?$AAL?$AA?$AA@| [ DATA ] ; `string'
	IMPORT	|RegisterTypeLib|
	IMPORT	|GetProcAddressW|
	IMPORT	|GetModuleHandleW|
; File c:\program files (x86)\microsoft visual studio 9.0\vc\ce\atlmfc\include\atlcomcli.h

  00000			 AREA	 |.pdata|, PDATA
|$T67139| DCD	|$LN77@AtlRegiste|
	DCD	0xc0007102

  00000			 AREA	 |.xdata|, DATA
|$T67135| DCD	0xffffffe8

  00000			 AREA	 |.rdata|, DATA, READONLY
|??_C@_1CO@FKNHKAMI@?$AAR?$AAe?$AAg?$AAi?$AAs?$AAt?$AAe?$AAr?$AAT?$AAy?$AAp?$AAe?$AAL?$AAi?$AAb?$AAF?$AAo?$AAr?$AAU?$AAs?$AAe?$AAr?$AA?$AA@| DCB "R"
	DCB	0x0, "e", 0x0, "g", 0x0, "i", 0x0, "s", 0x0, "t", 0x0, "e"
	DCB	0x0, "r", 0x0, "T", 0x0, "y", 0x0, "p", 0x0, "e", 0x0, "L"
	DCB	0x0, "i", 0x0, "b", 0x0, "F", 0x0, "o", 0x0, "r", 0x0, "U"
	DCB	0x0, "s", 0x0, "e", 0x0, "r", 0x0, 0x0, 0x0 ; `string'

  00000			 AREA	 |.rdata|, DATA, READONLY
|??_C@_1BK@EDKOLFBJ@?$AAO?$AAL?$AAE?$AAA?$AAU?$AAT?$AA3?$AA2?$AA?4?$AAD?$AAL?$AAL?$AA?$AA@| DCB "O"
	DCB	0x0, "L", 0x0, "E", 0x0, "A", 0x0, "U", 0x0, "T", 0x0, "3"
	DCB	0x0, "2", 0x0, ".", 0x0, "D", 0x0, "L", 0x0, "L", 0x0, 0x0
	DCB	0x0					; `string'
; Function compile flags: /Ogspy

  00000			 AREA	 |.text|, CODE, ARM

  00000	00000000	 DCD         |__GSHandlerCheck|
  00004	00000000	 DCD         |$T67135|

  00008		 |?AtlRegisterTypeLib@ATL@@YAJPAUHINSTANCE__@@PB_W@Z| PROC ; ATL::AtlRegisterTypeLib
; File c:\program files (x86)\microsoft visual studio 9.0\vc\ce\atlmfc\include\atlbase.h
; Line 6908
  00008		 |$LN77@AtlRegiste|
  00008	e92d40f0	 stmdb       sp!, {r4 - r7, lr}
  0000c	e24dde22	 sub         sp, sp, #0x22, 28	; 544 (0x220)
  00010		 |$M67136|
  00010	e59f31b0	 ldr         r3, [pc, #0x1B0]
  00014	e5933000	 ldr         r3, [r3]
  00018	e58d321c	 str         r3, [sp, #0x21C]
; Line 6909
  0001c	e3a03000	 mov         r3, #0
; Line 6910
  00020	e3a02000	 mov         r2, #0
  00024	e58d3010	 str         r3, [sp, #0x10]
  00028	e58d2008	 str         r2, [sp, #8]
; Line 6911
  0002c	e28d3008	 add         r3, sp, #8
  00030	e28d2010	 add         r2, sp, #0x10
  00034	eb000000	 bl          |?AtlLoadTypeLib@ATL@@YAJPAUHINSTANCE__@@PB_WPAPA_WPAPAUITypeLib@@@Z|
  00038	e1b04000	 movs        r4, r0
; Line 6912
  0003c	4a000051	 bmi         |$LN62@AtlRegiste|
; Line 6917
  00040	e59d0008	 ldr         r0, [sp, #8]
  00044	e3a03000	 mov         r3, #0
  00048	e58d300c	 str         r3, [sp, #0xC]
; Line 6918
  0004c	e5903000	 ldr         r3, [r0]
  00050	e28d400c	 add         r4, sp, #0xC
  00054	e3a07000	 mov         r7, #0
  00058	e5935024	 ldr         r5, [r3, #0x24]
  0005c	e3a03000	 mov         r3, #0
  00060	e3a02000	 mov         r2, #0
  00064	e3e01000	 mvn         r1, #0
  00068	e3a06000	 mov         r6, #0
  0006c	e58d4004	 str         r4, [sp, #4]
  00070	e58d7000	 str         r7, [sp]
  00074	e1a0e00f	 mov         lr, pc
  00078	e1a0f005	 mov         pc, r5
  0007c	e3500000	 cmp         r0, #0
  00080	4a00002b	 bmi         |$LN5@AtlRegiste|
  00084	e59d000c	 ldr         r0, [sp, #0xC]
  00088	e3500000	 cmp         r0, #0
  0008c	03a03001	 moveq       r3, #1
  00090	13a03000	 movne       r3, #0
  00094	e21330ff	 ands        r3, r3, #0xFF
  00098	03a03001	 moveq       r3, #1
  0009c	13a03000	 movne       r3, #0
  000a0	e21330ff	 ands        r3, r3, #0xFF
; Line 6961
  000a4	0a000022	 beq         |$LN5@AtlRegiste|
  000a8	eb000000	 bl          SysStringLen
  000ac	e59d200c	 ldr         r2, [sp, #0xC]
  000b0	e1a03000	 mov         r3, r0
  000b4	e28d0014	 add         r0, sp, #0x14
  000b8	e3a01f41	 mov         r1, #0x41, 30
  000bc	eb000000	 bl          wcsncpy_s
  000c0	eb000000	 bl          |?AtlCrtErrorCheck@ATL@@YAHH@Z|
  000c4	e3a02000	 mov         r2, #0
  000c8	e1dd31b4	 ldrh        r3, [sp, #0x14]
  000cc	e28dcc02	 add         r12, sp, #2, 24	; 512 (0x200)
  000d0	e1cc21ba	 strh        r2, [r12, #0x1A]
  000d4	e28d5014	 add         r5, sp, #0x14
  000d8	e28d4014	 add         r4, sp, #0x14
  000dc	ea00000b	 b           |$LN74@AtlRegiste|
; Line 6924
  000e0		 |$LL42@AtlRegiste|
  000e0	e1a00004	 mov         r0, r4
  000e4	eb000000	 bl          CharNextW
  000e8	e1d430b0	 ldrh        r3, [r4]
  000ec	e1a04000	 mov         r4, r0
  000f0	e353005c	 cmp         r3, #0x5C
  000f4	0a000003	 beq         |$LN39@AtlRegiste|
  000f8	e353002f	 cmp         r3, #0x2F
  000fc	0a000001	 beq         |$LN39@AtlRegiste|
  00100	e353003a	 cmp         r3, #0x3A
  00104	1a000000	 bne         |$LN40@AtlRegiste|
  00108		 |$LN39@AtlRegiste|
  00108	e1a05004	 mov         r5, r4
  0010c		 |$LN40@AtlRegiste|
  0010c	e1d430b0	 ldrh        r3, [r4]
  00110		 |$LN74@AtlRegiste|
  00110	e3530000	 cmp         r3, #0
  00114	1afffff1	 bne         |$LL42@AtlRegiste|
  00118	e28d3014	 add         r3, sp, #0x14
  0011c	e0453003	 sub         r3, r5, r3
  00120	e1a020c3	 mov         r2, r3, asr #1
  00124	e28d3014	 add         r3, sp, #0x14
  00128	e0833082	 add         r3, r3, r2, lsl #1
  0012c	e1c370b0	 strh        r7, [r3]
; Line 6926
  00130	e28d6014	 add         r6, sp, #0x14
  00134		 |$LN5@AtlRegiste|
; Line 6933
  00134	e59f3088	 ldr         r3, [pc, #0x88]
  00138	e5d33000	 ldrb        r3, [r3]
; Line 6939
  0013c	e3530001	 cmp         r3, #1
  00140	1a000007	 bne         |$LN73@AtlRegiste|
; Line 6941
  00144	e59f0074	 ldr         r0, [pc, #0x74]
  00148	eb000000	 bl          GetModuleHandleW
  0014c	e3500000	 cmp         r0, #0
; Line 6942
  00150	0a000003	 beq         |$LN73@AtlRegiste|
; Line 6947
  00154	e59f1060	 ldr         r1, [pc, #0x60]
  00158	eb000000	 bl          GetProcAddressW
  0015c	e1b03000	 movs        r3, r0
; Line 6952
  00160	1a000000	 bne         |$LN1@AtlRegiste|
  00164		 |$LN73@AtlRegiste|
; Line 6954
  00164	e59f304c	 ldr         r3, [pc, #0x4C]
  00168		 |$LN1@AtlRegiste|
; Line 6957
  00168	e59d0008	 ldr         r0, [sp, #8]
  0016c	e59d1010	 ldr         r1, [sp, #0x10]
  00170	e1a02006	 mov         r2, r6
  00174	e1a0e00f	 mov         lr, pc
  00178	e1a0f003	 mov         pc, r3
  0017c	e1a04000	 mov         r4, r0
; Line 6959
  00180	e59d000c	 ldr         r0, [sp, #0xC]
  00184	eb000000	 bl          SysFreeString
  00188		 |$LN62@AtlRegiste|
; Line 6960
  00188	e59d0008	 ldr         r0, [sp, #8]
  0018c	e3500000	 cmp         r0, #0
  00190	15903000	 ldrne       r3, [r0]
  00194	11a0e00f	 movne       lr, pc
  00198	1593f008	 ldrne       pc, [r3, #8]
  0019c	e59d0010	 ldr         r0, [sp, #0x10]
  001a0	eb000000	 bl          SysFreeString
  001a4	e59d021c	 ldr         r0, [sp, #0x21C]
  001a8	eb000000	 bl          __security_check_cookie
; Line 6961
  001ac	e1a00004	 mov         r0, r4
  001b0	e28dde22	 add         sp, sp, #0x22, 28	; 544 (0x220)
  001b4	e8bd80f0	 ldmia       sp!, {r4 - r7, pc}
  001b8		 |$LN78@AtlRegiste|
  001b8		 |$LN79@AtlRegiste|
  001b8	00000000	 DCD         |RegisterTypeLib|
  001bc		 |$LN80@AtlRegiste|
  001bc	00000000	 DCD         |??_C@_1CO@FKNHKAMI@?$AAR?$AAe?$AAg?$AAi?$AAs?$AAt?$AAe?$AAr?$AAT?$AAy?$AAp?$AAe?$AAL?$AAi?$AAb?$AAF?$AAo?$AAr?$AAU?$AAs?$AAe?$AAr?$AA?$AA@|
  001c0		 |$LN81@AtlRegiste|
  001c0	00000000	 DCD         |??_C@_1BK@EDKOLFBJ@?$AAO?$AAL?$AAE?$AAA?$AAU?$AAT?$AA3?$AA2?$AA?4?$AAD?$AAL?$AAL?$AA?$AA@|
  001c4		 |$LN82@AtlRegiste|
  001c4	00000000	 DCD         |?_AtlRegisterPerUser@ATL@@3_NA|
  001c8		 |$LN83@AtlRegiste|
  001c8	00000000	 DCD         |__security_cookie|
  001cc		 |$M67137|

			 ENDP  ; |?AtlRegisterTypeLib@ATL@@YAJPAUHINSTANCE__@@PB_W@Z|, ATL::AtlRegisterTypeLib

	EXPORT	|?AtlComModuleRegisterServer@ATL@@YAJPAU_ATL_COM_MODULE70@1@HPBU_GUID@@@Z| ; ATL::AtlComModuleRegisterServer
; File c:\program files (x86)\windows mobile 6 sdk\pocketpc\include\armv4i\objbase.h

  00000			 AREA	 |.pdata|, PDATA
|$T67173| DCD	|$LN22@AtlComModu@2|
	DCD	0x40002b01
; Function compile flags: /Ogspy

  00000			 AREA	 |.text|, CODE, ARM

  00000		 |?AtlComModuleRegisterServer@ATL@@YAJPAU_ATL_COM_MODULE70@1@HPBU_GUID@@@Z| PROC ; ATL::AtlComModuleRegisterServer
; File c:\program files (x86)\microsoft visual studio 9.0\vc\ce\atlmfc\include\atlbase.h
; Line 6971
  00000		 |$LN22@AtlComModu@2|
  00000	e92d43f0	 stmdb       sp!, {r4 - r9, lr}
  00004		 |$M67170|
  00004	e1a07002	 mov         r7, r2
  00008	e1a08001	 mov         r8, r1
  0000c	e1b06000	 movs        r6, r0
; Line 6974
  00010	059f4090	 ldreq       r4, [pc, #0x90]	; -2147024809 (0x80070057)
; Line 7005
  00014	01a00004	 moveq       r0, r4
  00018	08bd83f0	 ldmeqia     sp!, {r4 - r9, pc}
; Line 6979
  0001c	e5965008	 ldr         r5, [r6, #8]
  00020	e596300c	 ldr         r3, [r6, #0xC]
  00024	e3a04000	 mov         r4, #0
  00028	e1550003	 cmp         r5, r3
  0002c	2a000015	 bcs         |$LN19@AtlComModu@2|
  00030		 |$LL8@AtlComModu@2|
; Line 6981
  00030	e5953000	 ldr         r3, [r5]
  00034	e1b09003	 movs        r9, r3
  00038	0a00000c	 beq         |$LN7@AtlComModu@2|
; Line 6984
  0003c	e3570000	 cmp         r7, #0
  00040	0a000005	 beq         |$LN3@AtlComModu@2|
; Line 6986
  00044	e5991000	 ldr         r1, [r9]
  00048	e3a02010	 mov         r2, #0x10
  0004c	e1a00007	 mov         r0, r7
  00050	eb000000	 bl          memcmp
  00054	e3500000	 cmp         r0, #0
  00058	1a000004	 bne         |$LN7@AtlComModu@2|
  0005c		 |$LN3@AtlComModu@2|
; Line 6989
  0005c	e3a00001	 mov         r0, #1
  00060	e1a0e00f	 mov         lr, pc
  00064	e599f004	 ldr         pc, [r9, #4]
  00068	e1b04000	 movs        r4, r0
; Line 6990
  0006c	4a00000b	 bmi         |$LN1@AtlComModu@2|
  00070		 |$LN7@AtlComModu@2|
; Line 6979
  00070	e596300c	 ldr         r3, [r6, #0xC]
  00074	e2855004	 add         r5, r5, #4
  00078	e1550003	 cmp         r5, r3
  0007c	3affffeb	 bcc         |$LL8@AtlComModu@2|
; Line 7001
  00080	e3540000	 cmp         r4, #0
  00084	4a000005	 bmi         |$LN1@AtlComModu@2|
  00088		 |$LN19@AtlComModu@2|
  00088	e3580000	 cmp         r8, #0
  0008c	0a000003	 beq         |$LN1@AtlComModu@2|
; Line 7002
  00090	e5960004	 ldr         r0, [r6, #4]
  00094	e3a01000	 mov         r1, #0
  00098	eb000000	 bl          |?AtlRegisterTypeLib@ATL@@YAJPAUHINSTANCE__@@PB_W@Z|
  0009c	e1a04000	 mov         r4, r0
  000a0		 |$LN1@AtlComModu@2|
; Line 7005
  000a0	e1a00004	 mov         r0, r4
  000a4	e8bd83f0	 ldmia       sp!, {r4 - r9, pc}
  000a8		 |$LN23@AtlComModu@2|
  000a8		 |$LN24@AtlComModu@2|
  000a8	80070057	 DCD         0x80070057
  000ac		 |$M67171|

			 ENDP  ; |?AtlComModuleRegisterServer@ATL@@YAJPAU_ATL_COM_MODULE70@1@HPBU_GUID@@@Z|, ATL::AtlComModuleRegisterServer

	EXPORT	|?AtlComModuleGetClassObject@ATL@@YAJPAU_ATL_COM_MODULE70@1@ABU_GUID@@1PAPAX@Z| ; ATL::AtlComModuleGetClassObject
	EXPORT	|_GUID_00000000_0000_0000_c000_000000000046| [ DATA ]
; File c:\program files (x86)\microsoft visual studio 9.0\vc\ce\atlmfc\include\atlcore.h

  00000			 AREA	 |.pdata|, PDATA
|$T67284| DCD	|$LN62@AtlComModu@3|
	DCD	0x40004d01

  00000			 AREA	 |.rdata|, DATA, READONLY
|_GUID_00000000_0000_0000_c000_000000000046| DCD 0x0
	DCW	0x0
	DCW	0x0
	DCB	0xc0
	DCB	0x0
	DCB	0x0
	DCB	0x0
	DCB	0x0
	DCB	0x0
	DCB	0x0
	DCB	0x46
; Function compile flags: /Ogspy

  00000			 AREA	 |.text|, CODE, ARM

  00000		 |?AtlComModuleGetClassObject@ATL@@YAJPAU_ATL_COM_MODULE70@1@ABU_GUID@@1PAPAX@Z| PROC ; ATL::AtlComModuleGetClassObject
; File c:\program files (x86)\microsoft visual studio 9.0\vc\ce\atlmfc\include\atlbase.inl
; Line 128
  00000		 |$LN62@AtlComModu@3|
  00000	e92d47f0	 stmdb       sp!, {r4 - r10, lr}
  00004		 |$M67281|
  00004	e1b08003	 movs        r8, r3
  00008	e1a0a002	 mov         r10, r2
  0000c	e1a09001	 mov         r9, r1
  00010	e1a06000	 mov         r6, r0
; Line 129
  00014	03a0310e	 moveq       r3, #0xE, 2
; Line 130
  00018	03834901	 orreq       r4, r3, #1, 18	; 16384 (0x4000)
; Line 171
  0001c	01a00004	 moveq       r0, r4
  00020	08bd87f0	 ldmeqia     sp!, {r4 - r10, pc}
; Line 131
  00024	e3a03000	 mov         r3, #0
  00028	e5883000	 str         r3, [r8]
; Line 134
  0002c	e3560000	 cmp         r6, #0
; Line 135
  00030	059f40f8	 ldreq       r4, [pc, #0xF8]	; -2147221231 (0x80040111)
; Line 171
  00034	01a00004	 moveq       r0, r4
  00038	08bd87f0	 ldmeqia     sp!, {r4 - r10, pc}
; Line 136
  0003c	e5963000	 ldr         r3, [r6]
  00040	e3530000	 cmp         r3, #0
  00044	03e0347f	 mvneq       r3, #0x7F, 8
; Line 137
  00048	022348ff	 eoreq       r4, r3, #0xFF, 16	; 16711680 (0xff0000)
; Line 171
  0004c	01a00004	 moveq       r0, r4
  00050	08bd87f0	 ldmeqia     sp!, {r4 - r10, pc}
; Line 141
  00054	e5964008	 ldr         r4, [r6, #8]
  00058	e596700c	 ldr         r7, [r6, #0xC]
  0005c	ea00000b	 b           |$LN59@AtlComModu@3|
  00060		 |$LL10@AtlComModu@3|
; Line 143
  00060	e5943000	 ldr         r3, [r4]
  00064	e1b05003	 movs        r5, r3
  00068	0a000007	 beq         |$LN9@AtlComModu@3|
; Line 146
  0006c	e5953008	 ldr         r3, [r5, #8]
  00070	e3530000	 cmp         r3, #0
  00074	0a000004	 beq         |$LN9@AtlComModu@3|
  00078	e5951000	 ldr         r1, [r5]
  0007c	e1a00009	 mov         r0, r9
  00080	eb000000	 bl          |?InlineIsEqualGUID@ATL@@YAHABU_GUID@@0@Z|
  00084	e3500000	 cmp         r0, #0
  00088	1a000003	 bne         |$LN52@AtlComModu@3|
  0008c		 |$LN9@AtlComModu@3|
; Line 141
  0008c	e2844004	 add         r4, r4, #4
  00090		 |$LN59@AtlComModu@3|
  00090	e1540007	 cmp         r4, r7
  00094	3afffff1	 bcc         |$LL10@AtlComModu@3|
  00098	ea00001f	 b           |$LN58@AtlComModu@3|
  0009c		 |$LN52@AtlComModu@3|
; Line 148
  0009c	e5953010	 ldr         r3, [r5, #0x10]
  000a0	e3530000	 cmp         r3, #0
  000a4	1a000010	 bne         |$LN56@AtlComModu@3|
; Line 151
  000a8	e2860010	 add         r0, r6, #0x10
  000ac	eb000000	 bl          EnterCriticalSection
; Line 158
  000b0	e5953010	 ldr         r3, [r5, #0x10]
  000b4	e3a04000	 mov         r4, #0
  000b8	e3530000	 cmp         r3, #0
  000bc	1a000005	 bne         |$LN3@AtlComModu@3|
; Line 159
  000c0	e59f1064	 ldr         r1, [pc, #0x64]	; -2147221231 (0x80040111)
  000c4	e595000c	 ldr         r0, [r5, #0xC]
  000c8	e2852010	 add         r2, r5, #0x10
  000cc	e1a0e00f	 mov         lr, pc
  000d0	e595f008	 ldr         pc, [r5, #8]
  000d4	e1a04000	 mov         r4, r0
  000d8		 |$LN3@AtlComModu@3|
; Line 160
  000d8	e2860010	 add         r0, r6, #0x10
  000dc	eb000000	 bl          LeaveCriticalSection
; Line 161
  000e0	e5953010	 ldr         r3, [r5, #0x10]
  000e4	e3530000	 cmp         r3, #0
  000e8	0a000006	 beq         |$LN2@AtlComModu@3|
  000ec		 |$LN56@AtlComModu@3|
; Line 162
  000ec	e5950010	 ldr         r0, [r5, #0x10]
  000f0	e1a02008	 mov         r2, r8
  000f4	e1a0100a	 mov         r1, r10
  000f8	e5903000	 ldr         r3, [r0]
  000fc	e1a0e00f	 mov         lr, pc
  00100	e593f000	 ldr         pc, [r3]
  00104	e1a04000	 mov         r4, r0
  00108		 |$LN2@AtlComModu@3|
; Line 168
  00108	e5983000	 ldr         r3, [r8]
  0010c	e3530000	 cmp         r3, #0
  00110	1a000002	 bne         |$LN1@AtlComModu@3|
  00114	e3540000	 cmp         r4, #0
  00118	1a000000	 bne         |$LN1@AtlComModu@3|
  0011c		 |$LN58@AtlComModu@3|
; Line 169
  0011c	e59f4004	 ldr         r4, [pc, #4]	; -2147221231 (0x80040111)
  00120		 |$LN1@AtlComModu@3|
; Line 171
  00120	e1a00004	 mov         r0, r4
  00124	e8bd87f0	 ldmia       sp!, {r4 - r10, pc}
  00128		 |$LN63@AtlComModu@3|
  00128		 |$LN64@AtlComModu@3|
  00128	80040111	 DCD         0x80040111
  0012c		 |$LN65@AtlComModu@3|
  0012c	00000000	 DCD         |_GUID_00000000_0000_0000_c000_000000000046|
  00130		 |$LN66@AtlComModu@3|
  00130	80070057	 DCD         0x80070057
  00134		 |$M67282|

			 ENDP  ; |?AtlComModuleGetClassObject@ATL@@YAJPAU_ATL_COM_MODULE70@1@ABU_GUID@@1PAPAX@Z|, ATL::AtlComModuleGetClassObject

	EXPORT	|?Add@?$CSimpleMap@PA_WPA_WVCExpansionVectorEqualHelper@ATL@@@ATL@@QAAHABQA_W0@Z| ; ATL::CSimpleMap<wchar_t *,wchar_t *,ATL::CExpansionVectorEqualHelper>::Add
	IMPORT	|realloc|
; File c:\program files (x86)\microsoft visual studio 9.0\vc\ce\atlmfc\include\atlsimpcoll.h

  00000			 AREA	 |.pdata|, PDATA
|$T67346| DCD	|$LN22@Add|
	DCD	0x40002401
; Function compile flags: /Ogspy

  00000			 AREA	 |.text|, CODE, ARM

  00000		 |?Add@?$CSimpleMap@PA_WPA_WVCExpansionVectorEqualHelper@ATL@@@ATL@@QAAHABQA_W0@Z| PROC ; ATL::CSimpleMap<wchar_t *,wchar_t *,ATL::CExpansionVectorEqualHelper>::Add
; Line 312
  00000		 |$LN22@Add|
  00000	e92d4070	 stmdb       sp!, {r4 - r6, lr}
  00004		 |$M67343|
  00004	e1a05002	 mov         r5, r2
  00008	e1a06001	 mov         r6, r1
  0000c	e1a04000	 mov         r4, r0
; Line 314
  00010	e5943008	 ldr         r3, [r4, #8]
  00014	e5940000	 ldr         r0, [r4]
  00018	e2833001	 add         r3, r3, #1
  0001c	e1a01103	 mov         r1, r3, lsl #2
  00020	eb000000	 bl          realloc
  00024	e1b02000	 movs        r2, r0
; Line 315
  00028	1a000001	 bne         |$LN2@Add|
  0002c		 |$LN19@Add|
; Line 316
  0002c	e3a00000	 mov         r0, #0
; Line 326
  00030	e8bd8070	 ldmia       sp!, {r4 - r6, pc}
  00034		 |$LN2@Add|
; Line 319
  00034	e5943008	 ldr         r3, [r4, #8]
  00038	e5940004	 ldr         r0, [r4, #4]
  0003c	e5842000	 str         r2, [r4]
  00040	e2833001	 add         r3, r3, #1
  00044	e1a01103	 mov         r1, r3, lsl #2
  00048	eb000000	 bl          realloc
  0004c	e3500000	 cmp         r0, #0
; Line 321
  00050	0afffff5	 beq         |$LN19@Add|
; Line 323
  00054	e5942008	 ldr         r2, [r4, #8]
  00058	e5943000	 ldr         r3, [r4]
  0005c	e5840004	 str         r0, [r4, #4]
; Line 325
  00060	e3a00001	 mov         r0, #1
  00064	e0931102	 adds        r1, r3, r2, lsl #2
  00068	15963000	 ldrne       r3, [r6]
  0006c	15813000	 strne       r3, [r1]
  00070	e5943004	 ldr         r3, [r4, #4]
  00074	e0932102	 adds        r2, r3, r2, lsl #2
  00078	15953000	 ldrne       r3, [r5]
  0007c	15823000	 strne       r3, [r2]
  00080	e5943008	 ldr         r3, [r4, #8]
  00084	e2833001	 add         r3, r3, #1
  00088	e5843008	 str         r3, [r4, #8]
; Line 326
  0008c	e8bd8070	 ldmia       sp!, {r4 - r6, pc}
  00090		 |$M67344|

			 ENDP  ; |?Add@?$CSimpleMap@PA_WPA_WVCExpansionVectorEqualHelper@ATL@@@ATL@@QAAHABQA_W0@Z|, ATL::CSimpleMap<wchar_t *,wchar_t *,ATL::CExpansionVectorEqualHelper>::Add

	EXPORT	|?Allocate@?$CTempBuffer@_W$0EAA@VCCRTAllocator@ATL@@@ATL@@QAAPA_WI@Z| ; ATL::CTempBuffer<wchar_t,1024,ATL::CCRTAllocator>::Allocate
; File c:\program files (x86)\microsoft visual studio 9.0\vc\ce\atlmfc\include\atlalloc.h

  00000			 AREA	 |.pdata|, PDATA
|$T67389| DCD	|$LN20@Allocate@2|
	DCD	0x40001701
; Function compile flags: /Ogspy

  00000			 AREA	 |.text|, CODE, ARM

  00000		 |?Allocate@?$CTempBuffer@_W$0EAA@VCCRTAllocator@ATL@@@ATL@@QAAPA_WI@Z| PROC ; ATL::CTempBuffer<wchar_t,1024,ATL::CCRTAllocator>::Allocate
; Line 484
  00000		 |$LN20@Allocate@2|
  00000	e92d4010	 stmdb       sp!, {r4, lr}
  00004		 |$M67386|
  00004	e1a04000	 mov         r4, r0
; Line 485
  00008	e3a03002	 mov         r3, #2
  0000c	e0832391	 umull       r2, r3, r1, r3
  00010	e3530000	 cmp         r3, #0
  00014	8a00000d	 bhi         |$LN14@Allocate@2|
  00018	3a000001	 bcc         |$LN15@Allocate@2|
  0001c	e3720001	 cmn         r2, #1
  00020	8a00000a	 bhi         |$LN14@Allocate@2|
  00024		 |$LN15@Allocate@2|
  00024	e3520b01	 cmp         r2, #1, 22		; 1024 (0x400)
  00028	9a000004	 bls         |$LN11@Allocate@2|
  0002c	e1a01002	 mov         r1, r2
  00030	e1a00004	 mov         r0, r4
  00034	eb000000	 bl          |?AllocateHeap@?$CTempBuffer@_W$0EAA@VCCRTAllocator@ATL@@@ATL@@AAAXI@Z|
  00038	e5940000	 ldr         r0, [r4]
; Line 486
  0003c	e8bd8010	 ldmia       sp!, {r4, pc}
; Line 485
  00040		 |$LN11@Allocate@2|
  00040	e2843004	 add         r3, r4, #4
  00044	e5843000	 str         r3, [r4]
  00048	e1a00003	 mov         r0, r3
; Line 486
  0004c	e8bd8010	 ldmia       sp!, {r4, pc}
  00050		 |$LN14@Allocate@2|
; Line 485
  00050	e59f0000	 ldr         r0, [pc]		; -2147024809 (0x80070057)
  00054	eb000000	 bl          |?AtlThrowImpl@ATL@@YAXJ@Z|
  00058		 |$LN22@Allocate@2|
  00058		 |$LN23@Allocate@2|
  00058	80070057	 DCD         0x80070057
  0005c		 |$LN21@Allocate@2|
  0005c		 |$LN17@Allocate@2|
  0005c		 |$M67387|

			 ENDP  ; |?Allocate@?$CTempBuffer@_W$0EAA@VCCRTAllocator@ATL@@@ATL@@QAAPA_WI@Z|, ATL::CTempBuffer<wchar_t,1024,ATL::CCRTAllocator>::Allocate

	EXPORT	|?Allocate@?$CTempBuffer@_W$0BAA@VCCRTAllocator@ATL@@@ATL@@QAAPA_WI@Z| ; ATL::CTempBuffer<wchar_t,256,ATL::CCRTAllocator>::Allocate

  00000			 AREA	 |.pdata|, PDATA
|$T67435| DCD	|$LN20@Allocate@3|
	DCD	0x40001701
; Function compile flags: /Ogspy

  00000			 AREA	 |.text|, CODE, ARM

  00000		 |?Allocate@?$CTempBuffer@_W$0BAA@VCCRTAllocator@ATL@@@ATL@@QAAPA_WI@Z| PROC ; ATL::CTempBuffer<wchar_t,256,ATL::CCRTAllocator>::Allocate
; Line 484
  00000		 |$LN20@Allocate@3|
  00000	e92d4010	 stmdb       sp!, {r4, lr}
  00004		 |$M67432|
  00004	e1a04000	 mov         r4, r0
; Line 485
  00008	e3a03002	 mov         r3, #2
  0000c	e0832391	 umull       r2, r3, r1, r3
  00010	e3530000	 cmp         r3, #0
  00014	8a00000d	 bhi         |$LN14@Allocate@3|
  00018	3a000001	 bcc         |$LN15@Allocate@3|
  0001c	e3720001	 cmn         r2, #1
  00020	8a00000a	 bhi         |$LN14@Allocate@3|
  00024		 |$LN15@Allocate@3|
