; Listing generated by Microsoft (R) Optimizing Compiler Version 15.00.20720 

	TTL	c:\Users\Steven\Desktop\CSharp - DllImport\CSharp - DllImport\VS2008\DllImportMango\MangoClass.cpp
	CODE32

  00000			 AREA	 |.drectve|, DRECTVE
	DCB	"/nodefaultlib:libc.lib "
	DCB	"/nodefaultlib:libcd.lib "
	DCB	"/nodefaultlib:libc.lib "
	DCB	"/nodefaultlib:libcd.lib "
	DCB	"/nodefaultlib:oldnames.lib "
	DCB	"-defaultlib:uuid.lib "
	DCB	"-defaultlib:uuid.lib "
	DCB	"-defaultlib:atls.lib "
	DCB	"/merge:ATL=.rdata "
	DCB	"-defaultlib:coredll.lib "
	DCB	"-defaultlib:ole32.lib "
	DCB	"-defaultlib:oleaut32.lib "
	DCB	"-defaultlib:uuid.lib "
	DCB	"-defaultlib:uuid.lib "
	DCB	"-defaultlib:uuid.lib "
	DCB	"-defaultlib:urlmon.lib "
	DCB	"-defaultlib:aygshell.lib "
	DCB	"/include:__pobjMap_CMangoClass "
	DCB	"-defaultlib:libcpmt.lib "
	DCB	"-defaultlib:sms.lib "
	DCB	"-defaultlib:ceshell.lib "
	DCB	"-defaultlib:aygshell.lib "
	DCB	"-defaultlib:phone.lib "
	DCB	"-defaultlib:Toolhelp.lib "
	DCB	"-defaultlib:LIBCMT "
	DCB	"-defaultlib:OLDNAMES "

	EXPORT	|??_C@_1BA@JIHHIEDE@?$AAT?$AAy?$AAp?$AAe?$AAL?$AAi?$AAb?$AA?$AA@| [ DATA ] ; `string'
	EXPORT	|??_C@_1BC@EAHCMADO@?$AAS?$AAo?$AAf?$AAt?$AAw?$AAa?$AAr?$AAe?$AA?$AA@| [ DATA ] ; `string'
	EXPORT	|??_C@_1O@GBFINDKL@?$AAS?$AAY?$AAS?$AAT?$AAE?$AAM?$AA?$AA@| [ DATA ] ; `string'
	EXPORT	|??_C@_1BC@IBECJAAI@?$AAS?$AAE?$AAC?$AAU?$AAR?$AAI?$AAT?$AAY?$AA?$AA@| [ DATA ] ; `string'
	EXPORT	|??_C@_17OMAOINJK@?$AAS?$AAA?$AAM?$AA?$AA@| [ DATA ] ; `string'
	EXPORT	|??_C@_19HLLLM@?$AAM?$AAi?$AAm?$AAe?$AA?$AA@| [ DATA ] ; `string'
	EXPORT	|??_C@_1BC@MAICEHGI@?$AAH?$AAa?$AAr?$AAd?$AAw?$AAa?$AAr?$AAe?$AA?$AA@| [ DATA ] ; `string'
	EXPORT	|??_C@_1BE@EKPAFMCP@?$AAI?$AAn?$AAt?$AAe?$AAr?$AAf?$AAa?$AAc?$AAe?$AA?$AA@| [ DATA ] ; `string'
	EXPORT	|??_C@_1BC@NKMMNMGL@?$AAF?$AAi?$AAl?$AAe?$AAT?$AAy?$AAp?$AAe?$AA?$AA@| [ DATA ] ; `string'
	EXPORT	|??_C@_1CK@OEKPKBNA@?$AAC?$AAo?$AAm?$AAp?$AAo?$AAn?$AAe?$AAn?$AAt?$AA?5?$AAC?$AAa?$AAt?$AAe?$AAg?$AAo?$AAr?$AAi?$AAe?$AAs?$AA?$AA@| [ DATA ] ; `string'
	EXPORT	|??_C@_1M@KANJNLFF@?$AAC?$AAL?$AAS?$AAI?$AAD?$AA?$AA@| [ DATA ] ; `string'
	EXPORT	|??_C@_1M@EJNEECMJ@?$AAA?$AAp?$AAp?$AAI?$AAD?$AA?$AA@| [ DATA ] ; `string'
	EXPORT	|??_C@_1O@JDLOHAN@?$AAD?$AAe?$AAl?$AAe?$AAt?$AAe?$AA?$AA@| [ DATA ] ; `string'
	EXPORT	|??_C@_1BC@GCKHIPE@?$AAN?$AAo?$AAR?$AAe?$AAm?$AAo?$AAv?$AAe?$AA?$AA@| [ DATA ] ; `string'
	EXPORT	|??_C@_1BI@JFAIJMHL@?$AAF?$AAo?$AAr?$AAc?$AAe?$AAR?$AAe?$AAm?$AAo?$AAv?$AAe?$AA?$AA@| [ DATA ] ; `string'
	EXPORT	|??_C@_17LLMMEOJD@?$AAV?$AAa?$AAl?$AA?$AA@| [ DATA ] ; `string'
	EXPORT	|??_C@_13OPKGLAFF@?$AAB?$AA?$AA@| [ DATA ] ; `string'
	EXPORT	|??_C@_13MKMNOPIJ@?$AAD?$AA?$AA@| [ DATA ] ; `string'
	EXPORT	|??_C@_13LHMFKAAD@?$AAM?$AA?$AA@| [ DATA ] ; `string'
	EXPORT	|??_C@_13HADIAKP@?$AAS?$AA?$AA@| [ DATA ] ; `string'
	EXPORT	|??_C@_1BI@OOKGCPFA@?$AAT?$AAh?$AAe?$AA?5?$AAC?$AAa?$AAp?$AAt?$AAi?$AAo?$AAn?$AA?$AA@| [ DATA ] ; `string'
	EXPORT	|??_C@_1BC@HGKHNDDC@?$AAT?$AAh?$AAe?$AA?5?$AAT?$AAe?$AAx?$AAt?$AA?$AA@| [ DATA ] ; `string'
	EXPORT	|??_C@_1BAK@CEDAMLPG@?$AAh?$AAt?$AAt?$AAp?$AA?3?$AA?1?$AA?1?$AAi?$AAl?$AAs?$AAk?$AAe?$AAn?$AA?4?$AAn?$AAe?$AAt?$AA?1?$AA?5?$AAh?$AAt?$AAt?$AAp?$AA?3?$AA?1?$AA?1?$AAi?$AAl?$AAs?$AAk?$AAe?$AAn@| [ DATA ] ; `string'
	EXPORT	|??_C@_0P@GHFPNOJB@bad?5allocation?$AA@| [ DATA ] ; `string'
	EXPORT	|?ObjectMain@CComObjectRootBase@ATL@@SAX_N@Z| ; ATL::CComObjectRootBase::ObjectMain
	EXPORT	|?GetObjectDescription@?$CComCoClass@VCMangoClass@@$1?CLSID_MangoClass@@3U_GUID@@B@ATL@@SAPB_WXZ| ; ATL::CComCoClass<CMangoClass,&CLSID_MangoClass>::GetObjectDescription
	EXPORT	|?CreateInstance@?$CComCreator2@V?$CComCreator@V?$CComObject@VCMangoClass@@@ATL@@@ATL@@V?$CComCreator@V?$CComAggObject@VCMangoClass@@@ATL@@@2@@ATL@@SAJPAXABU_GUID@@PAPAX@Z| ; ATL::CComCreator2<ATL::CComCreator<ATL::CComObject<CMangoClass> >,ATL::CComCreator<ATL::CComAggObject<CMangoClass> > >::CreateInstance
	EXPORT	|?CreateInstance@?$CComCreator@V?$CComObjectCached@VCComClassFactory@ATL@@@ATL@@@ATL@@SAJPAXABU_GUID@@PAPAX@Z| ; ATL::CComCreator<ATL::CComObjectCached<ATL::CComClassFactory> >::CreateInstance
	EXPORT	|?UpdateRegistry@CMangoClass@@SAJH@Z|	; CMangoClass::UpdateRegistry
	EXPORT	|_GUID_434b816a_3ada_4386_8421_33b0e669f3f1| [ DATA ]
	EXPORT	|?__objMap_CMangoClass@@3U_ATL_OBJMAP_ENTRY30@ATL@@A| [ DATA ] ; __objMap_CMangoClass
	EXPORT	|__pobjMap_CMangoClass| [ DATA ]
	EXPORT	|?s_pLog@CFixedStringMgr@ATL@@2PAVIFixedStringLog@2@A| [ DATA ] ; ATL::CFixedStringMgr::s_pLog
	EXPORT	|?c_bIsMFCDLLTraits@?$_MFCDLLTraitsCheck@DV?$StrTraitATL@DV?$ChTraitsOS@D@ATL@@@ATL@@@_CSTRING_IMPL_@ATL@@2_NB| [ DATA ] ; ATL::_CSTRING_IMPL_::_MFCDLLTraitsCheck<char,ATL::StrTraitATL<char,ATL::ChTraitsOS<char> > >::c_bIsMFCDLLTraits
	EXPORT	|?c_bIsMFCDLLTraits@?$_MFCDLLTraitsCheck@_WV?$StrTraitATL@_WV?$ChTraitsOS@_W@ATL@@@ATL@@@_CSTRING_IMPL_@ATL@@2_NB| [ DATA ] ; ATL::_CSTRING_IMPL_::_MFCDLLTraitsCheck<wchar_t,ATL::StrTraitATL<wchar_t,ATL::ChTraitsOS<wchar_t> > >::c_bIsMFCDLLTraits
	EXPORT	|?sText@@3PB_WB| [ DATA ]		; sText
	EXPORT	|?CSharpBase_Text@@3PB_WB| [ DATA ]	; CSharpBase_Text
	EXPORT	|?CSharpBase_Capt@@3PB_WB| [ DATA ]	; CSharpBase_Capt
	EXPORT	|?_AtlRegisterPerUser@ATL@@3_NA| [ DATA ] ; ATL::_AtlRegisterPerUser
	EXPORT	|?_pAtlModule@ATL@@3PAVCAtlModule@1@A| [ DATA ] ; ATL::_pAtlModule
	EXPORT	|?rgszNeverDelete@CRegParser@ATL@@1QBQB_WB| [ DATA ] ; ATL::CRegParser::rgszNeverDelete

  00000			 AREA	 |.bss|, NOINIT
|?s_pLog@CFixedStringMgr@ATL@@2PAVIFixedStringLog@2@A| % 0x4 ; ATL::CFixedStringMgr::s_pLog

  00000			 AREA	 |.bss|, NOINIT
|?_AtlRegisterPerUser@ATL@@3_NA| % 0x1			; ATL::_AtlRegisterPerUser

  00000			 AREA	 |.bss|, NOINIT
|?_pAtlModule@ATL@@3PAVCAtlModule@1@A| % 0x4		; ATL::_pAtlModule

  00000			 AREA	 |.rdata|, DATA, READONLY
|?rgszNeverDelete@CRegParser@ATL@@1QBQB_WB| DCD |??_C@_1M@EJNEECMJ@?$AAA?$AAp?$AAp?$AAI?$AAD?$AA?$AA@| ; ATL::CRegParser::rgszNeverDelete
	DCD	|??_C@_1M@KANJNLFF@?$AAC?$AAL?$AAS?$AAI?$AAD?$AA?$AA@|
	DCD	|??_C@_1CK@OEKPKBNA@?$AAC?$AAo?$AAm?$AAp?$AAo?$AAn?$AAe?$AAn?$AAt?$AA?5?$AAC?$AAa?$AAt?$AAe?$AAg?$AAo?$AAr?$AAi?$AAe?$AAs?$AA?$AA@|
	DCD	|??_C@_1BC@NKMMNMGL@?$AAF?$AAi?$AAl?$AAe?$AAT?$AAy?$AAp?$AAe?$AA?$AA@|
	DCD	|??_C@_1BE@EKPAFMCP@?$AAI?$AAn?$AAt?$AAe?$AAr?$AAf?$AAa?$AAc?$AAe?$AA?$AA@|
	DCD	|??_C@_1BC@MAICEHGI@?$AAH?$AAa?$AAr?$AAd?$AAw?$AAa?$AAr?$AAe?$AA?$AA@|
	DCD	|??_C@_19HLLLM@?$AAM?$AAi?$AAm?$AAe?$AA?$AA@|
	DCD	|??_C@_17OMAOINJK@?$AAS?$AAA?$AAM?$AA?$AA@|
	DCD	|??_C@_1BC@IBECJAAI@?$AAS?$AAE?$AAC?$AAU?$AAR?$AAI?$AAT?$AAY?$AA?$AA@|
	DCD	|??_C@_1O@GBFINDKL@?$AAS?$AAY?$AAS?$AAT?$AAE?$AAM?$AA?$AA@|
	DCD	|??_C@_1BC@EAHCMADO@?$AAS?$AAo?$AAf?$AAt?$AAw?$AAa?$AAr?$AAe?$AA?$AA@|
	DCD	|??_C@_1BA@JIHHIEDE@?$AAT?$AAy?$AAp?$AAe?$AAL?$AAi?$AAb?$AA?$AA@|

  00000			 AREA	 |.rdata|, DATA, READONLY
|??_C@_1BA@JIHHIEDE@?$AAT?$AAy?$AAp?$AAe?$AAL?$AAi?$AAb?$AA?$AA@| DCB "T", 0x0
	DCB	"y", 0x0, "p", 0x0, "e", 0x0, "L", 0x0, "i", 0x0, "b", 0x0
	DCB	0x0, 0x0				; `string'

  00000			 AREA	 |.rdata|, DATA, READONLY
|??_C@_1BC@EAHCMADO@?$AAS?$AAo?$AAf?$AAt?$AAw?$AAa?$AAr?$AAe?$AA?$AA@| DCB "S"
	DCB	0x0, "o", 0x0, "f", 0x0, "t", 0x0, "w", 0x0, "a", 0x0, "r"
	DCB	0x0, "e", 0x0, 0x0, 0x0			; `string'

  00000			 AREA	 |.rdata|, DATA, READONLY
|??_C@_1O@GBFINDKL@?$AAS?$AAY?$AAS?$AAT?$AAE?$AAM?$AA?$AA@| DCB "S", 0x0, "Y"
	DCB	0x0, "S", 0x0, "T", 0x0, "E", 0x0, "M", 0x0, 0x0, 0x0 ; `string'

  00000			 AREA	 |.rdata|, DATA, READONLY
|??_C@_1BC@IBECJAAI@?$AAS?$AAE?$AAC?$AAU?$AAR?$AAI?$AAT?$AAY?$AA?$AA@| DCB "S"
	DCB	0x0, "E", 0x0, "C", 0x0, "U", 0x0, "R", 0x0, "I", 0x0, "T"
	DCB	0x0, "Y", 0x0, 0x0, 0x0			; `string'

  00000			 AREA	 |.rdata|, DATA, READONLY
|??_C@_17OMAOINJK@?$AAS?$AAA?$AAM?$AA?$AA@| DCB "S", 0x0, "A", 0x0, "M", 0x0
	DCB	0x0, 0x0				; `string'

  00000			 AREA	 |.rdata|, DATA, READONLY
|??_C@_19HLLLM@?$AAM?$AAi?$AAm?$AAe?$AA?$AA@| DCB "M", 0x0, "i", 0x0, "m", 0x0
	DCB	"e", 0x0, 0x0, 0x0			; `string'

  00000			 AREA	 |.rdata|, DATA, READONLY
|??_C@_1BC@MAICEHGI@?$AAH?$AAa?$AAr?$AAd?$AAw?$AAa?$AAr?$AAe?$AA?$AA@| DCB "H"
	DCB	0x0, "a", 0x0, "r", 0x0, "d", 0x0, "w", 0x0, "a", 0x0, "r"
	DCB	0x0, "e", 0x0, 0x0, 0x0			; `string'

  00000			 AREA	 |.rdata|, DATA, READONLY
|??_C@_1BE@EKPAFMCP@?$AAI?$AAn?$AAt?$AAe?$AAr?$AAf?$AAa?$AAc?$AAe?$AA?$AA@| DCB "I"
	DCB	0x0, "n", 0x0, "t", 0x0, "e", 0x0, "r", 0x0, "f", 0x0, "a"
	DCB	0x0, "c", 0x0, "e", 0x0, 0x0, 0x0	; `string'

  00000			 AREA	 |.rdata|, DATA, READONLY
|??_C@_1BC@NKMMNMGL@?$AAF?$AAi?$AAl?$AAe?$AAT?$AAy?$AAp?$AAe?$AA?$AA@| DCB "F"
	DCB	0x0, "i", 0x0, "l", 0x0, "e", 0x0, "T", 0x0, "y", 0x0, "p"
	DCB	0x0, "e", 0x0, 0x0, 0x0			; `string'

  00000			 AREA	 |.rdata|, DATA, READONLY
|??_C@_1CK@OEKPKBNA@?$AAC?$AAo?$AAm?$AAp?$AAo?$AAn?$AAe?$AAn?$AAt?$AA?5?$AAC?$AAa?$AAt?$AAe?$AAg?$AAo?$AAr?$AAi?$AAe?$AAs?$AA?$AA@| DCB "C"
	DCB	0x0, "o", 0x0, "m", 0x0, "p", 0x0, "o", 0x0, "n", 0x0, "e"
	DCB	0x0, "n", 0x0, "t", 0x0, " ", 0x0, "C", 0x0, "a", 0x0, "t"
	DCB	0x0, "e", 0x0, "g", 0x0, "o", 0x0, "r", 0x0, "i", 0x0, "e"
	DCB	0x0, "s", 0x0, 0x0, 0x0			; `string'

  00000			 AREA	 |.rdata|, DATA, READONLY
|??_C@_1M@KANJNLFF@?$AAC?$AAL?$AAS?$AAI?$AAD?$AA?$AA@| DCB "C", 0x0, "L", 0x0
	DCB	"S", 0x0, "I", 0x0, "D", 0x0, 0x0, 0x0	; `string'

  00000			 AREA	 |.rdata|, DATA, READONLY
|??_C@_1M@EJNEECMJ@?$AAA?$AAp?$AAp?$AAI?$AAD?$AA?$AA@| DCB "A", 0x0, "p", 0x0
	DCB	"p", 0x0, "I", 0x0, "D", 0x0, 0x0, 0x0	; `string'

  00000			 AREA	 |.rdata|, DATA, READONLY
|??_C@_1O@JDLOHAN@?$AAD?$AAe?$AAl?$AAe?$AAt?$AAe?$AA?$AA@| DCB "D", 0x0, "e"
	DCB	0x0, "l", 0x0, "e", 0x0, "t", 0x0, "e", 0x0, 0x0, 0x0 ; `string'

  00000			 AREA	 |.rdata|, DATA, READONLY
|??_C@_1BC@GCKHIPE@?$AAN?$AAo?$AAR?$AAe?$AAm?$AAo?$AAv?$AAe?$AA?$AA@| DCB "N"
	DCB	0x0, "o", 0x0, "R", 0x0, "e", 0x0, "m", 0x0, "o", 0x0, "v"
	DCB	0x0, "e", 0x0, 0x0, 0x0			; `string'

  00000			 AREA	 |.rdata|, DATA, READONLY
|??_C@_1BI@JFAIJMHL@?$AAF?$AAo?$AAr?$AAc?$AAe?$AAR?$AAe?$AAm?$AAo?$AAv?$AAe?$AA?$AA@| DCB "F"
	DCB	0x0, "o", 0x0, "r", 0x0, "c", 0x0, "e", 0x0, "R", 0x0, "e"
	DCB	0x0, "m", 0x0, "o", 0x0, "v", 0x0, "e", 0x0, 0x0, 0x0 ; `string'

  00000			 AREA	 |.rdata|, DATA, READONLY
|??_C@_17LLMMEOJD@?$AAV?$AAa?$AAl?$AA?$AA@| DCB "V", 0x0, "a", 0x0, "l", 0x0
	DCB	0x0, 0x0				; `string'

  00000			 AREA	 |.rdata|, DATA, READONLY
|??_C@_13OPKGLAFF@?$AAB?$AA?$AA@| DCB "B", 0x0, 0x0, 0x0 ; `string'

  00000			 AREA	 |.rdata|, DATA, READONLY
|??_C@_13MKMNOPIJ@?$AAD?$AA?$AA@| DCB "D", 0x0, 0x0, 0x0 ; `string'

  00000			 AREA	 |.rdata|, DATA, READONLY
|??_C@_13LHMFKAAD@?$AAM?$AA?$AA@| DCB "M", 0x0, 0x0, 0x0 ; `string'

  00000			 AREA	 |.rdata|, DATA, READONLY
|szStringVal| DCD |??_C@_13HADIAKP@?$AAS?$AA?$AA@|
|multiszStringVal| DCD |??_C@_13LHMFKAAD@?$AAM?$AA?$AA@|
|szDwordVal| DCD |??_C@_13MKMNOPIJ@?$AAD?$AA?$AA@|
|szBinaryVal| DCD |??_C@_13OPKGLAFF@?$AAB?$AA?$AA@|
|szValToken| DCD |??_C@_17LLMMEOJD@?$AAV?$AAa?$AAl?$AA?$AA@|
|szForceRemove| DCD |??_C@_1BI@JFAIJMHL@?$AAF?$AAo?$AAr?$AAc?$AAe?$AAR?$AAe?$AAm?$AAo?$AAv?$AAe?$AA?$AA@|
|szNoRemove| DCD |??_C@_1BC@GCKHIPE@?$AAN?$AAo?$AAR?$AAe?$AAm?$AAo?$AAv?$AAe?$AA?$AA@|
|szDelete| DCD	|??_C@_1O@JDLOHAN@?$AAD?$AAe?$AAl?$AAe?$AAt?$AAe?$AA?$AA@|

  00000			 AREA	 |.rdata|, DATA, READONLY
|??_C@_13HADIAKP@?$AAS?$AA?$AA@| DCB "S", 0x0, 0x0, 0x0	; `string'

  00000			 AREA	 |.rdata|, DATA, READONLY
|??_C@_1BI@OOKGCPFA@?$AAT?$AAh?$AAe?$AA?5?$AAC?$AAa?$AAp?$AAt?$AAi?$AAo?$AAn?$AA?$AA@| DCB "T"
	DCB	0x0, "h", 0x0, "e", 0x0, " ", 0x0, "C", 0x0, "a", 0x0, "p"
	DCB	0x0, "t", 0x0, "i", 0x0, "o", 0x0, "n", 0x0, 0x0, 0x0 ; `string'

  00000			 AREA	 |.rdata|, DATA, READONLY
|??_C@_1BC@HGKHNDDC@?$AAT?$AAh?$AAe?$AA?5?$AAT?$AAe?$AAx?$AAt?$AA?$AA@| DCB "T"
	DCB	0x0, "h", 0x0, "e", 0x0, " ", 0x0, "T", 0x0, "e", 0x0, "x"
	DCB	0x0, "t", 0x0, 0x0, 0x0			; `string'

  00000			 AREA	 |.rdata|, DATA, READONLY
|??_C@_1BAK@CEDAMLPG@?$AAh?$AAt?$AAt?$AAp?$AA?3?$AA?1?$AA?1?$AAi?$AAl?$AAs?$AAk?$AAe?$AAn?$AA?4?$AAn?$AAe?$AAt?$AA?1?$AA?5?$AAh?$AAt?$AAt?$AAp?$AA?3?$AA?1?$AA?1?$AAi?$AAl?$AAs?$AAk?$AAe?$AAn@| DCB "h"
	DCB	0x0, "t", 0x0, "t", 0x0, "p", 0x0, ":", 0x0, "/", 0x0, "/"
	DCB	0x0, "i", 0x0, "l", 0x0, "s", 0x0, "k", 0x0, "e", 0x0, "n"
	DCB	0x0, ".", 0x0, "n", 0x0, "e", 0x0, "t", 0x0, "/", 0x0, " "
	DCB	0x0, "h", 0x0, "t", 0x0, "t", 0x0, "p", 0x0, ":", 0x0, "/"
	DCB	0x0, "/", 0x0, "i", 0x0, "l", 0x0, "s", 0x0, "k", 0x0, "e"
	DCB	0x0, "n", 0x0, ".", 0x0, "n", 0x0, "e", 0x0, "t", 0x0, "/"
	DCB	0x0, " ", 0x0, "h", 0x0, "t", 0x0, "t", 0x0, "p", 0x0, ":"
	DCB	0x0, "/", 0x0, "/", 0x0, "i", 0x0, "l", 0x0, "s", 0x0, "k"
	DCB	0x0, "e", 0x0, "n", 0x0, ".", 0x0, "n", 0x0, "e", 0x0, "t"
	DCB	0x0, "/", 0x0, " ", 0x0, "h", 0x0, "t", 0x0, "t", 0x0, "p"
	DCB	0x0, ":", 0x0, "/", 0x0, "/", 0x0, "i", 0x0, "l", 0x0, "s"
	DCB	0x0, "k", 0x0, "e", 0x0, "n", 0x0, ".", 0x0, "n", 0x0, "e"
	DCB	0x0, "t", 0x0, "/", 0x0, 0xa, 0x0, "h", 0x0, "t", 0x0, "t"
	DCB	0x0, "p", 0x0, ":", 0x0, "/", 0x0, "/", 0x0, "i", 0x0, "l"
	DCB	0x0, "s", 0x0, "k", 0x0, "e", 0x0, "n", 0x0, ".", 0x0, "n"
	DCB	0x0, "e", 0x0, "t", 0x0, "/", 0x0, " ", 0x0, "h", 0x0, "t"
	DCB	0x0, "t", 0x0, "p", 0x0, ":", 0x0, "/", 0x0, "/", 0x0, "i"
	DCB	0x0, "l", 0x0, "s", 0x0, "k", 0x0, "e", 0x0, "n", 0x0, "."
	DCB	0x0, "n", 0x0, "e", 0x0, "t", 0x0, "/", 0x0, 0xa, 0x0, "h"
	DCB	0x0, "t", 0x0, "t", 0x0, "p", 0x0, ":", 0x0, "/", 0x0, "/"
	DCB	0x0, "i", 0x0, "l", 0x0, "s", 0x0, "k", 0x0, "e", 0x0, "n"
	DCB	0x0, ".", 0x0, "n", 0x0, "e", 0x0, "t", 0x0, "/", 0x0, 0x0
	DCB	0x0					; `string'

  00000			 AREA	 |.rdata|, DATA, READONLY
|?c_bIsMFCDLLTraits@?$_MFCDLLTraitsCheck@_WV?$StrTraitATL@_WV?$ChTraitsOS@_W@ATL@@@ATL@@@_CSTRING_IMPL_@ATL@@2_NB| DCB 0x0 ; ATL::_CSTRING_IMPL_::_MFCDLLTraitsCheck<wchar_t,ATL::StrTraitATL<wchar_t,ATL::ChTraitsOS<wchar_t> > >::c_bIsMFCDLLTraits

  00000			 AREA	 |.rdata|, DATA, READONLY
|?c_bIsMFCDLLTraits@?$_MFCDLLTraitsCheck@DV?$StrTraitATL@DV?$ChTraitsOS@D@ATL@@@ATL@@@_CSTRING_IMPL_@ATL@@2_NB| DCB 0x0 ; ATL::_CSTRING_IMPL_::_MFCDLLTraitsCheck<char,ATL::StrTraitATL<char,ATL::ChTraitsOS<char> > >::c_bIsMFCDLLTraits

  00000			 AREA	 |.data|, DATA
|_bad_alloc_Message| DCD |??_C@_0P@GHFPNOJB@bad?5allocation?$AA@|
|?sText@@3PB_WB| DCD |??_C@_1BAK@CEDAMLPG@?$AAh?$AAt?$AAt?$AAp?$AA?3?$AA?1?$AA?1?$AAi?$AAl?$AAs?$AAk?$AAe?$AAn?$AA?4?$AAn?$AAe?$AAt?$AA?1?$AA?5?$AAh?$AAt?$AAt?$AAp?$AA?3?$AA?1?$AA?1?$AAi?$AAl?$AAs?$AAk?$AAe?$AAn@| ; sText
|?CSharpBase_Text@@3PB_WB| DCD |??_C@_1BC@HGKHNDDC@?$AAT?$AAh?$AAe?$AA?5?$AAT?$AAe?$AAx?$AAt?$AA?$AA@| ; CSharpBase_Text
|?CSharpBase_Capt@@3PB_WB| DCD |??_C@_1BI@OOKGCPFA@?$AAT?$AAh?$AAe?$AA?5?$AAC?$AAa?$AAp?$AAt?$AAi?$AAo?$AAn?$AA?$AA@| ; CSharpBase_Capt

  00000			 AREA	 |.rdata|, DATA, READONLY
|??_C@_0P@GHFPNOJB@bad?5allocation?$AA@| DCB "bad allocation", 0x0 ; `string'

  00000			 AREA	 |ATL$__m|, DATA, READONLY
|__pobjMap_CMangoClass| DCD |?__objMap_CMangoClass@@3U_ATL_OBJMAP_ENTRY30@ATL@@A|

  00000			 AREA	 |.data|, DATA
|?__objMap_CMangoClass@@3U_ATL_OBJMAP_ENTRY30@ATL@@A| DCD |_GUID_434b816a_3ada_4386_8421_33b0e669f3f1| ; __objMap_CMangoClass
	DCD	|?UpdateRegistry@CMangoClass@@SAJH@Z|
	DCD	|?CreateInstance@?$CComCreator@V?$CComObjectCached@VCComClassFactory@ATL@@@ATL@@@ATL@@SAJPAXABU_GUID@@PAPAX@Z|
	DCD	|?CreateInstance@?$CComCreator2@V?$CComCreator@V?$CComObject@VCMangoClass@@@ATL@@@ATL@@V?$CComCreator@V?$CComAggObject@VCMangoClass@@@ATL@@@2@@ATL@@SAJPAXABU_GUID@@PAPAX@Z|
	DCD	0x0
	DCD	0x0
	DCD	|?GetObjectDescription@?$CComCoClass@VCMangoClass@@$1?CLSID_MangoClass@@3U_GUID@@B@ATL@@SAPB_WXZ|
	DCD	|?ObjectMain@CComObjectRootBase@ATL@@SAX_N@Z|

  00000			 AREA	 |.rdata|, DATA, READONLY
|_GUID_434b816a_3ada_4386_8421_33b0e669f3f1| DCD 0x434b816a
	DCW	0x3ada
	DCW	0x4386
	DCB	0x84
	DCB	0x21
	DCB	0x33
	DCB	0xb0
	DCB	0xe6
	DCB	0x69
	DCB	0xf3
	DCB	0xf1
	EXPORT	|?FinalConstruct@CMangoClass@@QAAJXZ|	; CMangoClass::FinalConstruct
; File c:\users\steven\desktop\csharp - dllimport\csharp - dllimport\vs2008\dllimportmango\mangoclass.h

  00000			 AREA	 |.pdata|, PDATA
|$T77620| DCD	|$LN5@FinalConst|
	DCD	0x40000200
; Function compile flags: /Ogspy

  00000			 AREA	 |.text|, CODE, ARM

  00000		 |?FinalConstruct@CMangoClass@@QAAJXZ| PROC ; CMangoClass::FinalConstruct
; Line 232
  00000		 |$LN5@FinalConst|
  00000		 |$M77617|
; Line 233
  00000	e3a00000	 mov         r0, #0
; Line 234
  00004	e1a0f00e	 mov         pc, lr
  00008		 |$M77618|

			 ENDP  ; |?FinalConstruct@CMangoClass@@QAAJXZ|, CMangoClass::FinalConstruct

	EXPORT	|LockResource|
; File c:\program files (x86)\windows mobile 6 sdk\pocketpc\include\armv4i\kfuncs.h

  00000			 AREA	 |.pdata|, PDATA
|$T77630| DCD	|$LN5@LockResour|
	DCD	0x40000100
; Function compile flags: /Ogspy

  00000			 AREA	 |.text|, CODE, ARM

  00000		 |LockResource| PROC
; Line 487
  00000		 |$LN5@LockResour|
  00000		 |$M77627|
; Line 489
  00000	e1a0f00e	 mov         pc, lr
  00004		 |$M77628|

			 ENDP  ; |LockResource|

	EXPORT	|wmemcpy_s|
	IMPORT	|memcpy_s|
; File c:\program files (x86)\microsoft visual studio 9.0\vc\ce\include\altcecrt.h

  00000			 AREA	 |.pdata|, PDATA
|$T77643| DCD	|$LN5@wmemcpy_s|
	DCD	0x40000300
; Function compile flags: /Ogspy

  00000			 AREA	 |.text|, CODE, ARM

  00000		 |wmemcpy_s| PROC
; Line 390
  00000		 |$LN5@wmemcpy_s|
  00000		 |$M77640|
; Line 391
  00000	e1a03083	 mov         r3, r3, lsl #1
  00004	e1a01081	 mov         r1, r1, lsl #1
  00008	ea000000	 b           memcpy_s
  0000c		 |$M77641|

			 ENDP  ; |wmemcpy_s|

	EXPORT	|??$AtlMultiply@I@ATL@@YAJPAIII@Z|	; ATL::AtlMultiply<unsigned int>
; File c:\program files (x86)\microsoft visual studio 9.0\vc\ce\atlmfc\include\atlalloc.h

  00000			 AREA	 |.pdata|, PDATA
|$T77658| DCD	|$LN7@AtlMultipl|
	DCD	0x40000e01
; Function compile flags: /Ogspy

  00000			 AREA	 |.text|, CODE, ARM

  00000		 |??$AtlMultiply@I@ATL@@YAJPAIII@Z| PROC ; ATL::AtlMultiply<unsigned int>
; Line 137
  00000		 |$LN7@AtlMultipl|
  00000	e24dd008	 sub         sp, sp, #8
  00004		 |$M77655|
; Line 138
  00004	e0832291	 umull       r2, r3, r1, r2
; Line 139
  00008	e3530000	 cmp         r3, #0
  0000c	e58d3004	 str         r3, [sp, #4]
  00010	1a000004	 bne         |$LN4@AtlMultipl|
  00014	e3720001	 cmn         r2, #1
; Line 143
  00018	95802000	 strls       r2, [r0]
; Line 144
  0001c	93a00000	 movls       r0, #0
; Line 145
  00020	928dd008	 addls       sp, sp, #8
  00024	91a0f00e	 movls       pc, lr
  00028		 |$LN4@AtlMultipl|
; Line 141
  00028	e59f0004	 ldr         r0, [pc, #4]	; -2147024809 (0x80070057)
; Line 145
  0002c	e28dd008	 add         sp, sp, #8
  00030	e1a0f00e	 mov         pc, lr
  00034		 |$LN8@AtlMultipl|
  00034		 |$LN9@AtlMultipl|
  00034	80070057	 DCD         0x80070057
  00038		 |$M77656|

			 ENDP  ; |??$AtlMultiply@I@ATL@@YAJPAIII@Z|, ATL::AtlMultiply<unsigned int>

	EXPORT	|??$AtlMultiply@K@ATL@@YAJPAKKK@Z|	; ATL::AtlMultiply<unsigned long>

  00000			 AREA	 |.pdata|, PDATA
|$T77675| DCD	|$LN7@AtlMultipl@2|
	DCD	0x40000e01
; Function compile flags: /Ogspy

  00000			 AREA	 |.text|, CODE, ARM

  00000		 |??$AtlMultiply@K@ATL@@YAJPAKKK@Z| PROC ; ATL::AtlMultiply<unsigned long>
; Line 161
  00000		 |$LN7@AtlMultipl@2|
  00000	e24dd008	 sub         sp, sp, #8
  00004		 |$M77672|
; Line 162
  00004	e0832291	 umull       r2, r3, r1, r2
; Line 163
  00008	e3530000	 cmp         r3, #0
  0000c	e58d3004	 str         r3, [sp, #4]
  00010	1a000004	 bne         |$LN4@AtlMultipl@2|
  00014	e3720001	 cmn         r2, #1
; Line 167
  00018	95802000	 strls       r2, [r0]
; Line 168
  0001c	93a00000	 movls       r0, #0
; Line 169
  00020	928dd008	 addls       sp, sp, #8
  00024	91a0f00e	 movls       pc, lr
  00028		 |$LN4@AtlMultipl@2|
; Line 165
  00028	e59f0004	 ldr         r0, [pc, #4]	; -2147024809 (0x80070057)
; Line 169
  0002c	e28dd008	 add         sp, sp, #8
  00030	e1a0f00e	 mov         pc, lr
  00034		 |$LN8@AtlMultipl@2|
  00034		 |$LN9@AtlMultipl@2|
  00034	80070057	 DCD         0x80070057
  00038		 |$M77673|

			 ENDP  ; |??$AtlMultiply@K@ATL@@YAJPAKKK@Z|, ATL::AtlMultiply<unsigned long>

	EXPORT	|?AtlCoTaskMemCAlloc@ATL@@YAPAXKK@Z|	; ATL::AtlCoTaskMemCAlloc
	IMPORT	|CoTaskMemAlloc|

  00000			 AREA	 |.pdata|, PDATA
|$T77699| DCD	|$LN11@AtlCoTaskM|
	DCD	0x40000c01
; Function compile flags: /Ogspy

  00000			 AREA	 |.text|, CODE, ARM

  00000		 |?AtlCoTaskMemCAlloc@ATL@@YAPAXKK@Z| PROC ; ATL::AtlCoTaskMemCAlloc
; Line 196
  00000		 |$LN11@AtlCoTaskM|
  00000	e52de004	 str         lr, [sp, #-4]!
  00004		 |$M77696|
; Line 199
  00004	e0832190	 umull       r2, r3, r0, r1
  00008	e3530000	 cmp         r3, #0
  0000c	8a000005	 bhi         |$LN7@AtlCoTaskM|
  00010	3a000001	 bcc         |$LN8@AtlCoTaskM|
  00014	e3720001	 cmn         r2, #1
  00018	8a000002	 bhi         |$LN7@AtlCoTaskM|
  0001c		 |$LN8@AtlCoTaskM|
; Line 203
  0001c	e1a00002	 mov         r0, r2
  00020	e49de004	 ldr         lr, [sp], #4
  00024	ea000000	 b           CoTaskMemAlloc
  00028		 |$LN7@AtlCoTaskM|
; Line 201
  00028	e3a00000	 mov         r0, #0
; Line 204
  0002c	e49df004	 ldr         pc, [sp], #4
  00030		 |$M77697|

			 ENDP  ; |?AtlCoTaskMemCAlloc@ATL@@YAPAXKK@Z|, ATL::AtlCoTaskMemCAlloc

	EXPORT	|?AtlCoTaskMemRecalloc@ATL@@YAPAXPAXKK@Z| ; ATL::AtlCoTaskMemRecalloc
	IMPORT	|CoTaskMemRealloc|

  00000			 AREA	 |.pdata|, PDATA
|$T77722| DCD	|$LN11@AtlCoTaskM@2|
	DCD	0x40000c01
; Function compile flags: /Ogspy

  00000			 AREA	 |.text|, CODE, ARM

  00000		 |?AtlCoTaskMemRecalloc@ATL@@YAPAXPAXKK@Z| PROC ; ATL::AtlCoTaskMemRecalloc
; Line 207
  00000		 |$LN11@AtlCoTaskM@2|
  00000	e52de004	 str         lr, [sp, #-4]!
  00004		 |$M77719|
; Line 210
  00004	e0832291	 umull       r2, r3, r1, r2
  00008	e3530000	 cmp         r3, #0
  0000c	8a000005	 bhi         |$LN7@AtlCoTaskM@2|
  00010	3a000001	 bcc         |$LN8@AtlCoTaskM@2|
  00014	e3720001	 cmn         r2, #1
  00018	8a000002	 bhi         |$LN7@AtlCoTaskM@2|
  0001c		 |$LN8@AtlCoTaskM@2|
; Line 214
  0001c	e1a01002	 mov         r1, r2
  00020	e49de004	 ldr         lr, [sp], #4
  00024	ea000000	 b           CoTaskMemRealloc
  00028		 |$LN7@AtlCoTaskM@2|
; Line 212
  00028	e3a00000	 mov         r0, #0
; Line 215
  0002c	e49df004	 ldr         pc, [sp], #4
  00030		 |$M77720|

			 ENDP  ; |?AtlCoTaskMemRecalloc@ATL@@YAPAXPAXKK@Z|, ATL::AtlCoTaskMemRecalloc

	EXPORT	|?Allocate@CCRTAllocator@ATL@@SAPAXI@Z|	; ATL::CCRTAllocator::Allocate
	IMPORT	|malloc|

  00000			 AREA	 |.pdata|, PDATA
|$T77732| DCD	|$LN5@Allocate|
	DCD	0x40000100
; Function compile flags: /Ogspy

  00000			 AREA	 |.text|, CODE, ARM

  00000		 |?Allocate@CCRTAllocator@ATL@@SAPAXI@Z| PROC ; ATL::CCRTAllocator::Allocate
; Line 242
  00000		 |$LN5@Allocate|
  00000		 |$M77729|
; Line 243
  00000	ea000000	 b           malloc
  00004		 |$M77730|

			 ENDP  ; |?Allocate@CCRTAllocator@ATL@@SAPAXI@Z|, ATL::CCRTAllocator::Allocate

	EXPORT	|?Free@CCRTAllocator@ATL@@SAXPAX@Z|	; ATL::CCRTAllocator::Free
	IMPORT	|free|

  00000			 AREA	 |.pdata|, PDATA
|$T77740| DCD	|$LN5@Free|
	DCD	0x40000100
; Function compile flags: /Ogspy

  00000			 AREA	 |.text|, CODE, ARM

  00000		 |?Free@CCRTAllocator@ATL@@SAXPAX@Z| PROC ; ATL::CCRTAllocator::Free
; Line 247
  00000		 |$LN5@Free|
  00000		 |$M77737|
; Line 248
  00000	ea000000	 b           free
  00004		 |$M77738|

			 ENDP  ; |?Free@CCRTAllocator@ATL@@SAXPAX@Z|, ATL::CCRTAllocator::Free

	EXPORT	|?lstrlenW@ATL@@YAIPB_W@Z|		; ATL::lstrlenW
	IMPORT	|wcslen|
; File c:\program files (x86)\microsoft visual studio 9.0\vc\ce\atlmfc\include\atlosapice.h

  00000			 AREA	 |.pdata|, PDATA
|$T77753| DCD	|$LN7@lstrlenW|
	DCD	0x40000601
; Function compile flags: /Ogspy

  00000			 AREA	 |.text|, CODE, ARM

  00000		 |?lstrlenW@ATL@@YAIPB_W@Z| PROC	; ATL::lstrlenW
; Line 867
  00000		 |$LN7@lstrlenW|
  00000	e52de004	 str         lr, [sp, #-4]!
  00004		 |$M77750|
  00004	e3500000	 cmp         r0, #0
; Line 868
  00008	149de004	 ldrne       lr, [sp], #4
  0000c	1a000000	 bne         wcslen
  00010	e3a00000	 mov         r0, #0
; Line 869
  00014	e49df004	 ldr         pc, [sp], #4
  00018		 |$M77751|

			 ENDP  ; |?lstrlenW@ATL@@YAIPB_W@Z|, ATL::lstrlenW

	EXPORT	|?wvsprintfW@ATL@@YAHPA_WPB_WPAD@Z|	; ATL::wvsprintfW
	IMPORT	|_vsnwprintf|

  00000			 AREA	 |.pdata|, PDATA
|$T77766| DCD	|$LN6@wvsprintfW|
	DCD	0x40000c01
; Function compile flags: /Ogspy

  00000			 AREA	 |.text|, CODE, ARM

  00000		 |?wvsprintfW@ATL@@YAHPA_WPB_WPAD@Z| PROC ; ATL::wvsprintfW
; Line 902
  00000		 |$LN6@wvsprintfW|
  00000	e92d4010	 stmdb       sp!, {r4, lr}
  00004		 |$M77763|
  00004	e1a03002	 mov         r3, r2
  00008	e1a02001	 mov         r2, r1
  0000c	e1a04000	 mov         r4, r0
; Line 906
  00010	e3a01b01	 mov         r1, #1, 22
  00014	eb000000	 bl          _vsnwprintf
  00018	e3500000	 cmp         r0, #0
; Line 915
  0001c	e2843b02	 add         r3, r4, #2, 22	; 2048 (0x800)
  00020	e3a02000	 mov         r2, #0
  00024	43a00b01	 movmi       r0, #1, 22
  00028	e1c320b0	 strh        r2, [r3]
; Line 917
  0002c	e8bd8010	 ldmia       sp!, {r4, pc}
  00030		 |$M77764|

			 ENDP  ; |?wvsprintfW@ATL@@YAHPA_WPB_WPAD@Z|, ATL::wvsprintfW

	EXPORT	|?_AtlGetConversionACP@ATL@@YAIXZ|	; ATL::_AtlGetConversionACP
; File c:\program files (x86)\microsoft visual studio 9.0\vc\ce\atlmfc\include\atlconv.h

  00000			 AREA	 |.pdata|, PDATA
|$T77775| DCD	|$LN5@AtlGetConv|
	DCD	0x40000200
; Function compile flags: /Ogspy

  00000			 AREA	 |.text|, CODE, ARM

  00000		 |?_AtlGetConversionACP@ATL@@YAIXZ| PROC ; ATL::_AtlGetConversionACP
; Line 109
  00000		 |$LN5@AtlGetConv|
  00000		 |$M77772|
; Line 111
  00000	e3a00000	 mov         r0, #0
; Line 115
  00004	e1a0f00e	 mov         pc, lr
  00008		 |$M77773|

			 ENDP  ; |?_AtlGetConversionACP@ATL@@YAIXZ|, ATL::_AtlGetConversionACP

	EXPORT	|?ocslen@@YAHPB_W@Z|			; ocslen
; File c:\program files (x86)\microsoft visual studio 9.0\vc\ce\atlmfc\include\atlosapice.h

  00000			 AREA	 |.pdata|, PDATA
|$T77792| DCD	|$LN9@ocslen|
	DCD	0x40000601
; Function compile flags: /Ogspy

  00000			 AREA	 |.text|, CODE, ARM

  00000		 |?ocslen@@YAHPB_W@Z| PROC		; ocslen
; File c:\program files (x86)\microsoft visual studio 9.0\vc\ce\atlmfc\include\atlconv.h
; Line 695
  00000		 |$LN9@ocslen|
  00000	e52de004	 str         lr, [sp, #-4]!
  00004		 |$M77789|
  00004	e3500000	 cmp         r0, #0
  00008	149de004	 ldrne       lr, [sp], #4
  0000c	1a000000	 bne         wcslen
  00010	e3a00000	 mov         r0, #0
  00014	e49df004	 ldr         pc, [sp], #4
  00018		 |$M77790|

			 ENDP  ; |?ocslen@@YAHPB_W@Z|, ocslen

	EXPORT	|?ocscpy_s@@YA_NPA_WIPB_W@Z|		; ocscpy_s
; File c:\program files (x86)\microsoft visual studio 9.0\vc\ce\atlmfc\include\atlosapice.h

  00000			 AREA	 |.pdata|, PDATA
|$T77820| DCD	|$LN13@ocscpy_s|
	DCD	0x40001501
; Function compile flags: /Ogspy

  00000			 AREA	 |.text|, CODE, ARM

  00000		 |?ocscpy_s@@YA_NPA_WIPB_W@Z| PROC	; ocscpy_s
; File c:\program files (x86)\microsoft visual studio 9.0\vc\ce\atlmfc\include\atlconv.h
; Line 698
  00000		 |$LN13@ocscpy_s|
  00000	e92d4070	 stmdb       sp!, {r4 - r6, lr}
  00004		 |$M77817|
  00004	e1b04002	 movs        r4, r2
  00008	e1a05001	 mov         r5, r1
  0000c	e1a06000	 mov         r6, r0
  00010	0a000002	 beq         |$LN9@ocscpy_s|
  00014	e1a00004	 mov         r0, r4
  00018	eb000000	 bl          wcslen
  0001c	ea000000	 b           |$LN10@ocscpy_s|
  00020		 |$LN9@ocscpy_s|
  00020	e3a00000	 mov         r0, #0
  00024		 |$LN10@ocscpy_s|
  00024	e2803001	 add         r3, r0, #1
  00028	e1a03083	 mov         r3, r3, lsl #1
  0002c	e1a02004	 mov         r2, r4
  00030	e1a01085	 mov         r1, r5, lsl #1
  00034	e1a00006	 mov         r0, r6
  00038	eb000000	 bl          memcpy_s
  0003c	e3500000	 cmp         r0, #0
  00040	03a03001	 moveq       r3, #1
  00044	020300ff	 andeq       r0, r3, #0xFF
  00048	13a03000	 movne       r3, #0
  0004c	120300ff	 andne       r0, r3, #0xFF
  00050	e8bd8070	 ldmia       sp!, {r4 - r6, pc}
  00054		 |$M77818|

			 ENDP  ; |?ocscpy_s@@YA_NPA_WIPB_W@Z|, ocscpy_s

	EXPORT	|?OLE2CT_EX@@YAPB_WPB_WI@Z|		; OLE2CT_EX

  00000			 AREA	 |.pdata|, PDATA
|$T77830| DCD	|$LN5@OLE2CT_EX|
	DCD	0x40000100
; Function compile flags: /Ogspy

  00000			 AREA	 |.text|, CODE, ARM

  00000		 |?OLE2CT_EX@@YAPB_WPB_WI@Z| PROC	; OLE2CT_EX
; Line 724
  00000		 |$LN5@OLE2CT_EX|
  00000		 |$M77827|
  00000	e1a0f00e	 mov         pc, lr
  00004		 |$M77828|

			 ENDP  ; |?OLE2CT_EX@@YAPB_WPB_WI@Z|, OLE2CT_EX

	EXPORT	|?T2OLE_EX@@YAPA_WPA_WI@Z|		; T2OLE_EX

  00000			 AREA	 |.pdata|, PDATA
|$T77840| DCD	|$LN5@T2OLE_EX|
	DCD	0x40000100
; Function compile flags: /Ogspy

  00000			 AREA	 |.text|, CODE, ARM

  00000		 |?T2OLE_EX@@YAPA_WPA_WI@Z| PROC	; T2OLE_EX
; Line 726
  00000		 |$LN5@T2OLE_EX|
  00000		 |$M77837|
  00000	e1a0f00e	 mov         pc, lr
  00004		 |$M77838|

			 ENDP  ; |?T2OLE_EX@@YAPA_WPA_WI@Z|, T2OLE_EX

	EXPORT	|?OLE2T@@YAPA_WPA_W@Z|			; OLE2T

  00000			 AREA	 |.pdata|, PDATA
|$T77850| DCD	|$LN5@OLE2T|
	DCD	0x40000100
; Function compile flags: /Ogspy

  00000			 AREA	 |.text|, CODE, ARM

  00000		 |?OLE2T@@YAPA_WPA_W@Z| PROC		; OLE2T
; Line 736
  00000		 |$LN5@OLE2T|
  00000		 |$M77847|
  00000	e1a0f00e	 mov         pc, lr
  00004		 |$M77848|

			 ENDP  ; |?OLE2T@@YAPA_WPA_W@Z|, OLE2T

	EXPORT	|__$ArrayPad$| [ DATA ]
	EXPORT	|?GetFormattedLength@?$ChTraitsOS@_W@ATL@@SAHPB_WPAD@Z| ; ATL::ChTraitsOS<wchar_t>::GetFormattedLength
	IMPORT	|__GSHandlerCheck|
	IMPORT	|__security_cookie|
	IMPORT	|__security_check_cookie|
; File c:\program files (x86)\microsoft visual studio 9.0\vc\ce\atlmfc\include\atlosapice.h

  00000			 AREA	 |.pdata|, PDATA
|$T77877| DCD	|$LN8@GetFormatt|
	DCD	0xc0001603

  00000			 AREA	 |.xdata|, DATA
|$T77873| DCD	0xfffffff4
; Function compile flags: /Ogspy

  00000			 AREA	 |.text|, CODE, ARM

  00000	00000000	 DCD         |__GSHandlerCheck|
  00004	00000000	 DCD         |$T77873|

  00008		 |?GetFormattedLength@?$ChTraitsOS@_W@ATL@@SAHPB_WPAD@Z| PROC ; ATL::ChTraitsOS<wchar_t>::GetFormattedLength
; File c:\program files (x86)\microsoft visual studio 9.0\vc\ce\atlmfc\include\atlstr.h
; Line 913
  00008		 |$LN8@GetFormatt|
  00008	e92d4010	 stmdb       sp!, {r4, lr}
  0000c	e59fc048	 ldr         r12, [pc, #0x48]
  00010	e08dd00c	 add         sp, sp, r12
  00014		 |$M77874|
  00014	e59f303c	 ldr         r3, [pc, #0x3C]
  00018	e5933000	 ldr         r3, [r3]
  0001c	e58d3808	 str         r3, [sp, #0x808]
  00020	e1a02000	 mov         r2, r0
  00024	e1a03001	 mov         r3, r1
; Line 931
  00028	e3a01b01	 mov         r1, #1, 22
  0002c	e28d0000	 add         r0, sp, #0
  00030	eb000000	 bl          _vsnwprintf
  00034	e1b04000	 movs        r4, r0
  00038	43a04b01	 movmi       r4, #1, 22
; Line 937
  0003c	e59d0808	 ldr         r0, [sp, #0x808]
  00040	eb000000	 bl          __security_check_cookie
; Line 938
  00044	e1a00004	 mov         r0, r4
  00048	e3a0cb02	 mov         r12, #2, 22
  0004c	e38cc00c	 orr         r12, r12, #0xC
  00050	e08dd00c	 add         sp, sp, r12
  00054	e8bd8010	 ldmia       sp!, {r4, pc}
  00058		 |$LN9@GetFormatt|
  00058		 |$LN10@GetFormatt|
  00058	00000000	 DCD         |__security_cookie|
  0005c		 |$LN11@GetFormatt|
  0005c	fffff7f4	 DCD         0xfffff7f4
  00060		 |$M77875|

			 ENDP  ; |?GetFormattedLength@?$ChTraitsOS@_W@ATL@@SAHPB_WPAD@Z|, ATL::ChTraitsOS<wchar_t>::GetFormattedLength

	EXPORT	|?GetBaseTypeLength@?$ChTraitsOS@_W@ATL@@SAHPB_W@Z| ; ATL::ChTraitsOS<wchar_t>::GetBaseTypeLength
; File c:\program files (x86)\microsoft visual studio 9.0\vc\ce\atlmfc\include\atlosapice.h

  00000			 AREA	 |.pdata|, PDATA
|$T77898| DCD	|$LN9@GetBaseTyp|
	DCD	0x40000601
; Function compile flags: /Ogspy

  00000			 AREA	 |.text|, CODE, ARM

  00000		 |?GetBaseTypeLength@?$ChTraitsOS@_W@ATL@@SAHPB_W@Z| PROC ; ATL::ChTraitsOS<wchar_t>::GetBaseTypeLength
; File c:\program files (x86)\microsoft visual studio 9.0\vc\ce\atlmfc\include\atlstr.h
; Line 999
  00000		 |$LN9@GetBaseTyp|
  00000	e52de004	 str         lr, [sp, #-4]!
  00004		 |$M77895|
  00004	e3500000	 cmp         r0, #0
; Line 1001
  00008	149de004	 ldrne       lr, [sp], #4
  0000c	1a000000	 bne         wcslen
  00010	e3a00000	 mov         r0, #0
; Line 1002
  00014	e49df004	 ldr         pc, [sp], #4
  00018		 |$M77896|

			 ENDP  ; |?GetBaseTypeLength@?$ChTraitsOS@_W@ATL@@SAHPB_W@Z|, ATL::ChTraitsOS<wchar_t>::GetBaseTypeLength

	EXPORT	|?GetBaseTypeLength@?$ChTraitsOS@_W@ATL@@SAHPB_WH@Z| ; ATL::ChTraitsOS<wchar_t>::GetBaseTypeLength

  00000			 AREA	 |.pdata|, PDATA
|$T77908| DCD	|$LN5@GetBaseTyp@2|
	DCD	0x40000200
; Function compile flags: /Ogspy

  00000			 AREA	 |.text|, CODE, ARM

  00000		 |?GetBaseTypeLength@?$ChTraitsOS@_W@ATL@@SAHPB_WH@Z| PROC ; ATL::ChTraitsOS<wchar_t>::GetBaseTypeLength
; Line 1005
  00000		 |$LN5@GetBaseTyp@2|
  00000		 |$M77905|
; Line 1009
  00000	e1a00001	 mov         r0, r1
  00004	e1a0f00e	 mov         pc, lr
  00008		 |$M77906|

			 ENDP  ; |?GetBaseTypeLength@?$ChTraitsOS@_W@ATL@@SAHPB_WH@Z|, ATL::ChTraitsOS<wchar_t>::GetBaseTypeLength

	EXPORT	|?_AtlRaiseException@ATL@@YAXKK@Z|	; ATL::_AtlRaiseException
	IMPORT	|RaiseException|
; File c:\program files (x86)\microsoft visual studio 9.0\vc\ce\atlmfc\include\atlexcept.h

  00000			 AREA	 |.pdata|, PDATA
|$T77917| DCD	|$LN5@AtlRaiseEx|
	DCD	0x40000300
; Function compile flags: /Ogspy

  00000			 AREA	 |.text|, CODE, ARM

  00000		 |?_AtlRaiseException@ATL@@YAXKK@Z| PROC ; ATL::_AtlRaiseException
; Line 28
  00000		 |$LN5@AtlRaiseEx|
  00000		 |$M77914|
; Line 29
  00000	e3a03000	 mov         r3, #0
  00004	e3a02000	 mov         r2, #0
  00008	ea000000	 b           RaiseException
  0000c		 |$M77915|

			 ENDP  ; |?_AtlRaiseException@ATL@@YAXKK@Z|, ATL::_AtlRaiseException

	EXPORT	|??0CAtlException@ATL@@QAA@J@Z|		; ATL::CAtlException::CAtlException

  00000			 AREA	 |.pdata|, PDATA
|$T77928| DCD	|$LN5@CAtlExcept|
	DCD	0x40000200
; Function compile flags: /Ogspy

  00000			 AREA	 |.text|, CODE, ARM

  00000		 |??0CAtlException@ATL@@QAA@J@Z| PROC	; ATL::CAtlException::CAtlException
; Line 49
  00000		 |$LN5@CAtlExcept|
  00000		 |$M77925|
  00000	e5801000	 str         r1, [r0]
; Line 50
  00004	e1a0f00e	 mov         pc, lr
  00008		 |$M77926|

			 ENDP  ; |??0CAtlException@ATL@@QAA@J@Z|, ATL::CAtlException::CAtlException

	EXPORT	|?AllocSysString@?$ChTraitsOS@_W@ATL@@SAPA_WPB_WH@Z| ; ATL::ChTraitsOS<wchar_t>::AllocSysString
	IMPORT	|SysAllocStringLen|
; File c:\program files (x86)\microsoft visual studio 9.0\vc\ce\atlmfc\include\atlstr.h

  00000			 AREA	 |.pdata|, PDATA
|$T77939| DCD	|$LN5@AllocSysSt|
	DCD	0x40000100
; Function compile flags: /Ogspy

  00000			 AREA	 |.text|, CODE, ARM

  00000		 |?AllocSysString@?$ChTraitsOS@_W@ATL@@SAPA_WPB_WH@Z| PROC ; ATL::ChTraitsOS<wchar_t>::AllocSysString
; Line 1050
  00000		 |$LN5@AllocSysSt|
  00000		 |$M77936|
; Line 1051
  00000	ea000000	 b           SysAllocStringLen
  00004		 |$M77937|

			 ENDP  ; |?AllocSysString@?$ChTraitsOS@_W@ATL@@SAPA_WPB_WH@Z|, ATL::ChTraitsOS<wchar_t>::AllocSysString

	EXPORT	|?AtlThrowImpl@ATL@@YAXJ@Z|		; ATL::AtlThrowImpl
	EXPORT	|_TI1?AVCAtlException@ATL@@| [ DATA ]
	EXPORT	|_CTA1?AVCAtlException@ATL@@| [ DATA ]
	EXPORT	|_CT??_R0?AVCAtlException@ATL@@@84| [ DATA ]
	EXPORT	|??_R0?AVCAtlException@ATL@@@8| [ DATA ] ; ATL::CAtlException `RTTI Type Descriptor'
	IMPORT	|__CxxThrowException|
	IMPORT	|??_7type_info@@6B@|			; type_info::`vftable'
; File c:\program files (x86)\microsoft visual studio 9.0\vc\ce\atlmfc\include\atlexcept.h

  00000			 AREA	 |.pdata|, PDATA
|$T77955| DCD	|$LN9@AtlThrowIm|
	DCD	0x40000802

  00000			 AREA	 |.data|, DATA
|??_R0?AVCAtlException@ATL@@@8| DCD |??_7type_info@@6B@| ; ATL::CAtlException `RTTI Type Descriptor'
	DCD	0x0
	DCB	".?AVCAtlException@ATL@@", 0x0

  00000			 AREA	 |.xdata$x|, DATA, READONLY
|_CT??_R0?AVCAtlException@ATL@@@84| DCD 0x0
	DCD	|??_R0?AVCAtlException@ATL@@@8|
	DCD	0x0
	DCD	0xffffffff
	%	4
	DCD	0x4
	DCD	0x0

  00000			 AREA	 |.xdata$x|, DATA, READONLY
|_CTA1?AVCAtlException@ATL@@| DCD 0x1
	DCD	|_CT??_R0?AVCAtlException@ATL@@@84|

  00000			 AREA	 |.xdata$x|, DATA, READONLY
|_TI1?AVCAtlException@ATL@@| DCD 0x0
	DCD	0x0
	DCD	0x0
	DCD	|_CTA1?AVCAtlException@ATL@@|
; Function compile flags: /Ogspy

  00000			 AREA	 |.text|, CODE, ARM

  00000		 |?AtlThrowImpl@ATL@@YAXJ@Z| PROC	; ATL::AtlThrowImpl
; Line 70
  00000		 |$LN9@AtlThrowIm|
  00000	e52de004	 str         lr, [sp, #-4]!
  00004	e24dd004	 sub         sp, sp, #4
  00008		 |$M77952|
  00008	e1a03000	 mov         r3, r0
; Line 82
  0000c	e59f1008	 ldr         r1, [pc, #8]
  00010	e28d0000	 add         r0, sp, #0
  00014	e58d3000	 str         r3, [sp]
  00018	eb000000	 bl          __CxxThrowException
  0001c		 |$LN11@AtlThrowIm|
  0001c		 |$LN12@AtlThrowIm|
  0001c	00000000	 DCD         |_TI1?AVCAtlException@ATL@@|
  00020		 |$LN10@AtlThrowIm|
  00020		 |$LN6@AtlThrowIm|
  00020		 |$M77953|

			 ENDP  ; |?AtlThrowImpl@ATL@@YAXJ@Z|, ATL::AtlThrowImpl

	EXPORT	|?LoadLibrary7@CMangoClass@@UAAJPB_WPAI@Z| ; CMangoClass::LoadLibrary7
	IMPORT	|LoadLibraryW|
; File c:\users\steven\desktop\csharp - dllimport\csharp - dllimport\vs2008\dllimportmango\mangoclass.cpp

  00000			 AREA	 |.pdata|, PDATA
|$T77972| DCD	|$LN7@LoadLibrar|
	DCD	0x40000901
; Function compile flags: /Ogspy

  00000			 AREA	 |.text|, CODE, ARM

  00000		 |?LoadLibrary7@CMangoClass@@UAAJPB_WPAI@Z| PROC ; CMangoClass::LoadLibrary7
; Line 449
  00000		 |$LN7@LoadLibrar|
  00000	e92d4010	 stmdb       sp!, {r4, lr}
  00004		 |$M77969|
  00004	e1a04002	 mov         r4, r2
; Line 450
  00008	e1a00001	 mov         r0, r1
  0000c	eb000000	 bl          LoadLibraryW
  00010	e3500000	 cmp         r0, #0
; Line 452
  00014	e5840000	 str         r0, [r4]
; Line 454
  00018	13a00000	 movne       r0, #0
  0001c	03a00001	 moveq       r0, #1
; Line 455
  00020	e8bd8010	 ldmia       sp!, {r4, pc}
  00024		 |$M77970|

			 ENDP  ; |?LoadLibrary7@CMangoClass@@UAAJPB_WPAI@Z|, CMangoClass::LoadLibrary7

	EXPORT	|?GetProcAddress7@CMangoClass@@UAAJIPB_WPAH@Z| ; CMangoClass::GetProcAddress7
	IMPORT	|GetProcAddressW|

  00000			 AREA	 |.pdata|, PDATA
|$T77987| DCD	|$LN7@GetProcAdd|
	DCD	0x40000a01
; Function compile flags: /Ogspy

  00000			 AREA	 |.text|, CODE, ARM

  00000		 |?GetProcAddress7@CMangoClass@@UAAJIPB_WPAH@Z| PROC ; CMangoClass::GetProcAddress7
; Line 458
  00000		 |$LN7@GetProcAdd|
  00000	e92d4010	 stmdb       sp!, {r4, lr}
  00004		 |$M77984|
  00004	e1a04003	 mov         r4, r3
  00008	e1a00001	 mov         r0, r1
; Line 459
  0000c	e1a01002	 mov         r1, r2
  00010	eb000000	 bl          GetProcAddressW
  00014	e3500000	 cmp         r0, #0
; Line 460
  00018	e5840000	 str         r0, [r4]
; Line 462
  0001c	13a00000	 movne       r0, #0
  00020	03a00001	 moveq       r0, #1
; Line 463
  00024	e8bd8010	 ldmia       sp!, {r4, pc}
  00028		 |$M77985|

			 ENDP  ; |?GetProcAddress7@CMangoClass@@UAAJIPB_WPAH@Z|, CMangoClass::GetProcAddress7

	EXPORT	|?FreeLibrary7@CMangoClass@@UAAJI@Z|	; CMangoClass::FreeLibrary7
	IMPORT	|FreeLibrary|

  00000			 AREA	 |.pdata|, PDATA
|$T77997| DCD	|$LN5@FreeLibrar|
	DCD	0x40000200
; Function compile flags: /Ogspy

  00000			 AREA	 |.text|, CODE, ARM

  00000		 |?FreeLibrary7@CMangoClass@@UAAJI@Z| PROC ; CMangoClass::FreeLibrary7
; Line 467
  00000		 |$LN5@FreeLibrar|
  00000		 |$M77994|
; Line 468
  00000	e1a00001	 mov         r0, r1
  00004	ea000000	 b           FreeLibrary
  00008		 |$M77995|

			 ENDP  ; |?FreeLibrary7@CMangoClass@@UAAJI@Z|, CMangoClass::FreeLibrary7

	EXPORT	|?ConvertBSTRToLPSTR@@YAPADPA_W@Z|	; ConvertBSTRToLPSTR
	IMPORT	|??_U@YAPAXI@Z|				; operator new[]
	IMPORT	|WideCharToMultiByte|
	IMPORT	|SysStringLen|
	IMPORT	|memset|

  00000			 AREA	 |.pdata|, PDATA
|$T78012| DCD	|$LN7@ConvertBST|
	DCD	0x40002702
; Function compile flags: /Ogspy

  00000			 AREA	 |.text|, CODE, ARM

  00000		 |?ConvertBSTRToLPSTR@@YAPADPA_W@Z| PROC ; ConvertBSTRToLPSTR
; Line 473
  00000		 |$LN7@ConvertBST|
  00000	e92d41f0	 stmdb       sp!, {r4 - r8, lr}
  00004	e24dd010	 sub         sp, sp, #0x10
  00008		 |$M78009|
  00008	e1b05000	 movs        r5, r0
; Line 474
  0000c	e3a04000	 mov         r4, #0
; Line 475
  00010	0a00001e	 beq         |$LN1@ConvertBST|
; Line 477
  00014	e1a00005	 mov         r0, r5
  00018	eb000000	 bl          SysStringLen
  0001c	e1a07000	 mov         r7, r0
; Line 480
  00020	e3a08000	 mov         r8, #0
  00024	e1a03007	 mov         r3, r7
  00028	e1a02005	 mov         r2, r5
  0002c	e3a01000	 mov         r1, #0
  00030	e3a00000	 mov         r0, #0
  00034	e58d800c	 str         r8, [sp, #0xC]
  00038	e58d8008	 str         r8, [sp, #8]
  0003c	e58d8004	 str         r8, [sp, #4]
  00040	e58d8000	 str         r8, [sp]
  00044	eb000000	 bl          WideCharToMultiByte
  00048	e2806002	 add         r6, r0, #2
; Line 481
  0004c	e1a00006	 mov         r0, r6
  00050	eb000000	 bl          |??_U@YAPAXI@Z|
  00054	e1b04000	 movs        r4, r0
; Line 483
  00058	0a00000c	 beq         |$LN1@ConvertBST|
; Line 485
  0005c	e1a02006	 mov         r2, r6
  00060	e3a01000	 mov         r1, #0
  00064	e1a00004	 mov         r0, r4
  00068	eb000000	 bl          memset
; Line 486
  0006c	e1a03007	 mov         r3, r7
  00070	e1a02005	 mov         r2, r5
  00074	e3a01000	 mov         r1, #0
  00078	e3a00000	 mov         r0, #0
  0007c	e58d800c	 str         r8, [sp, #0xC]
  00080	e58d8008	 str         r8, [sp, #8]
  00084	e58d6004	 str         r6, [sp, #4]
  00088	e58d4000	 str         r4, [sp]
  0008c	eb000000	 bl          WideCharToMultiByte
  00090		 |$LN1@ConvertBST|
; Line 490
  00090	e1a00004	 mov         r0, r4
  00094	e28dd010	 add         sp, sp, #0x10
  00098	e8bd81f0	 ldmia       sp!, {r4 - r8, pc}
  0009c		 |$M78010|

			 ENDP  ; |?ConvertBSTRToLPSTR@@YAPADPA_W@Z|, ConvertBSTRToLPSTR

	EXPORT	|?Clipboard_SET@CMangoClass@@UAAJPA_W@Z| ; CMangoClass::Clipboard_SET
	IMPORT	|CloseClipboard|
	IMPORT	|SetClipboardData|
	IMPORT	|LocalAlloc|
	IMPORT	|EmptyClipboard|
	IMPORT	|OpenClipboard|
	IMPORT	|memcpy|
; File c:\program files (x86)\microsoft visual studio 9.0\vc\ce\atlmfc\include\atlosapice.h

  00000			 AREA	 |.pdata|, PDATA
|$T78039| DCD	|$LN14@Clipboard_|
	DCD	0x40002501
; Function compile flags: /Ogspy

  00000			 AREA	 |.text|, CODE, ARM

  00000		 |?Clipboard_SET@CMangoClass@@UAAJPA_W@Z| PROC ; CMangoClass::Clipboard_SET
; File c:\users\steven\desktop\csharp - dllimport\csharp - dllimport\vs2008\dllimportmango\mangoclass.cpp
; Line 495
  00000		 |$LN14@Clipboard_|
  00000	e92d4030	 stmdb       sp!, {r4, r5, lr}
  00004		 |$M78036|
; Line 496
  00004	e3a00000	 mov         r0, #0
  00008	eb000000	 bl          OpenClipboard
  0000c	e3500000	 cmp         r0, #0
  00010	03a00001	 moveq       r0, #1
; Line 604
  00014	08bd8030	 ldmeqia     sp!, {r4, r5, pc}
; Line 497
  00018	eb000000	 bl          EmptyClipboard
; Line 499
  0001c	e59f406c	 ldr         r4, [pc, #0x6C]
  00020	e5940000	 ldr         r0, [r4]
  00024	e3500000	 cmp         r0, #0
  00028	0a000001	 beq         |$LN6@Clipboard_|
  0002c	eb000000	 bl          wcslen
  00030	ea000000	 b           |$LN7@Clipboard_|
  00034		 |$LN6@Clipboard_|
  00034	e3a00000	 mov         r0, #0
  00038		 |$LN7@Clipboard_|
  00038	e2801001	 add         r1, r0, #1
  0003c	e3a00002	 mov         r0, #2
  00040	eb000000	 bl          LocalAlloc
; Line 501
  00044	e5944000	 ldr         r4, [r4]
  00048	e1a05000	 mov         r5, r0
  0004c	e3540000	 cmp         r4, #0
  00050	0a000002	 beq         |$LN10@Clipboard_|
  00054	e1a00004	 mov         r0, r4
  00058	eb000000	 bl          wcslen
  0005c	ea000000	 b           |$LN11@Clipboard_|
  00060		 |$LN10@Clipboard_|
  00060	e3a00000	 mov         r0, #0
  00064		 |$LN11@Clipboard_|
  00064	e2802001	 add         r2, r0, #1
  00068	e1a00005	 mov         r0, r5
  0006c	e1a01004	 mov         r1, r4
  00070	eb000000	 bl          memcpy
; Line 503
  00074	e1a01005	 mov         r1, r5
  00078	e3a00001	 mov         r0, #1
  0007c	eb000000	 bl          SetClipboardData
; Line 505
  00080	eb000000	 bl          CloseClipboard
; Line 524
  00084	eb000000	 bl          CloseClipboard
; Line 603
  00088	e3a00000	 mov         r0, #0
; Line 604
  0008c	e8bd8030	 ldmia       sp!, {r4, r5, pc}
  00090		 |$LN15@Clipboard_|
  00090		 |$LN16@Clipboard_|
  00090	00000000	 DCD         |?sText@@3PB_WB|
  00094		 |$M78037|

			 ENDP  ; |?Clipboard_SET@CMangoClass@@UAAJPA_W@Z|, CMangoClass::Clipboard_SET

	EXPORT	|?Clipboard_GET@CMangoClass@@UAAJPAPA_W@Z| ; CMangoClass::Clipboard_GET

  00000			 AREA	 |.pdata|, PDATA
|$T78050| DCD	|$LN5@Clipboard_@2|
	DCD	0x40000200
; Function compile flags: /Ogspy

  00000			 AREA	 |.text|, CODE, ARM

  00000		 |?Clipboard_GET@CMangoClass@@UAAJPAPA_W@Z| PROC ; CMangoClass::Clipboard_GET
; Line 607
  00000		 |$LN5@Clipboard_@2|
  00000		 |$M78047|
; Line 608
  00000	e3a00000	 mov         r0, #0
; Line 638
  00004	e1a0f00e	 mov         pc, lr
  00008		 |$M78048|

			 ENDP  ; |?Clipboard_GET@CMangoClass@@UAAJPAPA_W@Z|, CMangoClass::Clipboard_GET

	EXPORT	|?wcsstr@@YAPA_WPA_WPB_W@Z|		; wcsstr
	IMPORT	|wcsstr|
; File c:\program files (x86)\windows mobile 6 sdk\pocketpc\include\armv4i\wchar.h

  00000			 AREA	 |.pdata|, PDATA
|$T78061| DCD	|$LN5@wcsstr|
	DCD	0x40000100
; Function compile flags: /Ogspy

  00000			 AREA	 |.text|, CODE, ARM

  00000		 |?wcsstr@@YAPA_WPA_WPB_W@Z| PROC	; wcsstr
; Line 123
  00000		 |$LN5@wcsstr|
  00000		 |$M78058|
  00000	ea000000	 b           wcsstr
  00004		 |$M78059|

			 ENDP  ; |?wcsstr@@YAPA_WPA_WPB_W@Z|, wcsstr

	EXPORT	|?AtlCrtErrorCheck@ATL@@YAHH@Z|		; ATL::AtlCrtErrorCheck
; File c:\program files (x86)\microsoft visual studio 9.0\vc\ce\atlmfc\include\atlchecked.h

  00000			 AREA	 |.pdata|, PDATA
|$T78073| DCD	|$LN13@AtlCrtErro|
	DCD	0x40001501
; Function compile flags: /Ogspy

  00000			 AREA	 |.text|, CODE, ARM

  00000		 |?AtlCrtErrorCheck@ATL@@YAHH@Z| PROC	; ATL::AtlCrtErrorCheck
; Line 33
  00000		 |$LN13@AtlCrtErro|
  00000	e52de004	 str         lr, [sp, #-4]!
  00004		 |$M78070|
  00004	e3500000	 cmp         r0, #0
; Line 34
  00008	0a00000f	 beq         |$LN9@AtlCrtErro|
  0000c	e350000c	 cmp         r0, #0xC
  00010	0a00000a	 beq         |$LN4@AtlCrtErro|
  00014	e3500016	 cmp         r0, #0x16
  00018	0a000006	 beq         |$LN3@AtlCrtErro|
  0001c	e3500022	 cmp         r0, #0x22
  00020	0a000004	 beq         |$LN3@AtlCrtErro|
  00024	e3500050	 cmp         r0, #0x50
  00028	0a000007	 beq         |$LN9@AtlCrtErro|
  0002c	e3a03116	 mov         r3, #0x16, 2
; Line 47
  00030	e3830901	 orr         r0, r3, #1, 18	; 16384 (0x4000)
  00034	eb000000	 bl          |?AtlThrowImpl@ATL@@YAXJ@Z|
  00038		 |$LN14@AtlCrtErro|
  00038		 |$LN3@AtlCrtErro|
; Line 41
  00038	e59f0010	 ldr         r0, [pc, #0x10]	; -2147024809 (0x80070057)
  0003c	eb000000	 bl          |?AtlThrowImpl@ATL@@YAXJ@Z|
  00040		 |$LN15@AtlCrtErro|
  00040		 |$LN4@AtlCrtErro|
  00040	e3a0313a	 mov         r3, #0x3A, 2
  00044	e3830807	 orr         r0, r3, #7, 16	; 458752 (0x70000)
  00048	eb000000	 bl          |?AtlThrowImpl@ATL@@YAXJ@Z|
  0004c		 |$LN16@AtlCrtErro|
  0004c		 |$LN9@AtlCrtErro|
; Line 51
  0004c	e49df004	 ldr         pc, [sp], #4
  00050		 |$LN17@AtlCrtErro|
  00050		 |$LN18@AtlCrtErro|
  00050	80070057	 DCD         0x80070057
  00054		 |$LN10@AtlCrtErro|
  00054		 |$M78071|

			 ENDP  ; |?AtlCrtErrorCheck@ATL@@YAHH@Z|, ATL::AtlCrtErrorCheck

	EXPORT	|?memcpy_s@Checked@ATL@@YAXPAXIPBXI@Z|	; ATL::Checked::memcpy_s

  00000			 AREA	 |.pdata|, PDATA
|$T78089| DCD	|$LN5@memcpy_s|
	DCD	0x40000401
; Function compile flags: /Ogspy

  00000			 AREA	 |.text|, CODE, ARM

  00000		 |?memcpy_s@Checked@ATL@@YAXPAXIPBXI@Z| PROC ; ATL::Checked::memcpy_s
; Line 66
  00000		 |$LN5@memcpy_s|
  00000	e52de004	 str         lr, [sp, #-4]!
  00004		 |$M78086|
; Line 67
  00004	eb000000	 bl          memcpy_s
  00008	e49de004	 ldr         lr, [sp], #4
  0000c	ea000000	 b           |?AtlCrtErrorCheck@ATL@@YAHH@Z|
  00010		 |$M78087|

			 ENDP  ; |?memcpy_s@Checked@ATL@@YAXPAXIPBXI@Z|, ATL::Checked::memcpy_s

	EXPORT	|?wmemcpy_s@Checked@ATL@@YAXPA_WIPB_WI@Z| ; ATL::Checked::wmemcpy_s
; File c:\program files (x86)\microsoft visual studio 9.0\vc\ce\include\altcecrt.h

  00000			 AREA	 |.pdata|, PDATA
|$T78103| DCD	|$LN7@wmemcpy_s@2|
	DCD	0x40000601
; Function compile flags: /Ogspy

  00000			 AREA	 |.text|, CODE, ARM

  00000		 |?wmemcpy_s@Checked@ATL@@YAXPA_WIPB_WI@Z| PROC ; ATL::Checked::wmemcpy_s
; File c:\program files (x86)\microsoft visual studio 9.0\vc\ce\atlmfc\include\atlchecked.h
; Line 71
  00000		 |$LN7@wmemcpy_s@2|
  00000	e52de004	 str         lr, [sp, #-4]!
  00004		 |$M78100|
; Line 72
  00004	e1a03083	 mov         r3, r3, lsl #1
  00008	e1a01081	 mov         r1, r1, lsl #1
  0000c	eb000000	 bl          memcpy_s
  00010	e49de004	 ldr         lr, [sp], #4
  00014	ea000000	 b           |?AtlCrtErrorCheck@ATL@@YAHH@Z|
  00018		 |$M78101|

			 ENDP  ; |?wmemcpy_s@Checked@ATL@@YAXPA_WIPB_WI@Z|, ATL::Checked::wmemcpy_s

	EXPORT	|?TerminateProcess7@CMangoClass@@UAAJII@Z| ; CMangoClass::TerminateProcess7
	IMPORT	|TerminateProcess|
; File c:\users\steven\desktop\csharp - dllimport\csharp - dllimport\vs2008\dllimportmango\mangoclass.cpp

  00000			 AREA	 |.pdata|, PDATA
|$T78114| DCD	|$LN5@TerminateP|
	DCD	0x40000300
; Function compile flags: /Ogspy

  00000			 AREA	 |.text|, CODE, ARM

  00000		 |?TerminateProcess7@CMangoClass@@UAAJII@Z| PROC ; CMangoClass::TerminateProcess7
; Line 718
  00000		 |$LN5@TerminateP|
  00000		 |$M78111|
  00000	e1a00001	 mov         r0, r1
; Line 719
  00004	e1a01002	 mov         r1, r2
  00008	ea000000	 b           TerminateProcess
  0000c		 |$M78112|

			 ENDP  ; |?TerminateProcess7@CMangoClass@@UAAJII@Z|, CMangoClass::TerminateProcess7

	EXPORT	|?wcscpy_s@Checked@ATL@@YAXPA_WIPB_W@Z|	; ATL::Checked::wcscpy_s
	IMPORT	|wcscpy_s|
; File c:\program files (x86)\microsoft visual studio 9.0\vc\ce\atlmfc\include\atlchecked.h

  00000			 AREA	 |.pdata|, PDATA
|$T78124| DCD	|$LN5@wcscpy_s|
	DCD	0x40000401
; Function compile flags: /Ogspy

  00000			 AREA	 |.text|, CODE, ARM

  00000		 |?wcscpy_s@Checked@ATL@@YAXPA_WIPB_W@Z| PROC ; ATL::Checked::wcscpy_s
; Line 86
  00000		 |$LN5@wcscpy_s|
  00000	e52de004	 str         lr, [sp, #-4]!
  00004		 |$M78121|
; Line 87
  00004	eb000000	 bl          wcscpy_s
  00008	e49de004	 ldr         lr, [sp], #4
  0000c	ea000000	 b           |?AtlCrtErrorCheck@ATL@@YAHH@Z|
  00010		 |$M78122|

			 ENDP  ; |?wcscpy_s@Checked@ATL@@YAXPA_WIPB_W@Z|, ATL::Checked::wcscpy_s

	EXPORT	|?GetAsyncKeyState7@CMangoClass@@UAAJH@Z| ; CMangoClass::GetAsyncKeyState7
	IMPORT	|GetAsyncKeyState|
; File c:\users\steven\desktop\csharp - dllimport\csharp - dllimport\vs2008\dllimportmango\mangoclass.cpp

  00000			 AREA	 |.pdata|, PDATA
|$T78134| DCD	|$LN5@GetAsyncKe|
	DCD	0x40000200
; Function compile flags: /Ogspy

  00000			 AREA	 |.text|, CODE, ARM

  00000		 |?GetAsyncKeyState7@CMangoClass@@UAAJH@Z| PROC ; CMangoClass::GetAsyncKeyState7
; Line 723
  00000		 |$LN5@GetAsyncKe|
  00000		 |$M78131|
; Line 724
  00000	e1a00001	 mov         r0, r1
  00004	ea000000	 b           GetAsyncKeyState
  00008		 |$M78132|

			 ENDP  ; |?GetAsyncKeyState7@CMangoClass@@UAAJH@Z|, CMangoClass::GetAsyncKeyState7

	EXPORT	|?tcsncpy_s@Checked@ATL@@YAHPA_WIPB_WI@Z| ; ATL::Checked::tcsncpy_s
	IMPORT	|wcsncpy_s|
; File c:\program files (x86)\microsoft visual studio 9.0\vc\ce\atlmfc\include\atlchecked.h

  00000			 AREA	 |.pdata|, PDATA
|$T78147| DCD	|$LN5@tcsncpy_s|
	DCD	0x40000401
; Function compile flags: /Ogspy

  00000			 AREA	 |.text|, CODE, ARM

  00000		 |?tcsncpy_s@Checked@ATL@@YAHPA_WIPB_WI@Z| PROC ; ATL::Checked::tcsncpy_s
; Line 106
  00000		 |$LN5@tcsncpy_s|
  00000	e52de004	 str         lr, [sp, #-4]!
  00004		 |$M78144|
; Line 107
  00004	eb000000	 bl          wcsncpy_s
  00008	e49de004	 ldr         lr, [sp], #4
  0000c	ea000000	 b           |?AtlCrtErrorCheck@ATL@@YAHH@Z|
  00010		 |$M78145|

			 ENDP  ; |?tcsncpy_s@Checked@ATL@@YAHPA_WIPB_WI@Z|, ATL::Checked::tcsncpy_s

	EXPORT	|?CopyScreenToBitmap@@YAPAUHBITMAP__@@PAUtagRECT@@@Z| ; CopyScreenToBitmap
	EXPORT	|??_C@_1EO@CMCENLBN@?$AAD?$AAe?$AAl?$AAe?$AAt?$AAe?$AAD?$AAC?$AA?5?$AA1?$AA?5?$AA?$DN?$AA?5?$AAN?$AAU?$AAL?$AAL?$AA?5?$AA?$EA?$AA?5?$AAC?$AAo?$AAp?$AAy?$AAS?$AAc?$AAr?$AAe?$AAe?$AAn?$AAT?$AAo@| [ DATA ] ; `string'
	EXPORT	|??_C@_1EO@OGPHFFJC@?$AAD?$AAe?$AAl?$AAe?$AAt?$AAe?$AAD?$AAC?$AA?5?$AA0?$AA?5?$AA?$DN?$AA?5?$AAN?$AAU?$AAL?$AAL?$AA?5?$AA?$EA?$AA?5?$AAC?$AAo?$AAp?$AAy?$AAS?$AAc?$AAr?$AAe?$AAe?$AAn?$AAT?$AAo@| [ DATA ] ; `string'
	EXPORT	|??_C@_1EA@LDHCEFBL@?$AAb?$AAi?$AAt?$AA?5?$AA?$DN?$AA?5?$AAN?$AAU?$AAL?$AAL?$AA?5?$AA?$EA?$AA?5?$AAC?$AAo?$AAp?$AAy?$AAS?$AAc?$AAr?$AAe?$AAe?$AAn?$AAT?$AAo?$AAB?$AAi?$AAt?$AAm?$AAa?$AAp?$AA?$AA@| [ DATA ] ; `string'
	EXPORT	|??_C@_1EO@LNIOFNPH@?$AAh?$AAO?$AAl?$AAd?$AAB?$AAi?$AAt?$AAm?$AAa?$AAp?$AA?5?$AA?$DN?$AA?5?$AAN?$AAU?$AAL?$AAL?$AA?5?$AA?$EA?$AA?5?$AAC?$AAo?$AAp?$AAy?$AAS?$AAc?$AAr?$AAe?$AAe?$AAn?$AAT?$AAo@| [ DATA ] ; `string'
	EXPORT	|??_C@_1EI@LAONBLBL@?$AAh?$AAB?$AAi?$AAt?$AAm?$AAa?$AAp?$AA?5?$AA?$DN?$AA?5?$AAN?$AAU?$AAL?$AAL?$AA?5?$AA?$EA?$AA?5?$AAC?$AAo?$AAp?$AAy?$AAS?$AAc?$AAr?$AAe?$AAe?$AAn?$AAT?$AAo?$AAB?$AAi?$AAt@| [ DATA ] ; `string'
	EXPORT	|??_C@_1EG@KGKIIMGC@?$AAh?$AAM?$AAe?$AAm?$AAD?$AAC?$AA?5?$AA?$DN?$AA?5?$AAN?$AAU?$AAL?$AAL?$AA?5?$AA?$EA?$AA?5?$AAC?$AAo?$AAp?$AAy?$AAS?$AAc?$AAr?$AAe?$AAe?$AAn?$AAT?$AAo?$AAB?$AAi?$AAt?$AAm@| [ DATA ] ; `string'
	EXPORT	|??_C@_11LOCGONAA@?$AA?$AA@| [ DATA ]	; `string'
	EXPORT	|??_C@_1EG@BBLLCDEB@?$AAh?$AAS?$AAc?$AAr?$AAD?$AAC?$AA?5?$AA?$DN?$AA?5?$AAN?$AAU?$AAL?$AAL?$AA?5?$AA?$EA?$AA?5?$AAC?$AAo?$AAp?$AAy?$AAS?$AAc?$AAr?$AAe?$AAe?$AAn?$AAT?$AAo?$AAB?$AAi?$AAt?$AAm@| [ DATA ] ; `string'
	EXPORT	|??_C@_1BA@PICGEGJB@?$AAD?$AAI?$AAS?$AAP?$AAL?$AAA?$AAY?$AA?$AA@| [ DATA ] ; `string'
	IMPORT	|DeleteDC|
	IMPORT	|BitBlt|
	IMPORT	|SelectObject|
	IMPORT	|CreateCompatibleBitmap|
	IMPORT	|GetDeviceCaps|
	IMPORT	|CreateCompatibleDC|
	IMPORT	|MessageBoxW|
	IMPORT	|CreateDCW|
	IMPORT	|IsRectEmpty|
; File c:\users\steven\desktop\csharp - dllimport\csharp - dllimport\vs2008\dllimportmango\mangoclass.cpp

  00000			 AREA	 |.pdata|, PDATA
|$T78170| DCD	|$LN18@CopyScreen|
	DCD	0x40007902

  00000			 AREA	 |.rdata|, DATA, READONLY
|??_C@_1EO@CMCENLBN@?$AAD?$AAe?$AAl?$AAe?$AAt?$AAe?$AAD?$AAC?$AA?5?$AA1?$AA?5?$AA?$DN?$AA?5?$AAN?$AAU?$AAL?$AAL?$AA?5?$AA?$EA?$AA?5?$AAC?$AAo?$AAp?$AAy?$AAS?$AAc?$AAr?$AAe?$AAe?$AAn?$AAT?$AAo@| DCB "D"
	DCB	0x0, "e", 0x0, "l", 0x0, "e", 0x0, "t", 0x0, "e", 0x0, "D"
	DCB	0x0, "C", 0x0, " ", 0x0, "1", 0x0, " ", 0x0, "=", 0x0, " "
	DCB	0x0, "N", 0x0, "U", 0x0, "L", 0x0, "L", 0x0, " ", 0x0, "@"
	DCB	0x0, " ", 0x0, "C", 0x0, "o", 0x0, "p", 0x0, "y", 0x0, "S"
	DCB	0x0, "c", 0x0, "r", 0x0, "e", 0x0, "e", 0x0, "n", 0x0, "T"
	DCB	0x0, "o", 0x0, "B", 0x0, "i", 0x0, "t", 0x0, "m", 0x0, "a"
	DCB	0x0, "p", 0x0, 0x0, 0x0			; `string'

  00000			 AREA	 |.rdata|, DATA, READONLY
|??_C@_1EO@OGPHFFJC@?$AAD?$AAe?$AAl?$AAe?$AAt?$AAe?$AAD?$AAC?$AA?5?$AA0?$AA?5?$AA?$DN?$AA?5?$AAN?$AAU?$AAL?$AAL?$AA?5?$AA?$EA?$AA?5?$AAC?$AAo?$AAp?$AAy?$AAS?$AAc?$AAr?$AAe?$AAe?$AAn?$AAT?$AAo@| DCB "D"
	DCB	0x0, "e", 0x0, "l", 0x0, "e", 0x0, "t", 0x0, "e", 0x0, "D"
	DCB	0x0, "C", 0x0, " ", 0x0, "0", 0x0, " ", 0x0, "=", 0x0, " "
	DCB	0x0, "N", 0x0, "U", 0x0, "L", 0x0, "L", 0x0, " ", 0x0, "@"
	DCB	0x0, " ", 0x0, "C", 0x0, "o", 0x0, "p", 0x0, "y", 0x0, "S"
	DCB	0x0, "c", 0x0, "r", 0x0, "e", 0x0, "e", 0x0, "n", 0x0, "T"
	DCB	0x0, "o", 0x0, "B", 0x0, "i", 0x0, "t", 0x0, "m", 0x0, "a"
	DCB	0x0, "p", 0x0, 0x0, 0x0			; `string'

  00000			 AREA	 |.rdata|, DATA, READONLY
|??_C@_1EA@LDHCEFBL@?$AAb?$AAi?$AAt?$AA?5?$AA?$DN?$AA?5?$AAN?$AAU?$AAL?$AAL?$AA?5?$AA?$EA?$AA?5?$AAC?$AAo?$AAp?$AAy?$AAS?$AAc?$AAr?$AAe?$AAe?$AAn?$AAT?$AAo?$AAB?$AAi?$AAt?$AAm?$AAa?$AAp?$AA?$AA@| DCB "b"
	DCB	0x0, "i", 0x0, "t", 0x0, " ", 0x0, "=", 0x0, " ", 0x0, "N"
	DCB	0x0, "U", 0x0, "L", 0x0, "L", 0x0, " ", 0x0, "@", 0x0, " "
	DCB	0x0, "C", 0x0, "o", 0x0, "p", 0x0, "y", 0x0, "S", 0x0, "c"
	DCB	0x0, "r", 0x0, "e", 0x0, "e", 0x0, "n", 0x0, "T", 0x0, "o"
	DCB	0x0, "B", 0x0, "i", 0x0, "t", 0x0, "m", 0x0, "a", 0x0, "p"
	DCB	0x0, 0x0, 0x0				; `string'

  00000			 AREA	 |.rdata|, DATA, READONLY
|??_C@_1EO@LNIOFNPH@?$AAh?$AAO?$AAl?$AAd?$AAB?$AAi?$AAt?$AAm?$AAa?$AAp?$AA?5?$AA?$DN?$AA?5?$AAN?$AAU?$AAL?$AAL?$AA?5?$AA?$EA?$AA?5?$AAC?$AAo?$AAp?$AAy?$AAS?$AAc?$AAr?$AAe?$AAe?$AAn?$AAT?$AAo@| DCB "h"
	DCB	0x0, "O", 0x0, "l", 0x0, "d", 0x0, "B", 0x0, "i", 0x0, "t"
	DCB	0x0, "m", 0x0, "a", 0x0, "p", 0x0, " ", 0x0, "=", 0x0, " "
	DCB	0x0, "N", 0x0, "U", 0x0, "L", 0x0, "L", 0x0, " ", 0x0, "@"
	DCB	0x0, " ", 0x0, "C", 0x0, "o", 0x0, "p", 0x0, "y", 0x0, "S"
	DCB	0x0, "c", 0x0, "r", 0x0, "e", 0x0, "e", 0x0, "n", 0x0, "T"
	DCB	0x0, "o", 0x0, "B", 0x0, "i", 0x0, "t", 0x0, "m", 0x0, "a"
	DCB	0x0, "p", 0x0, 0x0, 0x0			; `string'

  00000			 AREA	 |.rdata|, DATA, READONLY
|??_C@_1EI@LAONBLBL@?$AAh?$AAB?$AAi?$AAt?$AAm?$AAa?$AAp?$AA?5?$AA?$DN?$AA?5?$AAN?$AAU?$AAL?$AAL?$AA?5?$AA?$EA?$AA?5?$AAC?$AAo?$AAp?$AAy?$AAS?$AAc?$AAr?$AAe?$AAe?$AAn?$AAT?$AAo?$AAB?$AAi?$AAt@| DCB "h"
	DCB	0x0, "B", 0x0, "i", 0x0, "t", 0x0, "m", 0x0, "a", 0x0, "p"
	DCB	0x0, " ", 0x0, "=", 0x0, " ", 0x0, "N", 0x0, "U", 0x0, "L"
	DCB	0x0, "L", 0x0, " ", 0x0, "@", 0x0, " ", 0x0, "C", 0x0, "o"
	DCB	0x0, "p", 0x0, "y", 0x0, "S", 0x0, "c", 0x0, "r", 0x0, "e"
	DCB	0x0, "e", 0x0, "n", 0x0, "T", 0x0, "o", 0x0, "B", 0x0, "i"
	DCB	0x0, "t", 0x0, "m", 0x0, "a", 0x0, "p", 0x0, 0x0, 0x0 ; `string'

  00000			 AREA	 |.rdata|, DATA, READONLY
|??_C@_1EG@KGKIIMGC@?$AAh?$AAM?$AAe?$AAm?$AAD?$AAC?$AA?5?$AA?$DN?$AA?5?$AAN?$AAU?$AAL?$AAL?$AA?5?$AA?$EA?$AA?5?$AAC?$AAo?$AAp?$AAy?$AAS?$AAc?$AAr?$AAe?$AAe?$AAn?$AAT?$AAo?$AAB?$AAi?$AAt?$AAm@| DCB "h"
	DCB	0x0, "M", 0x0, "e", 0x0, "m", 0x0, "D", 0x0, "C", 0x0, " "
	DCB	0x0, "=", 0x0, " ", 0x0, "N", 0x0, "U", 0x0, "L", 0x0, "L"
	DCB	0x0, " ", 0x0, "@", 0x0, " ", 0x0, "C", 0x0, "o", 0x0, "p"
	DCB	0x0, "y", 0x0, "S", 0x0, "c", 0x0, "r", 0x0, "e", 0x0, "e"
	DCB	0x0, "n", 0x0, "T", 0x0, "o", 0x0, "B", 0x0, "i", 0x0, "t"
	DCB	0x0, "m", 0x0, "a", 0x0, "p", 0x0, 0x0, 0x0 ; `string'

  00000			 AREA	 |.rdata|, DATA, READONLY
|??_C@_11LOCGONAA@?$AA?$AA@| DCB 0x0, 0x0		; `string'

  00000			 AREA	 |.rdata|, DATA, READONLY
|??_C@_1EG@BBLLCDEB@?$AAh?$AAS?$AAc?$AAr?$AAD?$AAC?$AA?5?$AA?$DN?$AA?5?$AAN?$AAU?$AAL?$AAL?$AA?5?$AA?$EA?$AA?5?$AAC?$AAo?$AAp?$AAy?$AAS?$AAc?$AAr?$AAe?$AAe?$AAn?$AAT?$AAo?$AAB?$AAi?$AAt?$AAm@| DCB "h"
	DCB	0x0, "S", 0x0, "c", 0x0, "r", 0x0, "D", 0x0, "C", 0x0, " "
	DCB	0x0, "=", 0x0, " ", 0x0, "N", 0x0, "U", 0x0, "L", 0x0, "L"
	DCB	0x0, " ", 0x0, "@", 0x0, " ", 0x0, "C", 0x0, "o", 0x0, "p"
	DCB	0x0, "y", 0x0, "S", 0x0, "c", 0x0, "r", 0x0, "e", 0x0, "e"
	DCB	0x0, "n", 0x0, "T", 0x0, "o", 0x0, "B", 0x0, "i", 0x0, "t"
	DCB	0x0, "m", 0x0, "a", 0x0, "p", 0x0, 0x0, 0x0 ; `string'

  00000			 AREA	 |.rdata|, DATA, READONLY
|??_C@_1BA@PICGEGJB@?$AAD?$AAI?$AAS?$AAP?$AAL?$AAA?$AAY?$AA?$AA@| DCB "D", 0x0
	DCB	"I", 0x0, "S", 0x0, "P", 0x0, "L", 0x0, "A", 0x0, "Y", 0x0
	DCB	0x0, 0x0				; `string'
; Function compile flags: /Ogspy

  00000			 AREA	 |.text|, CODE, ARM

  00000		 |?CopyScreenToBitmap@@YAPAUHBITMAP__@@PAUtagRECT@@@Z| PROC ; CopyScreenToBitmap
; Line 769
  00000		 |$LN18@CopyScreen|
  00000	e92d47f0	 stmdb       sp!, {r4 - r10, lr}
  00004	e24dd014	 sub         sp, sp, #0x14
  00008		 |$M78167|
  00008	e1a04000	 mov         r4, r0
; Line 778
  0000c	eb000000	 bl          IsRectEmpty
  00010	e3500000	 cmp         r0, #0
; Line 779
  00014	13a04000	 movne       r4, #0
  00018	1a000065	 bne         |$LN1@CopyScreen|
; Line 784
  0001c	e59f01bc	 ldr         r0, [pc, #0x1BC]
  00020	e3a03000	 mov         r3, #0
  00024	e3a02000	 mov         r2, #0
  00028	e3a01000	 mov         r1, #0
  0002c	eb000000	 bl          CreateDCW
  00030	e1b06000	 movs        r6, r0
; Line 787
  00034	059f11a0	 ldreq       r1, [pc, #0x1A0]
  00038	059f2180	 ldreq       r2, [pc, #0x180]
  0003c	03a03000	 moveq       r3, #0
  00040	03a00000	 moveq       r0, #0
  00044	0b000000	 bleq        MessageBoxW
; Line 789
  00048	e1a00006	 mov         r0, r6
  0004c	eb000000	 bl          CreateCompatibleDC
  00050	e1b05000	 movs        r5, r0
; Line 792
  00054	059f117c	 ldreq       r1, [pc, #0x17C]
  00058	059f2160	 ldreq       r2, [pc, #0x160]
  0005c	03a03000	 moveq       r3, #0
  00060	03a00000	 moveq       r0, #0
  00064	0b000000	 bleq        MessageBoxW
; Line 803
  00068	e594a000	 ldr         r10, [r4]
  0006c	e5948004	 ldr         r8, [r4, #4]
  00070	e5949008	 ldr         r9, [r4, #8]
  00074	e594400c	 ldr         r4, [r4, #0xC]
  00078	e3a01008	 mov         r1, #8
  0007c	e1a00006	 mov         r0, r6
  00080	eb000000	 bl          GetDeviceCaps
  00084	e1a07000	 mov         r7, r0
; Line 804
  00088	e1a00006	 mov         r0, r6
  0008c	e3a0100a	 mov         r1, #0xA
  00090	eb000000	 bl          GetDeviceCaps
; Line 808
  00094	e35a0000	 cmp         r10, #0
; Line 809
  00098	43a0a000	 movmi       r10, #0
; Line 810
  0009c	e3580000	 cmp         r8, #0
; Line 811
  000a0	43a08000	 movmi       r8, #0
; Line 812
  000a4	e1590007	 cmp         r9, r7
; Line 813
  000a8	c1a09007	 movgt       r9, r7
; Line 814
  000ac	e1540000	 cmp         r4, r0
; Line 815
  000b0	c1a04000	 movgt       r4, r0
; Line 818
  000b4	e0447008	 sub         r7, r4, r8
; Line 821
  000b8	e1a02007	 mov         r2, r7
  000bc	e049100a	 sub         r1, r9, r10
  000c0	e1a00006	 mov         r0, r6
  000c4	eb000000	 bl          CreateCompatibleBitmap
; Line 823
  000c8	e3550000	 cmp         r5, #0
; Line 824
  000cc	059f20ec	 ldreq       r2, [pc, #0xEC]
  000d0	059f10f4	 ldreq       r1, [pc, #0xF4]
  000d4	e1a04000	 mov         r4, r0
  000d8	03a03000	 moveq       r3, #0
  000dc	03a00000	 moveq       r0, #0
  000e0	0b000000	 bleq        MessageBoxW
; Line 827
  000e4	e1a01004	 mov         r1, r4
  000e8	e1a00005	 mov         r0, r5
  000ec	eb000000	 bl          SelectObject
  000f0	e1b04000	 movs        r4, r0
; Line 830
  000f4	059f10d8	 ldreq       r1, [pc, #0xD8]
  000f8	059f20c0	 ldreq       r2, [pc, #0xC0]
  000fc	03a03000	 moveq       r3, #0
  00100	03a00000	 moveq       r0, #0
  00104	0b000000	 bleq        MessageBoxW
  00108	e3a03733	 mov         r3, #0x33, 14
; Line 834
  0010c	e3833020	 orr         r3, r3, #0x20
  00110	e58d3010	 str         r3, [sp, #0x10]
  00114	e049300a	 sub         r3, r9, r10
  00118	e3a02000	 mov         r2, #0
  0011c	e3a01000	 mov         r1, #0
  00120	e1a00005	 mov         r0, r5
  00124	e58d800c	 str         r8, [sp, #0xC]
  00128	e58da008	 str         r10, [sp, #8]
  0012c	e58d6004	 str         r6, [sp, #4]
  00130	e58d7000	 str         r7, [sp]
  00134	eb000000	 bl          BitBlt
  00138	e3500000	 cmp         r0, #0
; Line 837
  0013c	059f108c	 ldreq       r1, [pc, #0x8C]
  00140	059f2078	 ldreq       r2, [pc, #0x78]
  00144	03a03000	 moveq       r3, #0
  00148	03a00000	 moveq       r0, #0
  0014c	0b000000	 bleq        MessageBoxW
; Line 842
  00150	e1a01004	 mov         r1, r4
  00154	e1a00005	 mov         r0, r5
  00158	eb000000	 bl          SelectObject
  0015c	e1b04000	 movs        r4, r0
; Line 845
  00160	059f2058	 ldreq       r2, [pc, #0x58]
  00164	059f1060	 ldreq       r1, [pc, #0x60]
  00168	03a03000	 moveq       r3, #0
  0016c	03a00000	 moveq       r0, #0
  00170	0b000000	 bleq        MessageBoxW
; Line 850
  00174	e1a00006	 mov         r0, r6
  00178	eb000000	 bl          DeleteDC
  0017c	e3500000	 cmp         r0, #0
; Line 851
  00180	059f1040	 ldreq       r1, [pc, #0x40]
  00184	059f2034	 ldreq       r2, [pc, #0x34]
  00188	03a03000	 moveq       r3, #0
  0018c	03a00000	 moveq       r0, #0
  00190	0b000000	 bleq        MessageBoxW
; Line 852
  00194	e1a00005	 mov         r0, r5
  00198	eb000000	 bl          DeleteDC
  0019c	e3500000	 cmp         r0, #0
; Line 853
  001a0	059f101c	 ldreq       r1, [pc, #0x1C]
  001a4	059f2014	 ldreq       r2, [pc, #0x14]
  001a8	03a03000	 moveq       r3, #0
  001ac	03a00000	 moveq       r0, #0
  001b0	0b000000	 bleq        MessageBoxW
  001b4		 |$LN1@CopyScreen|
; Line 857
  001b4	e1a00004	 mov         r0, r4
  001b8	e28dd014	 add         sp, sp, #0x14
  001bc	e8bd87f0	 ldmia       sp!, {r4 - r10, pc}
  001c0		 |$LN19@CopyScreen|
  001c0		 |$LN20@CopyScreen|
  001c0	00000000	 DCD         |??_C@_11LOCGONAA@?$AA?$AA@|
  001c4		 |$LN21@CopyScreen|
  001c4	00000000	 DCD         |??_C@_1EO@CMCENLBN@?$AAD?$AAe?$AAl?$AAe?$AAt?$AAe?$AAD?$AAC?$AA?5?$AA1?$AA?5?$AA?$DN?$AA?5?$AAN?$AAU?$AAL?$AAL?$AA?5?$AA?$EA?$AA?5?$AAC?$AAo?$AAp?$AAy?$AAS?$AAc?$AAr?$AAe?$AAe?$AAn?$AAT?$AAo@|
  001c8		 |$LN22@CopyScreen|
  001c8	00000000	 DCD         |??_C@_1EO@OGPHFFJC@?$AAD?$AAe?$AAl?$AAe?$AAt?$AAe?$AAD?$AAC?$AA?5?$AA0?$AA?5?$AA?$DN?$AA?5?$AAN?$AAU?$AAL?$AAL?$AA?5?$AA?$EA?$AA?5?$AAC?$AAo?$AAp?$AAy?$AAS?$AAc?$AAr?$AAe?$AAe?$AAn?$AAT?$AAo@|
  001cc		 |$LN23@CopyScreen|
  001cc	00000000	 DCD         |??_C@_1EI@LAONBLBL@?$AAh?$AAB?$AAi?$AAt?$AAm?$AAa?$AAp?$AA?5?$AA?$DN?$AA?5?$AAN?$AAU?$AAL?$AAL?$AA?5?$AA?$EA?$AA?5?$AAC?$AAo?$AAp?$AAy?$AAS?$AAc?$AAr?$AAe?$AAe?$AAn?$AAT?$AAo?$AAB?$AAi?$AAt@|
  001d0		 |$LN24@CopyScreen|
  001d0	00000000	 DCD         |??_C@_1EA@LDHCEFBL@?$AAb?$AAi?$AAt?$AA?5?$AA?$DN?$AA?5?$AAN?$AAU?$AAL?$AAL?$AA?5?$AA?$EA?$AA?5?$AAC?$AAo?$AAp?$AAy?$AAS?$AAc?$AAr?$AAe?$AAe?$AAn?$AAT?$AAo?$AAB?$AAi?$AAt?$AAm?$AAa?$AAp?$AA?$AA@|
  001d4		 |$LN25@CopyScreen|
  001d4	00000000	 DCD         |??_C@_1EO@LNIOFNPH@?$AAh?$AAO?$AAl?$AAd?$AAB?$AAi?$AAt?$AAm?$AAa?$AAp?$AA?5?$AA?$DN?$AA?5?$AAN?$AAU?$AAL?$AAL?$AA?5?$AA?$EA?$AA?5?$AAC?$AAo?$AAp?$AAy?$AAS?$AAc?$AAr?$AAe?$AAe?$AAn?$AAT?$AAo@|
  001d8		 |$LN26@CopyScreen|
  001d8	00000000	 DCD         |??_C@_1EG@KGKIIMGC@?$AAh?$AAM?$AAe?$AAm?$AAD?$AAC?$AA?5?$AA?$DN?$AA?5?$AAN?$AAU?$AAL?$AAL?$AA?5?$AA?$EA?$AA?5?$AAC?$AAo?$AAp?$AAy?$AAS?$AAc?$AAr?$AAe?$AAe?$AAn?$AAT?$AAo?$AAB?$AAi?$AAt?$AAm@|
  001dc		 |$LN27@CopyScreen|
  001dc	00000000	 DCD         |??_C@_1EG@BBLLCDEB@?$AAh?$AAS?$AAc?$AAr?$AAD?$AAC?$AA?5?$AA?$DN?$AA?5?$AAN?$AAU?$AAL?$AAL?$AA?5?$AA?$EA?$AA?5?$AAC?$AAo?$AAp?$AAy?$AAS?$AAc?$AAr?$AAe?$AAe?$AAn?$AAT?$AAo?$AAB?$AAi?$AAt?$AAm@|
  001e0		 |$LN28@CopyScreen|
  001e0	00000000	 DCD         |??_C@_1BA@PICGEGJB@?$AAD?$AAI?$AAS?$AAP?$AAL?$AAA?$AAY?$AA?$AA@|
  001e4		 |$M78168|

			 ENDP  ; |?CopyScreenToBitmap@@YAPAUHBITMAP__@@PAUtagRECT@@@Z|, CopyScreenToBitmap

	EXPORT	|?QueryPerformanceCounter7@CMangoClass@@UAAJPA_K@Z| ; CMangoClass::QueryPerformanceCounter7
	IMPORT	|QueryPerformanceCounter|

  00000			 AREA	 |.pdata|, PDATA
|$T78191| DCD	|$LN5@QueryPerfo|
	DCD	0x40000f02
; Function compile flags: /Ogspy

  00000			 AREA	 |.text|, CODE, ARM

  00000		 |?QueryPerformanceCounter7@CMangoClass@@UAAJPA_K@Z| PROC ; CMangoClass::QueryPerformanceCounter7
; Line 901
  00000		 |$LN5@QueryPerfo|
  00000	e92d4010	 stmdb       sp!, {r4, lr}
  00004	e24dd008	 sub         sp, sp, #8
  00008		 |$M78188|
  00008	e1a04001	 mov         r4, r1
; Line 904
  0000c	e3a03000	 mov         r3, #0
  00010	e3a02000	 mov         r2, #0
; Line 905
  00014	e28d0000	 add         r0, sp, #0
  00018	e58d3000	 str         r3, [sp]
  0001c	e58d2004	 str         r2, [sp, #4]
  00020	eb000000	 bl          QueryPerformanceCounter
; Line 906
  00024	e59d3000	 ldr         r3, [sp]
  00028	e59d2004	 ldr         r2, [sp, #4]
  0002c	e5843000	 str         r3, [r4]
  00030	e5842004	 str         r2, [r4, #4]
; Line 910
  00034	e28dd008	 add         sp, sp, #8
  00038	e8bd8010	 ldmia       sp!, {r4, pc}
  0003c		 |$M78189|

			 ENDP  ; |?QueryPerformanceCounter7@CMangoClass@@UAAJPA_K@Z|, CMangoClass::QueryPerformanceCounter7

	EXPORT	|?SetWindowsHookExW@CMangoClass@@UAAJHH@Z| ; CMangoClass::SetWindowsHookExW

  00000			 AREA	 |.pdata|, PDATA
|$T78200| DCD	|$LN5@SetWindows|
	DCD	0x40000200
; Function compile flags: /Ogspy

  00000			 AREA	 |.text|, CODE, ARM

  00000		 |?SetWindowsHookExW@CMangoClass@@UAAJHH@Z| PROC ; CMangoClass::SetWindowsHookExW
; Line 926
  00000		 |$LN5@SetWindows|
  00000		 |$M78197|
; Line 927
  00000	e3a00000	 mov         r0, #0
; Line 929
  00004	e1a0f00e	 mov         pc, lr
  00008		 |$M78198|

			 ENDP  ; |?SetWindowsHookExW@CMangoClass@@UAAJHH@Z|, CMangoClass::SetWindowsHookExW

	EXPORT	|?ShellExecuteEx7@CMangoClass@@UAAJPA_W0@Z| ; CMangoClass::ShellExecuteEx7
	EXPORT	|??_C@_19BDAJEHDN@?$AAo?$AAp?$AAe?$AAn?$AA?$AA@| [ DATA ] ; `string'
	IMPORT	|GetLastError|
	IMPORT	|ShellExecuteEx|

  00000			 AREA	 |.pdata|, PDATA
|$T78210| DCD	|$LN6@ShellExecu|
	DCD	0x40002302

  00000			 AREA	 |.rdata|, DATA, READONLY
|??_C@_19BDAJEHDN@?$AAo?$AAp?$AAe?$AAn?$AA?$AA@| DCB "o", 0x0, "p", 0x0, "e"
	DCB	0x0, "n", 0x0, 0x0, 0x0			; `string'
; Function compile flags: /Ogspy

  00000			 AREA	 |.text|, CODE, ARM

  00000		 |?ShellExecuteEx7@CMangoClass@@UAAJPA_W0@Z| PROC ; CMangoClass::ShellExecuteEx7
; Line 932
  00000		 |$LN6@ShellExecu|
  00000	e92d40f0	 stmdb       sp!, {r4 - r7, lr}
  00004	e24dd03c	 sub         sp, sp, #0x3C
  00008		 |$M78207|
  00008	e1a04001	 mov         r4, r1
; Line 944
  0000c	e3a0203c	 mov         r2, #0x3C
  00010	e3a01000	 mov         r1, #0
  00014	e28d0000	 add         r0, sp, #0
  00018	eb000000	 bl          memset
; Line 948
  0001c	e59f3064	 ldr         r3, [pc, #0x64]
; Line 950
  00020	e59f205c	 ldr         r2, [pc, #0x5C]
  00024	e3a0103c	 mov         r1, #0x3C
; Line 951
  00028	e3a0e006	 mov         lr, #6
; Line 952
  0002c	e3a05000	 mov         r5, #0
; Line 953
  00030	e3a06000	 mov         r6, #0
; Line 954
  00034	e3a07000	 mov         r7, #0
; Line 956
  00038	e28d0000	 add         r0, sp, #0
  0003c	e58d3014	 str         r3, [sp, #0x14]
  00040	e58d3018	 str         r3, [sp, #0x18]
  00044	e58d200c	 str         r2, [sp, #0xC]
  00048	e58d1000	 str         r1, [sp]
  0004c	e58d4010	 str         r4, [sp, #0x10]
  00050	e58de01c	 str         lr, [sp, #0x1C]
  00054	e58d5004	 str         r5, [sp, #4]
  00058	e58d6008	 str         r6, [sp, #8]
  0005c	e58d7020	 str         r7, [sp, #0x20]
  00060	eb000000	 bl          ShellExecuteEx
  00064	e3500000	 cmp         r0, #0
  00068	1a000002	 bne         |$LN1@ShellExecu|
; Line 958
  0006c	eb000000	 bl          GetLastError
; Line 966
  00070	e28dd03c	 add         sp, sp, #0x3C
  00074	e8bd80f0	 ldmia       sp!, {r4 - r7, pc}
  00078		 |$LN1@ShellExecu|
; Line 963
  00078	e3a00000	 mov         r0, #0
; Line 966
  0007c	e28dd03c	 add         sp, sp, #0x3C
  00080	e8bd80f0	 ldmia       sp!, {r4 - r7, pc}
  00084		 |$LN7@ShellExecu|
  00084		 |$LN8@ShellExecu|
  00084	00000000	 DCD         |??_C@_19BDAJEHDN@?$AAo?$AAp?$AAe?$AAn?$AA?$AA@|
  00088		 |$LN9@ShellExecu|
  00088	00000000	 DCD         |??_C@_11LOCGONAA@?$AA?$AA@|
  0008c		 |$M78208|

			 ENDP  ; |?ShellExecuteEx7@CMangoClass@@UAAJPA_W0@Z|, CMangoClass::ShellExecuteEx7

	EXPORT	|?CreateProcess7@CMangoClass@@UAAJPA_W0@Z| ; CMangoClass::CreateProcess7
	IMPORT	|CreateProcessW|

  00000			 AREA	 |.pdata|, PDATA
|$T78223| DCD	|$LN6@CreateProc|
	DCD	0x40002402
; Function compile flags: /Ogspy

  00000			 AREA	 |.text|, CODE, ARM

  00000		 |?CreateProcess7@CMangoClass@@UAAJPA_W0@Z| PROC ; CMangoClass::CreateProcess7
; Line 969
  00000		 |$LN6@CreateProc|
  00000	e92d40f0	 stmdb       sp!, {r4 - r7, lr}
  00004	e24dd06c	 sub         sp, sp, #0x6C
  00008		 |$M78220|
  00008	e1a05001	 mov         r5, r1
; Line 973
  0000c	e3a02044	 mov         r2, #0x44
  00010	e3a01000	 mov         r1, #0
  00014	e28d0028	 add         r0, sp, #0x28
  00018	eb000000	 bl          memset
; Line 974
  0001c	e3a03000	 mov         r3, #0
  00020	e58d3018	 str         r3, [sp, #0x18]
  00024	e58d301c	 str         r3, [sp, #0x1C]
  00028	e58d3020	 str         r3, [sp, #0x20]
; Line 978
  0002c	e58d3024	 str         r3, [sp, #0x24]
  00030	e3a06044	 mov         r6, #0x44
  00034	e28de018	 add         lr, sp, #0x18
  00038	e28d4028	 add         r4, sp, #0x28
  0003c	e3a07000	 mov         r7, #0
  00040	e3a03000	 mov         r3, #0
  00044	e3a02000	 mov         r2, #0
  00048	e3a01000	 mov         r1, #0
  0004c	e1a00005	 mov         r0, r5
  00050	e58d6028	 str         r6, [sp, #0x28]
  00054	e58de014	 str         lr, [sp, #0x14]
  00058	e58d4010	 str         r4, [sp, #0x10]
  0005c	e58d700c	 str         r7, [sp, #0xC]
  00060	e58d7008	 str         r7, [sp, #8]
  00064	e58d7004	 str         r7, [sp, #4]
  00068	e58d7000	 str         r7, [sp]
  0006c	eb000000	 bl          CreateProcessW
  00070	e3500000	 cmp         r0, #0
; Line 992
  00074	1a000002	 bne         |$LN1@CreateProc|
; Line 994
  00078	eb000000	 bl          GetLastError
; Line 999
  0007c	e28dd06c	 add         sp, sp, #0x6C
  00080	e8bd80f0	 ldmia       sp!, {r4 - r7, pc}
  00084		 |$LN1@CreateProc|
; Line 998
  00084	e3a00000	 mov         r0, #0
; Line 999
  00088	e28dd06c	 add         sp, sp, #0x6C
  0008c	e8bd80f0	 ldmia       sp!, {r4 - r7, pc}
  00090		 |$M78221|

			 ENDP  ; |?CreateProcess7@CMangoClass@@UAAJPA_W0@Z|, CMangoClass::CreateProcess7

	EXPORT	|?GetProcessTimes7@CMangoClass@@UAAJHPAH0000000@Z| ; CMangoClass::GetProcessTimes7
	EXPORT	|??_C@_1BA@HMFMEPIE@?$AAc?$AAo?$AAr?$AAe?$AAd?$AAl?$AAl?$AA?$AA@| [ DATA ] ; `string'
	EXPORT	|??_C@_1CA@EMMAOOIN@?$AAG?$AAe?$AAt?$AAP?$AAr?$AAo?$AAc?$AAe?$AAs?$AAs?$AAT?$AAi?$AAm?$AAe?$AAs?$AA?$AA@| [ DATA ] ; `string'

  00000			 AREA	 |.pdata|, PDATA
|$T78238| DCD	|$LN5@GetProcess|
	DCD	0x40002c02

  00000			 AREA	 |.rdata|, DATA, READONLY
|??_C@_1BA@HMFMEPIE@?$AAc?$AAo?$AAr?$AAe?$AAd?$AAl?$AAl?$AA?$AA@| DCB "c", 0x0
	DCB	"o", 0x0, "r", 0x0, "e", 0x0, "d", 0x0, "l", 0x0, "l", 0x0
	DCB	0x0, 0x0				; `string'

  00000			 AREA	 |.rdata|, DATA, READONLY
|??_C@_1CA@EMMAOOIN@?$AAG?$AAe?$AAt?$AAP?$AAr?$AAo?$AAc?$AAe?$AAs?$AAs?$AAT?$AAi?$AAm?$AAe?$AAs?$AA?$AA@| DCB "G"
	DCB	0x0, "e", 0x0, "t", 0x0, "P", 0x0, "r", 0x0, "o", 0x0, "c"
	DCB	0x0, "e", 0x0, "s", 0x0, "s", 0x0, "T", 0x0, "i", 0x0, "m"
	DCB	0x0, "e", 0x0, "s", 0x0, 0x0, 0x0	; `string'
; Function compile flags: /Ogspy

  00000			 AREA	 |.text|, CODE, ARM

  00000		 |?GetProcessTimes7@CMangoClass@@UAAJHPAH0000000@Z| PROC ; CMangoClass::GetProcessTimes7
; Line 1027
  00000		 |$LN5@GetProcess|
  00000	e92d4ff0	 stmdb       sp!, {r4 - r11, lr}
  00004	e24dd024	 sub         sp, sp, #0x24
  00008		 |$M78235|
  00008	e1a0b003	 mov         r11, r3
  0000c	e1a08002	 mov         r8, r2
  00010	e1a06001	 mov         r6, r1
; Line 1028
  00014	e59f0090	 ldr         r0, [pc, #0x90]
  00018	eb000000	 bl          LoadLibraryW
; Line 1030
  0001c	e59f1084	 ldr         r1, [pc, #0x84]
  00020	eb000000	 bl          GetProcAddressW
; Line 1037
  00024	e28d401c	 add         r4, sp, #0x1C
  00028	e1a05000	 mov         r5, r0
  0002c	e1a00006	 mov         r0, r6
  00030	e58d4000	 str         r4, [sp]
  00034	e28d3014	 add         r3, sp, #0x14
  00038	e28d200c	 add         r2, sp, #0xC
  0003c	e28d1004	 add         r1, sp, #4
  00040	e1a0e00f	 mov         lr, pc
  00044	e1a0f005	 mov         pc, r5
; Line 1039
  00048	e59d1004	 ldr         r1, [sp, #4]
; Line 1040
  0004c	e59de008	 ldr         lr, [sp, #8]
; Line 1042
  00050	e59d6048	 ldr         r6, [sp, #0x48]
  00054	e59d400c	 ldr         r4, [sp, #0xC]
; Line 1043
  00058	e59d904c	 ldr         r9, [sp, #0x4C]
  0005c	e59d7010	 ldr         r7, [sp, #0x10]
; Line 1045
  00060	e59da050	 ldr         r10, [sp, #0x50]
  00064	e5881000	 str         r1, [r8]
  00068	e59d8014	 ldr         r8, [sp, #0x14]
; Line 1046
  0006c	e59d5054	 ldr         r5, [sp, #0x54]
  00070	e58be000	 str         lr, [r11]
  00074	e59de018	 ldr         lr, [sp, #0x18]
; Line 1048
  00078	e59d101c	 ldr         r1, [sp, #0x1C]
  0007c	e5864000	 str         r4, [r6]
  00080	e59d4058	 ldr         r4, [sp, #0x58]
; Line 1049
  00084	e59d205c	 ldr         r2, [sp, #0x5C]
  00088	e59d3020	 ldr         r3, [sp, #0x20]
  0008c	e5897000	 str         r7, [r9]
  00090	e58a8000	 str         r8, [r10]
  00094	e585e000	 str         lr, [r5]
  00098	e5841000	 str         r1, [r4]
  0009c	e5823000	 str         r3, [r2]
; Line 1052
  000a0	e28dd024	 add         sp, sp, #0x24
  000a4	e8bd8ff0	 ldmia       sp!, {r4 - r11, pc}
  000a8		 |$LN6@GetProcess|
  000a8		 |$LN7@GetProcess|
  000a8	00000000	 DCD         |??_C@_1CA@EMMAOOIN@?$AAG?$AAe?$AAt?$AAP?$AAr?$AAo?$AAc?$AAe?$AAs?$AAs?$AAT?$AAi?$AAm?$AAe?$AAs?$AA?$AA@|
  000ac		 |$LN8@GetProcess|
  000ac	00000000	 DCD         |??_C@_1BA@HMFMEPIE@?$AAc?$AAo?$AAr?$AAe?$AAd?$AAl?$AAl?$AA?$AA@|
  000b0		 |$M78236|

			 ENDP  ; |?GetProcessTimes7@CMangoClass@@UAAJHPAH0000000@Z|, CMangoClass::GetProcessTimes7

	EXPORT	|?NavigateToExternalPage7@CMangoClass@@UAAJHPA_WHH@Z| ; CMangoClass::NavigateToExternalPage7
	EXPORT	|??_C@_1M@BFCKBOEN@?$AAf?$AAr?$AAa?$AAm?$AAe?$AA?$AA@| [ DATA ] ; `string'
	EXPORT	|??_C@_1DG@GOIGEDHG@?$AAS?$AAH?$AAP?$AAM?$AAN?$AAa?$AAv?$AAi?$AAg?$AAa?$AAt?$AAe?$AAT?$AAo?$AAE?$AAx?$AAt?$AAe?$AAr?$AAn?$AAa?$AAl?$AAP?$AAa?$AAg?$AAe?$AA?$AA@| [ DATA ] ; `string'

  00000			 AREA	 |.pdata|, PDATA
|$T78255| DCD	|$LN5@NavigateTo|
	DCD	0x40001602

  00000			 AREA	 |.rdata|, DATA, READONLY
|??_C@_1M@BFCKBOEN@?$AAf?$AAr?$AAa?$AAm?$AAe?$AA?$AA@| DCB "f", 0x0, "r", 0x0
	DCB	"a", 0x0, "m", 0x0, "e", 0x0, 0x0, 0x0	; `string'

  00000			 AREA	 |.rdata|, DATA, READONLY
|??_C@_1DG@GOIGEDHG@?$AAS?$AAH?$AAP?$AAM?$AAN?$AAa?$AAv?$AAi?$AAg?$AAa?$AAt?$AAe?$AAT?$AAo?$AAE?$AAx?$AAt?$AAe?$AAr?$AAn?$AAa?$AAl?$AAP?$AAa?$AAg?$AAe?$AA?$AA@| DCB "S"
	DCB	0x0, "H", 0x0, "P", 0x0, "M", 0x0, "N", 0x0, "a", 0x0, "v"
	DCB	0x0, "i", 0x0, "g", 0x0, "a", 0x0, "t", 0x0, "e", 0x0, "T"
	DCB	0x0, "o", 0x0, "E", 0x0, "x", 0x0, "t", 0x0, "e", 0x0, "r"
	DCB	0x0, "n", 0x0, "a", 0x0, "l", 0x0, "P", 0x0, "a", 0x0, "g"
	DCB	0x0, "e", 0x0, 0x0, 0x0			; `string'
; Function compile flags: /Ogspy

  00000			 AREA	 |.text|, CODE, ARM

  00000		 |?NavigateToExternalPage7@CMangoClass@@UAAJHPA_WHH@Z| PROC ; CMangoClass::NavigateToExternalPage7
; Line 1069
  00000		 |$LN5@NavigateTo|
  00000	e92d40f0	 stmdb       sp!, {r4 - r7, lr}
  00004	e24dd008	 sub         sp, sp, #8
  00008		 |$M78252|
  00008	e1a05003	 mov         r5, r3
  0000c	e1a06002	 mov         r6, r2
  00010	e1a07001	 mov         r7, r1
; Line 1072
  00014	e59f0038	 ldr         r0, [pc, #0x38]
  00018	eb000000	 bl          LoadLibraryW
; Line 1074
  0001c	e59f102c	 ldr         r1, [pc, #0x2C]
  00020	eb000000	 bl          GetProcAddressW
; Line 1077
  00024	e59de01c	 ldr         lr, [sp, #0x1C]
  00028	e1a04000	 mov         r4, r0
  0002c	e28d3004	 add         r3, sp, #4
  00030	e58de000	 str         lr, [sp]
  00034	e1a02005	 mov         r2, r5
  00038	e1a01006	 mov         r1, r6
  0003c	e1a00007	 mov         r0, r7
  00040	e1a0e00f	 mov         lr, pc
  00044	e1a0f004	 mov         pc, r4
; Line 1078
  00048	e28dd008	 add         sp, sp, #8
  0004c	e8bd80f0	 ldmia       sp!, {r4 - r7, pc}
  00050		 |$LN6@NavigateTo|
  00050		 |$LN7@NavigateTo|
  00050	00000000	 DCD         |??_C@_1DG@GOIGEDHG@?$AAS?$AAH?$AAP?$AAM?$AAN?$AAa?$AAv?$AAi?$AAg?$AAa?$AAt?$AAe?$AAT?$AAo?$AAE?$AAx?$AAt?$AAe?$AAr?$AAn?$AAa?$AAl?$AAP?$AAa?$AAg?$AAe?$AA?$AA@|
  00054		 |$LN8@NavigateTo|
  00054	00000000	 DCD         |??_C@_1M@BFCKBOEN@?$AAf?$AAr?$AAa?$AAm?$AAe?$AA?$AA@|
  00058		 |$M78253|

			 ENDP  ; |?NavigateToExternalPage7@CMangoClass@@UAAJHPA_WHH@Z|, CMangoClass::NavigateToExternalPage7

	EXPORT	|??0CComCriticalSection@ATL@@QAA@XZ|	; ATL::CComCriticalSection::CComCriticalSection
; File c:\program files (x86)\microsoft visual studio 9.0\vc\ce\atlmfc\include\atlcore.h

  00000			 AREA	 |.pdata|, PDATA
|$T78268| DCD	|$LN5@CComCritic|
	DCD	0x40000701
; Function compile flags: /Ogspy

  00000			 AREA	 |.text|, CODE, ARM

  00000		 |??0CComCriticalSection@ATL@@QAA@XZ| PROC ; ATL::CComCriticalSection::CComCriticalSection
; Line 159
  00000		 |$LN5@CComCritic|
  00000	e92d4010	 stmdb       sp!, {r4, lr}
  00004		 |$M78265|
  00004	e1a04000	 mov         r4, r0
; Line 161
  00008	e3a02014	 mov         r2, #0x14
  0000c	e3a01000	 mov         r1, #0
  00010	eb000000	 bl          memset
; Line 162
  00014	e1a00004	 mov         r0, r4
  00018	e8bd8010	 ldmia       sp!, {r4, pc}
  0001c		 |$M78266|

			 ENDP  ; |??0CComCriticalSection@ATL@@QAA@XZ|, ATL::CComCriticalSection::CComCriticalSection

	EXPORT	|?MessageBox7@CMangoClass@@UAAJPB_W0IPAH@Z| ; CMangoClass::MessageBox7
; File c:\users\steven\desktop\csharp - dllimport\csharp - dllimport\vs2008\dllimportmango\mangoclass.cpp

  00000			 AREA	 |.pdata|, PDATA
|$T78283| DCD	|$LN7@MessageBox|
	DCD	0x40000901
; Function compile flags: /Ogspy

  00000			 AREA	 |.text|, CODE, ARM

  00000		 |?MessageBox7@CMangoClass@@UAAJPB_W0IPAH@Z| PROC ; CMangoClass::MessageBox7
; Line 1081
  00000		 |$LN7@MessageBox|
  00000	e52de004	 str         lr, [sp, #-4]!
  00004		 |$M78280|
; Line 1082
  00004	e3a00000	 mov         r0, #0
  00008	eb000000	 bl          MessageBoxW
; Line 1083
  0000c	e59d3004	 ldr         r3, [sp, #4]
  00010	e3500000	 cmp         r0, #0
  00014	e5830000	 str         r0, [r3]
; Line 1085
  00018	13a00000	 movne       r0, #0
  0001c	03a00001	 moveq       r0, #1
; Line 1086
  00020	e49df004	 ldr         pc, [sp], #4
  00024		 |$M78281|

			 ENDP  ; |?MessageBox7@CMangoClass@@UAAJPB_W0IPAH@Z|, CMangoClass::MessageBox7

	EXPORT	|??1CComCriticalSection@ATL@@QAA@XZ|	; ATL::CComCriticalSection::~CComCriticalSection
; File c:\program files (x86)\microsoft visual studio 9.0\vc\ce\atlmfc\include\atlcore.h

  00000			 AREA	 |.pdata|, PDATA
|$T78290| DCD	|$LN5@CComCritic@2|
	DCD	0x40000100
; Function compile flags: /Ogspy

  00000			 AREA	 |.text|, CODE, ARM

  00000		 |??1CComCriticalSection@ATL@@QAA@XZ| PROC ; ATL::CComCriticalSection::~CComCriticalSection
; Line 164
  00000		 |$LN5@CComCritic@2|
  00000		 |$M78287|
; Line 165
  00000	e1a0f00e	 mov         pc, lr
  00004		 |$M78288|

			 ENDP  ; |??1CComCriticalSection@ATL@@QAA@XZ|, ATL::CComCriticalSection::~CComCriticalSection

	EXPORT	|?Lock@CComCriticalSection@ATL@@QAAJXZ|	; ATL::CComCriticalSection::Lock
	IMPORT	|EnterCriticalSection|

  00000			 AREA	 |.pdata|, PDATA
|$T78300| DCD	|$LN5@Lock|
	DCD	0x40000401
; Function compile flags: /Ogspy

  00000			 AREA	 |.text|, CODE, ARM

  00000		 |?Lock@CComCriticalSection@ATL@@QAAJXZ| PROC ; ATL::CComCriticalSection::Lock
; Line 167
  00000		 |$LN5@Lock|
  00000	e52de004	 str         lr, [sp, #-4]!
  00004		 |$M78297|
; Line 168
  00004	eb000000	 bl          EnterCriticalSection
; Line 169
  00008	e3a00000	 mov         r0, #0
; Line 170
  0000c	e49df004	 ldr         pc, [sp], #4
  00010		 |$M78298|

			 ENDP  ; |?Lock@CComCriticalSection@ATL@@QAAJXZ|, ATL::CComCriticalSection::Lock

	EXPORT	|?ShutdownOS@CMangoClass@@UAAJI@Z|	; CMangoClass::ShutdownOS
	IMPORT	|ExitWindowsEx|
; File c:\users\steven\desktop\csharp - dllimport\csharp - dllimport\vs2008\dllimportmango\mangoclass.cpp

  00000			 AREA	 |.pdata|, PDATA
|$T78310| DCD	|$LN5@ShutdownOS|
	DCD	0x40000300
; Function compile flags: /Ogspy

  00000			 AREA	 |.text|, CODE, ARM

  00000		 |?ShutdownOS@CMangoClass@@UAAJI@Z| PROC ; CMangoClass::ShutdownOS
; Line 1089
  00000		 |$LN5@ShutdownOS|
  00000		 |$M78307|
  00000	e1a00001	 mov         r0, r1
; Line 1090
  00004	e3a01000	 mov         r1, #0
  00008	ea000000	 b           ExitWindowsEx
  0000c		 |$M78308|

			 ENDP  ; |?ShutdownOS@CMangoClass@@UAAJI@Z|, CMangoClass::ShutdownOS

	EXPORT	|?Unlock@CComCriticalSection@ATL@@QAAJXZ| ; ATL::CComCriticalSection::Unlock
	IMPORT	|LeaveCriticalSection|
; File c:\program files (x86)\microsoft visual studio 9.0\vc\ce\atlmfc\include\atlcore.h

  00000			 AREA	 |.pdata|, PDATA
|$T78320| DCD	|$LN5@Unlock|
	DCD	0x40000401
; Function compile flags: /Ogspy

  00000			 AREA	 |.text|, CODE, ARM

  00000		 |?Unlock@CComCriticalSection@ATL@@QAAJXZ| PROC ; ATL::CComCriticalSection::Unlock
; Line 172
  00000		 |$LN5@Unlock|
  00000	e52de004	 str         lr, [sp, #-4]!
  00004		 |$M78317|
; Line 173
  00004	eb000000	 bl          LeaveCriticalSection
; Line 174
  00008	e3a00000	 mov         r0, #0
; Line 175
  0000c	e49df004	 ldr         pc, [sp], #4
  00010		 |$M78318|

			 ENDP  ; |?Unlock@CComCriticalSection@ATL@@QAAJXZ|, ATL::CComCriticalSection::Unlock

	EXPORT	|?CeCreateProcessEx@CMangoClass@@UAAJXZ| ; CMangoClass::CeCreateProcessEx
	EXPORT	|??_C@_1CE@PDGLBPEI@?$AAC?$AAe?$AAC?$AAr?$AAe?$AAa?$AAt?$AAe?$AAP?$AAr?$AAo?$AAc?$AAe?$AAs?$AAs?$AAE?$AAx?$AA?$AA@| [ DATA ] ; `string'
	EXPORT	|??_C@_1BE@FEGGJJAD@?$AAc?$AAa?$AAl?$AAc?$AA7?$AA?4?$AAe?$AAx?$AAe?$AA?$AA@| [ DATA ] ; `string'
; File c:\users\steven\desktop\csharp - dllimport\csharp - dllimport\vs2008\dllimportmango\mangoclass.cpp

  00000			 AREA	 |.pdata|, PDATA
|$T78331| DCD	|$LN5@CeCreatePr|
	DCD	0x40002902

  00000			 AREA	 |.rdata|, DATA, READONLY
|??_C@_1CE@PDGLBPEI@?$AAC?$AAe?$AAC?$AAr?$AAe?$AAa?$AAt?$AAe?$AAP?$AAr?$AAo?$AAc?$AAe?$AAs?$AAs?$AAE?$AAx?$AA?$AA@| DCB "C"
	DCB	0x0, "e", 0x0, "C", 0x0, "r", 0x0, "e", 0x0, "a", 0x0, "t"
	DCB	0x0, "e", 0x0, "P", 0x0, "r", 0x0, "o", 0x0, "c", 0x0, "e"
	DCB	0x0, "s", 0x0, "s", 0x0, "E", 0x0, "x", 0x0, 0x0, 0x0 ; `string'

  00000			 AREA	 |.rdata|, DATA, READONLY
|??_C@_1BE@FEGGJJAD@?$AAc?$AAa?$AAl?$AAc?$AA7?$AA?4?$AAe?$AAx?$AAe?$AA?$AA@| DCB "c"
	DCB	0x0, "a", 0x0, "l", 0x0, "c", 0x0, "7", 0x0, ".", 0x0, "e"
	DCB	0x0, "x", 0x0, "e", 0x0, 0x0, 0x0	; `string'
; Function compile flags: /Ogspy

  00000			 AREA	 |.text|, CODE, ARM

  00000		 |?CeCreateProcessEx@CMangoClass@@UAAJXZ| PROC ; CMangoClass::CeCreateProcessEx
; Line 1107
  00000		 |$LN5@CeCreatePr|
  00000	e92d40f0	 stmdb       sp!, {r4 - r7, lr}
  00004	e24dd06c	 sub         sp, sp, #0x6C
  00008		 |$M78328|
; Line 1108
  00008	e59f0090	 ldr         r0, [pc, #0x90]
  0000c	eb000000	 bl          LoadLibraryW
  00010	e1a04000	 mov         r4, r0
; Line 1113
  00014	e28d0028	 add         r0, sp, #0x28
  00018	e3a02044	 mov         r2, #0x44
  0001c	e3a01000	 mov         r1, #0
  00020	eb000000	 bl          memset
; Line 1118
  00024	e59f1070	 ldr         r1, [pc, #0x70]
  00028	e3a02000	 mov         r2, #0
  0002c	e3a03044	 mov         r3, #0x44
  00030	e1a00004	 mov         r0, r4
  00034	e58d2018	 str         r2, [sp, #0x18]
  00038	e58d201c	 str         r2, [sp, #0x1C]
  0003c	e58d2020	 str         r2, [sp, #0x20]
  00040	e58d2024	 str         r2, [sp, #0x24]
  00044	e58d3028	 str         r3, [sp, #0x28]
  00048	eb000000	 bl          GetProcAddressW
; Line 1120
  0004c	e28d4018	 add         r4, sp, #0x18
  00050	e28d5028	 add         r5, sp, #0x28
  00054	e3a07000	 mov         r7, #0
  00058	e59f1038	 ldr         r1, [pc, #0x38]
  0005c	e1a06000	 mov         r6, r0
  00060	e59f002c	 ldr         r0, [pc, #0x2C]
  00064	e58d4014	 str         r4, [sp, #0x14]
  00068	e58d5010	 str         r5, [sp, #0x10]
  0006c	e58d700c	 str         r7, [sp, #0xC]
  00070	e58d7008	 str         r7, [sp, #8]
  00074	e58d7004	 str         r7, [sp, #4]
  00078	e58d7000	 str         r7, [sp]
  0007c	e3a03000	 mov         r3, #0
  00080	e3a02000	 mov         r2, #0
  00084	e1a0e00f	 mov         lr, pc
  00088	e1a0f006	 mov         pc, r6
; Line 1122
  0008c	e28dd06c	 add         sp, sp, #0x6C
  00090	e8bd80f0	 ldmia       sp!, {r4 - r7, pc}
  00094		 |$LN6@CeCreatePr|
  00094		 |$LN7@CeCreatePr|
  00094	00000000	 DCD         |??_C@_1BE@FEGGJJAD@?$AAc?$AAa?$AAl?$AAc?$AA7?$AA?4?$AAe?$AAx?$AAe?$AA?$AA@|
  00098		 |$LN8@CeCreatePr|
  00098	00000000	 DCD         |??_C@_11LOCGONAA@?$AA?$AA@|
  0009c		 |$LN9@CeCreatePr|
  0009c	00000000	 DCD         |??_C@_1CE@PDGLBPEI@?$AAC?$AAe?$AAC?$AAr?$AAe?$AAa?$AAt?$AAe?$AAP?$AAr?$AAo?$AAc?$AAe?$AAs?$AAs?$AAE?$AAx?$AA?$AA@|
  000a0		 |$LN10@CeCreatePr|
  000a0	00000000	 DCD         |??_C@_1BA@HMFMEPIE@?$AAc?$AAo?$AAr?$AAe?$AAd?$AAl?$AAl?$AA?$AA@|
  000a4		 |$M78329|

			 ENDP  ; |?CeCreateProcessEx@CMangoClass@@UAAJXZ|, CMangoClass::CeCreateProcessEx

	EXPORT	|?Init@CComCriticalSection@ATL@@QAAJXZ|	; ATL::CComCriticalSection::Init
	IMPORT	|InitializeCriticalSection|
	IMPORT	|__C_specific_handler|
; File c:\program files (x86)\microsoft visual studio 9.0\vc\ce\atlmfc\include\atlcore.h

  00000			 AREA	 |.pdata|, PDATA
|$T78364| DCD	|$LN19@Init|
	DCD	0xc0000f04

  00000			 AREA	 |.pdata|, PDATA
|$T78366| DCD	|$LN7@Init|
	DCD	0x40000701

  00000			 AREA	 |.xdata|, DATA
|$T78362| DCD	0x1
	DCD	|$LN11@Init|
	DCD	|$LN12@Init|
	DCD	|$LN7@Init|
	DCD	|$LN8@Init|
; Function compile flags: /Ogspy

  00000			 AREA	 |.text|, CODE, ARM

  00000	00000000	 DCD         |__C_specific_handler|
  00004	00000000	 DCD         |$T78362|

  00008		 |?Init@CComCriticalSection@ATL@@QAAJXZ| PROC ; ATL::CComCriticalSection::Init
; Line 177
  00008		 |$LN19@Init|
  00008	e1a0c00d	 mov         r12, sp
  0000c	e92d5800	 stmdb       sp!, {r11, r12, lr}
  00010	e28db00c	 add         r11, sp, #0xC
  00014	e24dd008	 sub         sp, sp, #8
  00018		 |$LN17@Init|
  00018		 |$LN11@Init|
; Line 181
  00018	eb000000	 bl          InitializeCriticalSection
; Line 182
  0001c	e3a00000	 mov         r0, #0
  00020	e50b0014	 str         r0, [r11, #-0x14]
  00024		 |$LN12@Init|
; Line 183
  00024	ea000004	 b           |$LN2@Init|
  00028		 |$LN8@Init|
; Line 185
  00028	e3a0313a	 mov         r3, #0x3A, 2
; Line 187
  0002c	e3830807	 orr         r0, r3, #7, 16	; 458752 (0x70000)
  00030	e50b0014	 str         r0, [r11, #-0x14]
  00034	ea000000	 b           |$LN2@Init|
  00038		 |$LN16@Init|
; Line 189
  00038	e51b0010	 ldr         r0, [r11, #-0x10]
  0003c		 |$LN2@Init|
; Line 190
  0003c	e24bd00c	 sub         sp, r11, #0xC
  00040	e89da800	 ldmia       sp, {r11, sp, pc}

			 ENDP  ; |?Init@CComCriticalSection@ATL@@QAAJXZ|, ATL::CComCriticalSection::Init

  00044		 |$LN7@Init|
  00044		 |$LN18@Init|
; Line 185
  00044	e52de004	 str         lr, [sp, #-4]!
  00048		 |$LN10@Init|
  00048		 |$LN21@Init|
  00048	e5903000	 ldr         r3, [r0]
  0004c	e5933000	 ldr         r3, [r3]
  00050	e353015f	 cmp         r3, #0x5F, 2	; -1073741801 (0xc0000017)
  00054	03a00001	 moveq       r0, #1
  00058	13a00000	 movne       r0, #0
  0005c		 |$LN9@Init|
  0005c	e49df004	 ldr         pc, [sp], #4
  00060		 |$LN22@Init|
  00060		 |$LN20@Init|
	EXPORT	|?Term@CComCriticalSection@ATL@@QAAJXZ|	; ATL::CComCriticalSection::Term
	IMPORT	|DeleteCriticalSection|

  00000			 AREA	 |.pdata|, PDATA
|$T78380| DCD	|$LN5@Term|
	DCD	0x40000401
; Function compile flags: /Ogspy

  00000			 AREA	 |.text|, CODE, ARM

  00000		 |?Term@CComCriticalSection@ATL@@QAAJXZ| PROC ; ATL::CComCriticalSection::Term
; Line 193
  00000		 |$LN5@Term|
  00000	e52de004	 str         lr, [sp, #-4]!
  00004		 |$M78377|
; Line 194
  00004	eb000000	 bl          DeleteCriticalSection
; Line 195
  00008	e3a00000	 mov         r0, #0
; Line 196
  0000c	e49df004	 ldr         pc, [sp], #4
  00010		 |$M78378|

			 ENDP  ; |?Term@CComCriticalSection@ATL@@QAAJXZ|, ATL::CComCriticalSection::Term

	EXPORT	|?GetLastError7@CMangoClass@@UAAJXZ|	; CMangoClass::GetLastError7
; File c:\users\steven\desktop\csharp - dllimport\csharp - dllimport\vs2008\dllimportmango\mangoclass.cpp

  00000			 AREA	 |.pdata|, PDATA
|$T78389| DCD	|$LN5@GetLastErr|
	DCD	0x40000100
; Function compile flags: /Ogspy

  00000			 AREA	 |.text|, CODE, ARM

  00000		 |?GetLastError7@CMangoClass@@UAAJXZ| PROC ; CMangoClass::GetLastError7
; Line 1125
  00000		 |$LN5@GetLastErr|
  00000		 |$M78386|
; Line 1126
  00000	ea000000	 b           GetLastError
  00004		 |$M78387|

			 ENDP  ; |?GetLastError7@CMangoClass@@UAAJXZ|, CMangoClass::GetLastError7

	EXPORT	|?Tests@CMangoClass@@UAAJXZ|		; CMangoClass::Tests
	EXPORT	|??_C@_1O@BKFFMLHP@?$AAa?$AAg?$AAc?$AAo?$AAr?$AAe?$AA?$AA@| [ DATA ] ; `string'
	EXPORT	|??_C@_1CE@EMLPIGD@?$AAN?$AAa?$AAv?$AAi?$AAg?$AAa?$AAt?$AAe?$AAT?$AAo?$AAS?$AAa?$AAf?$AAe?$AAU?$AAR?$AAI?$AA?$AA@| [ DATA ] ; `string'
	EXPORT	|??_C@_1O@GCCIDMNA@?$AA_?$AAs?$AAe?$AAl?$AAf?$AA?$AA?$AA?$AA@| [ DATA ] ; `string'
	EXPORT	|??_C@_1CG@DOEFHIAG@?$AAh?$AAt?$AAt?$AAp?$AA?3?$AA?1?$AA?1?$AAg?$AAo?$AAo?$AAg?$AAl?$AAe?$AA?4?$AAc?$AAo?$AAm?$AA?$AA?$AA?$AA@| [ DATA ] ; `string'

  00000			 AREA	 |.pdata|, PDATA
|$T78400| DCD	|$LN5@Tests|
	DCD	0x40001101

  00000			 AREA	 |.rdata|, DATA, READONLY
|??_C@_1O@BKFFMLHP@?$AAa?$AAg?$AAc?$AAo?$AAr?$AAe?$AA?$AA@| DCB "a", 0x0, "g"
	DCB	0x0, "c", 0x0, "o", 0x0, "r", 0x0, "e", 0x0, 0x0, 0x0 ; `string'

  00000			 AREA	 |.rdata|, DATA, READONLY
|??_C@_1CE@EMLPIGD@?$AAN?$AAa?$AAv?$AAi?$AAg?$AAa?$AAt?$AAe?$AAT?$AAo?$AAS?$AAa?$AAf?$AAe?$AAU?$AAR?$AAI?$AA?$AA@| DCB "N"
	DCB	0x0, "a", 0x0, "v", 0x0, "i", 0x0, "g", 0x0, "a", 0x0, "t"
	DCB	0x0, "e", 0x0, "T", 0x0, "o", 0x0, "S", 0x0, "a", 0x0, "f"
	DCB	0x0, "e", 0x0, "U", 0x0, "R", 0x0, "I", 0x0, 0x0, 0x0 ; `string'

  00000			 AREA	 |.rdata|, DATA, READONLY
|??_C@_1O@GCCIDMNA@?$AA_?$AAs?$AAe?$AAl?$AAf?$AA?$AA?$AA?$AA@| DCB "_", 0x0
	DCB	"s", 0x0, "e", 0x0, "l", 0x0, "f", 0x0, 0x0, 0x0, 0x0, 0x0 ; `string'

  00000			 AREA	 |.rdata|, DATA, READONLY
|??_C@_1CG@DOEFHIAG@?$AAh?$AAt?$AAt?$AAp?$AA?3?$AA?1?$AA?1?$AAg?$AAo?$AAo?$AAg?$AAl?$AAe?$AA?4?$AAc?$AAo?$AAm?$AA?$AA?$AA?$AA@| DCB "h"
	DCB	0x0, "t", 0x0, "t", 0x0, "p", 0x0, ":", 0x0, "/", 0x0, "/"
	DCB	0x0, "g", 0x0, "o", 0x0, "o", 0x0, "g", 0x0, "l", 0x0, "e"
	DCB	0x0, ".", 0x0, "c", 0x0, "o", 0x0, "m", 0x0, 0x0, 0x0, 0x0
	DCB	0x0					; `string'
; Function compile flags: /Ogspy

  00000			 AREA	 |.text|, CODE, ARM

  00000		 |?Tests@CMangoClass@@UAAJXZ| PROC	; CMangoClass::Tests
; Line 1142
  00000		 |$LN5@Tests|
  00000	e92d4010	 stmdb       sp!, {r4, lr}
  00004		 |$M78397|
; Line 1143
  00004	e59f0034	 ldr         r0, [pc, #0x34]
  00008	eb000000	 bl          LoadLibraryW
; Line 1145
  0000c	e59f1028	 ldr         r1, [pc, #0x28]
  00010	eb000000	 bl          GetProcAddressW
; Line 1149
  00014	e59f201c	 ldr         r2, [pc, #0x1C]
  00018	e59f1014	 ldr         r1, [pc, #0x14]
  0001c	e1a04000	 mov         r4, r0
  00020	e3a00001	 mov         r0, #1
  00024	e3a03001	 mov         r3, #1
  00028	e1a0e00f	 mov         lr, pc
  0002c	e1a0f004	 mov         pc, r4
; Line 1150
  00030	e8bd8010	 ldmia       sp!, {r4, pc}
  00034		 |$LN6@Tests|
  00034		 |$LN7@Tests|
  00034	00000000	 DCD         |??_C@_1CG@DOEFHIAG@?$AAh?$AAt?$AAt?$AAp?$AA?3?$AA?1?$AA?1?$AAg?$AAo?$AAo?$AAg?$AAl?$AAe?$AA?4?$AAc?$AAo?$AAm?$AA?$AA?$AA?$AA@|
  00038		 |$LN8@Tests|
  00038	00000000	 DCD         |??_C@_1O@GCCIDMNA@?$AA_?$AAs?$AAe?$AAl?$AAf?$AA?$AA?$AA?$AA@|
  0003c		 |$LN9@Tests|
  0003c	00000000	 DCD         |??_C@_1CE@EMLPIGD@?$AAN?$AAa?$AAv?$AAi?$AAg?$AAa?$AAt?$AAe?$AAT?$AAo?$AAS?$AAa?$AAf?$AAe?$AAU?$AAR?$AAI?$AA?$AA@|
  00040		 |$LN10@Tests|
  00040	00000000	 DCD         |??_C@_1O@BKFFMLHP@?$AAa?$AAg?$AAc?$AAo?$AAr?$AAe?$AA?$AA@|
  00044		 |$M78398|

			 ENDP  ; |?Tests@CMangoClass@@UAAJXZ|, CMangoClass::Tests

	EXPORT	|?CreateDirectoryPath7@CMangoClass@@UAAJPB_W@Z| ; CMangoClass::CreateDirectoryPath7
	EXPORT	|??_C@_1BG@DNLCLHHC@?$AAs?$AAh?$AAc?$AAo?$AAr?$AAe?$AA?4?$AAd?$AAl?$AAl?$AA?$AA@| [ DATA ] ; `string'
	EXPORT	|??_C@_1CI@CHHCBENG@?$AAC?$AAr?$AAe?$AAa?$AAt?$AAe?$AAD?$AAi?$AAr?$AAe?$AAc?$AAt?$AAo?$AAr?$AAy?$AAP?$AAa?$AAt?$AAh?$AA?$AA@| [ DATA ] ; `string'

  00000			 AREA	 |.pdata|, PDATA
|$T78417| DCD	|$LN5@CreateDire|
	DCD	0x40001002

  00000			 AREA	 |.rdata|, DATA, READONLY
|??_C@_1BG@DNLCLHHC@?$AAs?$AAh?$AAc?$AAo?$AAr?$AAe?$AA?4?$AAd?$AAl?$AAl?$AA?$AA@| DCB "s"
	DCB	0x0, "h", 0x0, "c", 0x0, "o", 0x0, "r", 0x0, "e", 0x0, "."
	DCB	0x0, "d", 0x0, "l", 0x0, "l", 0x0, 0x0, 0x0 ; `string'

  00000			 AREA	 |.rdata|, DATA, READONLY
|??_C@_1CI@CHHCBENG@?$AAC?$AAr?$AAe?$AAa?$AAt?$AAe?$AAD?$AAi?$AAr?$AAe?$AAc?$AAt?$AAo?$AAr?$AAy?$AAP?$AAa?$AAt?$AAh?$AA?$AA@| DCB "C"
	DCB	0x0, "r", 0x0, "e", 0x0, "a", 0x0, "t", 0x0, "e", 0x0, "D"
	DCB	0x0, "i", 0x0, "r", 0x0, "e", 0x0, "c", 0x0, "t", 0x0, "o"
	DCB	0x0, "r", 0x0, "y", 0x0, "P", 0x0, "a", 0x0, "t", 0x0, "h"
	DCB	0x0, 0x0, 0x0				; `string'
; Function compile flags: /Ogspy

  00000			 AREA	 |.text|, CODE, ARM

  00000		 |?CreateDirectoryPath7@CMangoClass@@UAAJPB_W@Z| PROC ; CMangoClass::CreateDirectoryPath7
; Line 1158
  00000		 |$LN5@CreateDire|
  00000	e92d4010	 stmdb       sp!, {r4, lr}
  00004	e24dd004	 sub         sp, sp, #4
  00008		 |$M78414|
  00008	e1a04001	 mov         r4, r1
; Line 1159
  0000c	e59f0028	 ldr         r0, [pc, #0x28]
  00010	eb000000	 bl          LoadLibraryW
; Line 1161
  00014	e59f101c	 ldr         r1, [pc, #0x1C]
  00018	eb000000	 bl          GetProcAddressW
; Line 1165
  0001c	e59d1000	 ldr         r1, [sp]
  00020	e1a03000	 mov         r3, r0
  00024	e1a00004	 mov         r0, r4
  00028	e1a0e00f	 mov         lr, pc
  0002c	e1a0f003	 mov         pc, r3
; Line 1167
  00030	e28dd004	 add         sp, sp, #4
  00034	e8bd8010	 ldmia       sp!, {r4, pc}
  00038		 |$LN6@CreateDire|
  00038		 |$LN7@CreateDire|
  00038	00000000	 DCD         |??_C@_1CI@CHHCBENG@?$AAC?$AAr?$AAe?$AAa?$AAt?$AAe?$AAD?$AAi?$AAr?$AAe?$AAc?$AAt?$AAo?$AAr?$AAy?$AAP?$AAa?$AAt?$AAh?$AA?$AA@|
  0003c		 |$LN8@CreateDire|
  0003c	00000000	 DCD         |??_C@_1BG@DNLCLHHC@?$AAs?$AAh?$AAc?$AAo?$AAr?$AAe?$AA?4?$AAd?$AAl?$AAl?$AA?$AA@|
  00040		 |$M78415|

			 ENDP  ; |?CreateDirectoryPath7@CMangoClass@@UAAJPB_W@Z|, CMangoClass::CreateDirectoryPath7

	EXPORT	|??0CComSafeDeleteCriticalSection@ATL@@QAA@XZ| ; ATL::CComSafeDeleteCriticalSection::CComSafeDeleteCriticalSection
; File c:\program files (x86)\microsoft visual studio 9.0\vc\ce\atlmfc\include\atlcore.h

  00000			 AREA	 |.pdata|, PDATA
|$T78433| DCD	|$LN7@CComSafeDe|
	DCD	0x40000901
; Function compile flags: /Ogspy

  00000			 AREA	 |.text|, CODE, ARM

  00000		 |??0CComSafeDeleteCriticalSection@ATL@@QAA@XZ| PROC ; ATL::CComSafeDeleteCriticalSection::CComSafeDeleteCriticalSection
; Line 222
  00000		 |$LN7@CComSafeDe|
  00000	e92d4010	 stmdb       sp!, {r4, lr}
  00004		 |$M78430|
  00004	e1a04000	 mov         r4, r0
  00008	e3a02014	 mov         r2, #0x14
  0000c	e3a01000	 mov         r1, #0
  00010	eb000000	 bl          memset
  00014	e3a03000	 mov         r3, #0
  00018	e5c43014	 strb        r3, [r4, #0x14]
; Line 223
  0001c	e1a00004	 mov         r0, r4
  00020	e8bd8010	 ldmia       sp!, {r4, pc}
  00024		 |$M78431|

			 ENDP  ; |??0CComSafeDeleteCriticalSection@ATL@@QAA@XZ|, ATL::CComSafeDeleteCriticalSection::CComSafeDeleteCriticalSection

	EXPORT	|?NdisGetSystemUpTimeEx7@CMangoClass@@UAAJH@Z| ; CMangoClass::NdisGetSystemUpTimeEx7
	EXPORT	|??_C@_19NBILFMOL@?$AAn?$AAd?$AAi?$AAs?$AA?$AA@| [ DATA ] ; `string'
	EXPORT	|??_C@_1CI@KBGPDODJ@?$AAN?$AAd?$AAi?$AAs?$AAG?$AAe?$AAt?$AAS?$AAy?$AAs?$AAt?$AAe?$AAm?$AAU?$AAp?$AAT?$AAi?$AAm?$AAe?$AA?$AA@| [ DATA ] ; `string'
; File c:\users\steven\desktop\csharp - dllimport\csharp - dllimport\vs2008\dllimportmango\mangoclass.cpp

  00000			 AREA	 |.pdata|, PDATA
|$T78445| DCD	|$LN7@NdisGetSys|
	DCD	0x40001302

  00000			 AREA	 |.rdata|, DATA, READONLY
|??_C@_19NBILFMOL@?$AAn?$AAd?$AAi?$AAs?$AA?$AA@| DCB "n", 0x0, "d", 0x0, "i"
	DCB	0x0, "s", 0x0, 0x0, 0x0			; `string'

  00000			 AREA	 |.rdata|, DATA, READONLY
|??_C@_1CI@KBGPDODJ@?$AAN?$AAd?$AAi?$AAs?$AAG?$AAe?$AAt?$AAS?$AAy?$AAs?$AAt?$AAe?$AAm?$AAU?$AAp?$AAT?$AAi?$AAm?$AAe?$AA?$AA@| DCB "N"
	DCB	0x0, "d", 0x0, "i", 0x0, "s", 0x0, "G", 0x0, "e", 0x0, "t"
	DCB	0x0, "S", 0x0, "y", 0x0, "s", 0x0, "t", 0x0, "e", 0x0, "m"
	DCB	0x0, "U", 0x0, "p", 0x0, "T", 0x0, "i", 0x0, "m", 0x0, "e"
	DCB	0x0, 0x0, 0x0				; `string'
; Function compile flags: /Ogspy

  00000			 AREA	 |.text|, CODE, ARM

  00000		 |?NdisGetSystemUpTimeEx7@CMangoClass@@UAAJH@Z| PROC ; CMangoClass::NdisGetSystemUpTimeEx7
; Line 1174
  00000		 |$LN7@NdisGetSys|
  00000	e92d4010	 stmdb       sp!, {r4, lr}
  00004	e24dd008	 sub         sp, sp, #8
  00008		 |$M78442|
  00008	e1a04001	 mov         r4, r1
; Line 1178
  0000c	e59f0034	 ldr         r0, [pc, #0x34]
  00010	eb000000	 bl          LoadLibraryW
; Line 1180
  00014	e59f1028	 ldr         r1, [pc, #0x28]
  00018	eb000000	 bl          GetProcAddressW
  0001c	e1a03000	 mov         r3, r0
; Line 1183
  00020	e28d0000	 add         r0, sp, #0
  00024	e1a0e00f	 mov         lr, pc
  00028	e1a0f003	 mov         pc, r3
; Line 1185
  0002c	e3540000	 cmp         r4, #0
; Line 1187
  00030	059d0004	 ldreq       r0, [sp, #4]
; Line 1193
  00034	028dd008	 addeq       sp, sp, #8
; Line 1191
  00038	159d0000	 ldrne       r0, [sp]
; Line 1193
  0003c	128dd008	 addne       sp, sp, #8
  00040	e8bd8010	 ldmia       sp!, {r4, pc}
  00044		 |$LN8@NdisGetSys|
  00044		 |$LN9@NdisGetSys|
  00044	00000000	 DCD         |??_C@_1CI@KBGPDODJ@?$AAN?$AAd?$AAi?$AAs?$AAG?$AAe?$AAt?$AAS?$AAy?$AAs?$AAt?$AAe?$AAm?$AAU?$AAp?$AAT?$AAi?$AAm?$AAe?$AA?$AA@|
  00048		 |$LN10@NdisGetSys|
  00048	00000000	 DCD         |??_C@_19NBILFMOL@?$AAn?$AAd?$AAi?$AAs?$AA?$AA@|
  0004c		 |$M78443|

			 ENDP  ; |?NdisGetSystemUpTimeEx7@CMangoClass@@UAAJH@Z|, CMangoClass::NdisGetSystemUpTimeEx7

	EXPORT	|??1CComSafeDeleteCriticalSection@ATL@@QAA@XZ| ; ATL::CComSafeDeleteCriticalSection::~CComSafeDeleteCriticalSection
; File c:\program files (x86)\microsoft visual studio 9.0\vc\ce\atlmfc\include\atlcore.h

  00000			 AREA	 |.pdata|, PDATA
|$T78462| DCD	|$LN10@CComSafeDe@2|
	DCD	0x40000701
; Function compile flags: /Ogspy

  00000			 AREA	 |.text|, CODE, ARM

  00000		 |??1CComSafeDeleteCriticalSection@ATL@@QAA@XZ| PROC ; ATL::CComSafeDeleteCriticalSection::~CComSafeDeleteCriticalSection
; Line 226
  00000		 |$LN10@CComSafeDe@2|
  00000	e52de004	 str         lr, [sp, #-4]!
  00004		 |$M78459|
; Line 227
  00004	e5d03014	 ldrb        r3, [r0, #0x14]
  00008	e3530000	 cmp         r3, #0
; Line 231
  0000c	13a03000	 movne       r3, #0
  00010	15c03014	 strneb      r3, [r0, #0x14]
; Line 232
  00014	1b000000	 blne        DeleteCriticalSection
; Line 233
  00018	e49df004	 ldr         pc, [sp], #4
  0001c		 |$M78460|

			 ENDP  ; |??1CComSafeDeleteCriticalSection@ATL@@QAA@XZ|, ATL::CComSafeDeleteCriticalSection::~CComSafeDeleteCriticalSection

	EXPORT	|?Init@CComSafeDeleteCriticalSection@ATL@@QAAJXZ| ; ATL::CComSafeDeleteCriticalSection::Init

  00000			 AREA	 |.pdata|, PDATA
|$T78473| DCD	|$LN6@Init@2|
	DCD	0x40000701
; Function compile flags: /Ogspy

  00000			 AREA	 |.text|, CODE, ARM

  00000		 |?Init@CComSafeDeleteCriticalSection@ATL@@QAAJXZ| PROC ; ATL::CComSafeDeleteCriticalSection::Init
; Line 236
  00000		 |$LN6@Init@2|
  00000	e92d4010	 stmdb       sp!, {r4, lr}
  00004		 |$M78470|
  00004	e1a04000	 mov         r4, r0
; Line 238
  00008	eb000000	 bl          |?Init@CComCriticalSection@ATL@@QAAJXZ|
  0000c	e3500000	 cmp         r0, #0
; Line 241
  00010	53a03001	 movpl       r3, #1
  00014	55c43014	 strplb      r3, [r4, #0x14]
; Line 244
  00018	e8bd8010	 ldmia       sp!, {r4, pc}
  0001c		 |$M78471|

			 ENDP  ; |?Init@CComSafeDeleteCriticalSection@ATL@@QAAJXZ|, ATL::CComSafeDeleteCriticalSection::Init

	EXPORT	|?handleToFILE@@YAPAXH@Z|		; handleToFILE
; File c:\users\steven\desktop\csharp - dllimport\csharp - dllimport\vs2008\dllimportmango\mangoclass.cpp

  00000			 AREA	 |.pdata|, PDATA
|$T78483| DCD	|$LN5@handleToFI|
	DCD	0x40000100
; Function compile flags: /Ogspy

  00000			 AREA	 |.text|, CODE, ARM

  00000		 |?handleToFILE@@YAPAXH@Z| PROC		; handleToFILE
; Line 1198
  00000		 |$LN5@handleToFI|
  00000		 |$M78480|
; Line 1203
  00000	e1a0f00e	 mov         pc, lr
  00004		 |$M78481|

			 ENDP  ; |?handleToFILE@@YAPAXH@Z|, handleToFILE

	EXPORT	|?FILEToHandle@@YAHPAX@Z|		; FILEToHandle

  00000			 AREA	 |.pdata|, PDATA
|$T78493| DCD	|$LN5@FILEToHand|
	DCD	0x40000100
; Function compile flags: /Ogspy

  00000			 AREA	 |.text|, CODE, ARM

  00000		 |?FILEToHandle@@YAHPAX@Z| PROC		; FILEToHandle
; Line 1206
  00000		 |$LN5@FILEToHand|
  00000		 |$M78490|
; Line 1211
  00000	e1a0f00e	 mov         pc, lr
  00004		 |$M78491|

			 ENDP  ; |?FILEToHandle@@YAHPAX@Z|, FILEToHandle

	EXPORT	|?handleToVOID@@YAPAXH@Z|		; handleToVOID

  00000			 AREA	 |.pdata|, PDATA
|$T78503| DCD	|$LN5@handleToVO|
	DCD	0x40000100
; Function compile flags: /Ogspy

  00000			 AREA	 |.text|, CODE, ARM

  00000		 |?handleToVOID@@YAPAXH@Z| PROC		; handleToVOID
; Line 1214
  00000		 |$LN5@handleToVO|
  00000		 |$M78500|
; Line 1219
  00000	e1a0f00e	 mov         pc, lr
  00004		 |$M78501|

			 ENDP  ; |?handleToVOID@@YAPAXH@Z|, handleToVOID

	EXPORT	|?Lock@CComSafeDeleteCriticalSection@ATL@@QAAJXZ| ; ATL::CComSafeDeleteCriticalSection::Lock
; File c:\program files (x86)\microsoft visual studio 9.0\vc\ce\atlmfc\include\atlcore.h

  00000			 AREA	 |.pdata|, PDATA
|$T78516| DCD	|$LN10@Lock@2|
	DCD	0x40000401
; Function compile flags: /Ogspy

  00000			 AREA	 |.text|, CODE, ARM

  00000		 |?Lock@CComSafeDeleteCriticalSection@ATL@@QAAJXZ| PROC ; ATL::CComSafeDeleteCriticalSection::Lock
; Line 257
  00000		 |$LN10@Lock@2|
  00000	e52de004	 str         lr, [sp, #-4]!
  00004		 |$M78513|
; Line 264
  00004	eb000000	 bl          EnterCriticalSection
  00008	e3a00000	 mov         r0, #0
; Line 265
  0000c	e49df004	 ldr         pc, [sp], #4
  00010		 |$M78514|

			 ENDP  ; |?Lock@CComSafeDeleteCriticalSection@ATL@@QAAJXZ|, ATL::CComSafeDeleteCriticalSection::Lock

	EXPORT	|?VOIDToHandle@@YAHPAX@Z|		; VOIDToHandle
; File c:\users\steven\desktop\csharp - dllimport\csharp - dllimport\vs2008\dllimportmango\mangoclass.cpp

  00000			 AREA	 |.pdata|, PDATA
|$T78526| DCD	|$LN5@VOIDToHand|
	DCD	0x40000100
; Function compile flags: /Ogspy

  00000			 AREA	 |.text|, CODE, ARM

  00000		 |?VOIDToHandle@@YAHPAX@Z| PROC		; VOIDToHandle
; Line 1223
  00000		 |$LN5@VOIDToHand|
  00000		 |$M78523|
; Line 1228
  00000	e1a0f00e	 mov         pc, lr
  00004		 |$M78524|

			 ENDP  ; |?VOIDToHandle@@YAHPAX@Z|, VOIDToHandle

	EXPORT	|?fopen7@CMangoClass@@UAAJPA_W0@Z|	; CMangoClass::fopen7
	IMPORT	|fopen|

  00000			 AREA	 |.pdata|, PDATA
|$T78544| DCD	|$LN7@fopen7|
	DCD	0x40000b01
; Function compile flags: /Ogspy

  00000			 AREA	 |.text|, CODE, ARM

  00000		 |?fopen7@CMangoClass@@UAAJPA_W0@Z| PROC ; CMangoClass::fopen7
; Line 1232
  00000		 |$LN7@fopen7|
  00000	e92d4030	 stmdb       sp!, {r4, r5, lr}
  00004		 |$M78541|
  00004	e1a05002	 mov         r5, r2
; Line 1233
  00008	e1a00001	 mov         r0, r1
  0000c	eb000000	 bl          |?ConvertBSTRToLPSTR@@YAPADPA_W@Z|
  00010	e1a04000	 mov         r4, r0
; Line 1234
  00014	e1a00005	 mov         r0, r5
  00018	eb000000	 bl          |?ConvertBSTRToLPSTR@@YAPADPA_W@Z|
  0001c	e1a01000	 mov         r1, r0
; Line 1237
  00020	e1a00004	 mov         r0, r4
  00024	e8bd4030	 ldmia       sp!, {r4, r5, lr}
  00028	ea000000	 b           fopen
  0002c		 |$M78542|

			 ENDP  ; |?fopen7@CMangoClass@@UAAJPA_W0@Z|, CMangoClass::fopen7

	EXPORT	|?Init@CComFakeCriticalSection@ATL@@QAAJXZ| ; ATL::CComFakeCriticalSection::Init
; File c:\program files (x86)\microsoft visual studio 9.0\vc\ce\atlmfc\include\atlcore.h

  00000			 AREA	 |.pdata|, PDATA
|$T78553| DCD	|$LN5@Init@3|
	DCD	0x40000200
; Function compile flags: /Ogspy

  00000			 AREA	 |.text|, CODE, ARM

  00000		 |?Init@CComFakeCriticalSection@ATL@@QAAJXZ| PROC ; ATL::CComFakeCriticalSection::Init
; Line 283
  00000		 |$LN5@Init@3|
  00000		 |$M78550|
  00000	e3a00000	 mov         r0, #0
  00004	e1a0f00e	 mov         pc, lr
  00008		 |$M78551|

			 ENDP  ; |?Init@CComFakeCriticalSection@ATL@@QAAJXZ|, ATL::CComFakeCriticalSection::Init

	EXPORT	|?fclose7@CMangoClass@@UAAJH@Z|		; CMangoClass::fclose7
	IMPORT	|fclose|
; File c:\users\steven\desktop\csharp - dllimport\csharp - dllimport\vs2008\dllimportmango\mangoclass.cpp

  00000			 AREA	 |.pdata|, PDATA
|$T78568| DCD	|$LN7@fclose7|
	DCD	0x40000200
; Function compile flags: /Ogspy

  00000			 AREA	 |.text|, CODE, ARM

  00000		 |?fclose7@CMangoClass@@UAAJH@Z| PROC	; CMangoClass::fclose7
; Line 1243
  00000		 |$LN7@fclose7|
  00000		 |$M78565|
; Line 1244
  00000	e1a00001	 mov         r0, r1
  00004	ea000000	 b           fclose
  00008		 |$M78566|

			 ENDP  ; |?fclose7@CMangoClass@@UAAJH@Z|, CMangoClass::fclose7

	EXPORT	|?fseek7@CMangoClass@@UAAJHJH@Z|	; CMangoClass::fseek7
	IMPORT	|fseek|

  00000			 AREA	 |.pdata|, PDATA
|$T78585| DCD	|$LN7@fseek7|
	DCD	0x40000801
; Function compile flags: /Ogspy

  00000			 AREA	 |.text|, CODE, ARM

  00000		 |?fseek7@CMangoClass@@UAAJHJH@Z| PROC	; CMangoClass::fseek7
; Line 1249
  00000		 |$LN7@fseek7|
  00000	e52de004	 str         lr, [sp, #-4]!
  00004		 |$M78582|
  00004	e1a00002	 mov         r0, r2
  00008	e1a0e001	 mov         lr, r1
; Line 1250
  0000c	e1a01000	 mov         r1, r0
  00010	e1a0000e	 mov         r0, lr
  00014	e1a02003	 mov         r2, r3
  00018	e49de004	 ldr         lr, [sp], #4
  0001c	ea000000	 b           fseek
  00020		 |$M78583|

			 ENDP  ; |?fseek7@CMangoClass@@UAAJHJH@Z|, CMangoClass::fseek7

	EXPORT	|?GetModuleInstance@CAtlBaseModule@ATL@@QAAPAUHINSTANCE__@@XZ| ; ATL::CAtlBaseModule::GetModuleInstance
; File c:\program files (x86)\microsoft visual studio 9.0\vc\ce\atlmfc\include\atlcore.h

  00000			 AREA	 |.pdata|, PDATA
|$T78595| DCD	|$LN5@GetModuleI|
	DCD	0x40000200
; Function compile flags: /Ogspy

  00000			 AREA	 |.text|, CODE, ARM

  00000		 |?GetModuleInstance@CAtlBaseModule@ATL@@QAAPAUHINSTANCE__@@XZ| PROC ; ATL::CAtlBaseModule::GetModuleInstance
; Line 311
  00000		 |$LN5@GetModuleI|
  00000		 |$M78592|
; Line 312
  00000	e5900004	 ldr         r0, [r0, #4]
; Line 313
  00004	e1a0f00e	 mov         pc, lr
  00008		 |$M78593|

			 ENDP  ; |?GetModuleInstance@CAtlBaseModule@ATL@@QAAPAUHINSTANCE__@@XZ|, ATL::CAtlBaseModule::GetModuleInstance

	EXPORT	|?fgetc7@CMangoClass@@UAAJH@Z|		; CMangoClass::fgetc7
	IMPORT	|fgetc|
; File c:\users\steven\desktop\csharp - dllimport\csharp - dllimport\vs2008\dllimportmango\mangoclass.cpp

  00000			 AREA	 |.pdata|, PDATA
|$T78610| DCD	|$LN7@fgetc7|
	DCD	0x40000200
; Function compile flags: /Ogspy

  00000			 AREA	 |.text|, CODE, ARM

  00000		 |?fgetc7@CMangoClass@@UAAJH@Z| PROC	; CMangoClass::fgetc7
; Line 1254
  00000		 |$LN7@fgetc7|
  00000		 |$M78607|
; Line 1255
  00000	e1a00001	 mov         r0, r1
  00004	ea000000	 b           fgetc
  00008		 |$M78608|

			 ENDP  ; |?fgetc7@CMangoClass@@UAAJH@Z|, CMangoClass::fgetc7

	EXPORT	|?fsize7@CMangoClass@@UAAJH@Z|		; CMangoClass::fsize7
	IMPORT	|GetFileSize|

  00000			 AREA	 |.pdata|, PDATA
|$T78625| DCD	|$LN8@fsize7|
	DCD	0x40000b02
; Function compile flags: /Ogspy

  00000			 AREA	 |.text|, CODE, ARM

  00000		 |?fsize7@CMangoClass@@UAAJH@Z| PROC	; CMangoClass::fsize7
; Line 1260
  00000		 |$LN8@fsize7|
  00000	e52de004	 str         lr, [sp, #-4]!
  00004	e24dd004	 sub         sp, sp, #4
  00008		 |$M78622|
  00008	e1a00001	 mov         r0, r1
; Line 1262
  0000c	e28d1000	 add         r1, sp, #0
  00010	eb000000	 bl          GetFileSize
  00014	e3500000	 cmp         r0, #0
; Line 1264
  00018	03e00000	 mvneq       r0, #0
; Line 1268
  0001c	028dd004	 addeq       sp, sp, #4
; Line 1267
  00020	159d0000	 ldrne       r0, [sp]
; Line 1268
  00024	128dd004	 addne       sp, sp, #4
  00028	e49df004	 ldr         pc, [sp], #4
  0002c		 |$M78623|

			 ENDP  ; |?fsize7@CMangoClass@@UAAJH@Z|, CMangoClass::fsize7

	EXPORT	|?fputc7@CMangoClass@@UAAJHD@Z|		; CMangoClass::fputc7
	IMPORT	|fputc|

  00000			 AREA	 |.pdata|, PDATA
|$T78641| DCD	|$LN7@fputc7|
	DCD	0x40000200
; Function compile flags: /Ogspy

  00000			 AREA	 |.text|, CODE, ARM

  00000		 |?fputc7@CMangoClass@@UAAJHD@Z| PROC	; CMangoClass::fputc7
; Line 1271
  00000		 |$LN7@fputc7|
  00000		 |$M78638|
; Line 1272
  00000	e1a00002	 mov         r0, r2
  00004	ea000000	 b           fputc
  00008		 |$M78639|

			 ENDP  ; |?fputc7@CMangoClass@@UAAJHD@Z|, CMangoClass::fputc7

	EXPORT	|?_AtlGetStringResourceImage@ATL@@YAPBUATLSTRINGRESOURCEIMAGE@1@PAUHINSTANCE__@@PAUHRSRC__@@I@Z| ; ATL::_AtlGetStringResourceImage
	IMPORT	|SizeofResource|
	IMPORT	|LoadResource|
; File c:\program files (x86)\windows mobile 6 sdk\pocketpc\include\armv4i\kfuncs.h

  00000			 AREA	 |.pdata|, PDATA
|$T78664| DCD	|$LN17@AtlGetStri|
	DCD	0x40001c01
; Function compile flags: /Ogspy

  00000			 AREA	 |.text|, CODE, ARM

  00000		 |?_AtlGetStringResourceImage@ATL@@YAPBUATLSTRINGRESOURCEIMAGE@1@PAUHINSTANCE__@@PAUHRSRC__@@I@Z| PROC ; ATL::_AtlGetStringResourceImage
; File c:\program files (x86)\microsoft visual studio 9.0\vc\ce\atlmfc\include\atlcore.h
; Line 344
  00000		 |$LN17@AtlGetStri|
  00000	e92d40f0	 stmdb       sp!, {r4 - r7, lr}
  00004		 |$M78661|
  00004	e1a07002	 mov         r7, r2
  00008	e1a05001	 mov         r5, r1
  0000c	e1a06000	 mov         r6, r0
; Line 351
  00010	eb000000	 bl          LoadResource
  00014	e1b04000	 movs        r4, r0
; Line 354
  00018	0a000011	 beq         |$LN14@AtlGetStri|
; Line 363
  0001c	e1a01005	 mov         r1, r5
  00020	e1a00006	 mov         r0, r6
  00024	eb000000	 bl          SizeofResource
; Line 364
  00028	e0842000	 add         r2, r4, r0
; Line 365
  0002c	e217100f	 ands        r1, r7, #0xF
; Line 367
  00030	0a000006	 beq         |$LN3@AtlGetStri|
  00034		 |$LL4@AtlGetStri|
  00034	e1540002	 cmp         r4, r2
  00038	2a000009	 bcs         |$LN14@AtlGetStri|
; Line 369
  0003c	e1d430b0	 ldrh        r3, [r4]
; Line 370
  00040	e2511001	 subs        r1, r1, #1
  00044	e2833001	 add         r3, r3, #1
  00048	e0844083	 add         r4, r4, r3, lsl #1
  0004c	1afffff8	 bne         |$LL4@AtlGetStri|
  00050		 |$LN3@AtlGetStri|
; Line 372
  00050	e1540002	 cmp         r4, r2
; Line 374
  00054	2a000002	 bcs         |$LN14@AtlGetStri|
; Line 376
  00058	e1d430b0	 ldrh        r3, [r4]
  0005c	e3530000	 cmp         r3, #0
  00060	1a000000	 bne         |$LN1@AtlGetStri|
  00064		 |$LN14@AtlGetStri|
; Line 378
  00064	e3a04000	 mov         r4, #0
  00068		 |$LN1@AtlGetStri|
; Line 382
  00068	e1a00004	 mov         r0, r4
  0006c	e8bd80f0	 ldmia       sp!, {r4 - r7, pc}
  00070		 |$M78662|

			 ENDP  ; |?_AtlGetStringResourceImage@ATL@@YAPBUATLSTRINGRESOURCEIMAGE@1@PAUHINSTANCE__@@PAUHRSRC__@@I@Z|, ATL::_AtlGetStringResourceImage

	EXPORT	|?AtlGetStringResourceImage@ATL@@YAPBUATLSTRINGRESOURCEIMAGE@1@PAUHINSTANCE__@@I@Z| ; ATL::AtlGetStringResourceImage
	IMPORT	|FindResourceW|

  00000			 AREA	 |.pdata|, PDATA
|$T78676| DCD	|$LN6@AtlGetStri@2|
	DCD	0x40001101
; Function compile flags: /Ogspy

  00000			 AREA	 |.text|, CODE, ARM

  00000		 |?AtlGetStringResourceImage@ATL@@YAPBUATLSTRINGRESOURCEIMAGE@1@PAUHINSTANCE__@@I@Z| PROC ; ATL::AtlGetStringResourceImage
; Line 385
  00000		 |$LN6@AtlGetStri@2|
  00000	e92d4030	 stmdb       sp!, {r4, r5, lr}
  00004		 |$M78673|
  00004	e1a04001	 mov         r4, r1
  00008	e1a05000	 mov         r5, r0
; Line 388
  0000c	e1a03224	 mov         r3, r4, lsr #4
  00010	e2833001	 add         r3, r3, #1
  00014	e1a01803	 mov         r1, r3, lsl #16
  00018	e1a01821	 mov         r1, r1, lsr #16
  0001c	e3a02006	 mov         r2, #6
  00020	eb000000	 bl          FindResourceW
  00024	e3500000	 cmp         r0, #0
; Line 391
  00028	03a00000	 moveq       r0, #0
; Line 395
  0002c	08bd8030	 ldmeqia     sp!, {r4, r5, pc}
; Line 394
  00030	e1a02004	 mov         r2, r4
  00034	e1a01000	 mov         r1, r0
  00038	e1a00005	 mov         r0, r5
; Line 395
  0003c	e8bd4030	 ldmia       sp!, {r4, r5, lr}
; Line 394
  00040	ea000000	 b           |?_AtlGetStringResourceImage@ATL@@YAPBUATLSTRINGRESOURCEIMAGE@1@PAUHINSTANCE__@@PAUHRSRC__@@I@Z|
  00044		 |$M78674|

			 ENDP  ; |?AtlGetStringResourceImage@ATL@@YAPBUATLSTRINGRESOURCEIMAGE@1@PAUHINSTANCE__@@I@Z|, ATL::AtlGetStringResourceImage

	EXPORT	|__$ArrayPad$| [ DATA ]
	EXPORT	|?dirFiles7@CMangoClass@@UAAJPA_WPAPA_W@Z| ; CMangoClass::dirFiles7
	IMPORT	|FindFirstFileW|
; File c:\users\steven\desktop\csharp - dllimport\csharp - dllimport\vs2008\dllimportmango\mangoclass.cpp

  00000			 AREA	 |.pdata|, PDATA
|$T78691| DCD	|$LN7@dirFiles7|
	DCD	0xc0001302

  00000			 AREA	 |.xdata|, DATA
|$T78687| DCD	0xfffffff8
; Function compile flags: /Ogspy

  00000			 AREA	 |.text|, CODE, ARM

  00000	00000000	 DCD         |__GSHandlerCheck|
  00004	00000000	 DCD         |$T78687|

  00008		 |?dirFiles7@CMangoClass@@UAAJPA_WPAPA_W@Z| PROC ; CMangoClass::dirFiles7
; Line 1323
  00008		 |$LN7@dirFiles7|
  00008	e52de004	 str         lr, [sp, #-4]!
  0000c	e24ddf8e	 sub         sp, sp, #0x8E, 30	; 568 (0x238)
  00010		 |$M78688|
  00010	e59f3038	 ldr         r3, [pc, #0x38]
  00014	e5933000	 ldr         r3, [r3]
  00018	e58d3234	 str         r3, [sp, #0x234]
  0001c	e1a00001	 mov         r0, r1
; Line 1328
  00020	e28d1004	 add         r1, sp, #4
  00024	eb000000	 bl          FindFirstFileW
; Line 1332
  00028	e3700001	 cmn         r0, #1
  0002c	1a000004	 bne         |$LN4@dirFiles7|
; Line 1334
  00030	e59d0234	 ldr         r0, [sp, #0x234]
  00034	eb000000	 bl          __security_check_cookie
  00038	e3e00000	 mvn         r0, #0
; Line 1336
  0003c	e28ddf8e	 add         sp, sp, #0x8E, 30	; 568 (0x238)
  00040	e49df004	 ldr         pc, [sp], #4
  00044		 |$LN4@dirFiles7|
; Line 1334
  00044	e59d0000	 ldr         r0, [sp]
; Line 1336
  00048	e28ddf8e	 add         sp, sp, #0x8E, 30	; 568 (0x238)
  0004c	e49df004	 ldr         pc, [sp], #4
  00050		 |$LN8@dirFiles7|
  00050		 |$LN9@dirFiles7|
  00050	00000000	 DCD         |__security_cookie|
  00054		 |$M78689|

			 ENDP  ; |?dirFiles7@CMangoClass@@UAAJPA_WPAPA_W@Z|, CMangoClass::dirFiles7

	EXPORT	|?FindFirstFile7@CMangoClass@@UAAJPA_WPAU_WIN32_FIND_DATAW@@@Z| ; CMangoClass::FindFirstFile7

  00000			 AREA	 |.pdata|, PDATA
|$T78712| DCD	|$LN7@FindFirstF|
	DCD	0x40000300
; Function compile flags: /Ogspy

  00000			 AREA	 |.text|, CODE, ARM

  00000		 |?FindFirstFile7@CMangoClass@@UAAJPA_WPAU_WIN32_FIND_DATAW@@@Z| PROC ; CMangoClass::FindFirstFile7
; Line 1339
  00000		 |$LN7@FindFirstF|
  00000		 |$M78709|
  00000	e1a00001	 mov         r0, r1
; Line 1340
  00004	e1a01002	 mov         r1, r2
  00008	ea000000	 b           FindFirstFileW
  0000c		 |$M78710|

			 ENDP  ; |?FindFirstFile7@CMangoClass@@UAAJPA_WPAU_WIN32_FIND_DATAW@@@Z|, CMangoClass::FindFirstFile7

	EXPORT	|?FindNextFile7@CMangoClass@@UAAJHPAU_WIN32_FIND_DATAW@@@Z| ; CMangoClass::FindNextFile7
	IMPORT	|FindNextFileW|

  00000			 AREA	 |.pdata|, PDATA
|$T78728| DCD	|$LN7@FindNextFi|
	DCD	0x40000300
; Function compile flags: /Ogspy

  00000			 AREA	 |.text|, CODE, ARM

  00000		 |?FindNextFile7@CMangoClass@@UAAJHPAU_WIN32_FIND_DATAW@@@Z| PROC ; CMangoClass::FindNextFile7
; Line 1343
  00000		 |$LN7@FindNextFi|
  00000		 |$M78725|
  00000	e1a00001	 mov         r0, r1
; Line 1344
  00004	e1a01002	 mov         r1, r2
  00008	ea000000	 b           FindNextFileW
  0000c		 |$M78726|

			 ENDP  ; |?FindNextFile7@CMangoClass@@UAAJHPAU_WIN32_FIND_DATAW@@@Z|, CMangoClass::FindNextFile7

	EXPORT	|?FindClose7@CMangoClass@@UAAJH@Z|	; CMangoClass::FindClose7
	IMPORT	|FindClose|

  00000			 AREA	 |.pdata|, PDATA
|$T78743| DCD	|$LN7@FindClose7|
	DCD	0x40000200
; Function compile flags: /Ogspy

  00000			 AREA	 |.text|, CODE, ARM

  00000		 |?FindClose7@CMangoClass@@UAAJH@Z| PROC ; CMangoClass::FindClose7
; Line 1348
  00000		 |$LN7@FindClose7|
  00000		 |$M78740|
; Line 1349
  00000	e1a00001	 mov         r0, r1
  00004	ea000000	 b           FindClose
  00008		 |$M78741|

			 ENDP  ; |?FindClose7@CMangoClass@@UAAJH@Z|, CMangoClass::FindClose7

	EXPORT	|?AtlFindStringResourceInstance@ATL@@YAPAUHINSTANCE__@@IG@Z| ; ATL::AtlFindStringResourceInstance
	IMPORT	|?GetHInstanceAt@CAtlBaseModule@ATL@@QAAPAUHINSTANCE__@@H@Z| ; ATL::CAtlBaseModule::GetHInstanceAt
	IMPORT	|?_AtlBaseModule@ATL@@3VCAtlBaseModule@1@A| ; ATL::_AtlBaseModule
; File c:\program files (x86)\microsoft visual studio 9.0\vc\ce\atlmfc\include\atlcore.h

  00000			 AREA	 |.pdata|, PDATA
|$T78759| DCD	|$LN13@AtlFindStr|
	DCD	0x40001601
; Function compile flags: /Ogspy

  00000			 AREA	 |.text|, CODE, ARM

  00000		 |?AtlFindStringResourceInstance@ATL@@YAPAUHINSTANCE__@@IG@Z| PROC ; ATL::AtlFindStringResourceInstance
; Line 495
  00000		 |$LN13@AtlFindStr|
  00000	e92d4070	 stmdb       sp!, {r4 - r6, lr}
  00004		 |$M78756|
  00004	e1a06000	 mov         r6, r0
; Line 497
  00008	e59f0044	 ldr         r0, [pc, #0x44]
  0000c	e3a01000	 mov         r1, #0
  00010	eb000000	 bl          |?GetHInstanceAt@CAtlBaseModule@ATL@@QAAPAUHINSTANCE__@@H@Z|
; Line 499
  00014	e3a05001	 mov         r5, #1
  00018	ea000008	 b           |$LN10@AtlFindStr|
  0001c		 |$LL4@AtlFindStr|
; Line 505
  0001c	e1a01006	 mov         r1, r6
  00020	e1a00004	 mov         r0, r4
  00024	eb000000	 bl          |?AtlGetStringResourceImage@ATL@@YAPBUATLSTRINGRESOURCEIMAGE@1@PAUHINSTANCE__@@I@Z|
  00028	e3500000	 cmp         r0, #0
; Line 507
  0002c	1a000006	 bne         |$LN5@AtlFindStr|
  00030	e59f001c	 ldr         r0, [pc, #0x1C]
  00034	e1a01005	 mov         r1, r5
  00038	eb000000	 bl          |?GetHInstanceAt@CAtlBaseModule@ATL@@QAAPAUHINSTANCE__@@H@Z|
  0003c	e2855001	 add         r5, r5, #1
  00040		 |$LN10@AtlFindStr|
  00040	e1b04000	 movs        r4, r0
  00044	1afffff4	 bne         |$LL4@AtlFindStr|
; Line 511
  00048	e3a04000	 mov         r4, #0
  0004c		 |$LN5@AtlFindStr|
; Line 512
  0004c	e1a00004	 mov         r0, r4
  00050	e8bd8070	 ldmia       sp!, {r4 - r6, pc}
  00054		 |$LN14@AtlFindStr|
  00054		 |$LN15@AtlFindStr|
  00054	00000000	 DCD         |?_AtlBaseModule@ATL@@3VCAtlBaseModule@1@A|
  00058		 |$M78757|

			 ENDP  ; |?AtlFindStringResourceInstance@ATL@@YAPAUHINSTANCE__@@IG@Z|, ATL::AtlFindStringResourceInstance

	EXPORT	|?AtlHresultFromLastError@ATL@@YAJXZ|	; ATL::AtlHresultFromLastError
; File c:\program files (x86)\microsoft visual studio 9.0\vc\ce\atlmfc\include\atlcomcli.h

  00000			 AREA	 |.pdata|, PDATA
|$T78773| DCD	|$LN7@AtlHresult|
	DCD	0x40000a01
; Function compile flags: /Ogspy

  00000			 AREA	 |.text|, CODE, ARM

  00000		 |?AtlHresultFromLastError@ATL@@YAJXZ| PROC ; ATL::AtlHresultFromLastError
; Line 32
  00000		 |$LN7@AtlHresult|
  00000	e52de004	 str         lr, [sp, #-4]!
  00004		 |$M78770|
; Line 33
  00004	eb000000	 bl          GetLastError
; Line 34
  00008	e3500000	 cmp         r0, #0
  0000c	c3a03cff	 movgt       r3, #0xFF, 24
  00010	c38330ff	 orrgt       r3, r3, #0xFF
  00014	c3a01102	 movgt       r1, #2, 2
  00018	c0002003	 andgt       r2, r0, r3
  0001c	c3813807	 orrgt       r3, r1, #7, 16	; 458752 (0x70000)
  00020	c1820003	 orrgt       r0, r2, r3
; Line 35
  00024	e49df004	 ldr         pc, [sp], #4
  00028		 |$M78771|

			 ENDP  ; |?AtlHresultFromLastError@ATL@@YAJXZ|, ATL::AtlHresultFromLastError

	EXPORT	|?EnumDisplayDevices7@CMangoClass@@UAAJKPAU_DISPLAY_DEVICE@@K@Z| ; CMangoClass::EnumDisplayDevices7
	IMPORT	|EnumDisplayDevices|
; File c:\users\steven\desktop\csharp - dllimport\csharp - dllimport\vs2008\dllimportmango\mangoclass.cpp

  00000			 AREA	 |.pdata|, PDATA
|$T78785| DCD	|$LN5@EnumDispla|
	DCD	0x40000200
; Function compile flags: /Ogspy

  00000			 AREA	 |.text|, CODE, ARM

  00000		 |?EnumDisplayDevices7@CMangoClass@@UAAJKPAU_DISPLAY_DEVICE@@K@Z| PROC ; CMangoClass::EnumDisplayDevices7
; Line 1464
  00000		 |$LN5@EnumDispla|
  00000		 |$M78782|
; Line 1465
  00000	e3a00000	 mov         r0, #0
  00004	ea000000	 b           EnumDisplayDevices
  00008		 |$M78783|

			 ENDP  ; |?EnumDisplayDevices7@CMangoClass@@UAAJKPAU_DISPLAY_DEVICE@@K@Z|, CMangoClass::EnumDisplayDevices7

	EXPORT	|?AtlHresultFromWin32@ATL@@YAJK@Z|	; ATL::AtlHresultFromWin32
; File c:\program files (x86)\microsoft visual studio 9.0\vc\ce\atlmfc\include\atlcomcli.h

  00000			 AREA	 |.pdata|, PDATA
|$T78797| DCD	|$LN7@AtlHresult@2|
	DCD	0x40000800
; Function compile flags: /Ogspy

  00000			 AREA	 |.text|, CODE, ARM

  00000		 |?AtlHresultFromWin32@ATL@@YAJK@Z| PROC ; ATL::AtlHresultFromWin32
; Line 38
  00000		 |$LN7@AtlHresult@2|
  00000		 |$M78794|
; Line 39
  00000	e3500000	 cmp         r0, #0
  00004	c3a03cff	 movgt       r3, #0xFF, 24
  00008	c38330ff	 orrgt       r3, r3, #0xFF
  0000c	c3a01102	 movgt       r1, #2, 2
  00010	c0002003	 andgt       r2, r0, r3
  00014	c3813807	 orrgt       r3, r1, #7, 16	; 458752 (0x70000)
  00018	c1820003	 orrgt       r0, r2, r3
; Line 40
  0001c	e1a0f00e	 mov         pc, lr
  00020		 |$M78795|

			 ENDP  ; |?AtlHresultFromWin32@ATL@@YAJK@Z|, ATL::AtlHresultFromWin32

	EXPORT	|?waveOutGetVolume7@CMangoClass@@UAAJPAK@Z| ; CMangoClass::waveOutGetVolume7
	IMPORT	|waveOutGetVolume|
; File c:\users\steven\desktop\csharp - dllimport\csharp - dllimport\vs2008\dllimportmango\mangoclass.cpp

  00000			 AREA	 |.pdata|, PDATA
|$T78808| DCD	|$LN5@waveOutGet|
	DCD	0x40000a02
; Function compile flags: /Ogspy

  00000			 AREA	 |.text|, CODE, ARM

  00000		 |?waveOutGetVolume7@CMangoClass@@UAAJPAK@Z| PROC ; CMangoClass::waveOutGetVolume7
; Line 1469
  00000		 |$LN5@waveOutGet|
  00000	e92d4010	 stmdb       sp!, {r4, lr}
  00004	e24dd004	 sub         sp, sp, #4
  00008		 |$M78805|
  00008	e1a04001	 mov         r4, r1
; Line 1471
  0000c	e28d1000	 add         r1, sp, #0
  00010	e3a00000	 mov         r0, #0
  00014	eb000000	 bl          waveOutGetVolume
; Line 1472
  00018	e59d3000	 ldr         r3, [sp]
; Line 1475
  0001c	e5843000	 str         r3, [r4]
  00020	e28dd004	 add         sp, sp, #4
  00024	e8bd8010	 ldmia       sp!, {r4, pc}
  00028		 |$M78806|

			 ENDP  ; |?waveOutGetVolume7@CMangoClass@@UAAJPAK@Z|, CMangoClass::waveOutGetVolume7

	EXPORT	|?waveOutSetVolume7@CMangoClass@@UAAJK@Z| ; CMangoClass::waveOutSetVolume7
	IMPORT	|waveOutSetVolume|

  00000			 AREA	 |.pdata|, PDATA
|$T78818| DCD	|$LN5@waveOutSet|
	DCD	0x40000200
; Function compile flags: /Ogspy

  00000			 AREA	 |.text|, CODE, ARM

  00000		 |?waveOutSetVolume7@CMangoClass@@UAAJK@Z| PROC ; CMangoClass::waveOutSetVolume7
; Line 1477
  00000		 |$LN5@waveOutSet|
  00000		 |$M78815|
; Line 1478
  00000	e3a00000	 mov         r0, #0
  00004	ea000000	 b           waveOutSetVolume
  00008		 |$M78816|

			 ENDP  ; |?waveOutSetVolume7@CMangoClass@@UAAJK@Z|, CMangoClass::waveOutSetVolume7

	EXPORT	|?waveOutSetPitch7@CMangoClass@@UAAJK@Z| ; CMangoClass::waveOutSetPitch7
	IMPORT	|waveOutSetPitch|

  00000			 AREA	 |.pdata|, PDATA
|$T78828| DCD	|$LN5@waveOutSet@2|
	DCD	0x40000200
; Function compile flags: /Ogspy

  00000			 AREA	 |.text|, CODE, ARM

  00000		 |?waveOutSetPitch7@CMangoClass@@UAAJK@Z| PROC ; CMangoClass::waveOutSetPitch7
; Line 1482
  00000		 |$LN5@waveOutSet@2|
  00000		 |$M78825|
; Line 1483
  00000	e3a00000	 mov         r0, #0
  00004	ea000000	 b           waveOutSetPitch
  00008		 |$M78826|

			 ENDP  ; |?waveOutSetPitch7@CMangoClass@@UAAJK@Z|, CMangoClass::waveOutSetPitch7

	EXPORT	|?waveGetHWAVEOUT@CMangoClass@@UAAJXZ|	; CMangoClass::waveGetHWAVEOUT
	IMPORT	|waveOutOpen|

  00000			 AREA	 |.pdata|, PDATA
|$T78837| DCD	|$LN5@waveGetHWA|
	DCD	0x40000e02
; Function compile flags: /Ogspy

  00000			 AREA	 |.text|, CODE, ARM

  00000		 |?waveGetHWAVEOUT@CMangoClass@@UAAJXZ| PROC ; CMangoClass::waveGetHWAVEOUT
; Line 1487
  00000		 |$LN5@waveGetHWA|
  00000	e52de004	 str         lr, [sp, #-4]!
  00004	e24dd020	 sub         sp, sp, #0x20
  00008		 |$M78834|
; Line 1490
  00008	e3a03002	 mov         r3, #2
  0000c	e3a02000	 mov         r2, #0
  00010	e58d3004	 str         r3, [sp, #4]
  00014	e58d2000	 str         r2, [sp]
  00018	e3a03000	 mov         r3, #0
  0001c	e28d200c	 add         r2, sp, #0xC
  00020	e3e01000	 mvn         r1, #0
  00024	e28d0008	 add         r0, sp, #8
  00028	eb000000	 bl          waveOutOpen
; Line 1494
  0002c	e28d0008	 add         r0, sp, #8
; Line 1495
  00030	e28dd020	 add         sp, sp, #0x20
  00034	e49df004	 ldr         pc, [sp], #4
  00038		 |$M78835|

			 ENDP  ; |?waveGetHWAVEOUT@CMangoClass@@UAAJXZ|, CMangoClass::waveGetHWAVEOUT

	EXPORT	|?KernelIoControl@CMangoClass@@UAAJIHIHIPAI@Z| ; CMangoClass::KernelIoControl
	EXPORT	|??_C@_1CA@CBJOHOHO@?$AAK?$AAe?$AAr?$AAn?$AAe?$AAl?$AAI?$AAo?$AAC?$AAo?$AAn?$AAt?$AAr?$AAo?$AAl?$AA?$AA@| [ DATA ] ; `string'

  00000			 AREA	 |.pdata|, PDATA
|$T78851| DCD	|$LN5@KernelIoCo|
	DCD	0x40001802

  00000			 AREA	 |.rdata|, DATA, READONLY
|??_C@_1CA@CBJOHOHO@?$AAK?$AAe?$AAr?$AAn?$AAe?$AAl?$AAI?$AAo?$AAC?$AAo?$AAn?$AAt?$AAr?$AAo?$AAl?$AA?$AA@| DCB "K"
	DCB	0x0, "e", 0x0, "r", 0x0, "n", 0x0, "e", 0x0, "l", 0x0, "I"
	DCB	0x0, "o", 0x0, "C", 0x0, "o", 0x0, "n", 0x0, "t", 0x0, "r"
	DCB	0x0, "o", 0x0, "l", 0x0, 0x0, 0x0	; `string'
; Function compile flags: /Ogspy

  00000			 AREA	 |.text|, CODE, ARM

  00000		 |?KernelIoControl@CMangoClass@@UAAJIHIHIPAI@Z| PROC ; CMangoClass::KernelIoControl
; Line 1513
  00000		 |$LN5@KernelIoCo|
  00000	e92d41f0	 stmdb       sp!, {r4 - r8, lr}
  00004	e24dd008	 sub         sp, sp, #8
  00008		 |$M78848|
  00008	e1a06003	 mov         r6, r3
  0000c	e1a07002	 mov         r7, r2
  00010	e1a08001	 mov         r8, r1
; Line 1514
  00014	e59f0040	 ldr         r0, [pc, #0x40]
  00018	eb000000	 bl          LoadLibraryW
; Line 1516
  0001c	e59f1034	 ldr         r1, [pc, #0x34]
  00020	eb000000	 bl          GetProcAddressW
; Line 1518
  00024	e59de028	 ldr         lr, [sp, #0x28]
  00028	e59d4024	 ldr         r4, [sp, #0x24]
  0002c	e59d3020	 ldr         r3, [sp, #0x20]
  00030	e1a05000	 mov         r5, r0
  00034	e58de004	 str         lr, [sp, #4]
  00038	e58d4000	 str         r4, [sp]
  0003c	e1a02006	 mov         r2, r6
  00040	e1a01007	 mov         r1, r7
  00044	e1a00008	 mov         r0, r8
  00048	e1a0e00f	 mov         lr, pc
  0004c	e1a0f005	 mov         pc, r5
; Line 1519
  00050	e28dd008	 add         sp, sp, #8
  00054	e8bd81f0	 ldmia       sp!, {r4 - r8, pc}
  00058		 |$LN6@KernelIoCo|
  00058		 |$LN7@KernelIoCo|
  00058	00000000	 DCD         |??_C@_1CA@CBJOHOHO@?$AAK?$AAe?$AAr?$AAn?$AAe?$AAl?$AAI?$AAo?$AAC?$AAo?$AAn?$AAt?$AAr?$AAo?$AAl?$AA?$AA@|
  0005c		 |$LN8@KernelIoCo|
  0005c	00000000	 DCD         |??_C@_1BA@HMFMEPIE@?$AAc?$AAo?$AAr?$AAe?$AAd?$AAl?$AAl?$AA?$AA@|
  00060		 |$M78849|

			 ENDP  ; |?KernelIoControl@CMangoClass@@UAAJIHIHIPAI@Z|, CMangoClass::KernelIoControl

	EXPORT	|?ScreenSetContrast@CMangoClass@@UAAJK@Z| ; CMangoClass::ScreenSetContrast
	IMPORT	|ExtEscape|

  00000			 AREA	 |.pdata|, PDATA
|$T78865| DCD	|$LN5@ScreenSetC|
	DCD	0x40001502
; Function compile flags: /Ogspy

  00000			 AREA	 |.text|, CODE, ARM

  00000		 |?ScreenSetContrast@CMangoClass@@UAAJK@Z| PROC ; CMangoClass::ScreenSetContrast
; Line 1593
  00000		 |$LN5@ScreenSetC|
  00000	e92d4030	 stmdb       sp!, {r4, r5, lr}
  00004	e24dd010	 sub         sp, sp, #0x10
  00008		 |$M78862|
  00008	e1a04001	 mov         r4, r1
; Line 1595
  0000c	e3a03000	 mov         r3, #0
  00010	e3a02000	 mov         r2, #0
  00014	e3a01000	 mov         r1, #0
  00018	e3a00000	 mov         r0, #0
  0001c	eb000000	 bl          CreateDCW
  00020	e3a01b06	 mov         r1, #6, 22
; Line 1596
  00024	e3a0e001	 mov         lr, #1
; Line 1604
  00028	e3a05000	 mov         r5, #0
  0002c	e3811005	 orr         r1, r1, #5
  00030	e28d3008	 add         r3, sp, #8
  00034	e3a02008	 mov         r2, #8
  00038	e58de008	 str         lr, [sp, #8]
  0003c	e58d400c	 str         r4, [sp, #0xC]
  00040	e58d5004	 str         r5, [sp, #4]
  00044	e58d5000	 str         r5, [sp]
  00048	eb000000	 bl          ExtEscape
; Line 1607
  0004c	e28dd010	 add         sp, sp, #0x10
  00050	e8bd8030	 ldmia       sp!, {r4, r5, pc}
  00054		 |$M78863|

			 ENDP  ; |?ScreenSetContrast@CMangoClass@@UAAJK@Z|, CMangoClass::ScreenSetContrast

	EXPORT	|?ScreenGetContrast@CMangoClass@@UAAJXZ| ; CMangoClass::ScreenGetContrast

  00000			 AREA	 |.pdata|, PDATA
|$T78875| DCD	|$LN7@ScreenGetC|
	DCD	0x40002602
; Function compile flags: /Ogspy

  00000			 AREA	 |.text|, CODE, ARM

  00000		 |?ScreenGetContrast@CMangoClass@@UAAJXZ| PROC ; CMangoClass::ScreenGetContrast
; Line 1610
  00000		 |$LN7@ScreenGetC|
  00000	e92d4070	 stmdb       sp!, {r4 - r6, lr}
  00004	e24dd014	 sub         sp, sp, #0x14
  00008		 |$M78872|
; Line 1616
  00008	e3a03b06	 mov         r3, #6, 22
  0000c	e3835005	 orr         r5, r3, #5
; Line 1617
  00010	e3a03000	 mov         r3, #0
  00014	e3a02000	 mov         r2, #0
  00018	e3a01000	 mov         r1, #0
  0001c	e3a00000	 mov         r0, #0
  00020	e58d5008	 str         r5, [sp, #8]
  00024	eb000000	 bl          CreateDCW
  00028	e1b04000	 movs        r4, r0
; Line 1619
  0002c	0a000016	 beq         |$LN1@ScreenGetC|
; Line 1621
  00030	e3a06000	 mov         r6, #0
  00034	e28d3008	 add         r3, sp, #8
  00038	e3a02004	 mov         r2, #4
  0003c	e3a01008	 mov         r1, #8
  00040	e1a00004	 mov         r0, r4
  00044	e58d6004	 str         r6, [sp, #4]
  00048	e58d6000	 str         r6, [sp]
  0004c	eb000000	 bl          ExtEscape
  00050	e3500000	 cmp         r0, #0
  00054	0a00000c	 beq         |$LN1@ScreenGetC|
; Line 1623
  00058	e3a03000	 mov         r3, #0
; Line 1624
  0005c	e3a02000	 mov         r2, #0
  00060	e58d300c	 str         r3, [sp, #0xC]
  00064	e58d2010	 str         r2, [sp, #0x10]
; Line 1631
  00068	e28d300c	 add         r3, sp, #0xC
  0006c	e3a02008	 mov         r2, #8
  00070	e1a01005	 mov         r1, r5
  00074	e1a00004	 mov         r0, r4
  00078	e58d6004	 str         r6, [sp, #4]
  0007c	e58d6000	 str         r6, [sp]
  00080	eb000000	 bl          ExtEscape
; Line 1638
  00084	e28dd014	 add         sp, sp, #0x14
  00088	e8bd8070	 ldmia       sp!, {r4 - r6, pc}
  0008c		 |$LN1@ScreenGetC|
; Line 1637
  0008c	e3e00000	 mvn         r0, #0
; Line 1638
  00090	e28dd014	 add         sp, sp, #0x14
  00094	e8bd8070	 ldmia       sp!, {r4 - r6, pc}
  00098		 |$M78873|

			 ENDP  ; |?ScreenGetContrast@CMangoClass@@UAAJXZ|, CMangoClass::ScreenGetContrast

	EXPORT	|?PhoneMakeCall7@CMangoClass@@UAAJPA_W@Z| ; CMangoClass::PhoneMakeCall7
	IMPORT	|PhoneMakeCall|

  00000			 AREA	 |.pdata|, PDATA
|$T78885| DCD	|$LN5@PhoneMakeC|
	DCD	0x40001002
; Function compile flags: /Ogspy

  00000			 AREA	 |.text|, CODE, ARM

  00000		 |?PhoneMakeCall7@CMangoClass@@UAAJPA_W@Z| PROC ; CMangoClass::PhoneMakeCall7
; Line 1698
  00000		 |$LN5@PhoneMakeC|
  00000	e92d4010	 stmdb       sp!, {r4, lr}
  00004	e24dd01c	 sub         sp, sp, #0x1C
  00008		 |$M78882|
  00008	e1a04001	 mov         r4, r1
; Line 1700
  0000c	e3a0201c	 mov         r2, #0x1C
  00010	e3a01000	 mov         r1, #0
  00014	e28d0000	 add         r0, sp, #0
  00018	eb000000	 bl          memset
; Line 1701
  0001c	e3a0301c	 mov         r3, #0x1C
; Line 1702
  00020	e3a02001	 mov         r2, #1
; Line 1704
  00024	e28d0000	 add         r0, sp, #0
  00028	e58d3000	 str         r3, [sp]
  0002c	e58d2004	 str         r2, [sp, #4]
  00030	e58d4008	 str         r4, [sp, #8]
  00034	eb000000	 bl          PhoneMakeCall
; Line 1705
  00038	e28dd01c	 add         sp, sp, #0x1C
  0003c	e8bd8010	 ldmia       sp!, {r4, pc}
  00040		 |$M78883|

			 ENDP  ; |?PhoneMakeCall7@CMangoClass@@UAAJPA_W@Z|, CMangoClass::PhoneMakeCall7

	EXPORT	|?SetSystemTime7@CMangoClass@@UAAJGGGGGGGG@Z| ; CMangoClass::SetSystemTime7
	IMPORT	|SetSystemTime|

  00000			 AREA	 |.pdata|, PDATA
|$T78897| DCD	|$LN5@SetSystemT|
	DCD	0x40001302
; Function compile flags: /Ogspy

  00000			 AREA	 |.text|, CODE, ARM

  00000		 |?SetSystemTime7@CMangoClass@@UAAJGGGGGGGG@Z| PROC ; CMangoClass::SetSystemTime7
; Line 1708
  00000		 |$LN5@SetSystemT|
  00000	e92d4070	 stmdb       sp!, {r4 - r6, lr}
  00004	e24dd010	 sub         sp, sp, #0x10
  00008		 |$M78894|
; Line 1713
  00008	e1dd02b0	 ldrh        r0, [sp, #0x20]
; Line 1714
  0000c	e1dde2b4	 ldrh        lr, [sp, #0x24]
; Line 1715
  00010	e1dd42b8	 ldrh        r4, [sp, #0x28]
; Line 1716
  00014	e1dd52bc	 ldrh        r5, [sp, #0x2C]
; Line 1717
  00018	e1dd63b0	 ldrh        r6, [sp, #0x30]
  0001c	e1cd00b6	 strh        r0, [sp, #6]
; Line 1719
  00020	e28d0000	 add         r0, sp, #0
  00024	e1cde0b8	 strh        lr, [sp, #8]
  00028	e1cd40ba	 strh        r4, [sp, #0xA]
  0002c	e1cd50bc	 strh        r5, [sp, #0xC]
  00030	e1cd60be	 strh        r6, [sp, #0xE]
  00034	e1cd10b0	 strh        r1, [sp]
  00038	e1cd20b2	 strh        r2, [sp, #2]
  0003c	e1cd30b4	 strh        r3, [sp, #4]
  00040	eb000000	 bl          SetSystemTime
; Line 1723
  00044	e28dd010	 add         sp, sp, #0x10
  00048	e8bd8070	 ldmia       sp!, {r4 - r6, pc}
  0004c		 |$M78895|

			 ENDP  ; |?SetSystemTime7@CMangoClass@@UAAJGGGGGGGG@Z|, CMangoClass::SetSystemTime7

	EXPORT	|?PostMessage7@CMangoClass@@UAAJHIII@Z|	; CMangoClass::PostMessage7
	IMPORT	|PostMessageW|

  00000			 AREA	 |.pdata|, PDATA
|$T78914| DCD	|$LN7@PostMessag|
	DCD	0x40000a01
; Function compile flags: /Ogspy

  00000			 AREA	 |.text|, CODE, ARM

  00000		 |?PostMessage7@CMangoClass@@UAAJHIII@Z| PROC ; CMangoClass::PostMessage7
; Line 1901
  00000		 |$LN7@PostMessag|
  00000	e92d4010	 stmdb       sp!, {r4, lr}
  00004		 |$M78911|
  00004	e1a00003	 mov         r0, r3
  00008	e1a0e002	 mov         lr, r2
  0000c	e1a04001	 mov         r4, r1
; Line 1902
  00010	e59d3008	 ldr         r3, [sp, #8]
  00014	e1a02000	 mov         r2, r0
  00018	e1a00004	 mov         r0, r4
  0001c	e1a0100e	 mov         r1, lr
  00020	e8bd4010	 ldmia       sp!, {r4, lr}
  00024	ea000000	 b           PostMessageW
  00028		 |$M78912|

			 ENDP  ; |?PostMessage7@CMangoClass@@UAAJHIII@Z|, CMangoClass::PostMessage7

	EXPORT	|?SendMessage7@CMangoClass@@UAAJHIII@Z|	; CMangoClass::SendMessage7
	IMPORT	|SendMessageW|

  00000			 AREA	 |.pdata|, PDATA
|$T78931| DCD	|$LN7@SendMessag|
	DCD	0x40000a01
; Function compile flags: /Ogspy

  00000			 AREA	 |.text|, CODE, ARM

  00000		 |?SendMessage7@CMangoClass@@UAAJHIII@Z| PROC ; CMangoClass::SendMessage7
; Line 1906
  00000		 |$LN7@SendMessag|
  00000	e92d4010	 stmdb       sp!, {r4, lr}
  00004		 |$M78928|
  00004	e1a00003	 mov         r0, r3
  00008	e1a0e002	 mov         lr, r2
  0000c	e1a04001	 mov         r4, r1
; Line 1907
  00010	e59d3008	 ldr         r3, [sp, #8]
  00014	e1a02000	 mov         r2, r0
  00018	e1a00004	 mov         r0, r4
  0001c	e1a0100e	 mov         r1, lr
  00020	e8bd4010	 ldmia       sp!, {r4, lr}
  00024	ea000000	 b           SendMessageW
  00028		 |$M78929|

			 ENDP  ; |?SendMessage7@CMangoClass@@UAAJHIII@Z|, CMangoClass::SendMessage7

	EXPORT	|?CaptureScreen@CMangoClass@@UAAJPAPAUHBITMAP__@@PAHPAPAX@Z| ; CMangoClass::CaptureScreen
	IMPORT	|ReleaseDC|
	IMPORT	|CreateDIBSection|
	IMPORT	|GetDC|

  00000			 AREA	 |.pdata|, PDATA
|$T78950| DCD	|$LN12@CaptureScr|
	DCD	0x40006402
; Function compile flags: /Ogspy

  00000			 AREA	 |.text|, CODE, ARM

  00000		 |?CaptureScreen@CMangoClass@@UAAJPAPAUHBITMAP__@@PAHPAPAX@Z| PROC ; CMangoClass::CaptureScreen
; Line 1916
  00000		 |$LN12@CaptureScr|
  00000	e92d4ff0	 stmdb       sp!, {r4 - r11, lr}
  00004	e24dd04c	 sub         sp, sp, #0x4C
  00008		 |$M78947|
  00008	e1a07003	 mov         r7, r3
  0000c	e1a08002	 mov         r8, r2
  00010	e1a09001	 mov         r9, r1
; Line 1924
  00014	e3a02000	 mov         r2, #0
  00018	e5892000	 str         r2, [r9]
  0001c	e3a03000	 mov         r3, #0
; Line 1925
  00020	e5882000	 str         r2, [r8]
; Line 1928
  00024	e3a00000	 mov         r0, #0
  00028	e5872000	 str         r2, [r7]
  0002c	e3a04000	 mov         r4, #0
  00030	e58d3014	 str         r3, [sp, #0x14]
  00034	eb000000	 bl          GetDC
  00038	e1b06000	 movs        r6, r0
; Line 1930
  0003c	4a00004f	 bmi         |$LN7@CaptureScr|
; Line 1932
  00040	e3a01008	 mov         r1, #8
  00044	e1a00006	 mov         r0, r6
  00048	eb000000	 bl          GetDeviceCaps
  0004c	e1a05000	 mov         r5, r0
; Line 1933
  00050	e1a00006	 mov         r0, r6
  00054	e3a0100a	 mov         r1, #0xA
  00058	e58d5018	 str         r5, [sp, #0x18]
  0005c	eb000000	 bl          GetDeviceCaps
  00060	e1a0a000	 mov         r10, r0
; Line 1936
  00064	e28d0020	 add         r0, sp, #0x20
  00068	e3a0202c	 mov         r2, #0x2C
  0006c	e3a01000	 mov         r1, #0
  00070	e58da01c	 str         r10, [sp, #0x1C]
  00074	eb000000	 bl          memset
; Line 1943
  00078	e003059a	 mul         r3, r10, r5
  0007c	e26a2000	 rsb         r2, r10, #0
  00080	e0833083	 add         r3, r3, r3, lsl #1
  00084	e3a01028	 mov         r1, #0x28
  00088	e3a0e001	 mov         lr, #1
  0008c	e3a0a018	 mov         r10, #0x18
  00090	e3a0b000	 mov         r11, #0
; Line 1945
  00094	e1a00006	 mov         r0, r6
  00098	e58d3034	 str         r3, [sp, #0x34]
  0009c	e58d1020	 str         r1, [sp, #0x20]
  000a0	e58d5024	 str         r5, [sp, #0x24]
  000a4	e58d2028	 str         r2, [sp, #0x28]
  000a8	e1cde2bc	 strh        lr, [sp, #0x2C]
  000ac	e1cda2be	 strh        r10, [sp, #0x2E]
  000b0	e58db030	 str         r11, [sp, #0x30]
  000b4	eb000000	 bl          CreateCompatibleDC
  000b8	e1b05000	 movs        r5, r0
; Line 1947
  000bc	4a00002a	 bmi         |$LN6@CaptureScr|
; Line 1949
  000c0	e3a0e000	 mov         lr, #0
  000c4	e28d3014	 add         r3, sp, #0x14
  000c8	e3a02000	 mov         r2, #0
  000cc	e28d1020	 add         r1, sp, #0x20
  000d0	e1a00005	 mov         r0, r5
  000d4	e58de004	 str         lr, [sp, #4]
  000d8	e58de000	 str         lr, [sp]
  000dc	eb000000	 bl          CreateDIBSection
  000e0	e1b0a000	 movs        r10, r0
; Line 1951
  000e4	4a00001c	 bmi         |$LN5@CaptureScr|
; Line 1953
  000e8	e1a0100a	 mov         r1, r10
  000ec	e1a00005	 mov         r0, r5
  000f0	eb000000	 bl          SelectObject
  000f4	e3a03733	 mov         r3, #0x33, 14
; Line 1955
  000f8	e3a0e000	 mov         lr, #0
  000fc	e3833020	 orr         r3, r3, #0x20
  00100	e58de00c	 str         lr, [sp, #0xC]
  00104	e58de008	 str         lr, [sp, #8]
  00108	e59de01c	 ldr         lr, [sp, #0x1C]
  0010c	e58d3010	 str         r3, [sp, #0x10]
  00110	e59d3018	 ldr         r3, [sp, #0x18]
  00114	e1a0b000	 mov         r11, r0
  00118	e3a02000	 mov         r2, #0
  0011c	e3a01000	 mov         r1, #0
  00120	e1a00005	 mov         r0, r5
  00124	e58de000	 str         lr, [sp]
  00128	e58d6004	 str         r6, [sp, #4]
  0012c	eb000000	 bl          BitBlt
  00130	e3500000	 cmp         r0, #0
; Line 1958
  00134	e1a00005	 mov         r0, r5
  00138	e1a0100b	 mov         r1, r11
  0013c	03e04003	 mvneq       r4, #3
  00140	eb000000	 bl          SelectObject
; Line 1961
  00144	e59d3034	 ldr         r3, [sp, #0x34]
; Line 1962
  00148	e59d2014	 ldr         r2, [sp, #0x14]
  0014c	e589a000	 str         r10, [r9]
  00150	e5883000	 str         r3, [r8]
  00154	e5872000	 str         r2, [r7]
; Line 1964
  00158	ea000000	 b           |$LN3@CaptureScr|
  0015c		 |$LN5@CaptureScr|
; Line 1965
  0015c	e3e04002	 mvn         r4, #2
  00160		 |$LN3@CaptureScr|
; Line 1967
  00160	e1a00005	 mov         r0, r5
  00164	eb000000	 bl          DeleteDC
; Line 1969
  00168	ea000000	 b           |$LN2@CaptureScr|
  0016c		 |$LN6@CaptureScr|
; Line 1970
  0016c	e3e04001	 mvn         r4, #1
  00170		 |$LN2@CaptureScr|
; Line 1972
  00170	e1a01006	 mov         r1, r6
  00174	e3a00000	 mov         r0, #0
  00178	eb000000	 bl          ReleaseDC
; Line 1974
  0017c	ea000000	 b           |$LN1@CaptureScr|
  00180		 |$LN7@CaptureScr|
; Line 1975
  00180	e3e04000	 mvn         r4, #0
  00184		 |$LN1@CaptureScr|
; Line 1978
  00184	e1a00004	 mov         r0, r4
  00188	e28dd04c	 add         sp, sp, #0x4C
  0018c	e8bd8ff0	 ldmia       sp!, {r4 - r11, pc}
  00190		 |$M78948|

			 ENDP  ; |?CaptureScreen@CMangoClass@@UAAJPAPAUHBITMAP__@@PAHPAPAX@Z|, CMangoClass::CaptureScreen

	EXPORT	|?DeleteObject@CMangoClass@@UAAJPAX@Z|	; CMangoClass::DeleteObject
	IMPORT	|DeleteObject|

  00000			 AREA	 |.pdata|, PDATA
|$T78960| DCD	|$LN5@DeleteObje|
	DCD	0x40000200
; Function compile flags: /Ogspy

  00000			 AREA	 |.text|, CODE, ARM

  00000		 |?DeleteObject@CMangoClass@@UAAJPAX@Z| PROC ; CMangoClass::DeleteObject
; Line 1981
  00000		 |$LN5@DeleteObje|
  00000		 |$M78957|
; Line 1982
  00000	e1a00001	 mov         r0, r1
  00004	ea000000	 b           DeleteObject
  00008		 |$M78958|

			 ENDP  ; |?DeleteObject@CMangoClass@@UAAJPAX@Z|, CMangoClass::DeleteObject

	EXPORT	|?ASMExecute@CMangoClass@@UAAJPAE@Z|	; CMangoClass::ASMExecute

  00000			 AREA	 |.pdata|, PDATA
|$T78970| DCD	|$LN5@ASMExecute|
	DCD	0x40000401
; Function compile flags: /Ogspy

  00000			 AREA	 |.text|, CODE, ARM

  00000		 |?ASMExecute@CMangoClass@@UAAJPAE@Z| PROC ; CMangoClass::ASMExecute
; Line 1986
  00000		 |$LN5@ASMExecute|
  00000	e52de004	 str         lr, [sp, #-4]!
  00004		 |$M78967|
; Line 1993
  00004	e1a0e00f	 mov         lr, pc
  00008	e1a0f001	 mov         pc, r1
; Line 2013
  0000c	e49df004	 ldr         pc, [sp], #4
  00010		 |$M78968|

			 ENDP  ; |?ASMExecute@CMangoClass@@UAAJPAE@Z|, CMangoClass::ASMExecute

	EXPORT	|?___hello@@YAXXZ|			; ___hello

  00000			 AREA	 |.pdata|, PDATA
|$T78977| DCD	|$LN5@hello|
	DCD	0x40001602
; Function compile flags: /Ogspy

  00000			 AREA	 |.text|, CODE, ARM

  00000		 |?___hello@@YAXXZ| PROC		; ___hello
; Line 2027
  00000		 |$LN5@hello|
  00000	e92d4030	 stmdb       sp!, {r4, r5, lr}
  00004	e24dd010	 sub         sp, sp, #0x10
  00008		 |$M78974|
; Line 2030
  00008	e59f4044	 ldr         r4, [pc, #0x44]	; 356947272 (0x15469548)
  0000c	e59f303c	 ldr         r3, [pc, #0x3C]	; 356947272 (0x15469548)
  00010	e59f2034	 ldr         r2, [pc, #0x34]	; 356947272 (0x15469548)
  00014	e59f102c	 ldr         r1, [pc, #0x2C]	; 356947272 (0x15469548)
  00018	e59f0024	 ldr         r0, [pc, #0x24]	; 356947272 (0x15469548)
  0001c	e59f501c	 ldr         r5, [pc, #0x1C]	; 356947272 (0x15469548)
  00020	e58d400c	 str         r4, [sp, #0xC]
  00024	e58d4008	 str         r4, [sp, #8]
  00028	e58d4004	 str         r4, [sp, #4]
  0002c	e58d4000	 str         r4, [sp]
  00030	e1a0e00f	 mov         lr, pc
  00034	e1a0f005	 mov         pc, r5
; Line 2062
  00038	e28dd010	 add         sp, sp, #0x10
  0003c	e8bd8030	 ldmia       sp!, {r4, r5, pc}
  00040		 |$LN6@hello|
  00040		 |$LN7@hello|
  00040	15469548	 DCD         0x15469548
  00044		 |$LN8@hello|
  00044	56485598	 DCD         0x56485598
  00048		 |$LN9@hello|
  00048	13467954	 DCD         0x13467954
  0004c		 |$LN10@hello|
  0004c	31669741	 DCD         0x31669741
  00050		 |$LN11@hello|
  00050	51234879	 DCD         0x51234879
  00054		 |$LN12@hello|
  00054	16845965	 DCD         0x16845965
  00058		 |$M78975|

			 ENDP  ; |?___hello@@YAXXZ|, ___hello

	EXPORT	|?GetHelloWorldMSGBPtr@CMangoClass@@UAAJXZ| ; CMangoClass::GetHelloWorldMSGBPtr

  00000			 AREA	 |.pdata|, PDATA
|$T78993| DCD	|$LN5@GetHelloWo|
	DCD	0x40000300
; Function compile flags: /Ogspy

  00000			 AREA	 |.text|, CODE, ARM

  00000		 |?GetHelloWorldMSGBPtr@CMangoClass@@UAAJXZ| PROC ; CMangoClass::GetHelloWorldMSGBPtr
; Line 2066
  00000		 |$LN5@GetHelloWo|
  00000		 |$M78990|
; Line 2067
  00000	e59f0000	 ldr         r0, [pc]
; Line 2068
  00004	e1a0f00e	 mov         pc, lr
  00008		 |$LN6@GetHelloWo|
  00008		 |$LN7@GetHelloWo|
  00008	00000000	 DCD         |?___hello@@YAXXZ|
  0000c		 |$M78991|

			 ENDP  ; |?GetHelloWorldMSGBPtr@CMangoClass@@UAAJXZ|, CMangoClass::GetHelloWorldMSGBPtr

	EXPORT	|?ValueAtAddres@CMangoClass@@UAAJPAH@Z|	; CMangoClass::ValueAtAddres

  00000			 AREA	 |.pdata|, PDATA
|$T79005| DCD	|$LN5@ValueAtAdd|
	DCD	0x40000200
; Function compile flags: /Ogspy

  00000			 AREA	 |.text|, CODE, ARM

  00000		 |?ValueAtAddres@CMangoClass@@UAAJPAH@Z| PROC ; CMangoClass::ValueAtAddres
; Line 2070
  00000		 |$LN5@ValueAtAdd|
  00000		 |$M79002|
; Line 2072
  00000	e5910000	 ldr         r0, [r1]
; Line 2073
  00004	e1a0f00e	 mov         pc, lr
  00008		 |$M79003|

			 ENDP  ; |?ValueAtAddres@CMangoClass@@UAAJPAH@Z|, CMangoClass::ValueAtAddres

	EXPORT	|?AddressOfObject@CMangoClass@@UAAJPAX@Z| ; CMangoClass::AddressOfObject

  00000			 AREA	 |.pdata|, PDATA
|$T79015| DCD	|$LN5@AddressOfO|
	DCD	0x40000200
; Function compile flags: /Ogspy

  00000			 AREA	 |.text|, CODE, ARM

  00000		 |?AddressOfObject@CMangoClass@@UAAJPAX@Z| PROC ; CMangoClass::AddressOfObject
; Line 2076
  00000		 |$LN5@AddressOfO|
  00000		 |$M79012|
; Line 2078
  00000	e1a00001	 mov         r0, r1
  00004	e1a0f00e	 mov         pc, lr
  00008		 |$M79013|

			 ENDP  ; |?AddressOfObject@CMangoClass@@UAAJPAX@Z|, CMangoClass::AddressOfObject

	EXPORT	|?__TEST_SayHello@@YAXXZ|		; __TEST_SayHello
	EXPORT	|??_C@_19BCDHFEBA@?$AAt?$AAe?$AAs?$AAt?$AA?$AA@| [ DATA ] ; `string'

  00000			 AREA	 |.pdata|, PDATA
|$T79022| DCD	|$LN5@TEST_SayHe|
	DCD	0x40000600

  00000			 AREA	 |.rdata|, DATA, READONLY
|??_C@_19BCDHFEBA@?$AAt?$AAe?$AAs?$AAt?$AA?$AA@| DCB "t", 0x0, "e", 0x0, "s"
	DCB	0x0, "t", 0x0, 0x0, 0x0			; `string'
; Function compile flags: /Ogspy

  00000			 AREA	 |.text|, CODE, ARM

  00000		 |?__TEST_SayHello@@YAXXZ| PROC		; __TEST_SayHello
; Line 2081
  00000		 |$LN5@TEST_SayHe|
  00000		 |$M79019|
; Line 2082
  00000	e59f100c	 ldr         r1, [pc, #0xC]
  00004	e3a03000	 mov         r3, #0
  00008	e3a00000	 mov         r0, #0
  0000c	e1a02001	 mov         r2, r1
  00010	ea000000	 b           MessageBoxW
  00014		 |$LN6@TEST_SayHe|
  00014		 |$LN7@TEST_SayHe|
  00014	00000000	 DCD         |??_C@_19BCDHFEBA@?$AAt?$AAe?$AAs?$AAt?$AA?$AA@|
  00018		 |$M79020|

			 ENDP  ; |?__TEST_SayHello@@YAXXZ|, __TEST_SayHello

	EXPORT	|?TestFunc1@CMangoClass@@UAAJXZ|	; CMangoClass::TestFunc1

  00000			 AREA	 |.pdata|, PDATA
|$T79033| DCD	|$LN5@TestFunc1|
	DCD	0x40000300
; Function compile flags: /Ogspy

  00000			 AREA	 |.text|, CODE, ARM

  00000		 |?TestFunc1@CMangoClass@@UAAJXZ| PROC	; CMangoClass::TestFunc1
; Line 2085
  00000		 |$LN5@TestFunc1|
  00000		 |$M79030|
; Line 2086
  00000	e59f0000	 ldr         r0, [pc]
; Line 2087
  00004	e1a0f00e	 mov         pc, lr
  00008		 |$LN6@TestFunc1|
  00008		 |$LN7@TestFunc1|
  00008	00000000	 DCD         |?__TEST_SayHello@@YAXXZ|
  0000c		 |$M79031|

			 ENDP  ; |?TestFunc1@CMangoClass@@UAAJXZ|, CMangoClass::TestFunc1

	EXPORT	|?DeviceIoControl7@CMangoClass@@UAAJPAXK0K0KPAKPAU_OVERLAPPED@@@Z| ; CMangoClass::DeviceIoControl7
	IMPORT	|DeviceIoControl|

  00000			 AREA	 |.pdata|, PDATA
|$T79047| DCD	|$LN5@DeviceIoCo|
	DCD	0x40001402
; Function compile flags: /Ogspy

  00000			 AREA	 |.text|, CODE, ARM

  00000		 |?DeviceIoControl7@CMangoClass@@UAAJPAXK0K0KPAKPAU_OVERLAPPED@@@Z| PROC ; CMangoClass::DeviceIoControl7
; Line 2096
  00000		 |$LN5@DeviceIoCo|
  00000	e92d41f0	 stmdb       sp!, {r4 - r8, lr}
  00004	e24dd010	 sub         sp, sp, #0x10
  00008		 |$M79044|
  00008	e1a06003	 mov         r6, r3
  0000c	e1a07002	 mov         r7, r2
  00010	e1a08001	 mov         r8, r1
; Line 2098
  00014	e59d0038	 ldr         r0, [sp, #0x38]
  00018	e59de034	 ldr         lr, [sp, #0x34]
  0001c	e59d4030	 ldr         r4, [sp, #0x30]
  00020	e59d502c	 ldr         r5, [sp, #0x2C]
  00024	e59d3028	 ldr         r3, [sp, #0x28]
  00028	e58d000c	 str         r0, [sp, #0xC]
  0002c	e1a00008	 mov         r0, r8
  00030	e1a02006	 mov         r2, r6
  00034	e1a01007	 mov         r1, r7
  00038	e58de008	 str         lr, [sp, #8]
  0003c	e58d4004	 str         r4, [sp, #4]
  00040	e58d5000	 str         r5, [sp]
  00044	eb000000	 bl          DeviceIoControl
; Line 2099
  00048	e28dd010	 add         sp, sp, #0x10
  0004c	e8bd81f0	 ldmia       sp!, {r4 - r8, pc}
  00050		 |$M79045|

			 ENDP  ; |?DeviceIoControl7@CMangoClass@@UAAJPAXK0K0KPAKPAU_OVERLAPPED@@@Z|, CMangoClass::DeviceIoControl7

	EXPORT	|?EXP_test1@@YAXXZ|			; EXP_test1
	EXPORT	|??_C@_1CO@FMCDJLBB@?$AAH?$AAe?$AAl?$AAl?$AAo?$AA?5?$AAf?$AAr?$AAo?$AAm?$AA?5?$AA?$CC?$AAE?$AAX?$AAP?$AA_?$AAt?$AAe?$AAs?$AAt?$AA1?$AA?$CC?$AA?$AA@| [ DATA ] ; `string'

  00000			 AREA	 |.pdata|, PDATA
|$T79054| DCD	|$LN5@EXP_test1|
	DCD	0x40000700

  00000			 AREA	 |.rdata|, DATA, READONLY
|??_C@_1CO@FMCDJLBB@?$AAH?$AAe?$AAl?$AAl?$AAo?$AA?5?$AAf?$AAr?$AAo?$AAm?$AA?5?$AA?$CC?$AAE?$AAX?$AAP?$AA_?$AAt?$AAe?$AAs?$AAt?$AA1?$AA?$CC?$AA?$AA@| DCB "H"
	DCB	0x0, "e", 0x0, "l", 0x0, "l", 0x0, "o", 0x0, " ", 0x0, "f"
	DCB	0x0, "r", 0x0, "o", 0x0, "m", 0x0, " ", 0x0, """", 0x0, "E"
	DCB	0x0, "X", 0x0, "P", 0x0, "_", 0x0, "t", 0x0, "e", 0x0, "s"
	DCB	0x0, "t", 0x0, "1", 0x0, """", 0x0, 0x0, 0x0 ; `string'
; Function compile flags: /Ogspy

  00000			 AREA	 |.text|, CODE, ARM

  00000		 |?EXP_test1@@YAXXZ| PROC		; EXP_test1
; Line 2102
  00000		 |$LN5@EXP_test1|
  00000		 |$M79051|
; Line 2103
  00000	e59f2010	 ldr         r2, [pc, #0x10]
  00004	e59f1008	 ldr         r1, [pc, #8]
  00008	e3a03000	 mov         r3, #0
  0000c	e3a00000	 mov         r0, #0
  00010	ea000000	 b           MessageBoxW
  00014		 |$LN6@EXP_test1|
  00014		 |$LN7@EXP_test1|
  00014	00000000	 DCD         |??_C@_1CO@FMCDJLBB@?$AAH?$AAe?$AAl?$AAl?$AAo?$AA?5?$AAf?$AAr?$AAo?$AAm?$AA?5?$AA?$CC?$AAE?$AAX?$AAP?$AA_?$AAt?$AAe?$AAs?$AAt?$AA1?$AA?$CC?$AA?$AA@|
  00018		 |$LN8@EXP_test1|
  00018	00000000	 DCD         |??_C@_11LOCGONAA@?$AA?$AA@|
  0001c		 |$M79052|

			 ENDP  ; |?EXP_test1@@YAXXZ|, EXP_test1

	EXPORT	|?EXP_test3@@YAXPAH@Z|			; EXP_test3
	EXPORT	|??_C@_1HM@IPBCEOJE@?$AAH?$AAe?$AAl?$AAl?$AAo?$AA?5?$AAf?$AAr?$AAo?$AAm?$AA?5?$AA?$CC?$AAE?$AAX?$AAP?$AA_?$AAt?$AAe?$AAs?$AAt?$AA3?$AA?$CC?$AA?4?$AA?5?$AAI?$AA?5?$AAa?$AAs?$AAs?$AAi?$AAg?$AAn@| [ DATA ] ; `string'

  00000			 AREA	 |.pdata|, PDATA
|$T79065| DCD	|$LN5@EXP_test3|
	DCD	0x40000a00

  00000			 AREA	 |.rdata|, DATA, READONLY
|??_C@_1HM@IPBCEOJE@?$AAH?$AAe?$AAl?$AAl?$AAo?$AA?5?$AAf?$AAr?$AAo?$AAm?$AA?5?$AA?$CC?$AAE?$AAX?$AAP?$AA_?$AAt?$AAe?$AAs?$AAt?$AA3?$AA?$CC?$AA?4?$AA?5?$AAI?$AA?5?$AAa?$AAs?$AAs?$AAi?$AAg?$AAn@| DCB "H"
	DCB	0x0, "e", 0x0, "l", 0x0, "l", 0x0, "o", 0x0, " ", 0x0, "f"
	DCB	0x0, "r", 0x0, "o", 0x0, "m", 0x0, " ", 0x0, """", 0x0, "E"
	DCB	0x0, "X", 0x0, "P", 0x0, "_", 0x0, "t", 0x0, "e", 0x0, "s"
	DCB	0x0, "t", 0x0, "3", 0x0, """", 0x0, ".", 0x0, " ", 0x0, "I"
	DCB	0x0, " ", 0x0, "a", 0x0, "s", 0x0, "s", 0x0, "i", 0x0, "g"
	DCB	0x0, "n", 0x0, "e", 0x0, "d", 0x0, " ", 0x0, """", 0x0, "i"
	DCB	0x0, "n", 0x0, "t", 0x0, " ", 0x0, "*", 0x0, " ", 0x0, "a"
	DCB	0x0, "s", 0x0, "s", 0x0, "i", 0x0, "g", 0x0, "n", 0x0, "T"
	DCB	0x0, "o", 0x0, "P", 0x0, "t", 0x0, "r", 0x0, """", 0x0, " "
	DCB	0x0, "=", 0x0, " ", 0x0, "1", 0x0, "3", 0x0, "3", 0x0, "7"
	DCB	0x0, 0x0, 0x0				; `string'
; Function compile flags: /Ogspy

  00000			 AREA	 |.text|, CODE, ARM

  00000		 |?EXP_test3@@YAXPAH@Z| PROC		; EXP_test3
; Line 2113
  00000		 |$LN5@EXP_test3|
  00000		 |$M79062|
  00000	e3a03c05	 mov         r3, #5, 24
; Line 2115
  00004	e59f2018	 ldr         r2, [pc, #0x18]
  00008	e59f1010	 ldr         r1, [pc, #0x10]
  0000c	e3833039	 orr         r3, r3, #0x39
  00010	e5803000	 str         r3, [r0]
  00014	e3a03000	 mov         r3, #0
  00018	e3a00000	 mov         r0, #0
  0001c	ea000000	 b           MessageBoxW
  00020		 |$LN6@EXP_test3|
  00020		 |$LN7@EXP_test3|
  00020	00000000	 DCD         |??_C@_1HM@IPBCEOJE@?$AAH?$AAe?$AAl?$AAl?$AAo?$AA?5?$AAf?$AAr?$AAo?$AAm?$AA?5?$AA?$CC?$AAE?$AAX?$AAP?$AA_?$AAt?$AAe?$AAs?$AAt?$AA3?$AA?$CC?$AA?4?$AA?5?$AAI?$AA?5?$AAa?$AAs?$AAs?$AAi?$AAg?$AAn@|
  00024		 |$LN8@EXP_test3|
  00024	00000000	 DCD         |??_C@_11LOCGONAA@?$AA?$AA@|
  00028		 |$M79063|

			 ENDP  ; |?EXP_test3@@YAXPAH@Z|, EXP_test3

	EXPORT	|?EXP_test5@@YAPAXXZ|			; EXP_test5

  00000			 AREA	 |.pdata|, PDATA
|$T79077| DCD	|$LN5@EXP_test5|
	DCD	0x40000401
; Function compile flags: /Ogspy

  00000			 AREA	 |.text|, CODE, ARM

  00000		 |?EXP_test5@@YAPAXXZ| PROC		; EXP_test5
; Line 2153
  00000		 |$LN5@EXP_test5|
  00000	e24dd004	 sub         sp, sp, #4
  00004		 |$M79074|
; Line 2155
  00004	e28d0000	 add         r0, sp, #0
; Line 2156
  00008	e28dd004	 add         sp, sp, #4
  0000c	e1a0f00e	 mov         pc, lr
  00010		 |$M79075|

			 ENDP  ; |?EXP_test5@@YAPAXXZ|, EXP_test5

	EXPORT	|?add@@YAHHH@Z|				; add

  00000			 AREA	 |.pdata|, PDATA
|$T79088| DCD	|$LN5@add|
	DCD	0x40000200
; Function compile flags: /Ogspy

  00000			 AREA	 |.text|, CODE, ARM

  00000		 |?add@@YAHHH@Z| PROC			; add
; Line 2159
  00000		 |$LN5@add|
  00000		 |$M79085|
; Line 2160
  00000	e0800001	 add         r0, r0, r1
; Line 2161
  00004	e1a0f00e	 mov         pc, lr
  00008		 |$M79086|

			 ENDP  ; |?add@@YAHHH@Z|, add

	EXPORT	|returnNumber|

  00000			 AREA	 |.pdata|, PDATA
|$T79097| DCD	|$LN5@returnNumb|
	DCD	0x40000200
; Function compile flags: /Ogspy

  00000			 AREA	 |.text|, CODE, ARM

  00000		 |returnNumber| PROC
; Line 2163
  00000		 |$LN5@returnNumb|
  00000		 |$M79094|
; Line 2164
  00000	e3a00032	 mov         r0, #0x32
; Line 2165
  00004	e1a0f00e	 mov         pc, lr
  00008		 |$M79095|

			 ENDP  ; |returnNumber|

	EXPORT	|Callbacktest|

  00000			 AREA	 |.pdata|, PDATA
|$T79105| DCD	|$LN5@Callbackte|
	DCD	0x40000401
; Function compile flags: /Ogspy

  00000			 AREA	 |.text|, CODE, ARM

  00000		 |Callbacktest| PROC
; Line 2189
  00000		 |$LN5@Callbackte|
  00000	e52de004	 str         lr, [sp, #-4]!
  00004		 |$M79102|
; Line 2190
  00004	e1a0e00f	 mov         lr, pc
  00008	e1a0f000	 mov         pc, r0
; Line 2191
  0000c	e49df004	 ldr         pc, [sp], #4
  00010		 |$M79103|

			 ENDP  ; |Callbacktest|

	EXPORT	|?WriteByte@CMangoClass@@UAAJPAHE@Z|	; CMangoClass::WriteByte

  00000			 AREA	 |.pdata|, PDATA
|$T79116| DCD	|$LN5@WriteByte|
	DCD	0x40000300
; Function compile flags: /Ogspy

  00000			 AREA	 |.text|, CODE, ARM

  00000		 |?WriteByte@CMangoClass@@UAAJPAHE@Z| PROC ; CMangoClass::WriteByte
; Line 2193
  00000		 |$LN5@WriteByte|
  00000		 |$M79113|
; Line 2194
  00000	e5812000	 str         r2, [r1]
; Line 2195
  00004	e3a00000	 mov         r0, #0
; Line 2196
  00008	e1a0f00e	 mov         pc, lr
  0000c		 |$M79114|

			 ENDP  ; |?WriteByte@CMangoClass@@UAAJPAHE@Z|, CMangoClass::WriteByte

	EXPORT	|?EDB_Mount@CMangoClass@@UAAJPA_WPA_N@Z| ; CMangoClass::EDB_Mount
	EXPORT	|??_C@_1BI@CJKPFBEK@?$AAc?$AAo?$AAr?$AAe?$AAd?$AAl?$AAl?$AA?4?$AAd?$AAl?$AAl?$AA?$AA@| [ DATA ] ; `string'
	EXPORT	|??_C@_1BO@BDKHPBJL@?$AAC?$AAe?$AAM?$AAo?$AAu?$AAn?$AAt?$AAD?$AAB?$AAV?$AAo?$AAl?$AAE?$AAx?$AA?$AA@| [ DATA ] ; `string'

  00000			 AREA	 |.pdata|, PDATA
|$T79130| DCD	|$LN7@EDB_Mount@2|
	DCD	0x40001d02

  00000			 AREA	 |.rdata|, DATA, READONLY
|??_C@_1BI@CJKPFBEK@?$AAc?$AAo?$AAr?$AAe?$AAd?$AAl?$AAl?$AA?4?$AAd?$AAl?$AAl?$AA?$AA@| DCB "c"
	DCB	0x0, "o", 0x0, "r", 0x0, "e", 0x0, "d", 0x0, "l", 0x0, "l"
	DCB	0x0, ".", 0x0, "d", 0x0, "l", 0x0, "l", 0x0, 0x0, 0x0 ; `string'

  00000			 AREA	 |.rdata|, DATA, READONLY
|??_C@_1BO@BDKHPBJL@?$AAC?$AAe?$AAM?$AAo?$AAu?$AAn?$AAt?$AAD?$AAB?$AAV?$AAo?$AAl?$AAE?$AAx?$AA?$AA@| DCB "C"
	DCB	0x0, "e", 0x0, "M", 0x0, "o", 0x0, "u", 0x0, "n", 0x0, "t"
	DCB	0x0, "D", 0x0, "B", 0x0, "V", 0x0, "o", 0x0, "l", 0x0, "E"
	DCB	0x0, "x", 0x0, 0x0, 0x0			; `string'
; Function compile flags: /Ogspy

  00000			 AREA	 |.text|, CODE, ARM

  00000		 |?EDB_Mount@CMangoClass@@UAAJPA_WPA_N@Z| PROC ; CMangoClass::EDB_Mount
; Line 2201
  00000		 |$LN7@EDB_Mount@2|
  00000	e92d4070	 stmdb       sp!, {r4 - r6, lr}
  00004	e24dd010	 sub         sp, sp, #0x10
  00008		 |$M79127|
  00008	e1a06002	 mov         r6, r2
  0000c	e1a05001	 mov         r5, r1
; Line 2202
  00010	e59f0058	 ldr         r0, [pc, #0x58]
  00014	eb000000	 bl          LoadLibraryW
  00018	e59f104c	 ldr         r1, [pc, #0x4C]
  0001c	eb000000	 bl          GetProcAddressW
; Line 2205
  00020	e3a03000	 mov         r3, #0
  00024	e58d3000	 str         r3, [sp]
  00028	e58d3004	 str         r3, [sp, #4]
  0002c	e58d3008	 str         r3, [sp, #8]
  00030	e58d300c	 str         r3, [sp, #0xC]
  00034	e1a04000	 mov         r4, r0
; Line 2207
  00038	e3a0310e	 mov         r3, #0xE, 2
  0003c	e3a02000	 mov         r2, #0
  00040	e1a01005	 mov         r1, r5
  00044	e28d0000	 add         r0, sp, #0
  00048	e1a0e00f	 mov         lr, pc
  0004c	e1a0f004	 mov         pc, r4
  00050	e3500000	 cmp         r0, #0
  00054	13a03001	 movne       r3, #1
  00058	03a03000	 moveq       r3, #0
; Line 2208
  0005c	e5c63000	 strb        r3, [r6]
; Line 2210
  00060	e28d0000	 add         r0, sp, #0
; Line 2211
  00064	e28dd010	 add         sp, sp, #0x10
  00068	e8bd8070	 ldmia       sp!, {r4 - r6, pc}
  0006c		 |$LN8@EDB_Mount@2|
  0006c		 |$LN9@EDB_Mount@2|
  0006c	00000000	 DCD         |??_C@_1BO@BDKHPBJL@?$AAC?$AAe?$AAM?$AAo?$AAu?$AAn?$AAt?$AAD?$AAB?$AAV?$AAo?$AAl?$AAE?$AAx?$AA?$AA@|
  00070		 |$LN10@EDB_Mount@2|
  00070	00000000	 DCD         |??_C@_1BI@CJKPFBEK@?$AAc?$AAo?$AAr?$AAe?$AAd?$AAl?$AAl?$AA?4?$AAd?$AAl?$AAl?$AA?$AA@|
  00074		 |$M79128|

			 ENDP  ; |?EDB_Mount@CMangoClass@@UAAJPA_WPA_N@Z|, CMangoClass::EDB_Mount

	EXPORT	|?EDB_OpenMounted@CMangoClass@@UAAJPA_WPAU_CEGUID@@@Z| ; CMangoClass::EDB_OpenMounted

  00000			 AREA	 |.pdata|, PDATA
|$T79142| DCD	|$LN5@EDB_OpenMo|
	DCD	0x40000200
; Function compile flags: /Ogspy

  00000			 AREA	 |.text|, CODE, ARM

  00000		 |?EDB_OpenMounted@CMangoClass@@UAAJPA_WPAU_CEGUID@@@Z| PROC ; CMangoClass::EDB_OpenMounted
; Line 2216
  00000		 |$LN5@EDB_OpenMo|
  00000		 |$M79139|
; Line 2217
  00000	e3a00000	 mov         r0, #0
; Line 2229
  00004	e1a0f00e	 mov         pc, lr
  00008		 |$M79140|

			 ENDP  ; |?EDB_OpenMounted@CMangoClass@@UAAJPA_WPAU_CEGUID@@@Z|, CMangoClass::EDB_OpenMounted

	EXPORT	|?EDB_FindFirstDB@CMangoClass@@UAAJPAU_CEGUID@@@Z| ; CMangoClass::EDB_FindFirstDB
	IMPORT	|CeFindFirstDatabaseEx|

  00000			 AREA	 |.pdata|, PDATA
|$T79151| DCD	|$LN5@EDB_FindFi|
	DCD	0x40000300
; Function compile flags: /Ogspy

  00000			 AREA	 |.text|, CODE, ARM

  00000		 |?EDB_FindFirstDB@CMangoClass@@UAAJPAU_CEGUID@@@Z| PROC ; CMangoClass::EDB_FindFirstDB
; Line 2231
  00000		 |$LN5@EDB_FindFi|
  00000		 |$M79148|
; Line 2232
  00000	e3a01000	 mov         r1, #0
  00004	e3a00000	 mov         r0, #0
  00008	ea000000	 b           CeFindFirstDatabaseEx
  0000c		 |$M79149|

			 ENDP  ; |?EDB_FindFirstDB@CMangoClass@@UAAJPAU_CEGUID@@@Z|, CMangoClass::EDB_FindFirstDB

	EXPORT	|?EDB_FindNextDB@CMangoClass@@UAAJPAXPAU_CEGUID@@@Z| ; CMangoClass::EDB_FindNextDB
	IMPORT	|CeFindNextDatabaseEx|

  00000			 AREA	 |.pdata|, PDATA
|$T79162| DCD	|$LN5@EDB_FindNe|
	DCD	0x40000300
; Function compile flags: /Ogspy

  00000			 AREA	 |.text|, CODE, ARM

  00000		 |?EDB_FindNextDB@CMangoClass@@UAAJPAXPAU_CEGUID@@@Z| PROC ; CMangoClass::EDB_FindNextDB
; Line 2236
  00000		 |$LN5@EDB_FindNe|
  00000		 |$M79159|
  00000	e1a00001	 mov         r0, r1
; Line 2237
  00004	e1a01002	 mov         r1, r2
  00008	ea000000	 b           CeFindNextDatabaseEx
  0000c		 |$M79160|

			 ENDP  ; |?EDB_FindNextDB@CMangoClass@@UAAJPAXPAU_CEGUID@@@Z|, CMangoClass::EDB_FindNextDB

	EXPORT	|?EDB_OpenDBSession@CMangoClass@@UAAJPAU_CEGUID@@PAK@Z| ; CMangoClass::EDB_OpenDBSession
	EXPORT	|??_C@_1DA@GCNOLKIC@?$AAC?$AAe?$AAO?$AAp?$AAe?$AAn?$AAD?$AAa?$AAt?$AAa?$AAb?$AAa?$AAs?$AAe?$AAI?$AAn?$AAS?$AAe?$AAs?$AAs?$AAi?$AAo?$AAn?$AA?$AA@| [ DATA ] ; `string'

  00000			 AREA	 |.pdata|, PDATA
|$T79174| DCD	|$LN5@EDB_OpenDB|
	DCD	0x40001802

  00000			 AREA	 |.rdata|, DATA, READONLY
|??_C@_1DA@GCNOLKIC@?$AAC?$AAe?$AAO?$AAp?$AAe?$AAn?$AAD?$AAa?$AAt?$AAa?$AAb?$AAa?$AAs?$AAe?$AAI?$AAn?$AAS?$AAe?$AAs?$AAs?$AAi?$AAo?$AAn?$AA?$AA@| DCB "C"
	DCB	0x0, "e", 0x0, "O", 0x0, "p", 0x0, "e", 0x0, "n", 0x0, "D"
	DCB	0x0, "a", 0x0, "t", 0x0, "a", 0x0, "b", 0x0, "a", 0x0, "s"
	DCB	0x0, "e", 0x0, "I", 0x0, "n", 0x0, "S", 0x0, "e", 0x0, "s"
	DCB	0x0, "s", 0x0, "i", 0x0, "o", 0x0, "n", 0x0, 0x0, 0x0 ; `string'
; Function compile flags: /Ogspy

  00000			 AREA	 |.text|, CODE, ARM

  00000		 |?EDB_OpenDBSession@CMangoClass@@UAAJPAU_CEGUID@@PAK@Z| PROC ; CMangoClass::EDB_OpenDBSession
; Line 2241
  00000		 |$LN5@EDB_OpenDB|
  00000	e92d41f0	 stmdb       sp!, {r4 - r8, lr}
  00004	e24dd00c	 sub         sp, sp, #0xC
  00008		 |$M79171|
  00008	e1a05002	 mov         r5, r2
  0000c	e1a06001	 mov         r6, r1
; Line 2242
  00010	e59f0044	 ldr         r0, [pc, #0x44]
  00014	eb000000	 bl          LoadLibraryW
  00018	e59f1038	 ldr         r1, [pc, #0x38]
  0001c	eb000000	 bl          GetProcAddressW
; Line 2244
  00020	e3a08001	 mov         r8, #1
  00024	e3a07000	 mov         r7, #0
  00028	e1a04000	 mov         r4, r0
  0002c	e3a00000	 mov         r0, #0
  00030	e58d7008	 str         r7, [sp, #8]
  00034	e58d8004	 str         r8, [sp, #4]
  00038	e58d7000	 str         r7, [sp]
  0003c	e3a03000	 mov         r3, #0
  00040	e1a02005	 mov         r2, r5
  00044	e1a01006	 mov         r1, r6
  00048	e1a0e00f	 mov         lr, pc
  0004c	e1a0f004	 mov         pc, r4
; Line 2246
  00050	e28dd00c	 add         sp, sp, #0xC
  00054	e8bd81f0	 ldmia       sp!, {r4 - r8, pc}
  00058		 |$LN6@EDB_OpenDB|
  00058		 |$LN7@EDB_OpenDB|
  00058	00000000	 DCD         |??_C@_1DA@GCNOLKIC@?$AAC?$AAe?$AAO?$AAp?$AAe?$AAn?$AAD?$AAa?$AAt?$AAa?$AAb?$AAa?$AAs?$AAe?$AAI?$AAn?$AAS?$AAe?$AAs?$AAs?$AAi?$AAo?$AAn?$AA?$AA@|
  0005c		 |$LN8@EDB_OpenDB|
  0005c	00000000	 DCD         |??_C@_1BI@CJKPFBEK@?$AAc?$AAo?$AAr?$AAe?$AAd?$AAl?$AAl?$AA?4?$AAd?$AAl?$AAl?$AA?$AA@|
  00060		 |$M79172|

			 ENDP  ; |?EDB_OpenDBSession@CMangoClass@@UAAJPAU_CEGUID@@PAK@Z|, CMangoClass::EDB_OpenDBSession

	EXPORT	|?EDB_CloseHandle@CMangoClass@@UAAJPAX@Z| ; CMangoClass::EDB_CloseHandle
	IMPORT	|CloseHandle|

  00000			 AREA	 |.pdata|, PDATA
|$T79187| DCD	|$LN5@EDB_CloseH|
	DCD	0x40000200
; Function compile flags: /Ogspy

  00000			 AREA	 |.text|, CODE, ARM

  00000		 |?EDB_CloseHandle@CMangoClass@@UAAJPAX@Z| PROC ; CMangoClass::EDB_CloseHandle
; Line 2248
  00000		 |$LN5@EDB_CloseH|
  00000		 |$M79184|
; Line 2249
  00000	e1a00001	 mov         r0, r1
  00004	ea000000	 b           CloseHandle
  00008		 |$M79185|

			 ENDP  ; |?EDB_CloseHandle@CMangoClass@@UAAJPAX@Z|, CMangoClass::EDB_CloseHandle

	EXPORT	|?EDB_CeOidGetInfoEx@CMangoClass@@UAAJPAU_CEGUID@@K@Z| ; CMangoClass::EDB_CeOidGetInfoEx
	IMPORT	|CeOidGetInfoEx2|

  00000			 AREA	 |.pdata|, PDATA
|$T79198| DCD	|$LN5@EDB_CeOidG@2|
	DCD	0x40001002
; Function compile flags: /Ogspy

  00000			 AREA	 |.text|, CODE, ARM

  00000		 |?EDB_CeOidGetInfoEx@CMangoClass@@UAAJPAU_CEGUID@@K@Z| PROC ; CMangoClass::EDB_CeOidGetInfoEx
; Line 2253
  00000		 |$LN5@EDB_CeOidG@2|
  00000	e92d4030	 stmdb       sp!, {r4, r5, lr}
  00004	e24dde9a	 sub         sp, sp, #0x9A, 28	; 2464 (0x9a0)
  00008		 |$M79195|
  00008	e1a04002	 mov         r4, r2
  0000c	e1a05001	 mov         r5, r1
; Line 2255
  00010	e3a02e9a	 mov         r2, #0x9A, 28
  00014	e3a01000	 mov         r1, #0
  00018	e28d0000	 add         r0, sp, #0
  0001c	eb000000	 bl          memset
; Line 2256
  00020	e3a03002	 mov         r3, #2
; Line 2258
  00024	e28d2000	 add         r2, sp, #0
  00028	e1a01004	 mov         r1, r4
  0002c	e1a00005	 mov         r0, r5
  00030	e1cd30b0	 strh        r3, [sp]
  00034	eb000000	 bl          CeOidGetInfoEx2
; Line 2278
  00038	e28dde9a	 add         sp, sp, #0x9A, 28	; 2464 (0x9a0)
  0003c	e8bd8030	 ldmia       sp!, {r4, r5, pc}
  00040		 |$M79196|

			 ENDP  ; |?EDB_CeOidGetInfoEx@CMangoClass@@UAAJPAU_CEGUID@@K@Z|, CMangoClass::EDB_CeOidGetInfoEx

	EXPORT	|?EDB_OpenDBFind@CMangoClass@@UAAJPAU_CEGUID@@K@Z| ; CMangoClass::EDB_OpenDBFind
	IMPORT	|CeOpenDatabaseInSession|

  00000			 AREA	 |.pdata|, PDATA
|$T79208| DCD	|$LN5@EDB_OpenDB@2|
	DCD	0x40000f04
; Function compile flags: /Ogspy

  00000			 AREA	 |.text|, CODE, ARM

  00000		 |?EDB_OpenDBFind@CMangoClass@@UAAJPAU_CEGUID@@K@Z| PROC ; CMangoClass::EDB_OpenDBFind
; Line 2280
  00000		 |$LN5@EDB_OpenDB@2|
  00000	e1a0c00d	 mov         r12, sp
  00004	e92d000f	 stmdb       sp!, {r0 - r3}
  00008	e92d5000	 stmdb       sp!, {r12, lr}
  0000c	e24dd00c	 sub         sp, sp, #0xC
  00010		 |$M79205|
; Line 2281
  00010	e3a03001	 mov         r3, #1
  00014	e58d3004	 str         r3, [sp, #4]
  00018	e3a0e000	 mov         lr, #0
  0001c	e3a03000	 mov         r3, #0
  00020	e28d201c	 add         r2, sp, #0x1C
  00024	e3a00000	 mov         r0, #0
  00028	e58de008	 str         lr, [sp, #8]
  0002c	e58de000	 str         lr, [sp]
  00030	eb000000	 bl          CeOpenDatabaseInSession
; Line 2283
  00034	e28dd00c	 add         sp, sp, #0xC
  00038	e89da000	 ldmia       sp, {sp, pc}
  0003c		 |$M79206|

			 ENDP  ; |?EDB_OpenDBFind@CMangoClass@@UAAJPAU_CEGUID@@K@Z|, CMangoClass::EDB_OpenDBFind

	EXPORT	|?EDB_CeOpenDatabaseEx@CMangoClass@@UAAJPAU_CEGUID@@K@Z| ; CMangoClass::EDB_CeOpenDatabaseEx
	IMPORT	|CeOpenDatabaseEx|

  00000			 AREA	 |.pdata|, PDATA
|$T79218| DCD	|$LN5@EDB_CeOpen|
	DCD	0x40000f04
; Function compile flags: /Ogspy

  00000			 AREA	 |.text|, CODE, ARM

  00000		 |?EDB_CeOpenDatabaseEx@CMangoClass@@UAAJPAU_CEGUID@@K@Z| PROC ; CMangoClass::EDB_CeOpenDatabaseEx
; Line 2286
  00000		 |$LN5@EDB_CeOpen|
  00000	e1a0c00d	 mov         r12, sp
  00004	e92d000f	 stmdb       sp!, {r0 - r3}
  00008	e92d5000	 stmdb       sp!, {r12, lr}
  0000c	e24dd008	 sub         sp, sp, #8
  00010		 |$M79215|
  00010	e1a00001	 mov         r0, r1
; Line 2287
  00014	e3a03000	 mov         r3, #0
  00018	e3a02001	 mov         r2, #1
  0001c	e58d3004	 str         r3, [sp, #4]
  00020	e58d2000	 str         r2, [sp]
  00024	e3a03000	 mov         r3, #0
  00028	e3a02000	 mov         r2, #0
  0002c	e28d1018	 add         r1, sp, #0x18
  00030	eb000000	 bl          CeOpenDatabaseEx
; Line 2289
  00034	e28dd008	 add         sp, sp, #8
  00038	e89da000	 ldmia       sp, {sp, pc}
  0003c		 |$M79216|

			 ENDP  ; |?EDB_CeOpenDatabaseEx@CMangoClass@@UAAJPAU_CEGUID@@K@Z|, CMangoClass::EDB_CeOpenDatabaseEx

	EXPORT	|Test_Return_TimeStruct|

  00000			 AREA	 |.pdata|, PDATA
|$T79227| DCD	|$LN5@Test_Retur|
	DCD	0x40000401
; Function compile flags: /Ogspy

  00000			 AREA	 |.text|, CODE, ARM

  00000		 |Test_Return_TimeStruct| PROC
; Line 2302
  00000		 |$LN5@Test_Retur|
  00000	e24dd004	 sub         sp, sp, #4
  00004		 |$M79224|
; Line 2306
  00004	e28d0000	 add         r0, sp, #0
; Line 2307
  00008	e28dd004	 add         sp, sp, #4
  0000c	e1a0f00e	 mov         pc, lr
  00010		 |$M79225|

			 ENDP  ; |Test_Return_TimeStruct|

	EXPORT	|??B?$CSimpleStringT@_W$0A@@ATL@@QBAPB_WXZ| ; ATL::CSimpleStringT<wchar_t,0>::operator wchar_t const *
; File c:\program files (x86)\microsoft visual studio 9.0\vc\ce\atlmfc\include\atlsimpstr.h

  00000			 AREA	 |.pdata|, PDATA
|$T79237| DCD	|$LN5@operator|
	DCD	0x40000200
; Function compile flags: /Ogspy

  00000			 AREA	 |.text|, CODE, ARM

  00000		 |??B?$CSimpleStringT@_W$0A@@ATL@@QBAPB_WXZ| PROC ; ATL::CSimpleStringT<wchar_t,0>::operator wchar_t const *
; Line 393
  00000		 |$LN5@operator|
  00000		 |$M79234|
; Line 394
  00000	e5900000	 ldr         r0, [r0]
; Line 395
  00004	e1a0f00e	 mov         pc, lr
  00008		 |$M79235|

			 ENDP  ; |??B?$CSimpleStringT@_W$0A@@ATL@@QBAPB_WXZ|, ATL::CSimpleStringT<wchar_t,0>::operator wchar_t const *

; File c:\program files (x86)\microsoft visual studio 9.0\vc\ce\atlmfc\include\atlcom.h

  00000			 AREA	 |.pdata|, PDATA
|$T79246| DCD	|$LN5@GetObjectD|
	DCD	0x40000200
; Function compile flags: /Ogspy

  00000			 AREA	 |.text|, CODE, ARM

  00000		 |?GetObjectDescription@?$CComCoClass@VCMangoClass@@$1?CLSID_MangoClass@@3U_GUID@@B@ATL@@SAPB_WXZ| PROC ; ATL::CComCoClass<CMangoClass,&CLSID_MangoClass>::GetObjectDescription
; Line 3672
  00000		 |$LN5@GetObjectD|
  00000		 |$M79243|
  00000	e3a00000	 mov         r0, #0
  00004	e1a0f00e	 mov         pc, lr
  00008		 |$M79244|

			 ENDP  ; |?GetObjectDescription@?$CComCoClass@VCMangoClass@@$1?CLSID_MangoClass@@3U_GUID@@B@ATL@@SAPB_WXZ|, ATL::CComCoClass<CMangoClass,&CLSID_MangoClass>::GetObjectDescription

	EXPORT	|?_AtlInitialConstruct@?$CComObjectRootEx@VCComMultiThreadModel@ATL@@@ATL@@QAAJXZ| ; ATL::CComObjectRootEx<ATL::CComMultiThreadModel>::_AtlInitialConstruct
; File c:\program files (x86)\microsoft visual studio 9.0\vc\ce\atlmfc\include\atlcore.h

  00000			 AREA	 |.pdata|, PDATA
|$T79264| DCD	|$LN8@AtlInitial|
	DCD	0x40000801
; Function compile flags: /Ogspy

  00000			 AREA	 |.text|, CODE, ARM

  00000		 |?_AtlInitialConstruct@?$CComObjectRootEx@VCComMultiThreadModel@ATL@@@ATL@@QAAJXZ| PROC ; ATL::CComObjectRootEx<ATL::CComMultiThreadModel>::_AtlInitialConstruct
; File c:\program files (x86)\microsoft visual studio 9.0\vc\ce\atlmfc\include\atlcom.h
; Line 2492
  00000		 |$LN8@AtlInitial|
  00000	e92d4010	 stmdb       sp!, {r4, lr}
  00004		 |$M79261|
  00004	e1a04000	 mov         r4, r0
; Line 2493
  00008	e2840004	 add         r0, r4, #4
  0000c	eb000000	 bl          |?Init@CComCriticalSection@ATL@@QAAJXZ|
  00010	e3500000	 cmp         r0, #0
  00014	53a03001	 movpl       r3, #1
  00018	55c43018	 strplb      r3, [r4, #0x18]
; Line 2494
  0001c	e8bd8010	 ldmia       sp!, {r4, pc}
  00020		 |$M79262|

			 ENDP  ; |?_AtlInitialConstruct@?$CComObjectRootEx@VCComMultiThreadModel@ATL@@@ATL@@QAAJXZ|, ATL::CComObjectRootEx<ATL::CComMultiThreadModel>::_AtlInitialConstruct

	EXPORT	|?GetString@?$CSimpleStringT@_W$0A@@ATL@@QBAPB_WXZ| ; ATL::CSimpleStringT<wchar_t,0>::GetString
; File c:\program files (x86)\microsoft visual studio 9.0\vc\ce\atlmfc\include\atlsimpstr.h

  00000			 AREA	 |.pdata|, PDATA
|$T79274| DCD	|$LN5@GetString|
	DCD	0x40000200
; Function compile flags: /Ogspy

  00000			 AREA	 |.text|, CODE, ARM

  00000		 |?GetString@?$CSimpleStringT@_W$0A@@ATL@@QBAPB_WXZ| PROC ; ATL::CSimpleStringT<wchar_t,0>::GetString
; Line 540
  00000		 |$LN5@GetString|
  00000		 |$M79271|
; Line 541
  00000	e5900000	 ldr         r0, [r0]
; Line 542
  00004	e1a0f00e	 mov         pc, lr
  00008		 |$M79272|

			 ENDP  ; |?GetString@?$CSimpleStringT@_W$0A@@ATL@@QBAPB_WXZ|, ATL::CSimpleStringT<wchar_t,0>::GetString

	EXPORT	|?GetDefaultManager@?$StrTraitATL@_WV?$ChTraitsOS@_W@ATL@@@ATL@@SAPAUIAtlStringMgr@2@XZ| ; ATL::StrTraitATL<wchar_t,ATL::ChTraitsOS<wchar_t> >::GetDefaultManager
	IMPORT	|?g_strmgr@ATL@@3VCAtlStringMgr@1@A|	; ATL::g_strmgr
; File c:\program files (x86)\microsoft visual studio 9.0\vc\ce\atlmfc\include\atlstr.h

  00000			 AREA	 |.pdata|, PDATA
|$T79283| DCD	|$LN5@GetDefault|
	DCD	0x40000300
; Function compile flags: /Ogspy

  00000			 AREA	 |.text|, CODE, ARM

  00000		 |?GetDefaultManager@?$StrTraitATL@_WV?$ChTraitsOS@_W@ATL@@@ATL@@SAPAUIAtlStringMgr@2@XZ| PROC ; ATL::StrTraitATL<wchar_t,ATL::ChTraitsOS<wchar_t> >::GetDefaultManager
; Line 1144
  00000		 |$LN5@GetDefault|
  00000		 |$M79280|
; Line 1145
  00000	e59f0000	 ldr         r0, [pc]
; Line 1146
  00004	e1a0f00e	 mov         pc, lr
  00008		 |$LN6@GetDefault|
  00008		 |$LN7@GetDefault|
  00008	00000000	 DCD         |?g_strmgr@ATL@@3VCAtlStringMgr@1@A|
  0000c		 |$M79281|

			 ENDP  ; |?GetDefaultManager@?$StrTraitATL@_WV?$ChTraitsOS@_W@ATL@@@ATL@@SAPAUIAtlStringMgr@2@XZ|, ATL::StrTraitATL<wchar_t,ATL::ChTraitsOS<wchar_t> >::GetDefaultManager

	EXPORT	|?CopyCharsOverlapped@?$CSimpleStringT@_W$0A@@ATL@@SAXPA_WIPB_WH@Z| ; ATL::CSimpleStringT<wchar_t,0>::CopyCharsOverlapped
	IMPORT	|memmove_s|
; File c:\program files (x86)\microsoft visual studio 9.0\vc\ce\atlmfc\include\atlsimpstr.h

  00000			 AREA	 |.pdata|, PDATA
|$T79296| DCD	|$LN5@CopyCharsO|
	DCD	0x40000300
; Function compile flags: /Ogspy

  00000			 AREA	 |.text|, CODE, ARM

  00000		 |?CopyCharsOverlapped@?$CSimpleStringT@_W$0A@@ATL@@SAXPA_WIPB_WH@Z| PROC ; ATL::CSimpleStringT<wchar_t,0>::CopyCharsOverlapped
; Line 711
  00000		 |$LN5@CopyCharsO|
  00000		 |$M79293|
; Line 713
  00000	e1a03083	 mov         r3, r3, lsl #1
  00004	e1a01081	 mov         r1, r1, lsl #1
  00008	ea000000	 b           memmove_s
  0000c		 |$M79294|

			 ENDP  ; |?CopyCharsOverlapped@?$CSimpleStringT@_W$0A@@ATL@@SAXPA_WIPB_WH@Z|, ATL::CSimpleStringT<wchar_t,0>::CopyCharsOverlapped

	EXPORT	|?FindStringResourceInstance@?$StrTraitATL@_WV?$ChTraitsOS@_W@ATL@@@ATL@@SAPAUHINSTANCE__@@I@Z| ; ATL::StrTraitATL<wchar_t,ATL::ChTraitsOS<wchar_t> >::FindStringResourceInstance
; File c:\program files (x86)\microsoft visual studio 9.0\vc\ce\atlmfc\include\atlstr.h

  00000			 AREA	 |.pdata|, PDATA
|$T79306| DCD	|$LN5@FindString|
	DCD	0x40000200
; Function compile flags: /Ogspy

  00000			 AREA	 |.text|, CODE, ARM

  00000		 |?FindStringResourceInstance@?$StrTraitATL@_WV?$ChTraitsOS@_W@ATL@@@ATL@@SAPAUHINSTANCE__@@I@Z| PROC ; ATL::StrTraitATL<wchar_t,ATL::ChTraitsOS<wchar_t> >::FindStringResourceInstance
; Line 1139
  00000		 |$LN5@FindString|
  00000		 |$M79303|
; Line 1140
  00000	e3a01000	 mov         r1, #0
  00004	ea000000	 b           |?AtlFindStringResourceInstance@ATL@@YAPAUHINSTANCE__@@IG@Z|
  00008		 |$M79304|

			 ENDP  ; |?FindStringResourceInstance@?$StrTraitATL@_WV?$ChTraitsOS@_W@ATL@@@ATL@@SAPAUHINSTANCE__@@I@Z|, ATL::StrTraitATL<wchar_t,ATL::ChTraitsOS<wchar_t> >::FindStringResourceInstance

	EXPORT	|?_AtlInitialConstruct@?$CComObjectRootEx@VCComMultiThreadModelNoCS@ATL@@@ATL@@QAAJXZ| ; ATL::CComObjectRootEx<ATL::CComMultiThreadModelNoCS>::_AtlInitialConstruct
; File c:\program files (x86)\microsoft visual studio 9.0\vc\ce\atlmfc\include\atlcore.h

  00000			 AREA	 |.pdata|, PDATA
|$T79318| DCD	|$LN7@AtlInitial@2|
	DCD	0x40000200
; Function compile flags: /Ogspy

  00000			 AREA	 |.text|, CODE, ARM

  00000		 |?_AtlInitialConstruct@?$CComObjectRootEx@VCComMultiThreadModelNoCS@ATL@@@ATL@@QAAJXZ| PROC ; ATL::CComObjectRootEx<ATL::CComMultiThreadModelNoCS>::_AtlInitialConstruct
; File c:\program files (x86)\microsoft visual studio 9.0\vc\ce\atlmfc\include\atlcom.h
; Line 2492
  00000		 |$LN7@AtlInitial@2|
  00000		 |$M79315|
; Line 2493
  00000	e3a00000	 mov         r0, #0
; Line 2494
  00004	e1a0f00e	 mov         pc, lr
  00008		 |$M79316|

			 ENDP  ; |?_AtlInitialConstruct@?$CComObjectRootEx@VCComMultiThreadModelNoCS@ATL@@@ATL@@QAAJXZ|, ATL::CComObjectRootEx<ATL::CComMultiThreadModelNoCS>::_AtlInitialConstruct

	EXPORT	|?StringLength@?$CSimpleStringT@_W$0A@@ATL@@SAHPB_W@Z| ; ATL::CSimpleStringT<wchar_t,0>::StringLength
; File c:\program files (x86)\microsoft visual studio 9.0\vc\ce\atlmfc\include\atlsimpstr.h

  00000			 AREA	 |.pdata|, PDATA
|$T79328| DCD	|$LN6@StringLeng|
	DCD	0x40000601
; Function compile flags: /Ogspy

  00000			 AREA	 |.text|, CODE, ARM

  00000		 |?StringLength@?$CSimpleStringT@_W$0A@@ATL@@SAHPB_W@Z| PROC ; ATL::CSimpleStringT<wchar_t,0>::StringLength
; Line 724
  00000		 |$LN6@StringLeng|
  00000	e52de004	 str         lr, [sp, #-4]!
  00004		 |$M79325|
  00004	e3500000	 cmp         r0, #0
; Line 727
  00008	03a00000	 moveq       r0, #0
; Line 730
  0000c	049df004	 ldreq       pc, [sp], #4
  00010	e49de004	 ldr         lr, [sp], #4
; Line 729
  00014	ea000000	 b           wcslen
  00018		 |$M79326|

			 ENDP  ; |?StringLength@?$CSimpleStringT@_W$0A@@ATL@@SAHPB_W@Z|, ATL::CSimpleStringT<wchar_t,0>::StringLength

	EXPORT	|??$DLLCALL_PARAM@I@@YAJPB_W0@Z|	; DLLCALL_PARAM<unsigned int>
	IMPORT	|__CxxFrameHandler3|
; File c:\users\steven\desktop\csharp - dllimport\csharp - dllimport\vs2008\dllimportmango\mangoclass.cpp

  00000			 AREA	 |.pdata|, PDATA
|$T79353| DCD	|$LN15@DLLCALL_PA|
	DCD	0xc0001503

  00000			 AREA	 |.pdata|, PDATA
|$T79356| DCD	|__catch$79334|
	DCD	0xc0000300

  00000			 AREA	 |.rdata|, DATA, READONLY
|__unwindtable$??$DLLCALL_PARAM@I@@YAJPB_W0@Z| DCD 0xffffffff
	DCD	0x0
	DCD	0xffffffff
	DCD	0x0
|__catchsym$??$DLLCALL_PARAM@I@@YAJPB_W0@Z$2| DCD 0x40
	DCD	0x0
	DCD	0x0
	DCD	0x1
	DCD	|__catch$79334|
|__tryblocktable$??$DLLCALL_PARAM@I@@YAJPB_W0@Z| DCD 0x0
	DCD	0x0
	DCD	0x0
	DCD	0x1
	DCD	|__catchsym$??$DLLCALL_PARAM@I@@YAJPB_W0@Z$2|
|__ehfuncinfo$??$DLLCALL_PARAM@I@@YAJPB_W0@Z| DCD 0x19930522
	DCD	0x2
	DCD	|__unwindtable$??$DLLCALL_PARAM@I@@YAJPB_W0@Z|
	DCD	0x1
	DCD	|__tryblocktable$??$DLLCALL_PARAM@I@@YAJPB_W0@Z|
	DCD	0x1
	DCD	|$T79347|
	DCD	0x0
	DCD	0x1
|$T79347| DCD	|$M79346|
	DCD	0x0
; Function compile flags: /Ogspy

  00000			 AREA	 |.text|, CODE, ARM

  00000	00000000	 DCD         |__CxxFrameHandler3|
  00004	00000000	 DCD         |__ehfuncinfo$??$DLLCALL_PARAM@I@@YAJPB_W0@Z|

  00008		 |??$DLLCALL_PARAM@I@@YAJPB_W0@Z| PROC	; DLLCALL_PARAM<unsigned int>
; Line 296
  00008		 |$LN15@DLLCALL_PA|
  00008	e1a0c00d	 mov         r12, sp
  0000c	e92d5810	 stmdb       sp!, {r4, r11, r12, lr}
  00010	e28db010	 add         r11, sp, #0x10
  00014		 |$M79350|
  00014	e1a04001	 mov         r4, r1
; Line 297
  00018	eb000000	 bl          LoadLibraryW
  0001c	e3500000	 cmp         r0, #0
; Line 299
  00020	0a00000a	 beq         |$LN5@DLLCALL_PA|
; Line 301
  00024	e1a01004	 mov         r1, r4
  00028	eb000000	 bl          GetProcAddressW
  0002c	e3500000	 cmp         r0, #0
; Line 303
  00030	0a000004	 beq         |$LN4@DLLCALL_PA|
  00034		 |$M79346|
; Line 318
  00034	e1a0e00f	 mov         lr, pc
  00038	e1a0f000	 mov         pc, r0
  0003c	ea000004	 b           |$LN6@DLLCALL_PA|
  00040		 |$LN11@DLLCALL_PA|
; Line 324
  00040	e3a00004	 mov         r0, #4
  00044	ea000002	 b           |$LN6@DLLCALL_PA|
  00048		 |$LN4@DLLCALL_PA|
; Line 330
  00048	e3a00003	 mov         r0, #3
  0004c	ea000000	 b           |$LN6@DLLCALL_PA|
  00050		 |$LN5@DLLCALL_PA|
; Line 338
  00050	e3a00002	 mov         r0, #2
  00054		 |$LN6@DLLCALL_PA|
; Line 341
  00054	e24bd010	 sub         sp, r11, #0x10
  00058	e89da810	 ldmia       sp, {r4, r11, sp, pc}
  0005c		 |$M79351|
  0005c	00000000	 DCD         |__CxxFrameHandler3|
  00060	00000000	 DCD         |__ehfuncinfo$??$DLLCALL_PARAM@I@@YAJPB_W0@Z|
  00064		 |__catch$79334|
  00064		 |$M79354|
; Line 324
  00064	e59f0000	 ldr         r0, [pc]
  00068	e1a0f00e	 mov         pc, lr
  0006c		 |$LN18@DLLCALL_PA|
  0006c		 |$LN19@DLLCALL_PA|
  0006c	00000000	 DCD         |$LN11@DLLCALL_PA|
  00070		 |$M79355|

			 ENDP  ; |??$DLLCALL_PARAM@I@@YAJPB_W0@Z|, DLLCALL_PARAM<unsigned int>

	EXPORT	|??$DLLCALL_PARAM@II@@YAJPB_W0IH@Z|	; DLLCALL_PARAM<unsigned int,unsigned int>

  00000			 AREA	 |.pdata|, PDATA
|$T79385| DCD	|$LN15@DLLCALL_PA@2|
	DCD	0xc0001703

  00000			 AREA	 |.pdata|, PDATA
|$T79388| DCD	|__catch$79366|
	DCD	0xc0000300

  00000			 AREA	 |.rdata|, DATA, READONLY
|__unwindtable$??$DLLCALL_PARAM@II@@YAJPB_W0IH@Z| DCD 0xffffffff
	DCD	0x0
	DCD	0xffffffff
	DCD	0x0
|__catchsym$??$DLLCALL_PARAM@II@@YAJPB_W0IH@Z$2| DCD 0x40
	DCD	0x0
	DCD	0x0
	DCD	0x1
	DCD	|__catch$79366|
|__tryblocktable$??$DLLCALL_PARAM@II@@YAJPB_W0IH@Z| DCD 0x0
	DCD	0x0
	DCD	0x0
	DCD	0x1
	DCD	|__catchsym$??$DLLCALL_PARAM@II@@YAJPB_W0IH@Z$2|
|__ehfuncinfo$??$DLLCALL_PARAM@II@@YAJPB_W0IH@Z| DCD 0x19930522
	DCD	0x2
	DCD	|__unwindtable$??$DLLCALL_PARAM@II@@YAJPB_W0IH@Z|
	DCD	0x1
	DCD	|__tryblocktable$??$DLLCALL_PARAM@II@@YAJPB_W0IH@Z|
	DCD	0x1
	DCD	|$T79380|
	DCD	0x0
	DCD	0x1
|$T79380| DCD	|$M79379|
	DCD	0x0
; Function compile flags: /Ogspy

  00000			 AREA	 |.text|, CODE, ARM

  00000	00000000	 DCD         |__CxxFrameHandler3|
  00004	00000000	 DCD         |__ehfuncinfo$??$DLLCALL_PARAM@II@@YAJPB_W0IH@Z|

  00008		 |??$DLLCALL_PARAM@II@@YAJPB_W0IH@Z| PROC ; DLLCALL_PARAM<unsigned int,unsigned int>
; Line 115
  00008		 |$LN15@DLLCALL_PA@2|
  00008	e1a0c00d	 mov         r12, sp
  0000c	e92d5830	 stmdb       sp!, {r4, r5, r11, r12, lr}
  00010	e28db014	 add         r11, sp, #0x14
  00014		 |$M79382|
  00014	e1a04002	 mov         r4, r2
  00018	e1a05001	 mov         r5, r1
; Line 116
  0001c	eb000000	 bl          LoadLibraryW
  00020	e3500000	 cmp         r0, #0
; Line 118
  00024	0a00000b	 beq         |$LN5@DLLCALL_PA@2|
; Line 120
  00028	e1a01005	 mov         r1, r5
  0002c	eb000000	 bl          GetProcAddressW
  00030	e1b03000	 movs        r3, r0
; Line 122
  00034	0a000005	 beq         |$LN4@DLLCALL_PA@2|
; Line 137
  00038	e1a00004	 mov         r0, r4
  0003c		 |$M79379|
  0003c	e1a0e00f	 mov         lr, pc
  00040	e1a0f003	 mov         pc, r3
  00044	ea000004	 b           |$LN6@DLLCALL_PA@2|
  00048		 |$LN11@DLLCALL_PA@2|
; Line 143
  00048	e3a00004	 mov         r0, #4
  0004c	ea000002	 b           |$LN6@DLLCALL_PA@2|
  00050		 |$LN4@DLLCALL_PA@2|
; Line 149
  00050	e3a00003	 mov         r0, #3
  00054	ea000000	 b           |$LN6@DLLCALL_PA@2|
  00058		 |$LN5@DLLCALL_PA@2|
; Line 157
  00058	e3a00002	 mov         r0, #2
  0005c		 |$LN6@DLLCALL_PA@2|
; Line 160
  0005c	e24bd014	 sub         sp, r11, #0x14
  00060	e89da830	 ldmia       sp, {r4, r5, r11, sp, pc}
  00064		 |$M79383|
  00064	00000000	 DCD         |__CxxFrameHandler3|
  00068	00000000	 DCD         |__ehfuncinfo$??$DLLCALL_PARAM@II@@YAJPB_W0IH@Z|
  0006c		 |__catch$79366|
  0006c		 |$M79386|
; Line 143
  0006c	e59f0000	 ldr         r0, [pc]
  00070	e1a0f00e	 mov         pc, lr
  00074		 |$LN18@DLLCALL_PA@2|
  00074		 |$LN19@DLLCALL_PA@2|
  00074	00000000	 DCD         |$LN11@DLLCALL_PA@2|
  00078		 |$M79387|

			 ENDP  ; |??$DLLCALL_PARAM@II@@YAJPB_W0IH@Z|, DLLCALL_PARAM<unsigned int,unsigned int>

	EXPORT	|??$DLLCALL_PARAM@J@@YAJPB_W0@Z|	; DLLCALL_PARAM<long>

  00000			 AREA	 |.pdata|, PDATA
|$T79416| DCD	|$LN15@DLLCALL_PA@3|
	DCD	0xc0001503

  00000			 AREA	 |.pdata|, PDATA
|$T79419| DCD	|__catch$79398|
	DCD	0xc0000300

  00000			 AREA	 |.rdata|, DATA, READONLY
|__unwindtable$??$DLLCALL_PARAM@J@@YAJPB_W0@Z| DCD 0xffffffff
	DCD	0x0
	DCD	0xffffffff
	DCD	0x0
|__catchsym$??$DLLCALL_PARAM@J@@YAJPB_W0@Z$2| DCD 0x40
	DCD	0x0
	DCD	0x0
	DCD	0x1
	DCD	|__catch$79398|
|__tryblocktable$??$DLLCALL_PARAM@J@@YAJPB_W0@Z| DCD 0x0
	DCD	0x0
	DCD	0x0
	DCD	0x1
	DCD	|__catchsym$??$DLLCALL_PARAM@J@@YAJPB_W0@Z$2|
|__ehfuncinfo$??$DLLCALL_PARAM@J@@YAJPB_W0@Z| DCD 0x19930522
	DCD	0x2
	DCD	|__unwindtable$??$DLLCALL_PARAM@J@@YAJPB_W0@Z|
	DCD	0x1
	DCD	|__tryblocktable$??$DLLCALL_PARAM@J@@YAJPB_W0@Z|
	DCD	0x1
	DCD	|$T79411|
	DCD	0x0
	DCD	0x1
|$T79411| DCD	|$M79410|
	DCD	0x0
; Function compile flags: /Ogspy

  00000			 AREA	 |.text|, CODE, ARM

  00000	00000000	 DCD         |__CxxFrameHandler3|
  00004	00000000	 DCD         |__ehfuncinfo$??$DLLCALL_PARAM@J@@YAJPB_W0@Z|

  00008		 |??$DLLCALL_PARAM@J@@YAJPB_W0@Z| PROC	; DLLCALL_PARAM<long>
; Line 296
  00008		 |$LN15@DLLCALL_PA@3|
  00008	e1a0c00d	 mov         r12, sp
  0000c	e92d5810	 stmdb       sp!, {r4, r11, r12, lr}
  00010	e28db010	 add         r11, sp, #0x10
  00014		 |$M79413|
  00014	e1a04001	 mov         r4, r1
; Line 297
  00018	eb000000	 bl          LoadLibraryW
  0001c	e3500000	 cmp         r0, #0
; Line 299
  00020	0a00000a	 beq         |$LN5@DLLCALL_PA@3|
; Line 301
  00024	e1a01004	 mov         r1, r4
  00028	eb000000	 bl          GetProcAddressW
  0002c	e3500000	 cmp         r0, #0
; Line 303
  00030	0a000004	 beq         |$LN4@DLLCALL_PA@3|
  00034		 |$M79410|
; Line 318
  00034	e1a0e00f	 mov         lr, pc
  00038	e1a0f000	 mov         pc, r0
  0003c	ea000004	 b           |$LN6@DLLCALL_PA@3|
  00040		 |$LN11@DLLCALL_PA@3|
; Line 324
  00040	e3a00004	 mov         r0, #4
  00044	ea000002	 b           |$LN6@DLLCALL_PA@3|
  00048		 |$LN4@DLLCALL_PA@3|
; Line 330
  00048	e3a00003	 mov         r0, #3
  0004c	ea000000	 b           |$LN6@DLLCALL_PA@3|
  00050		 |$LN5@DLLCALL_PA@3|
; Line 338
  00050	e3a00002	 mov         r0, #2
  00054		 |$LN6@DLLCALL_PA@3|
; Line 341
  00054	e24bd010	 sub         sp, r11, #0x10
  00058	e89da810	 ldmia       sp, {r4, r11, sp, pc}
  0005c		 |$M79414|
  0005c	00000000	 DCD         |__CxxFrameHandler3|
  00060	00000000	 DCD         |__ehfuncinfo$??$DLLCALL_PARAM@J@@YAJPB_W0@Z|
  00064		 |__catch$79398|
  00064		 |$M79417|
; Line 324
  00064	e59f0000	 ldr         r0, [pc]
  00068	e1a0f00e	 mov         pc, lr
  0006c		 |$LN18@DLLCALL_PA@3|
  0006c		 |$LN19@DLLCALL_PA@3|
  0006c	00000000	 DCD         |$LN11@DLLCALL_PA@3|
  00070		 |$M79418|

			 ENDP  ; |??$DLLCALL_PARAM@J@@YAJPB_W0@Z|, DLLCALL_PARAM<long>

	EXPORT	|??$DLLCALL_PARAM@IPB_W@@YAJPB_W00H@Z|	; DLLCALL_PARAM<unsigned int,wchar_t const *>

  00000			 AREA	 |.pdata|, PDATA
|$T79448| DCD	|$LN15@DLLCALL_PA@4|
	DCD	0xc0001703

  00000			 AREA	 |.pdata|, PDATA
|$T79451| DCD	|__catch$79429|
	DCD	0xc0000300

  00000			 AREA	 |.rdata|, DATA, READONLY
|__unwindtable$??$DLLCALL_PARAM@IPB_W@@YAJPB_W00H@Z| DCD 0xffffffff
	DCD	0x0
	DCD	0xffffffff
	DCD	0x0
|__catchsym$??$DLLCALL_PARAM@IPB_W@@YAJPB_W00H@Z$2| DCD 0x40
	DCD	0x0
	DCD	0x0
	DCD	0x1
	DCD	|__catch$79429|
|__tryblocktable$??$DLLCALL_PARAM@IPB_W@@YAJPB_W00H@Z| DCD 0x0
	DCD	0x0
	DCD	0x0
	DCD	0x1
	DCD	|__catchsym$??$DLLCALL_PARAM@IPB_W@@YAJPB_W00H@Z$2|
|__ehfuncinfo$??$DLLCALL_PARAM@IPB_W@@YAJPB_W00H@Z| DCD 0x19930522
	DCD	0x2
	DCD	|__unwindtable$??$DLLCALL_PARAM@IPB_W@@YAJPB_W00H@Z|
	DCD	0x1
	DCD	|__tryblocktable$??$DLLCALL_PARAM@IPB_W@@YAJPB_W00H@Z|
	DCD	0x1
	DCD	|$T79443|
	DCD	0x0
	DCD	0x1
|$T79443| DCD	|$M79442|
	DCD	0x0
; Function compile flags: /Ogspy

  00000			 AREA	 |.text|, CODE, ARM

  00000	00000000	 DCD         |__CxxFrameHandler3|
  00004	00000000	 DCD         |__ehfuncinfo$??$DLLCALL_PARAM@IPB_W@@YAJPB_W00H@Z|

  00008		 |??$DLLCALL_PARAM@IPB_W@@YAJPB_W00H@Z| PROC ; DLLCALL_PARAM<unsigned int,wchar_t const *>
; Line 115
  00008		 |$LN15@DLLCALL_PA@4|
  00008	e1a0c00d	 mov         r12, sp
  0000c	e92d5830	 stmdb       sp!, {r4, r5, r11, r12, lr}
  00010	e28db014	 add         r11, sp, #0x14
  00014		 |$M79445|
  00014	e1a04002	 mov         r4, r2
  00018	e1a05001	 mov         r5, r1
; Line 116
  0001c	eb000000	 bl          LoadLibraryW
  00020	e3500000	 cmp         r0, #0
; Line 118
  00024	0a00000b	 beq         |$LN5@DLLCALL_PA@4|
; Line 120
  00028	e1a01005	 mov         r1, r5
  0002c	eb000000	 bl          GetProcAddressW
  00030	e1b03000	 movs        r3, r0
; Line 122
  00034	0a000005	 beq         |$LN4@DLLCALL_PA@4|
; Line 137
  00038	e1a00004	 mov         r0, r4
  0003c		 |$M79442|
  0003c	e1a0e00f	 mov         lr, pc
  00040	e1a0f003	 mov         pc, r3
  00044	ea000004	 b           |$LN6@DLLCALL_PA@4|
  00048		 |$LN11@DLLCALL_PA@4|
; Line 143
  00048	e3a00004	 mov         r0, #4
  0004c	ea000002	 b           |$LN6@DLLCALL_PA@4|
  00050		 |$LN4@DLLCALL_PA@4|
; Line 149
  00050	e3a00003	 mov         r0, #3
  00054	ea000000	 b           |$LN6@DLLCALL_PA@4|
  00058		 |$LN5@DLLCALL_PA@4|
; Line 157
  00058	e3a00002	 mov         r0, #2
  0005c		 |$LN6@DLLCALL_PA@4|
; Line 160
  0005c	e24bd014	 sub         sp, r11, #0x14
  00060	e89da830	 ldmia       sp, {r4, r5, r11, sp, pc}
  00064		 |$M79446|
  00064	00000000	 DCD         |__CxxFrameHandler3|
  00068	00000000	 DCD         |__ehfuncinfo$??$DLLCALL_PARAM@IPB_W@@YAJPB_W00H@Z|
  0006c		 |__catch$79429|
  0006c		 |$M79449|
; Line 143
  0006c	e59f0000	 ldr         r0, [pc]
  00070	e1a0f00e	 mov         pc, lr
  00074		 |$LN18@DLLCALL_PA@4|
  00074		 |$LN19@DLLCALL_PA@4|
  00074	00000000	 DCD         |$LN11@DLLCALL_PA@4|
  00078		 |$M79450|

			 ENDP  ; |??$DLLCALL_PARAM@IPB_W@@YAJPB_W00H@Z|, DLLCALL_PARAM<unsigned int,wchar_t const *>

	EXPORT	|??$DLLCALL_PARAM@I_N@@YAJPB_W0_NH@Z|	; DLLCALL_PARAM<unsigned int,bool>

  00000			 AREA	 |.pdata|, PDATA
|$T79480| DCD	|$LN15@DLLCALL_PA@5|
	DCD	0xc0001703

  00000			 AREA	 |.pdata|, PDATA
|$T79483| DCD	|__catch$79461|
	DCD	0xc0000300

  00000			 AREA	 |.rdata|, DATA, READONLY
|__unwindtable$??$DLLCALL_PARAM@I_N@@YAJPB_W0_NH@Z| DCD 0xffffffff
	DCD	0x0
	DCD	0xffffffff
	DCD	0x0
|__catchsym$??$DLLCALL_PARAM@I_N@@YAJPB_W0_NH@Z$2| DCD 0x40
	DCD	0x0
	DCD	0x0
	DCD	0x1
	DCD	|__catch$79461|
|__tryblocktable$??$DLLCALL_PARAM@I_N@@YAJPB_W0_NH@Z| DCD 0x0
	DCD	0x0
	DCD	0x0
	DCD	0x1
	DCD	|__catchsym$??$DLLCALL_PARAM@I_N@@YAJPB_W0_NH@Z$2|
|__ehfuncinfo$??$DLLCALL_PARAM@I_N@@YAJPB_W0_NH@Z| DCD 0x19930522
	DCD	0x2
	DCD	|__unwindtable$??$DLLCALL_PARAM@I_N@@YAJPB_W0_NH@Z|
	DCD	0x1
	DCD	|__tryblocktable$??$DLLCALL_PARAM@I_N@@YAJPB_W0_NH@Z|
	DCD	0x1
	DCD	|$T79475|
	DCD	0x0
	DCD	0x1
|$T79475| DCD	|$M79474|
	DCD	0x0
; Function compile flags: /Ogspy

  00000			 AREA	 |.text|, CODE, ARM

  00000	00000000	 DCD         |__CxxFrameHandler3|
  00004	00000000	 DCD         |__ehfuncinfo$??$DLLCALL_PARAM@I_N@@YAJPB_W0_NH@Z|

  00008		 |??$DLLCALL_PARAM@I_N@@YAJPB_W0_NH@Z| PROC ; DLLCALL_PARAM<unsigned int,bool>
; Line 115
  00008		 |$LN15@DLLCALL_PA@5|
  00008	e1a0c00d	 mov         r12, sp
  0000c	e92d5830	 stmdb       sp!, {r4, r5, r11, r12, lr}
  00010	e28db014	 add         r11, sp, #0x14
  00014		 |$M79477|
  00014	e1a04002	 mov         r4, r2
  00018	e1a05001	 mov         r5, r1
; Line 116
  0001c	eb000000	 bl          LoadLibraryW
  00020	e3500000	 cmp         r0, #0
; Line 118
  00024	0a00000b	 beq         |$LN5@DLLCALL_PA@5|
; Line 120
  00028	e1a01005	 mov         r1, r5
  0002c	eb000000	 bl          GetProcAddressW
  00030	e1b03000	 movs        r3, r0
; Line 122
  00034	0a000005	 beq         |$LN4@DLLCALL_PA@5|
; Line 137
  00038	e1a00004	 mov         r0, r4
  0003c		 |$M79474|
  0003c	e1a0e00f	 mov         lr, pc
  00040	e1a0f003	 mov         pc, r3
  00044	ea000004	 b           |$LN6@DLLCALL_PA@5|
  00048		 |$LN11@DLLCALL_PA@5|
; Line 143
  00048	e3a00004	 mov         r0, #4
  0004c	ea000002	 b           |$LN6@DLLCALL_PA@5|
  00050		 |$LN4@DLLCALL_PA@5|
; Line 149
  00050	e3a00003	 mov         r0, #3
  00054	ea000000	 b           |$LN6@DLLCALL_PA@5|
  00058		 |$LN5@DLLCALL_PA@5|
; Line 157
  00058	e3a00002	 mov         r0, #2
  0005c		 |$LN6@DLLCALL_PA@5|
; Line 160
  0005c	e24bd014	 sub         sp, r11, #0x14
  00060	e89da830	 ldmia       sp, {r4, r5, r11, sp, pc}
  00064		 |$M79478|
  00064	00000000	 DCD         |__CxxFrameHandler3|
  00068	00000000	 DCD         |__ehfuncinfo$??$DLLCALL_PARAM@I_N@@YAJPB_W0_NH@Z|
  0006c		 |__catch$79461|
  0006c		 |$M79481|
; Line 143
  0006c	e59f0000	 ldr         r0, [pc]
  00070	e1a0f00e	 mov         pc, lr
  00074		 |$LN18@DLLCALL_PA@5|
  00074		 |$LN19@DLLCALL_PA@5|
  00074	00000000	 DCD         |$LN11@DLLCALL_PA@5|
  00078		 |$M79482|

			 ENDP  ; |??$DLLCALL_PARAM@I_N@@YAJPB_W0_NH@Z|, DLLCALL_PARAM<unsigned int,bool>

	EXPORT	|??$DLLCALL_PARAM@IH@@YAJPB_W0HH@Z|	; DLLCALL_PARAM<unsigned int,int>

  00000			 AREA	 |.pdata|, PDATA
|$T79512| DCD	|$LN15@DLLCALL_PA@6|
	DCD	0xc0001703

  00000			 AREA	 |.pdata|, PDATA
|$T79515| DCD	|__catch$79493|
	DCD	0xc0000300

  00000			 AREA	 |.rdata|, DATA, READONLY
|__unwindtable$??$DLLCALL_PARAM@IH@@YAJPB_W0HH@Z| DCD 0xffffffff
	DCD	0x0
	DCD	0xffffffff
	DCD	0x0
|__catchsym$??$DLLCALL_PARAM@IH@@YAJPB_W0HH@Z$2| DCD 0x40
	DCD	0x0
	DCD	0x0
	DCD	0x1
	DCD	|__catch$79493|
|__tryblocktable$??$DLLCALL_PARAM@IH@@YAJPB_W0HH@Z| DCD 0x0
	DCD	0x0
	DCD	0x0
	DCD	0x1
	DCD	|__catchsym$??$DLLCALL_PARAM@IH@@YAJPB_W0HH@Z$2|
|__ehfuncinfo$??$DLLCALL_PARAM@IH@@YAJPB_W0HH@Z| DCD 0x19930522
	DCD	0x2
	DCD	|__unwindtable$??$DLLCALL_PARAM@IH@@YAJPB_W0HH@Z|
	DCD	0x1
	DCD	|__tryblocktable$??$DLLCALL_PARAM@IH@@YAJPB_W0HH@Z|
	DCD	0x1
	DCD	|$T79507|
	DCD	0x0
	DCD	0x1
|$T79507| DCD	|$M79506|
	DCD	0x0
; Function compile flags: /Ogspy

  00000			 AREA	 |.text|, CODE, ARM

  00000	00000000	 DCD         |__CxxFrameHandler3|
  00004	00000000	 DCD         |__ehfuncinfo$??$DLLCALL_PARAM@IH@@YAJPB_W0HH@Z|

  00008		 |??$DLLCALL_PARAM@IH@@YAJPB_W0HH@Z| PROC ; DLLCALL_PARAM<unsigned int,int>
; Line 115
  00008		 |$LN15@DLLCALL_PA@6|
  00008	e1a0c00d	 mov         r12, sp
  0000c	e92d5830	 stmdb       sp!, {r4, r5, r11, r12, lr}
  00010	e28db014	 add         r11, sp, #0x14
  00014		 |$M79509|
  00014	e1a04002	 mov         r4, r2
  00018	e1a05001	 mov         r5, r1
; Line 116
  0001c	eb000000	 bl          LoadLibraryW
  00020	e3500000	 cmp         r0, #0
; Line 118
  00024	0a00000b	 beq         |$LN5@DLLCALL_PA@6|
; Line 120
  00028	e1a01005	 mov         r1, r5
  0002c	eb000000	 bl          GetProcAddressW
  00030	e1b03000	 movs        r3, r0
; Line 122
  00034	0a000005	 beq         |$LN4@DLLCALL_PA@6|
; Line 137
  00038	e1a00004	 mov         r0, r4
  0003c		 |$M79506|
  0003c	e1a0e00f	 mov         lr, pc
  00040	e1a0f003	 mov         pc, r3
  00044	ea000004	 b           |$LN6@DLLCALL_PA@6|
  00048		 |$LN11@DLLCALL_PA@6|
; Line 143
  00048	e3a00004	 mov         r0, #4
  0004c	ea000002	 b           |$LN6@DLLCALL_PA@6|
  00050		 |$LN4@DLLCALL_PA@6|
; Line 149
  00050	e3a00003	 mov         r0, #3
  00054	ea000000	 b           |$LN6@DLLCALL_PA@6|
  00058		 |$LN5@DLLCALL_PA@6|
; Line 157
  00058	e3a00002	 mov         r0, #2
  0005c		 |$LN6@DLLCALL_PA@6|
; Line 160
  0005c	e24bd014	 sub         sp, r11, #0x14
  00060	e89da830	 ldmia       sp, {r4, r5, r11, sp, pc}
  00064		 |$M79510|
  00064	00000000	 DCD         |__CxxFrameHandler3|
  00068	00000000	 DCD         |__ehfuncinfo$??$DLLCALL_PARAM@IH@@YAJPB_W0HH@Z|
  0006c		 |__catch$79493|
  0006c		 |$M79513|
; Line 143
  0006c	e59f0000	 ldr         r0, [pc]
  00070	e1a0f00e	 mov         pc, lr
  00074		 |$LN18@DLLCALL_PA@6|
  00074		 |$LN19@DLLCALL_PA@6|
  00074	00000000	 DCD         |$LN11@DLLCALL_PA@6|
  00078		 |$M79514|

			 ENDP  ; |??$DLLCALL_PARAM@IH@@YAJPB_W0HH@Z|, DLLCALL_PARAM<unsigned int,int>

	EXPORT	|??$DLLCALL_PARAM_DUAL@IH@@YAJPB_W0HHH@Z| ; DLLCALL_PARAM_DUAL<unsigned int,int>

  00000			 AREA	 |.pdata|, PDATA
|$T79545| DCD	|$LN15@DLLCALL_PA@7|
	DCD	0xc0001903

  00000			 AREA	 |.pdata|, PDATA
|$T79548| DCD	|__catch$79525|
	DCD	0xc0000300

  00000			 AREA	 |.rdata|, DATA, READONLY
|__unwindtable$??$DLLCALL_PARAM_DUAL@IH@@YAJPB_W0HHH@Z| DCD 0xffffffff
	DCD	0x0
	DCD	0xffffffff
	DCD	0x0
|__catchsym$??$DLLCALL_PARAM_DUAL@IH@@YAJPB_W0HHH@Z$2| DCD 0x40
	DCD	0x0
	DCD	0x0
	DCD	0x1
	DCD	|__catch$79525|
|__tryblocktable$??$DLLCALL_PARAM_DUAL@IH@@YAJPB_W0HHH@Z| DCD 0x0
	DCD	0x0
	DCD	0x0
	DCD	0x1
	DCD	|__catchsym$??$DLLCALL_PARAM_DUAL@IH@@YAJPB_W0HHH@Z$2|
|__ehfuncinfo$??$DLLCALL_PARAM_DUAL@IH@@YAJPB_W0HHH@Z| DCD 0x19930522
	DCD	0x2
	DCD	|__unwindtable$??$DLLCALL_PARAM_DUAL@IH@@YAJPB_W0HHH@Z|
	DCD	0x1
	DCD	|__tryblocktable$??$DLLCALL_PARAM_DUAL@IH@@YAJPB_W0HHH@Z|
	DCD	0x1
	DCD	|$T79540|
	DCD	0x0
	DCD	0x1
|$T79540| DCD	|$M79539|
	DCD	0x0
; Function compile flags: /Ogspy

  00000			 AREA	 |.text|, CODE, ARM

  00000	00000000	 DCD         |__CxxFrameHandler3|
  00004	00000000	 DCD         |__ehfuncinfo$??$DLLCALL_PARAM_DUAL@IH@@YAJPB_W0HHH@Z|

  00008		 |??$DLLCALL_PARAM_DUAL@IH@@YAJPB_W0HHH@Z| PROC ; DLLCALL_PARAM_DUAL<unsigned int,int>
; Line 164
  00008		 |$LN15@DLLCALL_PA@7|
  00008	e1a0c00d	 mov         r12, sp
  0000c	e92d5870	 stmdb       sp!, {r4 - r6, r11, r12, lr}
  00010	e28db018	 add         r11, sp, #0x18
  00014		 |$M79542|
  00014	e1a05003	 mov         r5, r3
  00018	e1a06002	 mov         r6, r2
  0001c	e1a04001	 mov         r4, r1
; Line 165
  00020	eb000000	 bl          LoadLibraryW
  00024	e3500000	 cmp         r0, #0
; Line 167
  00028	0a00000c	 beq         |$LN5@DLLCALL_PA@7|
; Line 169
  0002c	e1a01004	 mov         r1, r4
  00030	eb000000	 bl          GetProcAddressW
  00034	e1b04000	 movs        r4, r0
; Line 171
  00038	0a000006	 beq         |$LN4@DLLCALL_PA@7|
; Line 186
  0003c	e1a01005	 mov         r1, r5
  00040	e1a00006	 mov         r0, r6
  00044		 |$M79539|
  00044	e1a0e00f	 mov         lr, pc
  00048	e1a0f004	 mov         pc, r4
  0004c	ea000004	 b           |$LN6@DLLCALL_PA@7|
  00050		 |$LN11@DLLCALL_PA@7|
; Line 192
  00050	e3a00004	 mov         r0, #4
  00054	ea000002	 b           |$LN6@DLLCALL_PA@7|
  00058		 |$LN4@DLLCALL_PA@7|
; Line 198
  00058	e3a00003	 mov         r0, #3
  0005c	ea000000	 b           |$LN6@DLLCALL_PA@7|
  00060		 |$LN5@DLLCALL_PA@7|
; Line 206
  00060	e3a00002	 mov         r0, #2
  00064		 |$LN6@DLLCALL_PA@7|
; Line 209
  00064	e24bd018	 sub         sp, r11, #0x18
  00068	e89da870	 ldmia       sp, {r4 - r6, r11, sp, pc}
  0006c		 |$M79543|
  0006c	00000000	 DCD         |__CxxFrameHandler3|
  00070	00000000	 DCD         |__ehfuncinfo$??$DLLCALL_PARAM_DUAL@IH@@YAJPB_W0HHH@Z|
  00074		 |__catch$79525|
  00074		 |$M79546|
; Line 192
  00074	e59f0000	 ldr         r0, [pc]
  00078	e1a0f00e	 mov         pc, lr
  0007c		 |$LN18@DLLCALL_PA@7|
  0007c		 |$LN19@DLLCALL_PA@7|
  0007c	00000000	 DCD         |$LN11@DLLCALL_PA@7|
  00080		 |$M79547|

			 ENDP  ; |??$DLLCALL_PARAM_DUAL@IH@@YAJPB_W0HHH@Z|, DLLCALL_PARAM_DUAL<unsigned int,int>

	EXPORT	|??$LoadMethod@P6AIPA_WHH@Z@@YAP6AIPA_WHH@ZPB_W1@Z| ; LoadMethod<unsigned int (__cdecl*)(wchar_t *,int,int)>

  00000			 AREA	 |.pdata|, PDATA
|$T79565| DCD	|$LN7@LoadMethod|
	DCD	0x40000e01
; Function compile flags: /Ogspy

  00000			 AREA	 |.text|, CODE, ARM

  00000		 |??$LoadMethod@P6AIPA_WHH@Z@@YAP6AIPA_WHH@ZPB_W1@Z| PROC ; LoadMethod<unsigned int (__cdecl*)(wchar_t *,int,int)>
; Line 395
  00000		 |$LN7@LoadMethod|
  00000	e92d4030	 stmdb       sp!, {r4, r5, lr}
  00004		 |$M79562|
  00004	e1a05001	 mov         r5, r1
; Line 396
  00008	eb000000	 bl          LoadLibraryW
  0000c	e1b04000	 movs        r4, r0
; Line 398
  00010	0a000006	 beq         |$LN2@LoadMethod|
; Line 400
  00014	e1a01005	 mov         r1, r5
  00018	e1a00004	 mov         r0, r4
  0001c	eb000000	 bl          GetProcAddressW
  00020	e3500000	 cmp         r0, #0
; Line 404
  00024	1a000002	 bne         |$LN3@LoadMethod|
; Line 407
  00028	e1a00004	 mov         r0, r4
  0002c	eb000000	 bl          FreeLibrary
  00030		 |$LN2@LoadMethod|
; Line 409
  00030	e3a00000	 mov         r0, #0
  00034		 |$LN3@LoadMethod|
; Line 410
  00034	e8bd8030	 ldmia       sp!, {r4, r5, pc}
  00038		 |$M79563|

			 ENDP  ; |??$LoadMethod@P6AIPA_WHH@Z@@YAP6AIPA_WHH@ZPB_W1@Z|, LoadMethod<unsigned int (__cdecl*)(wchar_t *,int,int)>

	EXPORT	|??$LoadMethod@P6AIPA_WHPAH@Z@@YAP6AIPA_WHPAH@ZPB_W2@Z| ; LoadMethod<unsigned int (__cdecl*)(wchar_t *,int,int *)>

  00000			 AREA	 |.pdata|, PDATA
|$T79578| DCD	|$LN7@LoadMethod@2|
	DCD	0x40000e01
; Function compile flags: /Ogspy

  00000			 AREA	 |.text|, CODE, ARM

  00000		 |??$LoadMethod@P6AIPA_WHPAH@Z@@YAP6AIPA_WHPAH@ZPB_W2@Z| PROC ; LoadMethod<unsigned int (__cdecl*)(wchar_t *,int,int *)>
; Line 395
  00000		 |$LN7@LoadMethod@2|
  00000	e92d4030	 stmdb       sp!, {r4, r5, lr}
  00004		 |$M79575|
  00004	e1a05001	 mov         r5, r1
; Line 396
  00008	eb000000	 bl          LoadLibraryW
  0000c	e1b04000	 movs        r4, r0
; Line 398
  00010	0a000006	 beq         |$LN2@LoadMethod@2|
; Line 400
  00014	e1a01005	 mov         r1, r5
  00018	e1a00004	 mov         r0, r4
  0001c	eb000000	 bl          GetProcAddressW
  00020	e3500000	 cmp         r0, #0
; Line 404
  00024	1a000002	 bne         |$LN3@LoadMethod@2|
; Line 407
  00028	e1a00004	 mov         r0, r4
  0002c	eb000000	 bl          FreeLibrary
  00030		 |$LN2@LoadMethod@2|
; Line 409
  00030	e3a00000	 mov         r0, #0
  00034		 |$LN3@LoadMethod@2|
; Line 410
  00034	e8bd8030	 ldmia       sp!, {r4, r5, pc}
  00038		 |$M79576|

			 ENDP  ; |??$LoadMethod@P6AIPA_WHPAH@Z@@YAP6AIPA_WHPAH@ZPB_W2@Z|, LoadMethod<unsigned int (__cdecl*)(wchar_t *,int,int *)>

	EXPORT	|??$LoadMethod@P6AJHHHH@Z@@YAP6AJHHHH@ZPB_W0@Z| ; LoadMethod<long (__cdecl*)(int,int,int,int)>

  00000			 AREA	 |.pdata|, PDATA
|$T79591| DCD	|$LN7@LoadMethod@3|
	DCD	0x40000e01
; Function compile flags: /Ogspy

  00000			 AREA	 |.text|, CODE, ARM

  00000		 |??$LoadMethod@P6AJHHHH@Z@@YAP6AJHHHH@ZPB_W0@Z| PROC ; LoadMethod<long (__cdecl*)(int,int,int,int)>
; Line 395
  00000		 |$LN7@LoadMethod@3|
  00000	e92d4030	 stmdb       sp!, {r4, r5, lr}
  00004		 |$M79588|
  00004	e1a05001	 mov         r5, r1
; Line 396
  00008	eb000000	 bl          LoadLibraryW
  0000c	e1b04000	 movs        r4, r0
; Line 398
  00010	0a000006	 beq         |$LN2@LoadMethod@3|
; Line 400
  00014	e1a01005	 mov         r1, r5
  00018	e1a00004	 mov         r0, r4
  0001c	eb000000	 bl          GetProcAddressW
  00020	e3500000	 cmp         r0, #0
; Line 404
  00024	1a000002	 bne         |$LN3@LoadMethod@3|
; Line 407
  00028	e1a00004	 mov         r0, r4
  0002c	eb000000	 bl          FreeLibrary
  00030		 |$LN2@LoadMethod@3|
; Line 409
  00030	e3a00000	 mov         r0, #0
  00034		 |$LN3@LoadMethod@3|
; Line 410
  00034	e8bd8030	 ldmia       sp!, {r4, r5, pc}
  00038		 |$M79589|

			 ENDP  ; |??$LoadMethod@P6AJHHHH@Z@@YAP6AJHHHH@ZPB_W0@Z|, LoadMethod<long (__cdecl*)(int,int,int,int)>

	EXPORT	|??$LoadMethod@P6AIPA_W0@Z@@YAP6AIPA_W0@ZPB_W1@Z| ; LoadMethod<unsigned int (__cdecl*)(wchar_t *,wchar_t *)>

  00000			 AREA	 |.pdata|, PDATA
|$T79604| DCD	|$LN7@LoadMethod@4|
	DCD	0x40000e01
; Function compile flags: /Ogspy

  00000			 AREA	 |.text|, CODE, ARM

  00000		 |??$LoadMethod@P6AIPA_W0@Z@@YAP6AIPA_W0@ZPB_W1@Z| PROC ; LoadMethod<unsigned int (__cdecl*)(wchar_t *,wchar_t *)>
; Line 395
  00000		 |$LN7@LoadMethod@4|
  00000	e92d4030	 stmdb       sp!, {r4, r5, lr}
  00004		 |$M79601|
  00004	e1a05001	 mov         r5, r1
; Line 396
  00008	eb000000	 bl          LoadLibraryW
  0000c	e1b04000	 movs        r4, r0
; Line 398
  00010	0a000006	 beq         |$LN2@LoadMethod@4|
; Line 400
  00014	e1a01005	 mov         r1, r5
  00018	e1a00004	 mov         r0, r4
  0001c	eb000000	 bl          GetProcAddressW
  00020	e3500000	 cmp         r0, #0
; Line 404
  00024	1a000002	 bne         |$LN3@LoadMethod@4|
; Line 407
  00028	e1a00004	 mov         r0, r4
  0002c	eb000000	 bl          FreeLibrary
  00030		 |$LN2@LoadMethod@4|
; Line 409
  00030	e3a00000	 mov         r0, #0
  00034		 |$LN3@LoadMethod@4|
; Line 410
  00034	e8bd8030	 ldmia       sp!, {r4, r5, pc}
  00038		 |$M79602|

			 ENDP  ; |??$LoadMethod@P6AIPA_W0@Z@@YAP6AIPA_W0@ZPB_W1@Z|, LoadMethod<unsigned int (__cdecl*)(wchar_t *,wchar_t *)>

	EXPORT	|??$LoadMethod@P6AKPAU_SYSTEM_POWER_STATUS_EX2@@KH@Z@@YAP6AKPAU_SYSTEM_POWER_STATUS_EX2@@KH@ZPB_W1@Z| ; LoadMethod<unsigned long (__cdecl*)(_SYSTEM_POWER_STATUS_EX2 *,unsigned long,int)>

  00000			 AREA	 |.pdata|, PDATA
|$T79617| DCD	|$LN7@LoadMethod@5|
	DCD	0x40000e01
; Function compile flags: /Ogspy

  00000			 AREA	 |.text|, CODE, ARM

  00000		 |??$LoadMethod@P6AKPAU_SYSTEM_POWER_STATUS_EX2@@KH@Z@@YAP6AKPAU_SYSTEM_POWER_STATUS_EX2@@KH@ZPB_W1@Z| PROC ; LoadMethod<unsigned long (__cdecl*)(_SYSTEM_POWER_STATUS_EX2 *,unsigned long,int)>
; Line 395
  00000		 |$LN7@LoadMethod@5|
  00000	e92d4030	 stmdb       sp!, {r4, r5, lr}
  00004		 |$M79614|
  00004	e1a05001	 mov         r5, r1
; Line 396
  00008	eb000000	 bl          LoadLibraryW
  0000c	e1b04000	 movs        r4, r0
; Line 398
  00010	0a000006	 beq         |$LN2@LoadMethod@5|
; Line 400
  00014	e1a01005	 mov         r1, r5
  00018	e1a00004	 mov         r0, r4
  0001c	eb000000	 bl          GetProcAddressW
  00020	e3500000	 cmp         r0, #0
; Line 404
  00024	1a000002	 bne         |$LN3@LoadMethod@5|
; Line 407
  00028	e1a00004	 mov         r0, r4
  0002c	eb000000	 bl          FreeLibrary
  00030		 |$LN2@LoadMethod@5|
; Line 409
  00030	e3a00000	 mov         r0, #0
  00034		 |$LN3@LoadMethod@5|
; Line 410
  00034	e8bd8030	 ldmia       sp!, {r4, r5, pc}
  00038		 |$M79615|

			 ENDP  ; |??$LoadMethod@P6AKPAU_SYSTEM_POWER_STATUS_EX2@@KH@Z@@YAP6AKPAU_SYSTEM_POWER_STATUS_EX2@@KH@ZPB_W1@Z|, LoadMethod<unsigned long (__cdecl*)(_SYSTEM_POWER_STATUS_EX2 *,unsigned long,int)>

	EXPORT	|??$LoadMethod@P6AHPA_WPAU_SYSTEMTIME@@@Z@@YAP6AHPA_WPAU_SYSTEMTIME@@@ZPB_W2@Z| ; LoadMethod<int (__cdecl*)(wchar_t *,_SYSTEMTIME *)>

  00000			 AREA	 |.pdata|, PDATA
|$T79630| DCD	|$LN7@LoadMethod@6|
	DCD	0x40000e01
; Function compile flags: /Ogspy

  00000			 AREA	 |.text|, CODE, ARM

  00000		 |??$LoadMethod@P6AHPA_WPAU_SYSTEMTIME@@@Z@@YAP6AHPA_WPAU_SYSTEMTIME@@@ZPB_W2@Z| PROC ; LoadMethod<int (__cdecl*)(wchar_t *,_SYSTEMTIME *)>
; Line 395
  00000		 |$LN7@LoadMethod@6|
  00000	e92d4030	 stmdb       sp!, {r4, r5, lr}
  00004		 |$M79627|
  00004	e1a05001	 mov         r5, r1
; Line 396
  00008	eb000000	 bl          LoadLibraryW
  0000c	e1b04000	 movs        r4, r0
; Line 398
  00010	0a000006	 beq         |$LN2@LoadMethod@6|
; Line 400
  00014	e1a01005	 mov         r1, r5
  00018	e1a00004	 mov         r0, r4
  0001c	eb000000	 bl          GetProcAddressW
  00020	e3500000	 cmp         r0, #0
; Line 404
  00024	1a000002	 bne         |$LN3@LoadMethod@6|
; Line 407
  00028	e1a00004	 mov         r0, r4
  0002c	eb000000	 bl          FreeLibrary
  00030		 |$LN2@LoadMethod@6|
; Line 409
  00030	e3a00000	 mov         r0, #0
  00034		 |$LN3@LoadMethod@6|
; Line 410
  00034	e8bd8030	 ldmia       sp!, {r4, r5, pc}
  00038		 |$M79628|

			 ENDP  ; |??$LoadMethod@P6AHPA_WPAU_SYSTEMTIME@@@Z@@YAP6AHPA_WPAU_SYSTEMTIME@@@ZPB_W2@Z|, LoadMethod<int (__cdecl*)(wchar_t *,_SYSTEMTIME *)>

	EXPORT	|??$DLLCALL_PARAM_OUT@J@@YAJPB_W0PAX@Z|	; DLLCALL_PARAM_OUT<long>

  00000			 AREA	 |.pdata|, PDATA
|$T79657| DCD	|$LN17@DLLCALL_PA@8|
	DCD	0xc0001b03

  00000			 AREA	 |.pdata|, PDATA
|$T79660| DCD	|__catch$79638|
	DCD	0xc0000300

  00000			 AREA	 |.rdata|, DATA, READONLY
|__unwindtable$??$DLLCALL_PARAM_OUT@J@@YAJPB_W0PAX@Z| DCD 0xffffffff
	DCD	0x0
	DCD	0xffffffff
	DCD	0x0
|__catchsym$??$DLLCALL_PARAM_OUT@J@@YAJPB_W0PAX@Z$2| DCD 0x40
	DCD	0x0
	DCD	0x0
	DCD	0x1
	DCD	|__catch$79638|
|__tryblocktable$??$DLLCALL_PARAM_OUT@J@@YAJPB_W0PAX@Z| DCD 0x0
	DCD	0x0
	DCD	0x0
	DCD	0x1
	DCD	|__catchsym$??$DLLCALL_PARAM_OUT@J@@YAJPB_W0PAX@Z$2|
|__ehfuncinfo$??$DLLCALL_PARAM_OUT@J@@YAJPB_W0PAX@Z| DCD 0x19930522
	DCD	0x2
	DCD	|__unwindtable$??$DLLCALL_PARAM_OUT@J@@YAJPB_W0PAX@Z|
	DCD	0x1
	DCD	|__tryblocktable$??$DLLCALL_PARAM_OUT@J@@YAJPB_W0PAX@Z|
	DCD	0x1
	DCD	|$T79652|
	DCD	0x0
	DCD	0x1
|$T79652| DCD	|$M79651|
	DCD	0x0
; Function compile flags: /Ogspy

  00000			 AREA	 |.text|, CODE, ARM

  00000	00000000	 DCD         |__CxxFrameHandler3|
  00004	00000000	 DCD         |__ehfuncinfo$??$DLLCALL_PARAM_OUT@J@@YAJPB_W0PAX@Z|

  00008		 |??$DLLCALL_PARAM_OUT@J@@YAJPB_W0PAX@Z| PROC ; DLLCALL_PARAM_OUT<long>
; Line 346
  00008		 |$LN17@DLLCALL_PA@8|
  00008	e1a0c00d	 mov         r12, sp
  0000c	e92d5830	 stmdb       sp!, {r4, r5, r11, r12, lr}
  00010	e28db014	 add         r11, sp, #0x14
  00014		 |$M79654|
  00014	e1a04002	 mov         r4, r2
  00018	e1a05001	 mov         r5, r1
; Line 347
  0001c	eb000000	 bl          LoadLibraryW
  00020	e3500000	 cmp         r0, #0
; Line 349
  00024	0a00000f	 beq         |$LN5@DLLCALL_PA@8|
; Line 351
  00028	e1a01005	 mov         r1, r5
  0002c	eb000000	 bl          GetProcAddressW
  00030	e1b03000	 movs        r3, r0
; Line 353
  00034	0a000009	 beq         |$LN4@DLLCALL_PA@8|
; Line 368
  00038	e1a00004	 mov         r0, r4
  0003c		 |$M79651|
  0003c	e1a0e00f	 mov         lr, pc
  00040	e1a0f003	 mov         pc, r3
  00044	e3500000	 cmp         r0, #0
  00048	13a0000f	 movne       r0, #0xF
  0004c	1a000006	 bne         |$LN6@DLLCALL_PA@8|
  00050	e3a00013	 mov         r0, #0x13
  00054	ea000004	 b           |$LN6@DLLCALL_PA@8|
  00058		 |$LN13@DLLCALL_PA@8|
; Line 374
  00058	e3a00004	 mov         r0, #4
  0005c	ea000002	 b           |$LN6@DLLCALL_PA@8|
  00060		 |$LN4@DLLCALL_PA@8|
; Line 380
  00060	e3a00003	 mov         r0, #3
  00064	ea000000	 b           |$LN6@DLLCALL_PA@8|
  00068		 |$LN5@DLLCALL_PA@8|
; Line 388
  00068	e3a00002	 mov         r0, #2
  0006c		 |$LN6@DLLCALL_PA@8|
; Line 391
  0006c	e24bd014	 sub         sp, r11, #0x14
  00070	e89da830	 ldmia       sp, {r4, r5, r11, sp, pc}
  00074		 |$M79655|
  00074	00000000	 DCD         |__CxxFrameHandler3|
  00078	00000000	 DCD         |__ehfuncinfo$??$DLLCALL_PARAM_OUT@J@@YAJPB_W0PAX@Z|
  0007c		 |__catch$79638|
  0007c		 |$M79658|
; Line 374
  0007c	e59f0000	 ldr         r0, [pc]
  00080	e1a0f00e	 mov         pc, lr
  00084		 |$LN20@DLLCALL_PA@8|
  00084		 |$LN21@DLLCALL_PA@8|
  00084	00000000	 DCD         |$LN13@DLLCALL_PA@8|
  00088		 |$M79659|

			 ENDP  ; |??$DLLCALL_PARAM_OUT@J@@YAJPB_W0PAX@Z|, DLLCALL_PARAM_OUT<long>

	EXPORT	|?Increment@CComMultiThreadModel@ATL@@SAKPAJ@Z| ; ATL::CComMultiThreadModel::Increment
	IMPORT	|InterlockedIncrement|
; File c:\program files (x86)\microsoft visual studio 9.0\vc\ce\atlmfc\include\atlbase.h

  00000			 AREA	 |.pdata|, PDATA
|$T79674| DCD	|$LN5@Increment|
	DCD	0x40000100
; Function compile flags: /Ogspy

  00000			 AREA	 |.text|, CODE, ARM

  00000		 |?Increment@CComMultiThreadModel@ATL@@SAKPAJ@Z| PROC ; ATL::CComMultiThreadModel::Increment
; Line 380
  00000		 |$LN5@Increment|
  00000		 |$M79671|
  00000	ea000000	 b           InterlockedIncrement
  00004		 |$M79672|

			 ENDP  ; |?Increment@CComMultiThreadModel@ATL@@SAKPAJ@Z|, ATL::CComMultiThreadModel::Increment

	EXPORT	|?Decrement@CComMultiThreadModel@ATL@@SAKPAJ@Z| ; ATL::CComMultiThreadModel::Decrement
	IMPORT	|InterlockedDecrement|

  00000			 AREA	 |.pdata|, PDATA
|$T79684| DCD	|$LN5@Decrement|
	DCD	0x40000100
; Function compile flags: /Ogspy

  00000			 AREA	 |.text|, CODE, ARM

  00000		 |?Decrement@CComMultiThreadModel@ATL@@SAKPAJ@Z| PROC ; ATL::CComMultiThreadModel::Decrement
; Line 381
  00000		 |$LN5@Decrement|
  00000		 |$M79681|
  00000	ea000000	 b           InterlockedDecrement
  00004		 |$M79682|

			 ENDP  ; |?Decrement@CComMultiThreadModel@ATL@@SAKPAJ@Z|, ATL::CComMultiThreadModel::Decrement

	EXPORT	|?EscapeSingleQuote@CAtlModule@ATL@@SAXPA_WIPB_W@Z| ; ATL::CAtlModule::EscapeSingleQuote

  00000			 AREA	 |.pdata|, PDATA
|$T79698| DCD	|$LN13@EscapeSing|
	DCD	0x40001701
; Function compile flags: /Ogspy

  00000			 AREA	 |.text|, CODE, ARM

  00000		 |?EscapeSingleQuote@CAtlModule@ATL@@SAXPA_WIPB_W@Z| PROC ; ATL::CAtlModule::EscapeSingleQuote
; Line 2909
  00000		 |$LN13@EscapeSing|
  00000	e52de004	 str         lr, [sp, #-4]!
  00004		 |$M79695|
  00004	e3510000	 cmp         r1, #0
; Line 2910
  00008	0a000012	 beq         |$LN6@EscapeSing|
; Line 2916
  0000c	e3a03000	 mov         r3, #0
  00010	e251e001	 subs        lr, r1, #1
  00014	0a00000d	 beq         |$LN10@EscapeSing|
  00018		 |$LL4@EscapeSing|
  00018	e1d210b0	 ldrh        r1, [r2]
  0001c	e3510000	 cmp         r1, #0
  00020	0a00000a	 beq         |$LN10@EscapeSing|
; Line 2918
  00024	e0c010b2	 strh        r1, [r0], #2
; Line 2920
  00028	e1d210b0	 ldrh        r1, [r2]
  0002c	e3510027	 cmp         r1, #0x27
  00030	1a000002	 bne         |$LN1@EscapeSing|
  00034	e2833001	 add         r3, r3, #1
  00038	e153000e	 cmp         r3, lr
; Line 2921
  0003c	30c010b2	 strcch      r1, [r0], #2
  00040		 |$LN1@EscapeSing|
  00040	e2833001	 add         r3, r3, #1
  00044	e153000e	 cmp         r3, lr
; Line 2922
  00048	e2822002	 add         r2, r2, #2
  0004c	3afffff1	 bcc         |$LL4@EscapeSing|
  00050		 |$LN10@EscapeSing|
; Line 2924
  00050	e3a03000	 mov         r3, #0
  00054	e1c030b0	 strh        r3, [r0]
  00058		 |$LN6@EscapeSing|
; Line 2925
  00058	e49df004	 ldr         pc, [sp], #4
  0005c		 |$M79696|

			 ENDP  ; |?EscapeSingleQuote@CAtlModule@ATL@@SAXPA_WIPB_W@Z|, ATL::CAtlModule::EscapeSingleQuote

	EXPORT	|??0CRegKey@ATL@@QAA@XZ|		; ATL::CRegKey::CRegKey

  00000			 AREA	 |.pdata|, PDATA
|$T79708| DCD	|$LN5@CRegKey|
	DCD	0x40000300
; Function compile flags: /Ogspy

  00000			 AREA	 |.text|, CODE, ARM

  00000		 |??0CRegKey@ATL@@QAA@XZ| PROC		; ATL::CRegKey::CRegKey
; Line 5281
  00000		 |$LN5@CRegKey|
  00000		 |$M79705|
  00000	e3a03000	 mov         r3, #0
  00004	e5803000	 str         r3, [r0]
; Line 5282
  00008	e1a0f00e	 mov         pc, lr
  0000c		 |$M79706|

			 ENDP  ; |??0CRegKey@ATL@@QAA@XZ|, ATL::CRegKey::CRegKey

	EXPORT	|??BCRegKey@ATL@@QBAPAUHKEY__@@XZ|	; ATL::CRegKey::operator HKEY__ *

  00000			 AREA	 |.pdata|, PDATA
|$T79718| DCD	|$LN5@operator@2|
	DCD	0x40000200
; Function compile flags: /Ogspy

  00000			 AREA	 |.text|, CODE, ARM

  00000		 |??BCRegKey@ATL@@QBAPAUHKEY__@@XZ| PROC ; ATL::CRegKey::operator HKEY__ *
; Line 5318
  00000		 |$LN5@operator@2|
  00000		 |$M79715|
  00000	e5900000	 ldr         r0, [r0]
  00004	e1a0f00e	 mov         pc, lr
  00008		 |$M79716|

			 ENDP  ; |??BCRegKey@ATL@@QBAPAUHKEY__@@XZ|, ATL::CRegKey::operator HKEY__ *

	EXPORT	|?Detach@CRegKey@ATL@@QAAPAUHKEY__@@XZ|	; ATL::CRegKey::Detach

  00000			 AREA	 |.pdata|, PDATA
|$T79729| DCD	|$LN5@Detach|
	DCD	0x40000500
; Function compile flags: /Ogspy

  00000			 AREA	 |.text|, CODE, ARM

  00000		 |?Detach@CRegKey@ATL@@QAAPAUHKEY__@@XZ| PROC ; ATL::CRegKey::Detach
; Line 5321
  00000		 |$LN5@Detach|
  00000		 |$M79726|
  00000	e1a03000	 mov         r3, r0
; Line 5323
  00004	e5930000	 ldr         r0, [r3]
  00008	e3a02000	 mov         r2, #0
  0000c	e5832000	 str         r2, [r3]
; Line 5328
  00010	e1a0f00e	 mov         pc, lr
  00014		 |$M79727|

			 ENDP  ; |?Detach@CRegKey@ATL@@QAAPAUHKEY__@@XZ|, ATL::CRegKey::Detach

	EXPORT	|?Attach@CRegKey@ATL@@QAAXPAUHKEY__@@@Z| ; ATL::CRegKey::Attach

  00000			 AREA	 |.pdata|, PDATA
|$T79738| DCD	|$LN8@Attach|
	DCD	0x40000200
; Function compile flags: /Ogspy

  00000			 AREA	 |.text|, CODE, ARM

  00000		 |?Attach@CRegKey@ATL@@QAAXPAUHKEY__@@@Z| PROC ; ATL::CRegKey::Attach
; Line 5331
  00000		 |$LN8@Attach|
  00000		 |$M79735|
; Line 5333
  00000	e5801000	 str         r1, [r0]
; Line 5337
  00004	e1a0f00e	 mov         pc, lr
  00008		 |$M79736|

			 ENDP  ; |?Attach@CRegKey@ATL@@QAAXPAUHKEY__@@@Z|, ATL::CRegKey::Attach

	EXPORT	|?DeleteSubKey@CRegKey@ATL@@QAAJPB_W@Z|	; ATL::CRegKey::DeleteSubKey
	IMPORT	|RegDeleteKeyW|

  00000			 AREA	 |.pdata|, PDATA
|$T79749| DCD	|$LN8@DeleteSubK|
	DCD	0x40000200
; Function compile flags: /Ogspy

  00000			 AREA	 |.text|, CODE, ARM

  00000		 |?DeleteSubKey@CRegKey@ATL@@QAAJPB_W@Z| PROC ; ATL::CRegKey::DeleteSubKey
; Line 5340
  00000		 |$LN8@DeleteSubK|
  00000		 |$M79746|
; Line 5370
  00000	e5900000	 ldr         r0, [r0]
  00004	ea000000	 b           RegDeleteKeyW
  00008		 |$M79747|

			 ENDP  ; |?DeleteSubKey@CRegKey@ATL@@QAAJPB_W@Z|, ATL::CRegKey::DeleteSubKey

	EXPORT	|?DeleteValue@CRegKey@ATL@@QAAJPB_W@Z|	; ATL::CRegKey::DeleteValue
	IMPORT	|RegDeleteValueW|

  00000			 AREA	 |.pdata|, PDATA
|$T79760| DCD	|$LN8@DeleteValu|
	DCD	0x40000200
; Function compile flags: /Ogspy

  00000			 AREA	 |.text|, CODE, ARM

  00000		 |?DeleteValue@CRegKey@ATL@@QAAJPB_W@Z| PROC ; ATL::CRegKey::DeleteValue
; Line 5374
  00000		 |$LN8@DeleteValu|
  00000		 |$M79757|
; Line 5376
  00000	e5900000	 ldr         r0, [r0]
  00004	ea000000	 b           RegDeleteValueW
  00008		 |$M79758|

			 ENDP  ; |?DeleteValue@CRegKey@ATL@@QAAJPB_W@Z|, ATL::CRegKey::DeleteValue

	EXPORT	|?Close@CRegKey@ATL@@QAAJXZ|		; ATL::CRegKey::Close
	IMPORT	|RegCloseKey|

  00000			 AREA	 |.pdata|, PDATA
|$T79771| DCD	|$LN6@Close|
	DCD	0x40000b01
; Function compile flags: /Ogspy

  00000			 AREA	 |.text|, CODE, ARM

  00000		 |?Close@CRegKey@ATL@@QAAJXZ| PROC	; ATL::CRegKey::Close
; Line 5380
  00000		 |$LN6@Close|
  00000	e92d4010	 stmdb       sp!, {r4, lr}
  00004		 |$M79768|
  00004	e1a04000	 mov         r4, r0
; Line 5382
  00008	e5943000	 ldr         r3, [r4]
  0000c	e3a00000	 mov         r0, #0
  00010	e3530000	 cmp         r3, #0
  00014	0a000003	 beq         |$LN1@Close|
; Line 5384
  00018	e1a00003	 mov         r0, r3
  0001c	eb000000	 bl          RegCloseKey
; Line 5385
  00020	e3a03000	 mov         r3, #0
  00024	e5843000	 str         r3, [r4]
  00028		 |$LN1@Close|
; Line 5391
  00028	e8bd8010	 ldmia       sp!, {r4, pc}
  0002c		 |$M79769|

			 ENDP  ; |?Close@CRegKey@ATL@@QAAJXZ|, ATL::CRegKey::Close

	EXPORT	|?Create@CRegKey@ATL@@QAAJPAUHKEY__@@PB_WPA_WKKPAU_SECURITY_ATTRIBUTES@@PAK@Z| ; ATL::CRegKey::Create
	IMPORT	|RegCreateKeyExW|

  00000			 AREA	 |.pdata|, PDATA
|$T79792| DCD	|$LN10@Create|
	DCD	0x40002702
; Function compile flags: /Ogspy

  00000			 AREA	 |.text|, CODE, ARM

  00000		 |?Create@CRegKey@ATL@@QAAJPAUHKEY__@@PB_WPA_WKKPAU_SECURITY_ATTRIBUTES@@PAK@Z| PROC ; ATL::CRegKey::Create
; Line 5426
  00000		 |$LN10@Create|
  00000	e92d4ff0	 stmdb       sp!, {r4 - r11, lr}
  00004	e24dd01c	 sub         sp, sp, #0x1C
  00008		 |$M79789|
  00008	e1a08002	 mov         r8, r2
  0000c	e1a09001	 mov         r9, r1
  00010	e1a0a000	 mov         r10, r0
; Line 5431
  00014	e59de048	 ldr         lr, [sp, #0x48]
  00018	e59d4044	 ldr         r4, [sp, #0x44]
  0001c	e59d5040	 ldr         r5, [sp, #0x40]
  00020	e3a0b000	 mov         r11, #0
  00024	e28d6018	 add         r6, sp, #0x18
  00028	e28d7014	 add         r7, sp, #0x14
  0002c	e3a02000	 mov         r2, #0
  00030	e1a01008	 mov         r1, r8
  00034	e1a00009	 mov         r0, r9
  00038	e58de008	 str         lr, [sp, #8]
  0003c	e58d4004	 str         r4, [sp, #4]
  00040	e58d5000	 str         r5, [sp]
  00044	e58db014	 str         r11, [sp, #0x14]
  00048	e58d6010	 str         r6, [sp, #0x10]
  0004c	e58d700c	 str         r7, [sp, #0xC]
  00050	eb000000	 bl          RegCreateKeyExW
; Line 5432
  00054	e59d204c	 ldr         r2, [sp, #0x4C]
  00058	e3520000	 cmp         r2, #0
; Line 5433
  0005c	159d3018	 ldrne       r3, [sp, #0x18]
  00060	15823000	 strne       r3, [r2]
; Line 5434
  00064	e3500000	 cmp         r0, #0
  00068	1a000009	 bne         |$LN1@Create|
; Line 5436
  0006c	e59a3000	 ldr         r3, [r10]
  00070	e3a00000	 mov         r0, #0
  00074	e3530000	 cmp         r3, #0
  00078	0a000003	 beq         |$LN5@Create|
  0007c	e1a00003	 mov         r0, r3
  00080	eb000000	 bl          RegCloseKey
  00084	e3a03000	 mov         r3, #0
  00088	e58a3000	 str         r3, [r10]
  0008c		 |$LN5@Create|
; Line 5437
  0008c	e59d3014	 ldr         r3, [sp, #0x14]
  00090	e58a3000	 str         r3, [r10]
  00094		 |$LN1@Create|
; Line 5443
  00094	e28dd01c	 add         sp, sp, #0x1C
  00098	e8bd8ff0	 ldmia       sp!, {r4 - r11, pc}
  0009c		 |$M79790|

			 ENDP  ; |?Create@CRegKey@ATL@@QAAJPAUHKEY__@@PB_WPA_WKKPAU_SECURITY_ATTRIBUTES@@PAK@Z|, ATL::CRegKey::Create

	EXPORT	|?Open@CRegKey@ATL@@QAAJPAUHKEY__@@PB_WK@Z| ; ATL::CRegKey::Open
	IMPORT	|RegOpenKeyExW|

  00000			 AREA	 |.pdata|, PDATA
|$T79812| DCD	|$LN12@Open|
	DCD	0x40001b02
; Function compile flags: /Ogspy

  00000			 AREA	 |.text|, CODE, ARM

  00000		 |?Open@CRegKey@ATL@@QAAJPAUHKEY__@@PB_WK@Z| PROC ; ATL::CRegKey::Open
; Line 5446
  00000		 |$LN12@Open|
  00000	e92d4070	 stmdb       sp!, {r4 - r6, lr}
  00004	e24dd008	 sub         sp, sp, #8
  00008		 |$M79809|
  00008	e1a04002	 mov         r4, r2
  0000c	e1a05001	 mov         r5, r1
  00010	e1a06000	 mov         r6, r0
; Line 5448
  00014	e3a02000	 mov         r2, #0
; Line 5449
  00018	e58d2004	 str         r2, [sp, #4]
  0001c	e28de004	 add         lr, sp, #4
  00020	e3a02000	 mov         r2, #0
  00024	e1a01004	 mov         r1, r4
  00028	e1a00005	 mov         r0, r5
  0002c	e58de000	 str         lr, [sp]
  00030	eb000000	 bl          RegOpenKeyExW
  00034	e3500000	 cmp         r0, #0
; Line 5450
  00038	1a000009	 bne         |$LN1@Open|
; Line 5452
  0003c	e5963000	 ldr         r3, [r6]
  00040	e3a00000	 mov         r0, #0
  00044	e3530000	 cmp         r3, #0
  00048	0a000003	 beq         |$LN7@Open|
  0004c	e1a00003	 mov         r0, r3
  00050	eb000000	 bl          RegCloseKey
  00054	e3a03000	 mov         r3, #0
  00058	e5863000	 str         r3, [r6]
  0005c		 |$LN7@Open|
; Line 5454
  0005c	e59d3004	 ldr         r3, [sp, #4]
  00060	e5863000	 str         r3, [r6]
  00064		 |$LN1@Open|
; Line 5460
  00064	e28dd008	 add         sp, sp, #8
  00068	e8bd8070	 ldmia       sp!, {r4 - r6, pc}
  0006c		 |$M79810|

			 ENDP  ; |?Open@CRegKey@ATL@@QAAJPAUHKEY__@@PB_WK@Z|, ATL::CRegKey::Open

	EXPORT	|?SetDWORDValue@CRegKey@ATL@@QAAJPB_WK@Z| ; ATL::CRegKey::SetDWORDValue
	IMPORT	|RegSetValueExW|

  00000			 AREA	 |.pdata|, PDATA
|$T79823| DCD	|$LN8@SetDWORDVa|
	DCD	0x40000e04
; Function compile flags: /Ogspy

  00000			 AREA	 |.text|, CODE, ARM

  00000		 |?SetDWORDValue@CRegKey@ATL@@QAAJPB_WK@Z| PROC ; ATL::CRegKey::SetDWORDValue
; Line 5764
  00000		 |$LN8@SetDWORDVa|
  00000	e1a0c00d	 mov         r12, sp
  00004	e92d000f	 stmdb       sp!, {r0 - r3}
  00008	e92d5010	 stmdb       sp!, {r4, r12, lr}
  0000c	e24dd008	 sub         sp, sp, #8
  00010		 |$M79820|
; Line 5766
  00010	e5900000	 ldr         r0, [r0]
  00014	e3a04004	 mov         r4, #4
  00018	e28de01c	 add         lr, sp, #0x1C
  0001c	e3a03004	 mov         r3, #4
  00020	e3a02000	 mov         r2, #0
  00024	e58d4004	 str         r4, [sp, #4]
  00028	e58de000	 str         lr, [sp]
  0002c	eb000000	 bl          RegSetValueExW
; Line 5767
  00030	e28dd008	 add         sp, sp, #8
  00034	e89da010	 ldmia       sp, {r4, sp, pc}
  00038		 |$M79821|

			 ENDP  ; |?SetDWORDValue@CRegKey@ATL@@QAAJPB_WK@Z|, ATL::CRegKey::SetDWORDValue

	EXPORT	|?SetStringValue@CRegKey@ATL@@QAAJPB_W0K@Z| ; ATL::CRegKey::SetStringValue
; File c:\program files (x86)\microsoft visual studio 9.0\vc\ce\atlmfc\include\atlosapice.h

  00000			 AREA	 |.pdata|, PDATA
|$T79845| DCD	|$LN18@SetStringV|
	DCD	0x40001602
; Function compile flags: /Ogspy

  00000			 AREA	 |.text|, CODE, ARM

  00000		 |?SetStringValue@CRegKey@ATL@@QAAJPB_W0K@Z| PROC ; ATL::CRegKey::SetStringValue
; File c:\program files (x86)\microsoft visual studio 9.0\vc\ce\atlmfc\include\atlbase.h
; Line 5778
  00000		 |$LN18@SetStringV|
  00000	e92d40f0	 stmdb       sp!, {r4 - r7, lr}
  00004	e24dd008	 sub         sp, sp, #8
  00008		 |$M79842|
  00008	e1a05003	 mov         r5, r3
  0000c	e1b04002	 movs        r4, r2
  00010	e1a06001	 mov         r6, r1
  00014	e1a07000	 mov         r7, r0
; Line 5780
  00018	03a0000d	 moveq       r0, #0xD
; Line 5784
  0001c	028dd008	 addeq       sp, sp, #8
  00020	08bd80f0	 ldmeqia     sp!, {r4 - r7, pc}
; Line 5783
  00024	e1a00004	 mov         r0, r4
  00028	eb000000	 bl          wcslen
  0002c	e2803001	 add         r3, r0, #1
  00030	e5970000	 ldr         r0, [r7]
  00034	e1a03083	 mov         r3, r3, lsl #1
  00038	e58d3004	 str         r3, [sp, #4]
  0003c	e1a03005	 mov         r3, r5
  00040	e3a02000	 mov         r2, #0
  00044	e1a01006	 mov         r1, r6
  00048	e58d4000	 str         r4, [sp]
  0004c	eb000000	 bl          RegSetValueExW
; Line 5784
  00050	e28dd008	 add         sp, sp, #8
  00054	e8bd80f0	 ldmia       sp!, {r4 - r7, pc}
  00058		 |$M79843|

			 ENDP  ; |?SetStringValue@CRegKey@ATL@@QAAJPB_W0K@Z|, ATL::CRegKey::SetStringValue

	EXPORT	|?SetMultiStringValue@CRegKey@ATL@@QAAJPB_W0@Z| ; ATL::CRegKey::SetMultiStringValue
; File c:\program files (x86)\microsoft visual studio 9.0\vc\ce\atlmfc\include\atlosapice.h

  00000			 AREA	 |.pdata|, PDATA
|$T79870| DCD	|$LN22@SetMultiSt|
	DCD	0x40001e02
; Function compile flags: /Ogspy

  00000			 AREA	 |.text|, CODE, ARM

  00000		 |?SetMultiStringValue@CRegKey@ATL@@QAAJPB_W0@Z| PROC ; ATL::CRegKey::SetMultiStringValue
; File c:\program files (x86)\microsoft visual studio 9.0\vc\ce\atlmfc\include\atlbase.h
; Line 5787
  00000		 |$LN22@SetMultiSt|
  00000	e92d41f0	 stmdb       sp!, {r4 - r8, lr}
  00004	e24dd008	 sub         sp, sp, #8
  00008		 |$M79867|
  00008	e1b06002	 movs        r6, r2
  0000c	e1a07001	 mov         r7, r1
  00010	e1a08000	 mov         r8, r0
; Line 5793
  00014	03a0000d	 moveq       r0, #0xD
; Line 5809
  00018	028dd008	 addeq       sp, sp, #8
  0001c	08bd81f0	 ldmeqia     sp!, {r4 - r8, pc}
; Line 5798
  00020	e3a05000	 mov         r5, #0
; Line 5799
  00024	e1a04006	 mov         r4, r6
  00028		 |$LL3@SetMultiSt|
; Line 5802
  00028	e3540000	 cmp         r4, #0
  0002c	0a000002	 beq         |$LN17@SetMultiSt|
  00030	e1a00004	 mov         r0, r4
  00034	eb000000	 bl          wcslen
  00038	ea000000	 b           |$LN18@SetMultiSt|
  0003c		 |$LN17@SetMultiSt|
  0003c	e3a00000	 mov         r0, #0
  00040		 |$LN18@SetMultiSt|
  00040	e2803001	 add         r3, r0, #1
; Line 5803
  00044	e0844083	 add         r4, r4, r3, lsl #1
; Line 5804
  00048	e0855083	 add         r5, r5, r3, lsl #1
; Line 5805
  0004c	e3530001	 cmp         r3, #1
  00050	1afffff4	 bne         |$LL3@SetMultiSt|
; Line 5808
  00054	e5980000	 ldr         r0, [r8]
  00058	e3a03007	 mov         r3, #7
  0005c	e3a02000	 mov         r2, #0
  00060	e1a01007	 mov         r1, r7
  00064	e58d5004	 str         r5, [sp, #4]
  00068	e58d6000	 str         r6, [sp]
  0006c	eb000000	 bl          RegSetValueExW
; Line 5809
  00070	e28dd008	 add         sp, sp, #8
  00074	e8bd81f0	 ldmia       sp!, {r4 - r8, pc}
  00078		 |$M79868|

			 ENDP  ; |?SetMultiStringValue@CRegKey@ATL@@QAAJPB_W0@Z|, ATL::CRegKey::SetMultiStringValue

	EXPORT	|?IsEqualKey@CExpansionVectorEqualHelper@ATL@@SA_NQA_W0@Z| ; ATL::CExpansionVectorEqualHelper::IsEqualKey
	IMPORT	|lstrcmpiW|
; File c:\program files (x86)\microsoft visual studio 9.0\vc\ce\atlmfc\include\statreg.h

  00000			 AREA	 |.pdata|, PDATA
|$T79881| DCD	|$LN6@IsEqualKey|
	DCD	0x40000601
; Function compile flags: /Ogspy

  00000			 AREA	 |.text|, CODE, ARM

  00000		 |?IsEqualKey@CExpansionVectorEqualHelper@ATL@@SA_NQA_W0@Z| PROC ; ATL::CExpansionVectorEqualHelper::IsEqualKey
; Line 74
  00000		 |$LN6@IsEqualKey|
  00000	e52de004	 str         lr, [sp, #-4]!
  00004		 |$M79878|
; Line 75
  00004	eb000000	 bl          lstrcmpiW
  00008	e3500000	 cmp         r0, #0
; Line 76
  0000c	03a00001	 moveq       r0, #1
; Line 77
  00010	13a00000	 movne       r0, #0
; Line 78
  00014	e49df004	 ldr         pc, [sp], #4
  00018		 |$M79879|

			 ENDP  ; |?IsEqualKey@CExpansionVectorEqualHelper@ATL@@SA_NQA_W0@Z|, ATL::CExpansionVectorEqualHelper::IsEqualKey

	EXPORT	|?GenerateError@CRegParser@ATL@@IAAJI@Z| ; ATL::CRegParser::GenerateError

  00000			 AREA	 |.pdata|, PDATA
|$T79890| DCD	|$LN5@GenerateEr|
	DCD	0x40000300
; Function compile flags: /Ogspy

  00000			 AREA	 |.text|, CODE, ARM

  00000		 |?GenerateError@CRegParser@ATL@@IAAJI@Z| PROC ; ATL::CRegParser::GenerateError
; Line 170
  00000		 |$LN5@GenerateEr|
  00000		 |$M79887|
  00000	e3a03126	 mov         r3, #0x26, 2
  00004	e3830802	 orr         r0, r3, #2, 16	; 131072 (0x20000)
  00008	e1a0f00e	 mov         pc, lr
  0000c		 |$M79888|

			 ENDP  ; |?GenerateError@CRegParser@ATL@@IAAJI@Z|, ATL::CRegParser::GenerateError

	EXPORT	|?EndOfVar@CRegParser@ATL@@IAAHXZ|	; ATL::CRegParser::EndOfVar
	IMPORT	|CharNextW|

  00000			 AREA	 |.pdata|, PDATA
|$T79902| DCD	|$LN7@EndOfVar|
	DCD	0x40000c01
; Function compile flags: /Ogspy

  00000			 AREA	 |.text|, CODE, ARM

  00000		 |?EndOfVar@CRegParser@ATL@@IAAHXZ| PROC ; ATL::CRegParser::EndOfVar
; Line 174
  00000		 |$LN7@EndOfVar|
  00000	e52de004	 str         lr, [sp, #-4]!
  00004		 |$M79899|
  00004	e5900000	 ldr         r0, [r0]
  00008	e1d030b0	 ldrh        r3, [r0]
  0000c	e3530027	 cmp         r3, #0x27
  00010	1a000004	 bne         |$LN3@EndOfVar|
  00014	eb000000	 bl          CharNextW
  00018	e1d030b0	 ldrh        r3, [r0]
  0001c	e3530027	 cmp         r3, #0x27
  00020	13a00001	 movne       r0, #1
  00024	149df004	 ldrne       pc, [sp], #4
  00028		 |$LN3@EndOfVar|
  00028	e3a00000	 mov         r0, #0
  0002c	e49df004	 ldr         pc, [sp], #4
  00030		 |$M79900|

			 ENDP  ; |?EndOfVar@CRegParser@ATL@@IAAHXZ|, ATL::CRegParser::EndOfVar

	EXPORT	|??0CParseBuffer@CRegParser@ATL@@QAA@H@Z| ; ATL::CRegParser::CParseBuffer::CParseBuffer
; File c:\program files (x86)\microsoft visual studio 9.0\vc\ce\atlmfc\include\atlalloc.h

  00000			 AREA	 |.pdata|, PDATA
|$T79937| DCD	|$LN15@CParseBuff|
	DCD	0x40001601
; Function compile flags: /Ogspy

  00000			 AREA	 |.text|, CODE, ARM

  00000		 |??0CParseBuffer@CRegParser@ATL@@QAA@H@Z| PROC ; ATL::CRegParser::CParseBuffer::CParseBuffer
; File c:\program files (x86)\microsoft visual studio 9.0\vc\ce\atlmfc\include\statreg.h
; Line 190
  00000		 |$LN15@CParseBuff|
  00000	e92d4030	 stmdb       sp!, {r4, r5, lr}
  00004		 |$M79934|
  00004	e1a04000	 mov         r4, r0
; Line 192
  00008	e3510064	 cmp         r1, #0x64
; Line 193
  0000c	b3a01ffa	 movlt       r1, #0xFA, 30
; Line 196
  00010	e3a03002	 mov         r3, #2
  00014	e0830391	 umull       r0, r3, r1, r3
  00018	e3a05000	 mov         r5, #0
  0001c	e3530000	 cmp         r3, #0
  00020	e5841004	 str         r1, [r4, #4]
  00024	e5845000	 str         r5, [r4]
  00028	8a000004	 bhi         |$LN11@CParseBuff|
  0002c	3a000001	 bcc         |$LN12@CParseBuff|
  00030	e3700001	 cmn         r0, #1
  00034	8a000001	 bhi         |$LN11@CParseBuff|
  00038		 |$LN12@CParseBuff|
  00038	eb000000	 bl          CoTaskMemAlloc
  0003c	ea000000	 b           |$LN6@CParseBuff|
  00040		 |$LN11@CParseBuff|
  00040	e3a00000	 mov         r0, #0
  00044		 |$LN6@CParseBuff|
; Line 197
  00044	e3500000	 cmp         r0, #0
  00048	e5840008	 str         r0, [r4, #8]
; Line 198
  0004c	11c050b0	 strneh      r5, [r0]
; Line 199
  00050	e1a00004	 mov         r0, r4
  00054	e8bd8030	 ldmia       sp!, {r4, r5, pc}
  00058		 |$M79935|

			 ENDP  ; |??0CParseBuffer@CRegParser@ATL@@QAA@H@Z|, ATL::CRegParser::CParseBuffer::CParseBuffer

	EXPORT	|??1CParseBuffer@CRegParser@ATL@@QAA@XZ| ; ATL::CRegParser::CParseBuffer::~CParseBuffer
	IMPORT	|CoTaskMemFree|

  00000			 AREA	 |.pdata|, PDATA
|$T79945| DCD	|$LN5@CParseBuff@2|
	DCD	0x40000200
; Function compile flags: /Ogspy

  00000			 AREA	 |.text|, CODE, ARM

  00000		 |??1CParseBuffer@CRegParser@ATL@@QAA@XZ| PROC ; ATL::CRegParser::CParseBuffer::~CParseBuffer
; Line 201
  00000		 |$LN5@CParseBuff@2|
  00000		 |$M79942|
; Line 202
  00000	e5900008	 ldr         r0, [r0, #8]
  00004	ea000000	 b           CoTaskMemFree
  00008		 |$M79943|

			 ENDP  ; |??1CParseBuffer@CRegParser@ATL@@QAA@XZ|, ATL::CRegParser::CParseBuffer::~CParseBuffer

	EXPORT	|?Append@CParseBuffer@CRegParser@ATL@@QAAHPB_WH@Z| ; ATL::CRegParser::CParseBuffer::Append
; File c:\program files (x86)\microsoft visual studio 9.0\vc\ce\atlmfc\include\atlchecked.h

  00000			 AREA	 |.pdata|, PDATA
|$T79995| DCD	|$LN28@Append|
	DCD	0x40003d01
; Function compile flags: /Ogspy

  00000			 AREA	 |.text|, CODE, ARM

  00000		 |?Append@CParseBuffer@CRegParser@ATL@@QAAHPB_WH@Z| PROC ; ATL::CRegParser::CParseBuffer::Append
; File c:\program files (x86)\microsoft visual studio 9.0\vc\ce\atlmfc\include\statreg.h
; Line 205
  00000		 |$LN28@Append|
  00000	e92d4070	 stmdb       sp!, {r4 - r6, lr}
  00004		 |$M79992|
  00004	e1a05002	 mov         r5, r2
  00008	e1a06001	 mov         r6, r1
  0000c	e1a04000	 mov         r4, r0
; Line 207
  00010	e594e000	 ldr         lr, [r4]
  00014	e08e3005	 add         r3, lr, r5
  00018	e2830001	 add         r0, r3, #1
; Line 208
  0001c	e150000e	 cmp         r0, lr
  00020	da000031	 ble         |$LN8@Append|
  00024	e1500005	 cmp         r0, r5
  00028	da00002f	 ble         |$LN8@Append|
; Line 211
  0002c	e5943004	 ldr         r3, [r4, #4]
  00030	e1500003	 cmp         r0, r3
  00034	ba000013	 blt         |$LN7@Append|
  00038		 |$LL6@Append|
; Line 214
  00038	e5943004	 ldr         r3, [r4, #4]
  0003c	e3730107	 cmn         r3, #7, 2
  00040	ca000029	 bgt         |$LN8@Append|
; Line 216
  00044	e1a0e083	 mov         lr, r3, lsl #1
  00048	e1a0300e	 mov         r3, lr
  0004c	e1500003	 cmp         r0, r3
  00050	e584e004	 str         lr, [r4, #4]
  00054	aafffff7	 bge         |$LL6@Append|
; Line 218
  00058	e3a03002	 mov         r3, #2
  0005c	e083139e	 umull       r1, r3, lr, r3
  00060	e5940008	 ldr         r0, [r4, #8]
  00064	e3530000	 cmp         r3, #0
  00068	8a00001f	 bhi         |$LN8@Append|
  0006c	3a000001	 bcc         |$LN25@Append|
  00070	e3710001	 cmn         r1, #1
  00074	8a00001c	 bhi         |$LN8@Append|
  00078		 |$LN25@Append|
  00078	eb000000	 bl          CoTaskMemRealloc
  0007c	e3500000	 cmp         r0, #0
; Line 219
  00080	0a000019	 beq         |$LN8@Append|
; Line 221
  00084	e5840008	 str         r0, [r4, #8]
  00088		 |$LN7@Append|
; Line 223
  00088	e5943000	 ldr         r3, [r4]
  0008c	e1b00003	 movs        r0, r3
  00090	4a000015	 bmi         |$LN8@Append|
  00094	e5943004	 ldr         r3, [r4, #4]
  00098	e1500003	 cmp         r0, r3
  0009c	aa000012	 bge         |$LN8@Append|
  000a0	e0431000	 sub         r1, r3, r0
  000a4	e1510003	 cmp         r1, r3
  000a8	ca00000f	 bgt         |$LN8@Append|
; Line 229
  000ac	e5942008	 ldr         r2, [r4, #8]
  000b0	e1a01081	 mov         r1, r1, lsl #1
  000b4	e1a03085	 mov         r3, r5, lsl #1
  000b8	e0820080	 add         r0, r2, r0, lsl #1
  000bc	e1a02006	 mov         r2, r6
  000c0	eb000000	 bl          memcpy_s
  000c4	eb000000	 bl          |?AtlCrtErrorCheck@ATL@@YAHH@Z|
; Line 230
  000c8	e5943000	 ldr         r3, [r4]
; Line 231
  000cc	e5942008	 ldr         r2, [r4, #8]
  000d0	e3a01000	 mov         r1, #0
  000d4	e0833005	 add         r3, r3, r5
  000d8	e0822083	 add         r2, r2, r3, lsl #1
  000dc	e5843000	 str         r3, [r4]
  000e0	e1c210b0	 strh        r1, [r2]
; Line 233
  000e4	e3a00001	 mov         r0, #1
; Line 234
  000e8	e8bd8070	 ldmia       sp!, {r4 - r6, pc}
  000ec		 |$LN8@Append|
; Line 209
  000ec	e3a00000	 mov         r0, #0
; Line 234
  000f0	e8bd8070	 ldmia       sp!, {r4 - r6, pc}
  000f4		 |$M79993|

			 ENDP  ; |?Append@CParseBuffer@CRegParser@ATL@@QAAHPB_WH@Z|, ATL::CRegParser::CParseBuffer::Append

	EXPORT	|?AddChar@CParseBuffer@CRegParser@ATL@@QAAHPB_W@Z| ; ATL::CRegParser::CParseBuffer::AddChar

  00000			 AREA	 |.pdata|, PDATA
|$T80006| DCD	|$LN5@AddChar|
	DCD	0x40000200
; Function compile flags: /Ogspy

  00000			 AREA	 |.text|, CODE, ARM

  00000		 |?AddChar@CParseBuffer@CRegParser@ATL@@QAAHPB_W@Z| PROC ; ATL::CRegParser::CParseBuffer::AddChar
; Line 237
  00000		 |$LN5@AddChar|
  00000		 |$M80003|
; Line 243
  00000	e3a02001	 mov         r2, #1
  00004	ea000000	 b           |?Append@CParseBuffer@CRegParser@ATL@@QAAHPB_WH@Z|
  00008		 |$M80004|

			 ENDP  ; |?AddChar@CParseBuffer@CRegParser@ATL@@QAAHPB_W@Z|, ATL::CRegParser::CParseBuffer::AddChar

	EXPORT	|?Detach@CParseBuffer@CRegParser@ATL@@QAAPA_WXZ| ; ATL::CRegParser::CParseBuffer::Detach

  00000			 AREA	 |.pdata|, PDATA
|$T80017| DCD	|$LN5@Detach@2|
	DCD	0x40000700
; Function compile flags: /Ogspy

  00000			 AREA	 |.text|, CODE, ARM

  00000		 |?Detach@CParseBuffer@CRegParser@ATL@@QAAPA_WXZ| PROC ; ATL::CRegParser::CParseBuffer::Detach
; Line 261
  00000		 |$LN5@Detach@2|
  00000		 |$M80014|
  00000	e1a03000	 mov         r3, r0
; Line 262
  00004	e5930008	 ldr         r0, [r3, #8]
; Line 263
  00008	e3a02000	 mov         r2, #0
  0000c	e5832008	 str         r2, [r3, #8]
; Line 264
  00010	e5832000	 str         r2, [r3]
  00014	e5832004	 str         r2, [r3, #4]
; Line 266
  00018	e1a0f00e	 mov         pc, lr
  0001c		 |$M80015|

			 ENDP  ; |?Detach@CParseBuffer@CRegParser@ATL@@QAAPA_WXZ|, ATL::CRegParser::CParseBuffer::Detach

	EXPORT	|?FinalConstruct@CRegObject@ATL@@QAAJXZ| ; ATL::CRegObject::FinalConstruct
; File c:\program files (x86)\microsoft visual studio 9.0\vc\ce\atlmfc\include\atlcore.h

  00000			 AREA	 |.pdata|, PDATA
|$T80035| DCD	|$LN8@FinalConst@2|
	DCD	0x40000801
; Function compile flags: /Ogspy

  00000			 AREA	 |.text|, CODE, ARM

  00000		 |?FinalConstruct@CRegObject@ATL@@QAAJXZ| PROC ; ATL::CRegObject::FinalConstruct
; File c:\program files (x86)\microsoft visual studio 9.0\vc\ce\atlmfc\include\statreg.h
; Line 301
  00000		 |$LN8@FinalConst@2|
  00000	e92d4010	 stmdb       sp!, {r4, lr}
  00004		 |$M80032|
  00004	e1a04000	 mov         r4, r0
  00008	e2840010	 add         r0, r4, #0x10
  0000c	eb000000	 bl          |?Init@CComCriticalSection@ATL@@QAAJXZ|
  00010	e3500000	 cmp         r0, #0
  00014	53a03001	 movpl       r3, #1
  00018	55c43024	 strplb      r3, [r4, #0x24]
  0001c	e8bd8010	 ldmia       sp!, {r4, pc}
  00020		 |$M80033|

			 ENDP  ; |?FinalConstruct@CRegObject@ATL@@QAAJXZ|, ATL::CRegObject::FinalConstruct

	EXPORT	|??1CComAutoDeleteCriticalSection@ATL@@QAA@XZ| ; ATL::CComAutoDeleteCriticalSection::~CComAutoDeleteCriticalSection

  00000			 AREA	 |.pdata|, PDATA
|$T80057| DCD	|$LN12@CComAutoDe|
	DCD	0x40000701
; Function compile flags: /Ogspy

  00000			 AREA	 |.text|, CODE, ARM

  00000		 |??1CComAutoDeleteCriticalSection@ATL@@QAA@XZ| PROC ; ATL::CComAutoDeleteCriticalSection::~CComAutoDeleteCriticalSection
  00000		 |$LN12@CComAutoDe|
  00000	e52de004	 str         lr, [sp, #-4]!
  00004		 |$M80054|
  00004	e5d03014	 ldrb        r3, [r0, #0x14]
  00008	e3530000	 cmp         r3, #0
  0000c	13a03000	 movne       r3, #0
  00010	15c03014	 strneb      r3, [r0, #0x14]
  00014	1b000000	 blne        DeleteCriticalSection
  00018	e49df004	 ldr         pc, [sp], #4
  0001c		 |$M80055|

			 ENDP  ; |??1CComAutoDeleteCriticalSection@ATL@@QAA@XZ|, ATL::CComAutoDeleteCriticalSection::~CComAutoDeleteCriticalSection

	EXPORT	|??_B?1??VTFromRegType@CRegParser@ATL@@KAHPB_WAAG@Z@51| [ DATA ] ; `ATL::CRegParser::VTFromRegType'::`2'::`local static guard'
	EXPORT	|?VTFromRegType@CRegParser@ATL@@KAHPB_WAAG@Z| ; ATL::CRegParser::VTFromRegType
	EXPORT	|?map@?1??VTFromRegType@CRegParser@ATL@@KAHPB_WAAG@Z@4QBUtypemap@?1??123@KAH01@Z@B| [ DATA ] ; `ATL::CRegParser::VTFromRegType'::`2'::map

  00000			 AREA	 |.bss|, NOINIT
|??_B?1??VTFromRegType@CRegParser@ATL@@KAHPB_WAAG@Z@51| % 0x4 ; `ATL::CRegParser::VTFromRegType'::`2'::`local static guard'

  00000			 AREA	 |.bss|, NOINIT
|?map@?1??VTFromRegType@CRegParser@ATL@@KAHPB_WAAG@Z@4QBUtypemap@?1??123@KAH01@Z@B| % 0x20 ; `ATL::CRegParser::VTFromRegType'::`2'::map

  00000			 AREA	 |.pdata|, PDATA
|$T80073| DCD	|$LN14@VTFromRegT|
	DCD	0x40003301
; Function compile flags: /Ogspy

  00000			 AREA	 |.text|, CODE, ARM

  00000		 |?VTFromRegType@CRegParser@ATL@@KAHPB_WAAG@Z| PROC ; ATL::CRegParser::VTFromRegType
; Line 651
  00000		 |$LN14@VTFromRegT|
  00000	e92d41f0	 stmdb       sp!, {r4 - r8, lr}
  00004		 |$M80070|
  00004	e1a07001	 mov         r7, r1
  00008	e1a08000	 mov         r8, r0
; Line 661
  0000c	e59f40b4	 ldr         r4, [pc, #0xB4]
  00010	e59f60ac	 ldr         r6, [pc, #0xAC]
  00014	e5945000	 ldr         r5, [r4]
  00018	e3150001	 tst         r5, #1
  0001c	1a000012	 bne         |$LN5@VTFromRegT|
  00020	e59f3098	 ldr         r3, [pc, #0x98]
; Line 662
  00024	e59f2090	 ldr         r2, [pc, #0x90]
  00028	e3a01008	 mov         r1, #8
  0002c	e5863000	 str         r3, [r6]
  00030	e3a03901	 mov         r3, #1, 18
; Line 663
  00034	e59fe07c	 ldr         lr, [pc, #0x7C]
  00038	e3833008	 orr         r3, r3, #8
  0003c	e1c610b4	 strh        r1, [r6, #4]
  00040	e5862008	 str         r2, [r6, #8]
; Line 664
  00044	e59f2068	 ldr         r2, [pc, #0x68]
  00048	e1c630bc	 strh        r3, [r6, #0xC]
  0004c	e3a03013	 mov         r3, #0x13
  00050	e586e010	 str         lr, [r6, #0x10]
  00054	e1c631b4	 strh        r3, [r6, #0x14]
  00058	e5862018	 str         r2, [r6, #0x18]
  0005c	e3a02011	 mov         r2, #0x11
  00060	e3853001	 orr         r3, r5, #1
  00064	e1c621bc	 strh        r2, [r6, #0x1C]
  00068	e5843000	 str         r3, [r4]
  0006c		 |$LN5@VTFromRegT|
; Line 669
  0006c	e3a04000	 mov         r4, #0
  00070	e1a05006	 mov         r5, r6
  00074		 |$LL4@VTFromRegT|
; Line 671
  00074	e5951000	 ldr         r1, [r5]
  00078	e1a00008	 mov         r0, r8
  0007c	eb000000	 bl          lstrcmpiW
  00080	e3500000	 cmp         r0, #0
  00084	0a000005	 beq         |$LN10@VTFromRegT|
  00088	e2844001	 add         r4, r4, #1
  0008c	e3540004	 cmp         r4, #4
  00090	e2855008	 add         r5, r5, #8
  00094	3afffff6	 bcc         |$LL4@VTFromRegT|
; Line 678
  00098	e3a00000	 mov         r0, #0
; Line 680
  0009c	e8bd81f0	 ldmia       sp!, {r4 - r8, pc}
  000a0		 |$LN10@VTFromRegT|
; Line 673
  000a0	e0863184	 add         r3, r6, r4, lsl #3
  000a4	e1d330b4	 ldrh        r3, [r3, #4]
; Line 674
  000a8	e3a00001	 mov         r0, #1
  000ac	e1c730b0	 strh        r3, [r7]
; Line 680
  000b0	e8bd81f0	 ldmia       sp!, {r4 - r8, pc}
  000b4		 |$LN15@VTFromRegT|
  000b4		 |$LN16@VTFromRegT|
  000b4	00000000	 DCD         |??_C@_13OPKGLAFF@?$AAB?$AA?$AA@|
  000b8		 |$LN17@VTFromRegT|
  000b8	00000000	 DCD         |??_C@_13MKMNOPIJ@?$AAD?$AA?$AA@|
  000bc		 |$LN18@VTFromRegT|
  000bc	00000000	 DCD         |??_C@_13LHMFKAAD@?$AAM?$AA?$AA@|
  000c0		 |$LN19@VTFromRegT|
  000c0	00000000	 DCD         |??_C@_13HADIAKP@?$AAS?$AA?$AA@|
  000c4		 |$LN20@VTFromRegT|
  000c4	00000000	 DCD         |?map@?1??VTFromRegType@CRegParser@ATL@@KAHPB_WAAG@Z@4QBUtypemap@?1??123@KAH01@Z@B|
  000c8		 |$LN21@VTFromRegT|
  000c8	00000000	 DCD         |??_B?1??VTFromRegType@CRegParser@ATL@@KAHPB_WAAG@Z@51|
  000cc		 |$M80071|

			 ENDP  ; |?VTFromRegType@CRegParser@ATL@@KAHPB_WAAG@Z|, ATL::CRegParser::VTFromRegType

	EXPORT	|?ChToByte@CRegParser@ATL@@KAE_W@Z|	; ATL::CRegParser::ChToByte

  00000			 AREA	 |.pdata|, PDATA
|$T80092| DCD	|$LN12@ChToByte|
	DCD	0x40001600
; Function compile flags: /Ogspy

  00000			 AREA	 |.text|, CODE, ARM

  00000		 |?ChToByte@CRegParser@ATL@@KAE_W@Z| PROC ; ATL::CRegParser::ChToByte
; Line 683
  00000		 |$LN12@ChToByte|
  00000		 |$M80089|
; Line 684
  00000	e3500030	 cmp         r0, #0x30
  00004	ba000011	 blt         |$LN1@ChToByte|
  00008	e3500039	 cmp         r0, #0x39
  0000c	da00000c	 ble         |$LN4@ChToByte|
  00010	e3500040	 cmp         r0, #0x40
  00014	da00000d	 ble         |$LN1@ChToByte|
  00018	e3500046	 cmp         r0, #0x46
  0001c	da000005	 ble         |$LN3@ChToByte|
  00020	e2403061	 sub         r3, r0, #0x61
  00024	e3530005	 cmp         r3, #5
  00028	8a000008	 bhi         |$LN1@ChToByte|
; Line 710
  0002c	e28030a9	 add         r3, r0, #0xA9
; Line 696
  00030	e20300ff	 and         r0, r3, #0xFF
; Line 716
  00034	e1a0f00e	 mov         pc, lr
  00038		 |$LN3@ChToByte|
; Line 703
  00038	e28030c9	 add         r3, r0, #0xC9
; Line 696
  0003c	e20300ff	 and         r0, r3, #0xFF
; Line 716
  00040	e1a0f00e	 mov         pc, lr
  00044		 |$LN4@ChToByte|
; Line 696
  00044	e28030d0	 add         r3, r0, #0xD0
  00048	e20300ff	 and         r0, r3, #0xFF
; Line 716
  0004c	e1a0f00e	 mov         pc, lr
  00050		 |$LN1@ChToByte|
; Line 714
  00050	e3a00000	 mov         r0, #0
; Line 716
  00054	e1a0f00e	 mov         pc, lr
  00058		 |$M80090|

			 ENDP  ; |?ChToByte@CRegParser@ATL@@KAE_W@Z|, ATL::CRegParser::ChToByte

	EXPORT	|?HKeyFromString@CRegParser@ATL@@KAPAUHKEY__@@PA_W@Z| ; ATL::CRegParser::HKeyFromString
	EXPORT	|?map@?1??HKeyFromString@CRegParser@ATL@@KAPAUHKEY__@@PA_W@Z@4QBUkeymap@?1??123@KAPAU4@0@Z@B| [ DATA ] ; `ATL::CRegParser::HKeyFromString'::`2'::map
	EXPORT	|??_C@_19NCHLBIN@?$AAH?$AAK?$AAC?$AAR?$AA?$AA@| [ DATA ] ; `string'
	EXPORT	|??_C@_19JAPAIJDE@?$AAH?$AAK?$AAC?$AAU?$AA?$AA@| [ DATA ] ; `string'
	EXPORT	|??_C@_19PEALEEJB@?$AAH?$AAK?$AAL?$AAM?$AA?$AA@| [ DATA ] ; `string'
	EXPORT	|??_C@_17PJOJPMPB@?$AAH?$AAK?$AAU?$AA?$AA@| [ DATA ] ; `string'
	EXPORT	|??_C@_1CE@PACHPJFI@?$AAH?$AAK?$AAE?$AAY?$AA_?$AAC?$AAL?$AAA?$AAS?$AAS?$AAE?$AAS?$AA_?$AAR?$AAO?$AAO?$AAT?$AA?$AA@| [ DATA ] ; `string'
	EXPORT	|??_C@_1CE@HLHNCBPM@?$AAH?$AAK?$AAE?$AAY?$AA_?$AAC?$AAU?$AAR?$AAR?$AAE?$AAN?$AAT?$AA_?$AAU?$AAS?$AAE?$AAR?$AA?$AA@| [ DATA ] ; `string'
	EXPORT	|??_C@_1CG@GFBEANJL@?$AAH?$AAK?$AAE?$AAY?$AA_?$AAL?$AAO?$AAC?$AAA?$AAL?$AA_?$AAM?$AAA?$AAC?$AAH?$AAI?$AAN?$AAE?$AA?$AA@| [ DATA ] ; `string'
	EXPORT	|??_C@_1BG@BGODANIO@?$AAH?$AAK?$AAE?$AAY?$AA_?$AAU?$AAS?$AAE?$AAR?$AAS?$AA?$AA@| [ DATA ] ; `string'

  00000			 AREA	 |.pdata|, PDATA
|$T80106| DCD	|$LN12@HKeyFromSt|
	DCD	0x40001401

  00000			 AREA	 |.rdata|, DATA, READONLY
|??_C@_1BG@BGODANIO@?$AAH?$AAK?$AAE?$AAY?$AA_?$AAU?$AAS?$AAE?$AAR?$AAS?$AA?$AA@| DCB "H"
	DCB	0x0, "K", 0x0, "E", 0x0, "Y", 0x0, "_", 0x0, "U", 0x0, "S"
	DCB	0x0, "E", 0x0, "R", 0x0, "S", 0x0, 0x0, 0x0 ; `string'

  00000			 AREA	 |.rdata|, DATA, READONLY
|??_C@_1CG@GFBEANJL@?$AAH?$AAK?$AAE?$AAY?$AA_?$AAL?$AAO?$AAC?$AAA?$AAL?$AA_?$AAM?$AAA?$AAC?$AAH?$AAI?$AAN?$AAE?$AA?$AA@| DCB "H"
	DCB	0x0, "K", 0x0, "E", 0x0, "Y", 0x0, "_", 0x0, "L", 0x0, "O"
	DCB	0x0, "C", 0x0, "A", 0x0, "L", 0x0, "_", 0x0, "M", 0x0, "A"
	DCB	0x0, "C", 0x0, "H", 0x0, "I", 0x0, "N", 0x0, "E", 0x0, 0x0
	DCB	0x0					; `string'

  00000			 AREA	 |.rdata|, DATA, READONLY
|??_C@_1CE@HLHNCBPM@?$AAH?$AAK?$AAE?$AAY?$AA_?$AAC?$AAU?$AAR?$AAR?$AAE?$AAN?$AAT?$AA_?$AAU?$AAS?$AAE?$AAR?$AA?$AA@| DCB "H"
	DCB	0x0, "K", 0x0, "E", 0x0, "Y", 0x0, "_", 0x0, "C", 0x0, "U"
	DCB	0x0, "R", 0x0, "R", 0x0, "E", 0x0, "N", 0x0, "T", 0x0, "_"
	DCB	0x0, "U", 0x0, "S", 0x0, "E", 0x0, "R", 0x0, 0x0, 0x0 ; `string'

  00000			 AREA	 |.rdata|, DATA, READONLY
|??_C@_1CE@PACHPJFI@?$AAH?$AAK?$AAE?$AAY?$AA_?$AAC?$AAL?$AAA?$AAS?$AAS?$AAE?$AAS?$AA_?$AAR?$AAO?$AAO?$AAT?$AA?$AA@| DCB "H"
	DCB	0x0, "K", 0x0, "E", 0x0, "Y", 0x0, "_", 0x0, "C", 0x0, "L"
	DCB	0x0, "A", 0x0, "S", 0x0, "S", 0x0, "E", 0x0, "S", 0x0, "_"
	DCB	0x0, "R", 0x0, "O", 0x0, "O", 0x0, "T", 0x0, 0x0, 0x0 ; `string'

  00000			 AREA	 |.rdata|, DATA, READONLY
|??_C@_17PJOJPMPB@?$AAH?$AAK?$AAU?$AA?$AA@| DCB "H", 0x0, "K", 0x0, "U", 0x0
	DCB	0x0, 0x0				; `string'

  00000			 AREA	 |.rdata|, DATA, READONLY
|??_C@_19PEALEEJB@?$AAH?$AAK?$AAL?$AAM?$AA?$AA@| DCB "H", 0x0, "K", 0x0, "L"
	DCB	0x0, "M", 0x0, 0x0, 0x0			; `string'

  00000			 AREA	 |.rdata|, DATA, READONLY
|??_C@_19JAPAIJDE@?$AAH?$AAK?$AAC?$AAU?$AA?$AA@| DCB "H", 0x0, "K", 0x0, "C"
	DCB	0x0, "U", 0x0, 0x0, 0x0			; `string'

  00000			 AREA	 |.rdata|, DATA, READONLY
|??_C@_19NCHLBIN@?$AAH?$AAK?$AAC?$AAR?$AA?$AA@| DCB "H", 0x0, "K", 0x0, "C"
	DCB	0x0, "R", 0x0, 0x0, 0x0			; `string'

  00000			 AREA	 |.rdata|, DATA, READONLY
|?map@?1??HKeyFromString@CRegParser@ATL@@KAPAUHKEY__@@PA_W@Z@4QBUkeymap@?1??123@KAPAU4@0@Z@B| DCD |??_C@_19NCHLBIN@?$AAH?$AAK?$AAC?$AAR?$AA?$AA@| ; `ATL::CRegParser::HKeyFromString'::`2'::map
	DCD	0x80000000
	DCD	|??_C@_19JAPAIJDE@?$AAH?$AAK?$AAC?$AAU?$AA?$AA@|
	DCD	0x80000001
	DCD	|??_C@_19PEALEEJB@?$AAH?$AAK?$AAL?$AAM?$AA?$AA@|
	DCD	0x80000002
	DCD	|??_C@_17PJOJPMPB@?$AAH?$AAK?$AAU?$AA?$AA@|
	DCD	0x80000003
	DCD	|??_C@_1CE@PACHPJFI@?$AAH?$AAK?$AAE?$AAY?$AA_?$AAC?$AAL?$AAA?$AAS?$AAS?$AAE?$AAS?$AA_?$AAR?$AAO?$AAO?$AAT?$AA?$AA@|
	DCD	0x80000000
	DCD	|??_C@_1CE@HLHNCBPM@?$AAH?$AAK?$AAE?$AAY?$AA_?$AAC?$AAU?$AAR?$AAR?$AAE?$AAN?$AAT?$AA_?$AAU?$AAS?$AAE?$AAR?$AA?$AA@|
	DCD	0x80000001
	DCD	|??_C@_1CG@GFBEANJL@?$AAH?$AAK?$AAE?$AAY?$AA_?$AAL?$AAO?$AAC?$AAA?$AAL?$AA_?$AAM?$AAA?$AAC?$AAH?$AAI?$AAN?$AAE?$AA?$AA@|
	DCD	0x80000002
	DCD	|??_C@_1BG@BGODANIO@?$AAH?$AAK?$AAE?$AAY?$AA_?$AAU?$AAS?$AAE?$AAR?$AAS?$AA?$AA@|
	DCD	0x80000003
; Function compile flags: /Ogspy

  00000			 AREA	 |.text|, CODE, ARM

  00000		 |?HKeyFromString@CRegParser@ATL@@KAPAUHKEY__@@PA_W@Z| PROC ; ATL::CRegParser::HKeyFromString
; Line 719
  00000		 |$LN12@HKeyFromSt|
  00000	e92d40f0	 stmdb       sp!, {r4 - r7, lr}
  00004		 |$M80103|
  00004	e1a07000	 mov         r7, r0
; Line 746
  00008	e59f603c	 ldr         r6, [pc, #0x3C]
  0000c	e3a04000	 mov         r4, #0
  00010	e1a05006	 mov         r5, r6
  00014		 |$LL4@HKeyFromSt|
; Line 748
  00014	e5951000	 ldr         r1, [r5]
  00018	e1a00007	 mov         r0, r7
  0001c	eb000000	 bl          lstrcmpiW
  00020	e3500000	 cmp         r0, #0
  00024	0a000005	 beq         |$LN8@HKeyFromSt|
  00028	e2844001	 add         r4, r4, #1
  0002c	e3540008	 cmp         r4, #8
  00030	e2855008	 add         r5, r5, #8
  00034	3afffff6	 bcc         |$LL4@HKeyFromSt|
; Line 751
  00038	e3a00000	 mov         r0, #0
; Line 752
  0003c	e8bd80f0	 ldmia       sp!, {r4 - r7, pc}
  00040		 |$LN8@HKeyFromSt|
; Line 749
  00040	e2863004	 add         r3, r6, #4
  00044	e7930184	 ldr         r0, [r3, +r4, lsl #3]
; Line 752
  00048	e8bd80f0	 ldmia       sp!, {r4 - r7, pc}
  0004c		 |$LN13@HKeyFromSt|
  0004c		 |$LN14@HKeyFromSt|
  0004c	00000000	 DCD         |?map@?1??HKeyFromString@CRegParser@ATL@@KAPAUHKEY__@@PA_W@Z@4QBUkeymap@?1??123@KAPAU4@0@Z@B|
  00050		 |$M80104|

			 ENDP  ; |?HKeyFromString@CRegParser@ATL@@KAPAUHKEY__@@PA_W@Z|, ATL::CRegParser::HKeyFromString

	EXPORT	|?StrChrW@CRegParser@ATL@@KAPA_WPA_W_W@Z| ; ATL::CRegParser::StrChrW

  00000			 AREA	 |.pdata|, PDATA
|$T80124| DCD	|$LN13@StrChrW|
	DCD	0x40001201
; Function compile flags: /Ogspy

  00000			 AREA	 |.text|, CODE, ARM

  00000		 |?StrChrW@CRegParser@ATL@@KAPA_WPA_W_W@Z| PROC ; ATL::CRegParser::StrChrW
; Line 755
  00000		 |$LN13@StrChrW|
  00000	e92d4030	 stmdb       sp!, {r4, r5, lr}
  00004		 |$M80121|
  00004	e1a05001	 mov         r5, r1
  00008	e3500000	 cmp         r0, #0
; Line 756
  0000c	e3a04000	 mov         r4, #0
; Line 758
  00010	1a000005	 bne         |$LN7@StrChrW|
; Line 759
  00014	e3a04000	 mov         r4, #0
; Line 771
  00018	e1a00004	 mov         r0, r4
  0001c	e8bd8030	 ldmia       sp!, {r4, r5, pc}
  00020		 |$LL3@StrChrW|
; Line 763
  00020	e1530005	 cmp         r3, r5
  00024	0a000005	 beq         |$LN8@StrChrW|
; Line 768
  00028	eb000000	 bl          CharNextW
  0002c		 |$LN7@StrChrW|
  0002c	e1d030b0	 ldrh        r3, [r0]
  00030	e3530000	 cmp         r3, #0
  00034	1afffff9	 bne         |$LL3@StrChrW|
; Line 771
  00038	e1a00004	 mov         r0, r4
  0003c	e8bd8030	 ldmia       sp!, {r4, r5, pc}
  00040		 |$LN8@StrChrW|
; Line 765
  00040	e1a04000	 mov         r4, r0
; Line 771
  00044	e8bd8030	 ldmia       sp!, {r4, r5, pc}
  00048		 |$M80122|

			 ENDP  ; |?StrChrW@CRegParser@ATL@@KAPA_WPA_W_W@Z|, ATL::CRegParser::StrChrW

	EXPORT	|??0CRegParser@ATL@@QAA@PAVCRegObject@1@@Z| ; ATL::CRegParser::CRegParser

  00000			 AREA	 |.pdata|, PDATA
|$T80135| DCD	|$LN5@CRegParser|
	DCD	0x40000400
; Function compile flags: /Ogspy

  00000			 AREA	 |.text|, CODE, ARM

  00000		 |??0CRegParser@ATL@@QAA@PAVCRegObject@1@@Z| PROC ; ATL::CRegParser::CRegParser
; Line 774
  00000		 |$LN5@CRegParser|
  00000		 |$M80132|
; Line 776
  00000	e3a03000	 mov         r3, #0
  00004	e5803000	 str         r3, [r0]
  00008	e5801004	 str         r1, [r0, #4]
; Line 777
  0000c	e1a0f00e	 mov         pc, lr
  00010		 |$M80133|

			 ENDP  ; |??0CRegParser@ATL@@QAA@PAVCRegObject@1@@Z|, ATL::CRegParser::CRegParser

	EXPORT	|?IsSpace@CRegParser@ATL@@IAAH_W@Z|	; ATL::CRegParser::IsSpace

  00000			 AREA	 |.pdata|, PDATA
|$T80145| DCD	|$LN8@IsSpace|
	DCD	0x40000d00
; Function compile flags: /Ogspy

  00000			 AREA	 |.text|, CODE, ARM

  00000		 |?IsSpace@CRegParser@ATL@@IAAH_W@Z| PROC ; ATL::CRegParser::IsSpace
; Line 780
  00000		 |$LN8@IsSpace|
  00000		 |$M80142|
  00000	e1a03001	 mov         r3, r1
; Line 781
  00004	e3530009	 cmp         r3, #9
  00008	ba000007	 blt         |$LN2@IsSpace|
  0000c	e353000a	 cmp         r3, #0xA
  00010	da000003	 ble         |$LN1@IsSpace|
  00014	e353000d	 cmp         r3, #0xD
  00018	0a000001	 beq         |$LN1@IsSpace|
  0001c	e3530020	 cmp         r3, #0x20
  00020	1a000001	 bne         |$LN2@IsSpace|
  00024		 |$LN1@IsSpace|
; Line 787
  00024	e3a00001	 mov         r0, #1
; Line 791
  00028	e1a0f00e	 mov         pc, lr
  0002c		 |$LN2@IsSpace|
; Line 790
  0002c	e3a00000	 mov         r0, #0
; Line 791
  00030	e1a0f00e	 mov         pc, lr
  00034		 |$M80143|

			 ENDP  ; |?IsSpace@CRegParser@ATL@@IAAH_W@Z|, ATL::CRegParser::IsSpace

	EXPORT	|?SkipWhiteSpace@CRegParser@ATL@@IAAXXZ| ; ATL::CRegParser::SkipWhiteSpace

  00000			 AREA	 |.pdata|, PDATA
|$T80162| DCD	|$LN14@SkipWhiteS|
	DCD	0x40001001
; Function compile flags: /Ogspy

  00000			 AREA	 |.text|, CODE, ARM

  00000		 |?SkipWhiteSpace@CRegParser@ATL@@IAAXXZ| PROC ; ATL::CRegParser::SkipWhiteSpace
; Line 794
  00000		 |$LN14@SkipWhiteS|
  00000	e92d4010	 stmdb       sp!, {r4, lr}
  00004		 |$M80159|
  00004	e1a04000	 mov         r4, r0
  00008		 |$LL2@SkipWhiteS|
; Line 795
  00008	e5940000	 ldr         r0, [r4]
  0000c	e1d030b0	 ldrh        r3, [r0]
  00010	e3530009	 cmp         r3, #9
  00014	ba000008	 blt         |$LN6@SkipWhiteS|
  00018	e353000a	 cmp         r3, #0xA
  0001c	da000003	 ble         |$LN5@SkipWhiteS|
  00020	e353000d	 cmp         r3, #0xD
  00024	0a000001	 beq         |$LN5@SkipWhiteS|
  00028	e3530020	 cmp         r3, #0x20
  0002c	1a000002	 bne         |$LN6@SkipWhiteS|
  00030		 |$LN5@SkipWhiteS|
; Line 796
  00030	eb000000	 bl          CharNextW
  00034	e5840000	 str         r0, [r4]
  00038	eafffff2	 b           |$LL2@SkipWhiteS|
; Line 795
  0003c		 |$LN6@SkipWhiteS|
; Line 797
  0003c	e8bd8010	 ldmia       sp!, {r4, pc}
  00040		 |$M80160|

			 ENDP  ; |?SkipWhiteSpace@CRegParser@ATL@@IAAXXZ|, ATL::CRegParser::SkipWhiteSpace

	EXPORT	|?NextToken@CRegParser@ATL@@IAAJPA_W@Z|	; ATL::CRegParser::NextToken

  00000			 AREA	 |.pdata|, PDATA
|$T80219| DCD	|$LN54@NextToken|
	DCD	0x40006201
; Function compile flags: /Ogspy

  00000			 AREA	 |.text|, CODE, ARM

  00000		 |?NextToken@CRegParser@ATL@@IAAJPA_W@Z| PROC ; ATL::CRegParser::NextToken
; Line 802
  00000		 |$LN54@NextToken|
  00000	e92d40f0	 stmdb       sp!, {r4 - r7, lr}
  00004		 |$M80216|
  00004	e1a05001	 mov         r5, r1
  00008	e1a04000	 mov         r4, r0
; Line 803
  0000c	eb000000	 bl          |?SkipWhiteSpace@CRegParser@ATL@@IAAXXZ|
; Line 806
  00010	e5940000	 ldr         r0, [r4]
  00014	e1d030b0	 ldrh        r3, [r0]
  00018	e3530000	 cmp         r3, #0
; Line 807
  0001c	0a000056	 beq         |$LN42@NextToken|
; Line 812
  00020	e3530027	 cmp         r3, #0x27
  00024	1a000032	 bne         |$LN50@NextToken|
; Line 814
  00028	eb000000	 bl          CharNextW
  0002c	e5840000	 str         r0, [r4]
; Line 816
  00030	e1d030b0	 ldrh        r3, [r0]
  00034	e3530000	 cmp         r3, #0
  00038	0a000022	 beq         |$LN14@NextToken|
  0003c	e2857a02	 add         r7, r5, #2, 20	; 8192 (0x2000)
  00040		 |$LL15@NextToken|
  00040	e5940000	 ldr         r0, [r4]
  00044	e1d030b0	 ldrh        r3, [r0]
  00048	e3530027	 cmp         r3, #0x27
  0004c	1a000003	 bne         |$LN24@NextToken|
  00050	eb000000	 bl          CharNextW
  00054	e1d030b0	 ldrh        r3, [r0]
  00058	e3530027	 cmp         r3, #0x27
  0005c	1a000019	 bne         |$LN14@NextToken|
  00060		 |$LN24@NextToken|
; Line 818
  00060	e5940000	 ldr         r0, [r4]
  00064	e1d030b0	 ldrh        r3, [r0]
  00068	e3530027	 cmp         r3, #0x27
  0006c	1a000001	 bne         |$LN13@NextToken|
; Line 819
  00070	eb000000	 bl          CharNextW
  00074	e5840000	 str         r0, [r4]
  00078		 |$LN13@NextToken|
; Line 821
  00078	e5946000	 ldr         r6, [r4]
; Line 822
  0007c	e1a00006	 mov         r0, r6
  00080	eb000000	 bl          CharNextW
; Line 824
  00084	e0403006	 sub         r3, r0, r6
  00088	e1a020c3	 mov         r2, r3, asr #1
; Line 827
  0008c	e2823001	 add         r3, r2, #1
  00090	e0853083	 add         r3, r5, r3, lsl #1
  00094	e1530007	 cmp         r3, r7
  00098	e5840000	 str         r0, [r4]
  0009c	2a000036	 bcs         |$LN42@NextToken|
; Line 830
  000a0	e3520000	 cmp         r2, #0
  000a4	da000003	 ble         |$LN9@NextToken|
  000a8		 |$LL11@NextToken|
; Line 831
  000a8	e0d630b2	 ldrh        r3, [r6], #2
  000ac	e2522001	 subs        r2, r2, #1
  000b0	e0c530b2	 strh        r3, [r5], #2
  000b4	1afffffb	 bne         |$LL11@NextToken|
  000b8		 |$LN9@NextToken|
; Line 816
  000b8	e5943000	 ldr         r3, [r4]
  000bc	e1d330b0	 ldrh        r3, [r3]
  000c0	e3530000	 cmp         r3, #0
  000c4	1affffdd	 bne         |$LL15@NextToken|
  000c8		 |$LN14@NextToken|
; Line 834
  000c8	e5943000	 ldr         r3, [r4]
  000cc	e1d330b0	 ldrh        r3, [r3]
  000d0	e3530000	 cmp         r3, #0
; Line 837
  000d4	0a000028	 beq         |$LN42@NextToken|
; Line 840
  000d8	e3a03000	 mov         r3, #0
  000dc	e1c530b0	 strh        r3, [r5]
; Line 841
  000e0	e5940000	 ldr         r0, [r4]
  000e4	eb000000	 bl          CharNextW
  000e8	e5840000	 str         r0, [r4]
; Line 864
  000ec	e3a00000	 mov         r0, #0
; Line 865
  000f0	e8bd80f0	 ldmia       sp!, {r4 - r7, pc}
  000f4		 |$LN50@NextToken|
  000f4	e2857a02	 add         r7, r5, #2, 20	; 8192 (0x2000)
  000f8		 |$LL6@NextToken|
; Line 847
  000f8	e5946000	 ldr         r6, [r4]
  000fc	e1d630b0	 ldrh        r3, [r6]
  00100	e3530009	 cmp         r3, #9
  00104	ba000005	 blt         |$LN31@NextToken|
  00108	e353000a	 cmp         r3, #0xA
  0010c	da000016	 ble         |$LN5@NextToken|
  00110	e353000d	 cmp         r3, #0xD
  00114	0a000014	 beq         |$LN5@NextToken|
  00118	e3530020	 cmp         r3, #0x20
  0011c	0a000012	 beq         |$LN5@NextToken|
  00120		 |$LN31@NextToken|
; Line 850
  00120	e1a00006	 mov         r0, r6
  00124	eb000000	 bl          CharNextW
; Line 852
  00128	e0403006	 sub         r3, r0, r6
  0012c	e1a020c3	 mov         r2, r3, asr #1
; Line 855
  00130	e2823001	 add         r3, r2, #1
  00134	e0853083	 add         r3, r5, r3, lsl #1
  00138	e1530007	 cmp         r3, r7
  0013c	e5840000	 str         r0, [r4]
  00140	2a00000d	 bcs         |$LN42@NextToken|
; Line 858
  00144	e3520000	 cmp         r2, #0
  00148	da000003	 ble         |$LN1@NextToken|
  0014c		 |$LL3@NextToken|
; Line 859
  0014c	e0d630b2	 ldrh        r3, [r6], #2
  00150	e2522001	 subs        r2, r2, #1
  00154	e0c530b2	 strh        r3, [r5], #2
  00158	1afffffb	 bne         |$LL3@NextToken|
  0015c		 |$LN1@NextToken|
; Line 847
  0015c	e5943000	 ldr         r3, [r4]
  00160	e1d330b0	 ldrh        r3, [r3]
  00164	e3530000	 cmp         r3, #0
  00168	1affffe2	 bne         |$LL6@NextToken|
  0016c		 |$LN5@NextToken|
; Line 862
  0016c	e3a03000	 mov         r3, #0
  00170	e1c530b0	 strh        r3, [r5]
; Line 864
  00174	e3a00000	 mov         r0, #0
; Line 865
  00178	e8bd80f0	 ldmia       sp!, {r4 - r7, pc}
  0017c		 |$LN42@NextToken|
; Line 864
  0017c	e3a03126	 mov         r3, #0x26, 2
; Line 856
  00180	e3830802	 orr         r0, r3, #2, 16	; 131072 (0x20000)
; Line 865
  00184	e8bd80f0	 ldmia       sp!, {r4 - r7, pc}
  00188		 |$M80217|

			 ENDP  ; |?NextToken@CRegParser@ATL@@IAAJPA_W@Z|, ATL::CRegParser::NextToken

	EXPORT	|?CanForceRemoveKey@CRegParser@ATL@@IAAHPB_W@Z| ; ATL::CRegParser::CanForceRemoveKey

  00000			 AREA	 |.pdata|, PDATA
|$T80233| DCD	|$LN12@CanForceRe|
	DCD	0x40001201
; Function compile flags: /Ogspy

  00000			 AREA	 |.text|, CODE, ARM

  00000		 |?CanForceRemoveKey@CRegParser@ATL@@IAAHPB_W@Z| PROC ; ATL::CRegParser::CanForceRemoveKey
; Line 999
  00000		 |$LN12@CanForceRe|
  00000	e92d4070	 stmdb       sp!, {r4 - r6, lr}
  00004		 |$M80230|
  00004	e1a06001	 mov         r6, r1
; Line 1000
  00008	e59f5034	 ldr         r5, [pc, #0x34]
  0000c	e3a04000	 mov         r4, #0
  00010		 |$LL4@CanForceRe|
; Line 1001
  00010	e5951000	 ldr         r1, [r5]
  00014	e1a00006	 mov         r0, r6
  00018	eb000000	 bl          lstrcmpiW
  0001c	e3500000	 cmp         r0, #0
  00020	0a000005	 beq         |$LN8@CanForceRe|
  00024	e2844001	 add         r4, r4, #1
  00028	e354000c	 cmp         r4, #0xC
  0002c	e2855004	 add         r5, r5, #4
  00030	bafffff6	 blt         |$LL4@CanForceRe|
; Line 1004
  00034	e3a00001	 mov         r0, #1
; Line 1005
  00038	e8bd8070	 ldmia       sp!, {r4 - r6, pc}
  0003c		 |$LN8@CanForceRe|
; Line 1002
  0003c	e3a00000	 mov         r0, #0
; Line 1005
  00040	e8bd8070	 ldmia       sp!, {r4 - r6, pc}
  00044		 |$LN13@CanForceRe|
  00044		 |$LN14@CanForceRe|
  00044	00000000	 DCD         |?rgszNeverDelete@CRegParser@ATL@@1QBQB_WB|
  00048		 |$M80231|

			 ENDP  ; |?CanForceRemoveKey@CRegParser@ATL@@IAAHPB_W@Z|, ATL::CRegParser::CanForceRemoveKey

	EXPORT	|?HasSubKeys@CRegParser@ATL@@IAAHPAUHKEY__@@@Z| ; ATL::CRegParser::HasSubKeys
	IMPORT	|RegQueryInfoKeyW|

  00000			 AREA	 |.pdata|, PDATA
|$T80247| DCD	|$LN8@HasSubKeys|
	DCD	0x40001d02
; Function compile flags: /Ogspy

  00000			 AREA	 |.text|, CODE, ARM

  00000		 |?HasSubKeys@CRegParser@ATL@@IAAHPAUHKEY__@@@Z| PROC ; ATL::CRegParser::HasSubKeys
; Line 1008
  00000		 |$LN8@HasSubKeys|
  00000	e52de004	 str         lr, [sp, #-4]!
  00004	e24dd024	 sub         sp, sp, #0x24
  00008		 |$M80244|
  00008	e1a00001	 mov         r0, r1
; Line 1009
  0000c	e3a02000	 mov         r2, #0
; Line 1013
  00010	e28d3020	 add         r3, sp, #0x20
  00014	e58d2020	 str         r2, [sp, #0x20]
  00018	e58d3000	 str         r3, [sp]
  0001c	e3a0e000	 mov         lr, #0
  00020	e3a03000	 mov         r3, #0
  00024	e3a02000	 mov         r2, #0
  00028	e3a01000	 mov         r1, #0
  0002c	e58de01c	 str         lr, [sp, #0x1C]
  00030	e58de018	 str         lr, [sp, #0x18]
  00034	e58de014	 str         lr, [sp, #0x14]
  00038	e58de010	 str         lr, [sp, #0x10]
  0003c	e58de00c	 str         lr, [sp, #0xC]
  00040	e58de008	 str         lr, [sp, #8]
  00044	e58de004	 str         lr, [sp, #4]
  00048	eb000000	 bl          RegQueryInfoKeyW
  0004c	e3500000	 cmp         r0, #0
; Line 1017
  00050	1a000004	 bne         |$LN4@HasSubKeys|
; Line 1020
  00054	e59d3020	 ldr         r3, [sp, #0x20]
  00058	e3530000	 cmp         r3, #0
  0005c	13a00001	 movne       r0, #1
; Line 1021
  00060	128dd024	 addne       sp, sp, #0x24
  00064	149df004	 ldrne       pc, [sp], #4
  00068		 |$LN4@HasSubKeys|
; Line 1020
  00068	e3a00000	 mov         r0, #0
; Line 1021
  0006c	e28dd024	 add         sp, sp, #0x24
  00070	e49df004	 ldr         pc, [sp], #4
  00074		 |$M80245|

			 ENDP  ; |?HasSubKeys@CRegParser@ATL@@IAAHPAUHKEY__@@@Z|, ATL::CRegParser::HasSubKeys

	EXPORT	|__$ArrayPad$| [ DATA ]
	EXPORT	|?SkipAssignment@CRegParser@ATL@@IAAJPA_W@Z| ; ATL::CRegParser::SkipAssignment

  00000			 AREA	 |.pdata|, PDATA
|$T80268| DCD	|$LN10@SkipAssign|
	DCD	0xc0002a03

  00000			 AREA	 |.xdata|, DATA
|$T80264| DCD	0xffffffec
; Function compile flags: /Ogspy

  00000			 AREA	 |.text|, CODE, ARM

  00000	00000000	 DCD         |__GSHandlerCheck|
  00004	00000000	 DCD         |$T80264|

  00008		 |?SkipAssignment@CRegParser@ATL@@IAAJPA_W@Z| PROC ; ATL::CRegParser::SkipAssignment
; Line 1052
  00008		 |$LN10@SkipAssign|
  00008	e92d4070	 stmdb       sp!, {r4 - r6, lr}
  0000c	e59fc098	 ldr         r12, [pc, #0x98]
  00010	e08dd00c	 add         sp, sp, r12
  00014		 |$M80265|
  00014	e1a06001	 mov         r6, r1
  00018	e1a05000	 mov         r5, r0
  0001c	e59f3084	 ldr         r3, [pc, #0x84]
  00020	e5933000	 ldr         r3, [r3]
  00024	e28dca02	 add         r12, sp, #2, 20	; 8192 (0x2000)
  00028	e58c3000	 str         r3, [r12]
; Line 1056
  0002c	e1d630b0	 ldrh        r3, [r6]
  00030	e353003d	 cmp         r3, #0x3D
  00034	1a000012	 bne         |$LN1@SkipAssign|
; Line 1058
  00038	eb000000	 bl          |?NextToken@CRegParser@ATL@@IAAJPA_W@Z|
  0003c	e1b04000	 movs        r4, r0
  00040	5a000003	 bpl         |$LN3@SkipAssign|
  00044		 |$LN7@SkipAssign|
; Line 1059
  00044	e28d0a02	 add         r0, sp, #2, 20	; 8192 (0x2000)
  00048	e5900000	 ldr         r0, [r0]
  0004c	eb000000	 bl          __security_check_cookie
  00050	ea00000f	 b           |$LN5@SkipAssign|
  00054		 |$LN3@SkipAssign|
; Line 1061
  00054	e1a00005	 mov         r0, r5
  00058	eb000000	 bl          |?SkipWhiteSpace@CRegParser@ATL@@IAAXXZ|
; Line 1062
  0005c	e28d1000	 add         r1, sp, #0
  00060	e1a00005	 mov         r0, r5
  00064	eb000000	 bl          |?NextToken@CRegParser@ATL@@IAAJPA_W@Z|
  00068	e1b04000	 movs        r4, r0
; Line 1063
  0006c	4afffff4	 bmi         |$LN7@SkipAssign|
; Line 1064
  00070	e1a01006	 mov         r1, r6
  00074	e1a00005	 mov         r0, r5
  00078	eb000000	 bl          |?NextToken@CRegParser@ATL@@IAAJPA_W@Z|
  0007c	e1b04000	 movs        r4, r0
; Line 1065
  00080	4affffef	 bmi         |$LN7@SkipAssign|
  00084		 |$LN1@SkipAssign|
; Line 1068
  00084	e28d0a02	 add         r0, sp, #2, 20	; 8192 (0x2000)
  00088	e5900000	 ldr         r0, [r0]
  0008c	eb000000	 bl          __security_check_cookie
  00090	e3a04000	 mov         r4, #0
  00094		 |$LN5@SkipAssign|
; Line 1069
  00094	e1a00004	 mov         r0, r4
  00098	e3a0ca02	 mov         r12, #2, 20
  0009c	e38cc004	 orr         r12, r12, #4
  000a0	e08dd00c	 add         sp, sp, r12
  000a4	e8bd8070	 ldmia       sp!, {r4 - r6, pc}
  000a8		 |$LN11@SkipAssign|
  000a8		 |$LN12@SkipAssign|
  000a8	00000000	 DCD         |__security_cookie|
  000ac		 |$LN13@SkipAssign|
  000ac	ffffdffc	 DCD         0xffffdffc
  000b0		 |$M80266|

			 ENDP  ; |?SkipAssignment@CRegParser@ATL@@IAAJPA_W@Z|, ATL::CRegParser::SkipAssignment

	EXPORT	|??0CComAutoDeleteCriticalSection@ATL@@QAA@XZ| ; ATL::CComAutoDeleteCriticalSection::CComAutoDeleteCriticalSection

  00000			 AREA	 |.pdata|, PDATA
|$T80291| DCD	|$LN10@CComAutoDe@2|
	DCD	0x40000901
; Function compile flags: /Ogspy

  00000			 AREA	 |.text|, CODE, ARM

  00000		 |??0CComAutoDeleteCriticalSection@ATL@@QAA@XZ| PROC ; ATL::CComAutoDeleteCriticalSection::CComAutoDeleteCriticalSection
  00000		 |$LN10@CComAutoDe@2|
  00000	e92d4010	 stmdb       sp!, {r4, lr}
  00004		 |$M80288|
  00004	e1a04000	 mov         r4, r0
  00008	e3a02014	 mov         r2, #0x14
  0000c	e3a01000	 mov         r1, #0
  00010	eb000000	 bl          memset
  00014	e3a03000	 mov         r3, #0
  00018	e5c43014	 strb        r3, [r4, #0x14]
  0001c	e1a00004	 mov         r0, r4
  00020	e8bd8010	 ldmia       sp!, {r4, pc}
  00024		 |$M80289|

			 ENDP  ; |??0CComAutoDeleteCriticalSection@ATL@@QAA@XZ|, ATL::CComAutoDeleteCriticalSection::CComAutoDeleteCriticalSection

	EXPORT	|??0IUnknown@@QAA@XZ|			; IUnknown::IUnknown

  00000			 AREA	 |.pdata|, PDATA
|$T80301| DCD	|$LN5@IUnknown|
	DCD	0x40000100
; Function compile flags: /Ogspy

  00000			 AREA	 |.text|, CODE, ARM

  00000		 |??0IUnknown@@QAA@XZ| PROC		; IUnknown::IUnknown
  00000		 |$LN5@IUnknown|
  00000		 |$M80298|
  00000	e1a0f00e	 mov         pc, lr
  00004		 |$M80299|

			 ENDP  ; |??0IUnknown@@QAA@XZ|, IUnknown::IUnknown

	EXPORT	|?AtlGetPerUserRegistration@ATL@@YAJPA_N@Z| ; ATL::AtlGetPerUserRegistration
; File c:\program files (x86)\microsoft visual studio 9.0\vc\ce\atlmfc\include\atlbase.h

  00000			 AREA	 |.pdata|, PDATA
|$T80311| DCD	|$LN6@AtlGetPerU|
	DCD	0x40000900
; Function compile flags: /Ogspy

  00000			 AREA	 |.text|, CODE, ARM

  00000		 |?AtlGetPerUserRegistration@ATL@@YAJPA_N@Z| PROC ; ATL::AtlGetPerUserRegistration
; Line 6587
  00000		 |$LN6@AtlGetPerU|
  00000		 |$M80308|
  00000	e1b02000	 movs        r2, r0
; Line 6588
  00004	03a0310e	 moveq       r3, #0xE, 2
; Line 6589
  00008	03830901	 orreq       r0, r3, #1, 18	; 16384 (0x4000)
; Line 6591
  0000c	159f300c	 ldrne       r3, [pc, #0xC]
; Line 6592
  00010	13a00000	 movne       r0, #0
  00014	15d33000	 ldrneb      r3, [r3]
  00018	15c23000	 strneb      r3, [r2]
; Line 6593
  0001c	e1a0f00e	 mov         pc, lr
  00020		 |$LN7@AtlGetPerU|
  00020		 |$LN8@AtlGetPerU|
  00020	00000000	 DCD         |?_AtlRegisterPerUser@ATL@@3_NA|
  00024		 |$M80309|

			 ENDP  ; |?AtlGetPerUserRegistration@ATL@@YAJPA_N@Z|, ATL::AtlGetPerUserRegistration

	EXPORT	|??0CComObjectRootBase@ATL@@QAA@XZ|	; ATL::CComObjectRootBase::CComObjectRootBase
; File c:\program files (x86)\microsoft visual studio 9.0\vc\ce\atlmfc\include\atlcom.h

  00000			 AREA	 |.pdata|, PDATA
|$T80323| DCD	|$LN5@CComObject|
	DCD	0x40000300
; Function compile flags: /Ogspy

  00000			 AREA	 |.text|, CODE, ARM

  00000		 |??0CComObjectRootBase@ATL@@QAA@XZ| PROC ; ATL::CComObjectRootBase::CComObjectRootBase
; Line 2290
  00000		 |$LN5@CComObject|
  00000		 |$M80320|
; Line 2292
  00000	e3a03000	 mov         r3, #0
  00004	e5803000	 str         r3, [r0]
; Line 2293
  00008	e1a0f00e	 mov         pc, lr
  0000c		 |$M80321|

			 ENDP  ; |??0CComObjectRootBase@ATL@@QAA@XZ|, ATL::CComObjectRootBase::CComObjectRootBase

	EXPORT	|??1CComObjectRootBase@ATL@@QAA@XZ|	; ATL::CComObjectRootBase::~CComObjectRootBase

  00000			 AREA	 |.pdata|, PDATA
|$T80330| DCD	|$LN5@CComObject@2|
	DCD	0x40000100
; Function compile flags: /Ogspy

  00000			 AREA	 |.text|, CODE, ARM

  00000		 |??1CComObjectRootBase@ATL@@QAA@XZ| PROC ; ATL::CComObjectRootBase::~CComObjectRootBase
; Line 2295
  00000		 |$LN5@CComObject@2|
  00000		 |$M80327|
; Line 2296
  00000	e1a0f00e	 mov         pc, lr
  00004		 |$M80328|

			 ENDP  ; |??1CComObjectRootBase@ATL@@QAA@XZ|, ATL::CComObjectRootBase::~CComObjectRootBase

	EXPORT	|?FinalConstruct@CComObjectRootBase@ATL@@QAAJXZ| ; ATL::CComObjectRootBase::FinalConstruct

  00000			 AREA	 |.pdata|, PDATA
|$T80339| DCD	|$LN5@FinalConst@3|
	DCD	0x40000200
; Function compile flags: /Ogspy

  00000			 AREA	 |.text|, CODE, ARM

  00000		 |?FinalConstruct@CComObjectRootBase@ATL@@QAAJXZ| PROC ; ATL::CComObjectRootBase::FinalConstruct
; Line 2298
  00000		 |$LN5@FinalConst@3|
  00000		 |$M80336|
; Line 2299
  00000	e3a00000	 mov         r0, #0
; Line 2300
  00004	e1a0f00e	 mov         pc, lr
  00008		 |$M80337|

			 ENDP  ; |?FinalConstruct@CComObjectRootBase@ATL@@QAAJXZ|, ATL::CComObjectRootBase::FinalConstruct

	EXPORT	|?_AtlFinalConstruct@CComObjectRootBase@ATL@@QAAJXZ| ; ATL::CComObjectRootBase::_AtlFinalConstruct

  00000			 AREA	 |.pdata|, PDATA
|$T80348| DCD	|$LN5@AtlFinalCo|
	DCD	0x40000200
; Function compile flags: /Ogspy

  00000			 AREA	 |.text|, CODE, ARM

  00000		 |?_AtlFinalConstruct@CComObjectRootBase@ATL@@QAAJXZ| PROC ; ATL::CComObjectRootBase::_AtlFinalConstruct
; Line 2303
  00000		 |$LN5@AtlFinalCo|
  00000		 |$M80345|
; Line 2304
  00000	e3a00000	 mov         r0, #0
; Line 2305
  00004	e1a0f00e	 mov         pc, lr
  00008		 |$M80346|

			 ENDP  ; |?_AtlFinalConstruct@CComObjectRootBase@ATL@@QAAJXZ|, ATL::CComObjectRootBase::_AtlFinalConstruct

	EXPORT	|?SetVoid@CComObjectRootBase@ATL@@QAAXPAX@Z| ; ATL::CComObjectRootBase::SetVoid

  00000			 AREA	 |.pdata|, PDATA
|$T80355| DCD	|$LN5@SetVoid|
	DCD	0x40000100
; Function compile flags: /Ogspy

  00000			 AREA	 |.text|, CODE, ARM

  00000		 |?SetVoid@CComObjectRootBase@ATL@@QAAXPAX@Z| PROC ; ATL::CComObjectRootBase::SetVoid
; Line 2360
  00000		 |$LN5@SetVoid|
  00000		 |$M80352|
  00000	e1a0f00e	 mov         pc, lr
  00004		 |$M80353|

			 ENDP  ; |?SetVoid@CComObjectRootBase@ATL@@QAAXPAX@Z|, ATL::CComObjectRootBase::SetVoid

	EXPORT	|?InternalFinalConstructAddRef@CComObjectRootBase@ATL@@QAAXXZ| ; ATL::CComObjectRootBase::InternalFinalConstructAddRef

  00000			 AREA	 |.pdata|, PDATA
|$T80362| DCD	|$LN5@InternalFi|
	DCD	0x40000100
; Function compile flags: /Ogspy

  00000			 AREA	 |.text|, CODE, ARM

  00000		 |?InternalFinalConstructAddRef@CComObjectRootBase@ATL@@QAAXXZ| PROC ; ATL::CComObjectRootBase::InternalFinalConstructAddRef
; Line 2361
  00000		 |$LN5@InternalFi|
  00000		 |$M80359|
  00000	e1a0f00e	 mov         pc, lr
  00004		 |$M80360|

			 ENDP  ; |?InternalFinalConstructAddRef@CComObjectRootBase@ATL@@QAAXXZ|, ATL::CComObjectRootBase::InternalFinalConstructAddRef

	EXPORT	|?InternalFinalConstructRelease@CComObjectRootBase@ATL@@QAAXXZ| ; ATL::CComObjectRootBase::InternalFinalConstructRelease

  00000			 AREA	 |.pdata|, PDATA
|$T80369| DCD	|$LN8@InternalFi@2|
	DCD	0x40000100
; Function compile flags: /Ogspy

  00000			 AREA	 |.text|, CODE, ARM

  00000		 |?InternalFinalConstructRelease@CComObjectRootBase@ATL@@QAAXXZ| PROC ; ATL::CComObjectRootBase::InternalFinalConstructRelease
; Line 2363
  00000		 |$LN8@InternalFi@2|
  00000		 |$M80366|
; Line 2365
  00000	e1a0f00e	 mov         pc, lr
  00004		 |$M80367|

			 ENDP  ; |?InternalFinalConstructRelease@CComObjectRootBase@ATL@@QAAXXZ|, ATL::CComObjectRootBase::InternalFinalConstructRelease


  00000			 AREA	 |.pdata|, PDATA
|$T80376| DCD	|$LN5@ObjectMain|
	DCD	0x40000100
; Function compile flags: /Ogspy

  00000			 AREA	 |.text|, CODE, ARM

  00000		 |?ObjectMain@CComObjectRootBase@ATL@@SAX_N@Z| PROC ; ATL::CComObjectRootBase::ObjectMain
; Line 2429
  00000		 |$LN5@ObjectMain|
  00000		 |$M80373|
; Line 2430
  00000	e1a0f00e	 mov         pc, lr
  00004		 |$M80374|

			 ENDP  ; |?ObjectMain@CComObjectRootBase@ATL@@SAX_N@Z|, ATL::CComObjectRootBase::ObjectMain

	EXPORT	|?SetVoid@CComClassFactory@ATL@@QAAXPAX@Z| ; ATL::CComClassFactory::SetVoid

  00000			 AREA	 |.pdata|, PDATA
|$T80385| DCD	|$LN5@SetVoid@2|
	DCD	0x40000200
; Function compile flags: /Ogspy

  00000			 AREA	 |.text|, CODE, ARM

  00000		 |?SetVoid@CComClassFactory@ATL@@QAAXPAX@Z| PROC ; ATL::CComClassFactory::SetVoid
; Line 3451
  00000		 |$LN5@SetVoid@2|
  00000		 |$M80382|
; Line 3452
  00000	e5801020	 str         r1, [r0, #0x20]
; Line 3453
  00004	e1a0f00e	 mov         pc, lr
  00008		 |$M80383|

			 ENDP  ; |?SetVoid@CComClassFactory@ATL@@QAAXPAX@Z|, ATL::CComClassFactory::SetVoid

	EXPORT	|?data@CStringData@ATL@@QAAPAXXZ|	; ATL::CStringData::data
; File c:\program files (x86)\microsoft visual studio 9.0\vc\ce\atlmfc\include\atlsimpstr.h

  00000			 AREA	 |.pdata|, PDATA
|$T80395| DCD	|$LN5@data|
	DCD	0x40000200
; Function compile flags: /Ogspy

  00000			 AREA	 |.text|, CODE, ARM

  00000		 |?data@CStringData@ATL@@QAAPAXXZ| PROC	; ATL::CStringData::data
; Line 80
  00000		 |$LN5@data|
  00000		 |$M80392|
; Line 81
  00000	e2800010	 add         r0, r0, #0x10
; Line 82
  00004	e1a0f00e	 mov         pc, lr
  00008		 |$M80393|

			 ENDP  ; |?data@CStringData@ATL@@QAAPAXXZ|, ATL::CStringData::data

	EXPORT	|?AddRef@CStringData@ATL@@QAAXXZ|	; ATL::CStringData::AddRef

  00000			 AREA	 |.pdata|, PDATA
|$T80403| DCD	|$LN5@AddRef|
	DCD	0x40000200
; Function compile flags: /Ogspy

  00000			 AREA	 |.text|, CODE, ARM

  00000		 |?AddRef@CStringData@ATL@@QAAXXZ| PROC	; ATL::CStringData::AddRef
; Line 85
  00000		 |$LN5@AddRef|
  00000		 |$M80400|
; Line 87
  00000	e280000c	 add         r0, r0, #0xC
  00004	ea000000	 b           InterlockedIncrement
  00008		 |$M80401|

			 ENDP  ; |?AddRef@CStringData@ATL@@QAAXXZ|, ATL::CStringData::AddRef

	EXPORT	|?IsLocked@CStringData@ATL@@QBA_NXZ|	; ATL::CStringData::IsLocked

  00000			 AREA	 |.pdata|, PDATA
|$T80415| DCD	|$LN7@IsLocked|
	DCD	0x40000700
; Function compile flags: /Ogspy

  00000			 AREA	 |.text|, CODE, ARM

  00000		 |?IsLocked@CStringData@ATL@@QBA_NXZ| PROC ; ATL::CStringData::IsLocked
; Line 90
  00000		 |$LN7@IsLocked|
  00000		 |$M80412|
; Line 91
  00000	e590300c	 ldr         r3, [r0, #0xC]
  00004	e3530000	 cmp         r3, #0
  00008	b3a03001	 movlt       r3, #1
  0000c	b20300ff	 andlt       r0, r3, #0xFF
  00010	a3a03000	 movge       r3, #0
  00014	a20300ff	 andge       r0, r3, #0xFF
; Line 92
  00018	e1a0f00e	 mov         pc, lr
  0001c		 |$M80413|

			 ENDP  ; |?IsLocked@CStringData@ATL@@QBA_NXZ|, ATL::CStringData::IsLocked

	EXPORT	|?IsShared@CStringData@ATL@@QBA_NXZ|	; ATL::CStringData::IsShared

  00000			 AREA	 |.pdata|, PDATA
|$T80427| DCD	|$LN7@IsShared|
	DCD	0x40000700
; Function compile flags: /Ogspy

  00000			 AREA	 |.text|, CODE, ARM

  00000		 |?IsShared@CStringData@ATL@@QBA_NXZ| PROC ; ATL::CStringData::IsShared
; Line 94
  00000		 |$LN7@IsShared|
  00000		 |$M80424|
; Line 95
  00000	e590300c	 ldr         r3, [r0, #0xC]
  00004	e3530001	 cmp         r3, #1
  00008	c3a03001	 movgt       r3, #1
  0000c	c20300ff	 andgt       r0, r3, #0xFF
  00010	d3a03000	 movle       r3, #0
  00014	d20300ff	 andle       r0, r3, #0xFF
; Line 96
  00018	e1a0f00e	 mov         pc, lr
  0001c		 |$M80425|

			 ENDP  ; |?IsShared@CStringData@ATL@@QBA_NXZ|, ATL::CStringData::IsShared

	EXPORT	|?Release@CStringData@ATL@@QAAXXZ|	; ATL::CStringData::Release

  00000			 AREA	 |.pdata|, PDATA
|$T80435| DCD	|$LN6@Release|
	DCD	0x40000b01
; Function compile flags: /Ogspy

  00000			 AREA	 |.text|, CODE, ARM

  00000		 |?Release@CStringData@ATL@@QAAXXZ| PROC ; ATL::CStringData::Release
; Line 107
  00000		 |$LN6@Release|
  00000	e92d4010	 stmdb       sp!, {r4, lr}
  00004		 |$M80432|
  00004	e1a04000	 mov         r4, r0
; Line 110
  00008	e284000c	 add         r0, r4, #0xC
  0000c	eb000000	 bl          InterlockedDecrement
  00010	e3500000	 cmp         r0, #0
; Line 112
  00014	d5940000	 ldrle       r0, [r4]
  00018	d1a01004	 movle       r1, r4
  0001c	d5903000	 ldrle       r3, [r0]
  00020	d1a0e00f	 movle       lr, pc
  00024	d593f004	 ldrle       pc, [r3, #4]
; Line 114
  00028	e8bd8010	 ldmia       sp!, {r4, pc}
  0002c		 |$M80433|

			 ENDP  ; |?Release@CStringData@ATL@@QAAXXZ|, ATL::CStringData::Release

	EXPORT	|??0CWindow@ATL@@QAA@PAUHWND__@@@Z|	; ATL::CWindow::CWindow
; File c:\program files (x86)\microsoft visual studio 9.0\vc\ce\atlmfc\include\atlwin.h

  00000			 AREA	 |.pdata|, PDATA
|$T80446| DCD	|$LN5@CWindow|
	DCD	0x40000200
; Function compile flags: /Ogspy

  00000			 AREA	 |.text|, CODE, ARM

  00000		 |??0CWindow@ATL@@QAA@PAUHWND__@@@Z| PROC ; ATL::CWindow::CWindow
; Line 735
  00000		 |$LN5@CWindow|
  00000		 |$M80443|
  00000	e5801000	 str         r1, [r0]
; Line 736
  00004	e1a0f00e	 mov         pc, lr
  00008		 |$M80444|

			 ENDP  ; |??0CWindow@ATL@@QAA@PAUHWND__@@@Z|, ATL::CWindow::CWindow

	EXPORT	|??BCWindow@ATL@@QBAPAUHWND__@@XZ|	; ATL::CWindow::operator HWND__ *

  00000			 AREA	 |.pdata|, PDATA
|$T80456| DCD	|$LN5@operator@3|
	DCD	0x40000200
; Function compile flags: /Ogspy

  00000			 AREA	 |.text|, CODE, ARM

  00000		 |??BCWindow@ATL@@QBAPAUHWND__@@XZ| PROC ; ATL::CWindow::operator HWND__ *
; Line 791
  00000		 |$LN5@operator@3|
  00000		 |$M80453|
; Line 792
  00000	e5900000	 ldr         r0, [r0]
; Line 793
  00004	e1a0f00e	 mov         pc, lr
  00008		 |$M80454|

			 ENDP  ; |??BCWindow@ATL@@QBAPAUHWND__@@XZ|, ATL::CWindow::operator HWND__ *

	EXPORT	|?GetWindowTextW@CWindow@ATL@@QBAHPA_WH@Z| ; ATL::CWindow::GetWindowTextW
	IMPORT	|GetWindowTextW|

  00000			 AREA	 |.pdata|, PDATA
|$T80468| DCD	|$LN5@GetWindowT|
	DCD	0x40000200
; Function compile flags: /Ogspy

  00000			 AREA	 |.text|, CODE, ARM

  00000		 |?GetWindowTextW@CWindow@ATL@@QBAHPA_WH@Z| PROC ; ATL::CWindow::GetWindowTextW
; Line 881
  00000		 |$LN5@GetWindowT|
  00000		 |$M80465|
; Line 883
  00000	e5900000	 ldr         r0, [r0]
  00004	ea000000	 b           GetWindowTextW
  00008		 |$M80466|

			 ENDP  ; |?GetWindowTextW@CWindow@ATL@@QBAHPA_WH@Z|, ATL::CWindow::GetWindowTextW

	EXPORT	|?GetWindowTextLengthW@CWindow@ATL@@QBAHXZ| ; ATL::CWindow::GetWindowTextLengthW
	IMPORT	|GetWindowTextLengthW|

  00000			 AREA	 |.pdata|, PDATA
|$T80478| DCD	|$LN5@GetWindowT@2|
	DCD	0x40000200
; Function compile flags: /Ogspy

  00000			 AREA	 |.text|, CODE, ARM

  00000		 |?GetWindowTextLengthW@CWindow@ATL@@QBAHXZ| PROC ; ATL::CWindow::GetWindowTextLengthW
; Line 898
  00000		 |$LN5@GetWindowT@2|
  00000		 |$M80475|
; Line 900
  00000	e5900000	 ldr         r0, [r0]
  00004	ea000000	 b           GetWindowTextLengthW
  00008		 |$M80476|

			 ENDP  ; |?GetWindowTextLengthW@CWindow@ATL@@QBAHXZ|, ATL::CWindow::GetWindowTextLengthW

	EXPORT	|??0?$CAtlSafeAllocBufferManager@VCCRTAllocator@ATL@@@_ATL_SAFE_ALLOCA_IMPL@ATL@@QAA@XZ| ; ATL::_ATL_SAFE_ALLOCA_IMPL::CAtlSafeAllocBufferManager<ATL::CCRTAllocator>::CAtlSafeAllocBufferManager<ATL::CCRTAllocator>
; File c:\program files (x86)\microsoft visual studio 9.0\vc\ce\atlmfc\include\atlalloc.h

  00000			 AREA	 |.pdata|, PDATA
|$T80488| DCD	|$LN5@CAtlSafeAl|
	DCD	0x40000300
; Function compile flags: /Ogspy

  00000			 AREA	 |.text|, CODE, ARM

  00000		 |??0?$CAtlSafeAllocBufferManager@VCCRTAllocator@ATL@@@_ATL_SAFE_ALLOCA_IMPL@ATL@@QAA@XZ| PROC ; ATL::_ATL_SAFE_ALLOCA_IMPL::CAtlSafeAllocBufferManager<ATL::CCRTAllocator>::CAtlSafeAllocBufferManager<ATL::CCRTAllocator>
; Line 658
  00000		 |$LN5@CAtlSafeAl|
  00000		 |$M80485|
  00000	e3a03000	 mov         r3, #0
  00004	e5803000	 str         r3, [r0]
  00008	e1a0f00e	 mov         pc, lr
  0000c		 |$M80486|

			 ENDP  ; |??0?$CAtlSafeAllocBufferManager@VCCRTAllocator@ATL@@@_ATL_SAFE_ALLOCA_IMPL@ATL@@QAA@XZ|, ATL::_ATL_SAFE_ALLOCA_IMPL::CAtlSafeAllocBufferManager<ATL::CCRTAllocator>::CAtlSafeAllocBufferManager<ATL::CCRTAllocator>

	EXPORT	|??1?$CAtlSafeAllocBufferManager@VCCRTAllocator@ATL@@@_ATL_SAFE_ALLOCA_IMPL@ATL@@QAA@XZ| ; ATL::_ATL_SAFE_ALLOCA_IMPL::CAtlSafeAllocBufferManager<ATL::CCRTAllocator>::~CAtlSafeAllocBufferManager<ATL::CCRTAllocator>

  00000			 AREA	 |.pdata|, PDATA
|$T80504| DCD	|$LN13@CAtlSafeAl@2|
	DCD	0x40000b01
; Function compile flags: /Ogspy

  00000			 AREA	 |.text|, CODE, ARM

  00000		 |??1?$CAtlSafeAllocBufferManager@VCCRTAllocator@ATL@@@_ATL_SAFE_ALLOCA_IMPL@ATL@@QAA@XZ| PROC ; ATL::_ATL_SAFE_ALLOCA_IMPL::CAtlSafeAllocBufferManager<ATL::CCRTAllocator>::~CAtlSafeAllocBufferManager<ATL::CCRTAllocator>
; Line 672
  00000		 |$LN13@CAtlSafeAl@2|
  00000	e92d4010	 stmdb       sp!, {r4, lr}
  00004		 |$M80501|
  00004	e1a04000	 mov         r4, r0
; Line 674
  00008	ea000003	 b           |$LN10@CAtlSafeAl@2|
  0000c		 |$LL2@CAtlSafeAl@2|
; Line 676
  0000c	e5940000	 ldr         r0, [r4]
; Line 677
  00010	e5903000	 ldr         r3, [r0]
; Line 678
  00014	e5843000	 str         r3, [r4]
  00018	eb000000	 bl          free
  0001c		 |$LN10@CAtlSafeAl@2|
  0001c	e5943000	 ldr         r3, [r4]
  00020	e3530000	 cmp         r3, #0
  00024	1afffff8	 bne         |$LL2@CAtlSafeAl@2|
; Line 680
  00028	e8bd8010	 ldmia       sp!, {r4, pc}
  0002c		 |$M80502|

			 ENDP  ; |??1?$CAtlSafeAllocBufferManager@VCCRTAllocator@ATL@@@_ATL_SAFE_ALLOCA_IMPL@ATL@@QAA@XZ|, ATL::_ATL_SAFE_ALLOCA_IMPL::CAtlSafeAllocBufferManager<ATL::CCRTAllocator>::~CAtlSafeAllocBufferManager<ATL::CCRTAllocator>

	EXPORT	|??0?$CSimpleMap@PA_WPA_WVCExpansionVectorEqualHelper@ATL@@@ATL@@QAA@XZ| ; ATL::CSimpleMap<wchar_t *,wchar_t *,ATL::CExpansionVectorEqualHelper>::CSimpleMap<wchar_t *,wchar_t *,ATL::CExpansionVectorEqualHelper>
; File c:\program files (x86)\microsoft visual studio 9.0\vc\ce\atlmfc\include\atlsimpcoll.h

  00000			 AREA	 |.pdata|, PDATA
|$T80514| DCD	|$LN5@CSimpleMap|
	DCD	0x40000500
; Function compile flags: /Ogspy

  00000			 AREA	 |.text|, CODE, ARM

  00000		 |??0?$CSimpleMap@PA_WPA_WVCExpansionVectorEqualHelper@ATL@@@ATL@@QAA@XZ| PROC ; ATL::CSimpleMap<wchar_t *,wchar_t *,ATL::CExpansionVectorEqualHelper>::CSimpleMap<wchar_t *,wchar_t *,ATL::CExpansionVectorEqualHelper>
; Line 299
  00000		 |$LN5@CSimpleMap|
  00000		 |$M80511|
  00000	e3a03000	 mov         r3, #0
  00004	e5803000	 str         r3, [r0]
  00008	e5803004	 str         r3, [r0, #4]
  0000c	e5803008	 str         r3, [r0, #8]
  00010	e1a0f00e	 mov         pc, lr
  00014		 |$M80512|

			 ENDP  ; |??0?$CSimpleMap@PA_WPA_WVCExpansionVectorEqualHelper@ATL@@@ATL@@QAA@XZ|, ATL::CSimpleMap<wchar_t *,wchar_t *,ATL::CExpansionVectorEqualHelper>::CSimpleMap<wchar_t *,wchar_t *,ATL::CExpansionVectorEqualHelper>

	EXPORT	|?GetSize@?$CSimpleMap@PA_WPA_WVCExpansionVectorEqualHelper@ATL@@@ATL@@QBAHXZ| ; ATL::CSimpleMap<wchar_t *,wchar_t *,ATL::CExpansionVectorEqualHelper>::GetSize

  00000			 AREA	 |.pdata|, PDATA
|$T80524| DCD	|$LN5@GetSize|
	DCD	0x40000200
; Function compile flags: /Ogspy

  00000			 AREA	 |.text|, CODE, ARM

  00000		 |?GetSize@?$CSimpleMap@PA_WPA_WVCExpansionVectorEqualHelper@ATL@@@ATL@@QBAHXZ| PROC ; ATL::CSimpleMap<wchar_t *,wchar_t *,ATL::CExpansionVectorEqualHelper>::GetSize
; Line 308
  00000		 |$LN5@GetSize|
  00000		 |$M80521|
; Line 309
  00000	e5900008	 ldr         r0, [r0, #8]
; Line 310
  00004	e1a0f00e	 mov         pc, lr
  00008		 |$M80522|

			 ENDP  ; |?GetSize@?$CSimpleMap@PA_WPA_WVCExpansionVectorEqualHelper@ATL@@@ATL@@QBAHXZ|, ATL::CSimpleMap<wchar_t *,wchar_t *,ATL::CExpansionVectorEqualHelper>::GetSize

	EXPORT	|?RemoveAll@?$CSimpleMap@PA_WPA_WVCExpansionVectorEqualHelper@ATL@@@ATL@@QAAXXZ| ; ATL::CSimpleMap<wchar_t *,wchar_t *,ATL::CExpansionVectorEqualHelper>::RemoveAll

  00000			 AREA	 |.pdata|, PDATA
|$T80534| DCD	|$LN12@RemoveAll|
	DCD	0x40001101
; Function compile flags: /Ogspy

  00000			 AREA	 |.text|, CODE, ARM

  00000		 |?RemoveAll@?$CSimpleMap@PA_WPA_WVCExpansionVectorEqualHelper@ATL@@@ATL@@QAAXXZ| PROC ; ATL::CSimpleMap<wchar_t *,wchar_t *,ATL::CExpansionVectorEqualHelper>::RemoveAll
; Line 358
  00000		 |$LN12@RemoveAll|
  00000	e92d4030	 stmdb       sp!, {r4, r5, lr}
  00004		 |$M80531|
  00004	e1a04000	 mov         r4, r0
; Line 359
  00008	e5943000	 ldr         r3, [r4]
  0000c	e3a05000	 mov         r5, #0
  00010	e3530000	 cmp         r3, #0
  00014	0a000002	 beq         |$LN5@RemoveAll|
; Line 366
  00018	e1a00003	 mov         r0, r3
  0001c	eb000000	 bl          free
; Line 367
  00020	e5845000	 str         r5, [r4]
  00024		 |$LN5@RemoveAll|
; Line 369
  00024	e5943004	 ldr         r3, [r4, #4]
  00028	e3530000	 cmp         r3, #0
  0002c	0a000002	 beq         |$LN1@RemoveAll|
; Line 371
  00030	e1a00003	 mov         r0, r3
  00034	eb000000	 bl          free
; Line 372
  00038	e5845004	 str         r5, [r4, #4]
  0003c		 |$LN1@RemoveAll|
; Line 375
  0003c	e5845008	 str         r5, [r4, #8]
; Line 376
  00040	e8bd8030	 ldmia       sp!, {r4, r5, pc}
  00044		 |$M80532|

			 ENDP  ; |?RemoveAll@?$CSimpleMap@PA_WPA_WVCExpansionVectorEqualHelper@ATL@@@ATL@@QAAXXZ|, ATL::CSimpleMap<wchar_t *,wchar_t *,ATL::CExpansionVectorEqualHelper>::RemoveAll

	EXPORT	|?GetKeyAt@?$CSimpleMap@PA_WPA_WVCExpansionVectorEqualHelper@ATL@@@ATL@@QBAAAPA_WH@Z| ; ATL::CSimpleMap<wchar_t *,wchar_t *,ATL::CExpansionVectorEqualHelper>::GetKeyAt
; File c:\program files (x86)\microsoft visual studio 9.0\vc\ce\atlmfc\include\atlexcept.h

  00000			 AREA	 |.pdata|, PDATA
|$T80550| DCD	|$LN11@GetKeyAt|
	DCD	0x40000e01
; Function compile flags: /Ogspy

  00000			 AREA	 |.text|, CODE, ARM

  00000		 |?GetKeyAt@?$CSimpleMap@PA_WPA_WVCExpansionVectorEqualHelper@ATL@@@ATL@@QBAAAPA_WH@Z| PROC ; ATL::CSimpleMap<wchar_t *,wchar_t *,ATL::CExpansionVectorEqualHelper>::GetKeyAt
; File c:\program files (x86)\microsoft visual studio 9.0\vc\ce\atlmfc\include\atlsimpcoll.h
; Line 403
  00000		 |$LN11@GetKeyAt|
  00000	e52de004	 str         lr, [sp, #-4]!
  00004		 |$M80547|
  00004	e3510000	 cmp         r1, #0
; Line 405
  00008	4a000004	 bmi         |$LN1@GetKeyAt|
  0000c	e5903008	 ldr         r3, [r0, #8]
  00010	e1510003	 cmp         r1, r3
; Line 408
  00014	b5903000	 ldrlt       r3, [r0]
; Line 409
  00018	b0830101	 addlt       r0, r3, r1, lsl #2
  0001c	b49df004	 ldrlt       pc, [sp], #4
  00020		 |$LN1@GetKeyAt|
  00020	e3a03103	 mov         r3, #3, 2
  00024	e383008c	 orr         r0, r3, #0x8C
  00028	e3a03000	 mov         r3, #0
  0002c	e3a02000	 mov         r2, #0
  00030	e3a01001	 mov         r1, #1
  00034	eb000000	 bl          RaiseException
  00038		 |$LN12@GetKeyAt|
  00038		 |$LN8@GetKeyAt|
  00038		 |$M80548|

			 ENDP  ; |?GetKeyAt@?$CSimpleMap@PA_WPA_WVCExpansionVectorEqualHelper@ATL@@@ATL@@QBAAAPA_WH@Z|, ATL::CSimpleMap<wchar_t *,wchar_t *,ATL::CExpansionVectorEqualHelper>::GetKeyAt

	EXPORT	|?GetValueAt@?$CSimpleMap@PA_WPA_WVCExpansionVectorEqualHelper@ATL@@@ATL@@QBAAAPA_WH@Z| ; ATL::CSimpleMap<wchar_t *,wchar_t *,ATL::CExpansionVectorEqualHelper>::GetValueAt
; File c:\program files (x86)\microsoft visual studio 9.0\vc\ce\atlmfc\include\atlexcept.h

  00000			 AREA	 |.pdata|, PDATA
|$T80567| DCD	|$LN11@GetValueAt|
	DCD	0x40000e01
; Function compile flags: /Ogspy

  00000			 AREA	 |.text|, CODE, ARM

  00000		 |?GetValueAt@?$CSimpleMap@PA_WPA_WVCExpansionVectorEqualHelper@ATL@@@ATL@@QBAAAPA_WH@Z| PROC ; ATL::CSimpleMap<wchar_t *,wchar_t *,ATL::CExpansionVectorEqualHelper>::GetValueAt
; File c:\program files (x86)\microsoft visual studio 9.0\vc\ce\atlmfc\include\atlsimpcoll.h
; Line 411
  00000		 |$LN11@GetValueAt|
  00000	e52de004	 str         lr, [sp, #-4]!
  00004		 |$M80564|
  00004	e3510000	 cmp         r1, #0
; Line 413
  00008	4a000004	 bmi         |$LN1@GetValueAt|
  0000c	e5903008	 ldr         r3, [r0, #8]
  00010	e1510003	 cmp         r1, r3
; Line 416
  00014	b5903004	 ldrlt       r3, [r0, #4]
; Line 417
  00018	b0830101	 addlt       r0, r3, r1, lsl #2
  0001c	b49df004	 ldrlt       pc, [sp], #4
  00020		 |$LN1@GetValueAt|
  00020	e3a03103	 mov         r3, #3, 2
  00024	e383008c	 orr         r0, r3, #0x8C
  00028	e3a03000	 mov         r3, #0
  0002c	e3a02000	 mov         r2, #0
  00030	e3a01001	 mov         r1, #1
  00034	eb000000	 bl          RaiseException
  00038		 |$LN12@GetValueAt|
  00038		 |$LN8@GetValueAt|
  00038		 |$M80565|

			 ENDP  ; |?GetValueAt@?$CSimpleMap@PA_WPA_WVCExpansionVectorEqualHelper@ATL@@@ATL@@QBAAAPA_WH@Z|, ATL::CSimpleMap<wchar_t *,wchar_t *,ATL::CExpansionVectorEqualHelper>::GetValueAt

	EXPORT	|??0?$CAutoVectorPtr@_W@ATL@@QAA@XZ|	; ATL::CAutoVectorPtr<wchar_t>::CAutoVectorPtr<wchar_t>
; File c:\program files (x86)\microsoft visual studio 9.0\vc\ce\atlmfc\include\atlbase.h

  00000			 AREA	 |.pdata|, PDATA
|$T80578| DCD	|$LN5@CAutoVecto|
	DCD	0x40000300
; Function compile flags: /Ogspy

  00000			 AREA	 |.text|, CODE, ARM

  00000		 |??0?$CAutoVectorPtr@_W@ATL@@QAA@XZ| PROC ; ATL::CAutoVectorPtr<wchar_t>::CAutoVectorPtr<wchar_t>
; Line 638
  00000		 |$LN5@CAutoVecto|
  00000		 |$M80575|
  00000	e3a03000	 mov         r3, #0
  00004	e5803000	 str         r3, [r0]
; Line 639
  00008	e1a0f00e	 mov         pc, lr
  0000c		 |$M80576|

			 ENDP  ; |??0?$CAutoVectorPtr@_W@ATL@@QAA@XZ|, ATL::CAutoVectorPtr<wchar_t>::CAutoVectorPtr<wchar_t>

	EXPORT	|?Attach@?$CAutoVectorPtr@_W@ATL@@QAAXPA_W@Z| ; ATL::CAutoVectorPtr<wchar_t>::Attach

  00000			 AREA	 |.pdata|, PDATA
|$T80587| DCD	|$LN8@Attach@2|
	DCD	0x40000200
; Function compile flags: /Ogspy

  00000			 AREA	 |.text|, CODE, ARM

  00000		 |?Attach@?$CAutoVectorPtr@_W@ATL@@QAAXPA_W@Z| PROC ; ATL::CAutoVectorPtr<wchar_t>::Attach
; Line 718
  00000		 |$LN8@Attach@2|
  00000		 |$M80584|
; Line 720
  00000	e5801000	 str         r1, [r0]
; Line 721
  00004	e1a0f00e	 mov         pc, lr
  00008		 |$M80585|

			 ENDP  ; |?Attach@?$CAutoVectorPtr@_W@ATL@@QAAXPA_W@Z|, ATL::CAutoVectorPtr<wchar_t>::Attach

	EXPORT	|?Detach@?$CAutoVectorPtr@_W@ATL@@QAAPA_WXZ| ; ATL::CAutoVectorPtr<wchar_t>::Detach

  00000			 AREA	 |.pdata|, PDATA
|$T80598| DCD	|$LN5@Detach@3|
	DCD	0x40000500
; Function compile flags: /Ogspy

  00000			 AREA	 |.text|, CODE, ARM

  00000		 |?Detach@?$CAutoVectorPtr@_W@ATL@@QAAPA_WXZ| PROC ; ATL::CAutoVectorPtr<wchar_t>::Detach
; Line 724
  00000		 |$LN5@Detach@3|
  00000		 |$M80595|
  00000	e1a03000	 mov         r3, r0
; Line 728
  00004	e5930000	 ldr         r0, [r3]
  00008	e3a02000	 mov         r2, #0
  0000c	e5832000	 str         r2, [r3]
; Line 731
  00010	e1a0f00e	 mov         pc, lr
  00014		 |$M80596|

			 ENDP  ; |?Detach@?$CAutoVectorPtr@_W@ATL@@QAAPA_WXZ|, ATL::CAutoVectorPtr<wchar_t>::Detach

	EXPORT	|??0?$CTempBuffer@_W$0EAA@VCCRTAllocator@ATL@@@ATL@@QAA@XZ| ; ATL::CTempBuffer<wchar_t,1024,ATL::CCRTAllocator>::CTempBuffer<wchar_t,1024,ATL::CCRTAllocator>
; File c:\program files (x86)\microsoft visual studio 9.0\vc\ce\atlmfc\include\atlalloc.h

  00000			 AREA	 |.pdata|, PDATA
|$T80608| DCD	|$LN5@CTempBuffe|
	DCD	0x40000300
; Function compile flags: /Ogspy

  00000			 AREA	 |.text|, CODE, ARM

  00000		 |??0?$CTempBuffer@_W$0EAA@VCCRTAllocator@ATL@@@ATL@@QAA@XZ| PROC ; ATL::CTempBuffer<wchar_t,1024,ATL::CCRTAllocator>::CTempBuffer<wchar_t,1024,ATL::CCRTAllocator>
; Line 457
  00000		 |$LN5@CTempBuffe|
  00000		 |$M80605|
  00000	e3a03000	 mov         r3, #0
  00004	e5803000	 str         r3, [r0]
; Line 458
  00008	e1a0f00e	 mov         pc, lr
  0000c		 |$M80606|

			 ENDP  ; |??0?$CTempBuffer@_W$0EAA@VCCRTAllocator@ATL@@@ATL@@QAA@XZ|, ATL::CTempBuffer<wchar_t,1024,ATL::CCRTAllocator>::CTempBuffer<wchar_t,1024,ATL::CCRTAllocator>

	EXPORT	|??B?$CTempBuffer@_W$0EAA@VCCRTAllocator@ATL@@@ATL@@QBAPA_WXZ| ; ATL::CTempBuffer<wchar_t,1024,ATL::CCRTAllocator>::operator wchar_t *

  00000			 AREA	 |.pdata|, PDATA
|$T80618| DCD	|$LN5@operator@4|
	DCD	0x40000200
; Function compile flags: /Ogspy

  00000			 AREA	 |.text|, CODE, ARM

  00000		 |??B?$CTempBuffer@_W$0EAA@VCCRTAllocator@ATL@@@ATL@@QBAPA_WXZ| PROC ; ATL::CTempBuffer<wchar_t,1024,ATL::CCRTAllocator>::operator wchar_t *
; Line 474
  00000		 |$LN5@operator@4|
  00000		 |$M80615|
; Line 475
  00000	e5900000	 ldr         r0, [r0]
; Line 476
  00004	e1a0f00e	 mov         pc, lr
  00008		 |$M80616|

			 ENDP  ; |??B?$CTempBuffer@_W$0EAA@VCCRTAllocator@ATL@@@ATL@@QBAPA_WXZ|, ATL::CTempBuffer<wchar_t,1024,ATL::CCRTAllocator>::operator wchar_t *

	EXPORT	|??0?$CTempBuffer@_W$0BAA@VCCRTAllocator@ATL@@@ATL@@QAA@XZ| ; ATL::CTempBuffer<wchar_t,256,ATL::CCRTAllocator>::CTempBuffer<wchar_t,256,ATL::CCRTAllocator>

  00000			 AREA	 |.pdata|, PDATA
|$T80628| DCD	|$LN5@CTempBuffe@2|
	DCD	0x40000300
; Function compile flags: /Ogspy

  00000			 AREA	 |.text|, CODE, ARM

  00000		 |??0?$CTempBuffer@_W$0BAA@VCCRTAllocator@ATL@@@ATL@@QAA@XZ| PROC ; ATL::CTempBuffer<wchar_t,256,ATL::CCRTAllocator>::CTempBuffer<wchar_t,256,ATL::CCRTAllocator>
; Line 457
  00000		 |$LN5@CTempBuffe@2|
  00000		 |$M80625|
  00000	e3a03000	 mov         r3, #0
  00004	e5803000	 str         r3, [r0]
; Line 458
  00008	e1a0f00e	 mov         pc, lr
  0000c		 |$M80626|

			 ENDP  ; |??0?$CTempBuffer@_W$0BAA@VCCRTAllocator@ATL@@@ATL@@QAA@XZ|, ATL::CTempBuffer<wchar_t,256,ATL::CCRTAllocator>::CTempBuffer<wchar_t,256,ATL::CCRTAllocator>

	EXPORT	|??B?$CTempBuffer@_W$0BAA@VCCRTAllocator@ATL@@@ATL@@QBAPA_WXZ| ; ATL::CTempBuffer<wchar_t,256,ATL::CCRTAllocator>::operator wchar_t *

  00000			 AREA	 |.pdata|, PDATA
|$T80638| DCD	|$LN5@operator@5|
	DCD	0x40000200
; Function compile flags: /Ogspy

  00000			 AREA	 |.text|, CODE, ARM

  00000		 |??B?$CTempBuffer@_W$0BAA@VCCRTAllocator@ATL@@@ATL@@QBAPA_WXZ| PROC ; ATL::CTempBuffer<wchar_t,256,ATL::CCRTAllocator>::operator wchar_t *
; Line 474
  00000		 |$LN5@operator@5|
  00000		 |$M80635|
; Line 475
  00000	e5900000	 ldr         r0, [r0]
; Line 476
  00004	e1a0f00e	 mov         pc, lr
  00008		 |$M80636|

			 ENDP  ; |??B?$CTempBuffer@_W$0BAA@VCCRTAllocator@ATL@@@ATL@@QBAPA_WXZ|, ATL::CTempBuffer<wchar_t,256,ATL::CCRTAllocator>::operator wchar_t *

	EXPORT	|??0?$CTempBuffer@E$0BAA@VCCRTAllocator@ATL@@@ATL@@QAA@XZ| ; ATL::CTempBuffer<unsigned char,256,ATL::CCRTAllocator>::CTempBuffer<unsigned char,256,ATL::CCRTAllocator>

  00000			 AREA	 |.pdata|, PDATA
|$T80648| DCD	|$LN5@CTempBuffe@3|
	DCD	0x40000300
; Function compile flags: /Ogspy

  00000			 AREA	 |.text|, CODE, ARM

  00000		 |??0?$CTempBuffer@E$0BAA@VCCRTAllocator@ATL@@@ATL@@QAA@XZ| PROC ; ATL::CTempBuffer<unsigned char,256,ATL::CCRTAllocator>::CTempBuffer<unsigned char,256,ATL::CCRTAllocator>
; Line 457
  00000		 |$LN5@CTempBuffe@3|
  00000		 |$M80645|
  00000	e3a03000	 mov         r3, #0
  00004	e5803000	 str         r3, [r0]
; Line 458
  00008	e1a0f00e	 mov         pc, lr
  0000c		 |$M80646|

			 ENDP  ; |??0?$CTempBuffer@E$0BAA@VCCRTAllocator@ATL@@@ATL@@QAA@XZ|, ATL::CTempBuffer<unsigned char,256,ATL::CCRTAllocator>::CTempBuffer<unsigned char,256,ATL::CCRTAllocator>

	EXPORT	|??B?$CTempBuffer@E$0BAA@VCCRTAllocator@ATL@@@ATL@@QBAPAEXZ| ; ATL::CTempBuffer<unsigned char,256,ATL::CCRTAllocator>::operator unsigned char *

  00000			 AREA	 |.pdata|, PDATA
|$T80658| DCD	|$LN5@operator@6|
	DCD	0x40000200
; Function compile flags: /Ogspy

  00000			 AREA	 |.text|, CODE, ARM

  00000		 |??B?$CTempBuffer@E$0BAA@VCCRTAllocator@ATL@@@ATL@@QBAPAEXZ| PROC ; ATL::CTempBuffer<unsigned char,256,ATL::CCRTAllocator>::operator unsigned char *
; Line 474
  00000		 |$LN5@operator@6|
  00000		 |$M80655|
; Line 475
  00000	e5900000	 ldr         r0, [r0]
; Line 476
  00004	e1a0f00e	 mov         pc, lr
  00008		 |$M80656|

			 ENDP  ; |??B?$CTempBuffer@E$0BAA@VCCRTAllocator@ATL@@@ATL@@QBAPAEXZ|, ATL::CTempBuffer<unsigned char,256,ATL::CCRTAllocator>::operator unsigned char *

	EXPORT	|??1?$CComObjectRootEx@VCComMultiThreadModel@ATL@@@ATL@@QAA@XZ| ; ATL::CComObjectRootEx<ATL::CComMultiThreadModel>::~CComObjectRootEx<ATL::CComMultiThreadModel>
; File c:\program files (x86)\microsoft visual studio 9.0\vc\ce\atlmfc\include\atlcom.h

  00000			 AREA	 |.pdata|, PDATA
|$T80696| DCD	|$LN17@CComObject@3|
	DCD	0x40000801
; Function compile flags: /Ogspy

  00000			 AREA	 |.text|, CODE, ARM

  00000		 |??1?$CComObjectRootEx@VCComMultiThreadModel@ATL@@@ATL@@QAA@XZ| PROC ; ATL::CComObjectRootEx<ATL::CComMultiThreadModel>::~CComObjectRootEx<ATL::CComMultiThreadModel>
; Line 2470
  00000		 |$LN17@CComObject@3|
  00000	e52de004	 str         lr, [sp, #-4]!
  00004		 |$M80693|
  00004	e5d03018	 ldrb        r3, [r0, #0x18]
  00008	e3530000	 cmp         r3, #0
  0000c	13a03000	 movne       r3, #0
  00010	15c03018	 strneb      r3, [r0, #0x18]
  00014	12800004	 addne       r0, r0, #4
  00018	1b000000	 blne        DeleteCriticalSection
  0001c	e49df004	 ldr         pc, [sp], #4
  00020		 |$M80694|

			 ENDP  ; |??1?$CComObjectRootEx@VCComMultiThreadModel@ATL@@@ATL@@QAA@XZ|, ATL::CComObjectRootEx<ATL::CComMultiThreadModel>::~CComObjectRootEx<ATL::CComMultiThreadModel>

	EXPORT	|?FindKey@?$CSimpleMap@PA_WPA_WVCExpansionVectorEqualHelper@ATL@@@ATL@@QBAHABQA_W@Z| ; ATL::CSimpleMap<wchar_t *,wchar_t *,ATL::CExpansionVectorEqualHelper>::FindKey
; File c:\program files (x86)\microsoft visual studio 9.0\vc\ce\atlmfc\include\statreg.h

  00000			 AREA	 |.pdata|, PDATA
|$T80721| DCD	|$LN15@FindKey|
	DCD	0x40001701
; Function compile flags: /Ogspy

  00000			 AREA	 |.text|, CODE, ARM

  00000		 |?FindKey@?$CSimpleMap@PA_WPA_WVCExpansionVectorEqualHelper@ATL@@@ATL@@QBAHABQA_W@Z| PROC ; ATL::CSimpleMap<wchar_t *,wchar_t *,ATL::CExpansionVectorEqualHelper>::FindKey
; File c:\program files (x86)\microsoft visual studio 9.0\vc\ce\atlmfc\include\atlsimpcoll.h
; Line 420
  00000		 |$LN15@FindKey|
  00000	e92d4070	 stmdb       sp!, {r4 - r6, lr}
  00004		 |$M80718|
  00004	e1a06001	 mov         r6, r1
  00008	e1a05000	 mov         r5, r0
; Line 421
  0000c	e5953008	 ldr         r3, [r5, #8]
  00010	e3a04000	 mov         r4, #0
  00014	e3530000	 cmp         r3, #0
  00018	da00000c	 ble         |$LN2@FindKey|
  0001c		 |$LL4@FindKey|
; Line 423
  0001c	e5953000	 ldr         r3, [r5]
  00020	e5961000	 ldr         r1, [r6]
  00024	e7930104	 ldr         r0, [r3, +r4, lsl #2]
  00028	eb000000	 bl          lstrcmpiW
  0002c	e3500000	 cmp         r0, #0
  00030	03a03001	 moveq       r3, #1
  00034	13a03000	 movne       r3, #0
  00038	e3530000	 cmp         r3, #0
  0003c	1a000004	 bne         |$LN5@FindKey|
  00040	e5953008	 ldr         r3, [r5, #8]
  00044	e2844001	 add         r4, r4, #1
  00048	e1540003	 cmp         r4, r3
  0004c	bafffff2	 blt         |$LL4@FindKey|
  00050		 |$LN2@FindKey|
; Line 426
  00050	e3e04000	 mvn         r4, #0
  00054		 |$LN5@FindKey|
; Line 427
  00054	e1a00004	 mov         r0, r4
  00058	e8bd8070	 ldmia       sp!, {r4 - r6, pc}
  0005c		 |$M80719|

			 ENDP  ; |?FindKey@?$CSimpleMap@PA_WPA_WVCExpansionVectorEqualHelper@ATL@@@ATL@@QBAHABQA_W@Z|, ATL::CSimpleMap<wchar_t *,wchar_t *,ATL::CExpansionVectorEqualHelper>::FindKey

	EXPORT	|?Free@?$CAutoVectorPtr@_W@ATL@@QAAXXZ|	; ATL::CAutoVectorPtr<wchar_t>::Free
	IMPORT	|??3@YAXPAX@Z|				; operator delete
; File c:\program files (x86)\microsoft visual studio 9.0\vc\ce\atlmfc\include\atlbase.h

  00000			 AREA	 |.pdata|, PDATA
|$T80730| DCD	|$LN5@Free@2|
	DCD	0x40000701
; Function compile flags: /Ogspy

  00000			 AREA	 |.text|, CODE, ARM

  00000		 |?Free@?$CAutoVectorPtr@_W@ATL@@QAAXXZ| PROC ; ATL::CAutoVectorPtr<wchar_t>::Free
; Line 734
  00000		 |$LN5@Free@2|
  00000	e92d4010	 stmdb       sp!, {r4, lr}
  00004		 |$M80727|
  00004	e1a04000	 mov         r4, r0
; Line 735
  00008	e5940000	 ldr         r0, [r4]
  0000c	eb000000	 bl          |??3@YAXPAX@Z|
; Line 736
  00010	e3a03000	 mov         r3, #0
  00014	e5843000	 str         r3, [r4]
; Line 737
  00018	e8bd8010	 ldmia       sp!, {r4, pc}
  0001c		 |$M80728|

			 ENDP  ; |?Free@?$CAutoVectorPtr@_W@ATL@@QAAXXZ|, ATL::CAutoVectorPtr<wchar_t>::Free

	EXPORT	|?FreeHeap@?$CTempBuffer@_W$0EAA@VCCRTAllocator@ATL@@@ATL@@AAAXXZ| ; ATL::CTempBuffer<wchar_t,1024,ATL::CCRTAllocator>::FreeHeap
; File c:\program files (x86)\microsoft visual studio 9.0\vc\ce\atlmfc\include\atlalloc.h

  00000			 AREA	 |.pdata|, PDATA
|$T80742| DCD	|$LN7@FreeHeap|
	DCD	0x40000200
; Function compile flags: /Ogspy

  00000			 AREA	 |.text|, CODE, ARM

  00000		 |?FreeHeap@?$CTempBuffer@_W$0EAA@VCCRTAllocator@ATL@@@ATL@@AAAXXZ| PROC ; ATL::CTempBuffer<wchar_t,1024,ATL::CCRTAllocator>::FreeHeap
; Line 559
  00000		 |$LN7@FreeHeap|
  00000		 |$M80739|
; Line 560
  00000	e5900000	 ldr         r0, [r0]
  00004	ea000000	 b           free
  00008		 |$M80740|

			 ENDP  ; |?FreeHeap@?$CTempBuffer@_W$0EAA@VCCRTAllocator@ATL@@@ATL@@AAAXXZ|, ATL::CTempBuffer<wchar_t,1024,ATL::CCRTAllocator>::FreeHeap

	EXPORT	|?FreeHeap@?$CTempBuffer@_W$0BAA@VCCRTAllocator@ATL@@@ATL@@AAAXXZ| ; ATL::CTempBuffer<wchar_t,256,ATL::CCRTAllocator>::FreeHeap

  00000			 AREA	 |.pdata|, PDATA
|$T80754| DCD	|$LN7@FreeHeap@2|
	DCD	0x40000200
; Function compile flags: /Ogspy

  00000			 AREA	 |.text|, CODE, ARM

  00000		 |?FreeHeap@?$CTempBuffer@_W$0BAA@VCCRTAllocator@ATL@@@ATL@@AAAXXZ| PROC ; ATL::CTempBuffer<wchar_t,256,ATL::CCRTAllocator>::FreeHeap
; Line 559
  00000		 |$LN7@FreeHeap@2|
  00000		 |$M80751|
; Line 560
  00000	e5900000	 ldr         r0, [r0]
  00004	ea000000	 b           free
  00008		 |$M80752|

			 ENDP  ; |?FreeHeap@?$CTempBuffer@_W$0BAA@VCCRTAllocator@ATL@@@ATL@@AAAXXZ|, ATL::CTempBuffer<wchar_t,256,ATL::CCRTAllocator>::FreeHeap

	EXPORT	|?FreeHeap@?$CTempBuffer@E$0BAA@VCCRTAllocator@ATL@@@ATL@@AAAXXZ| ; ATL::CTempBuffer<unsigned char,256,ATL::CCRTAllocator>::FreeHeap

  00000			 AREA	 |.pdata|, PDATA
|$T80766| DCD	|$LN7@FreeHeap@3|
	DCD	0x40000200
; Function compile flags: /Ogspy

  00000			 AREA	 |.text|, CODE, ARM

  00000		 |?FreeHeap@?$CTempBuffer@E$0BAA@VCCRTAllocator@ATL@@@ATL@@AAAXXZ| PROC ; ATL::CTempBuffer<unsigned char,256,ATL::CCRTAllocator>::FreeHeap
; Line 559
  00000		 |$LN7@FreeHeap@3|
  00000		 |$M80763|
; Line 560
  00000	e5900000	 ldr         r0, [r0]
  00004	ea000000	 b           free
  00008		 |$M80764|

			 ENDP  ; |?FreeHeap@?$CTempBuffer@E$0BAA@VCCRTAllocator@ATL@@@ATL@@AAAXXZ|, ATL::CTempBuffer<unsigned char,256,ATL::CCRTAllocator>::FreeHeap

	EXPORT	|?StringLengthN@?$CSimpleStringT@_W$0A@@ATL@@SAHPB_WI@Z| ; ATL::CSimpleStringT<wchar_t,0>::StringLengthN
	IMPORT	|wcsnlen|
; File c:\program files (x86)\microsoft visual studio 9.0\vc\ce\atlmfc\include\atlsimpstr.h

  00000			 AREA	 |.pdata|, PDATA
|$T80777| DCD	|$LN6@StringLeng@2|
	DCD	0x40000601
; Function compile flags: /Ogspy

  00000			 AREA	 |.text|, CODE, ARM

  00000		 |?StringLengthN@?$CSimpleStringT@_W$0A@@ATL@@SAHPB_WI@Z| PROC ; ATL::CSimpleStringT<wchar_t,0>::StringLengthN
; Line 746
  00000		 |$LN6@StringLeng@2|
  00000	e52de004	 str         lr, [sp, #-4]!
  00004		 |$M80774|
  00004	e3500000	 cmp         r0, #0
; Line 749
  00008	03a00000	 moveq       r0, #0
; Line 752
  0000c	049df004	 ldreq       pc, [sp], #4
  00010	e49de004	 ldr         lr, [sp], #4
; Line 751
  00014	ea000000	 b           wcsnlen
  00018		 |$M80775|

			 ENDP  ; |?StringLengthN@?$CSimpleStringT@_W$0A@@ATL@@SAHPB_WI@Z|, ATL::CSimpleStringT<wchar_t,0>::StringLengthN

	EXPORT	|?Attach@?$CSimpleStringT@_W$0A@@ATL@@AAAXPAUCStringData@2@@Z| ; ATL::CSimpleStringT<wchar_t,0>::Attach

  00000			 AREA	 |.pdata|, PDATA
|$T80789| DCD	|$LN7@Attach@3|
	DCD	0x40000300
; Function compile flags: /Ogspy

  00000			 AREA	 |.text|, CODE, ARM

  00000		 |?Attach@?$CSimpleStringT@_W$0A@@ATL@@AAAXPAUCStringData@2@@Z| PROC ; ATL::CSimpleStringT<wchar_t,0>::Attach
; Line 771
  00000		 |$LN7@Attach@3|
  00000		 |$M80786|
; Line 772
  00000	e2813010	 add         r3, r1, #0x10
  00004	e5803000	 str         r3, [r0]
; Line 773
  00008	e1a0f00e	 mov         pc, lr
  0000c		 |$M80787|

			 ENDP  ; |?Attach@?$CSimpleStringT@_W$0A@@ATL@@AAAXPAUCStringData@2@@Z|, ATL::CSimpleStringT<wchar_t,0>::Attach

	EXPORT	|?GetData@?$CSimpleStringT@_W$0A@@ATL@@ABAPAUCStringData@2@XZ| ; ATL::CSimpleStringT<wchar_t,0>::GetData

  00000			 AREA	 |.pdata|, PDATA
|$T80799| DCD	|$LN5@GetData|
	DCD	0x40000300
; Function compile flags: /Ogspy

  00000			 AREA	 |.text|, CODE, ARM

  00000		 |?GetData@?$CSimpleStringT@_W$0A@@ATL@@ABAPAUCStringData@2@XZ| PROC ; ATL::CSimpleStringT<wchar_t,0>::GetData
; Line 791
  00000		 |$LN5@GetData|
  00000		 |$M80796|
; Line 792
  00000	e5903000	 ldr         r3, [r0]
  00004	e2430010	 sub         r0, r3, #0x10
; Line 793
  00008	e1a0f00e	 mov         pc, lr
  0000c		 |$M80797|

			 ENDP  ; |?GetData@?$CSimpleStringT@_W$0A@@ATL@@ABAPAUCStringData@2@XZ|, ATL::CSimpleStringT<wchar_t,0>::GetData

	EXPORT	|?SetLength@?$CSimpleStringT@_W$0A@@ATL@@AAAXH@Z| ; ATL::CSimpleStringT<wchar_t,0>::SetLength

  00000			 AREA	 |.pdata|, PDATA
|$T80816| DCD	|$LN13@SetLength|
	DCD	0x40001001
; Function compile flags: /Ogspy

  00000			 AREA	 |.text|, CODE, ARM

  00000		 |?SetLength@?$CSimpleStringT@_W$0A@@ATL@@AAAXH@Z| PROC ; ATL::CSimpleStringT<wchar_t,0>::SetLength
; Line 855
  00000		 |$LN13@SetLength|
  00000	e52de004	 str         lr, [sp, #-4]!
  00004		 |$M80813|
  00004	e3510000	 cmp         r1, #0
; Line 859
  00008	4a000009	 bmi         |$LN1@SetLength|
  0000c	e5903000	 ldr         r3, [r0]
  00010	e2432010	 sub         r2, r3, #0x10
  00014	e5923008	 ldr         r3, [r2, #8]
  00018	e1510003	 cmp         r1, r3
; Line 862
  0001c	d5821004	 strle       r1, [r2, #4]
; Line 863
  00020	d5903000	 ldrle       r3, [r0]
  00024	d3a02000	 movle       r2, #0
  00028	d0833081	 addle       r3, r3, r1, lsl #1
  0002c	d1c320b0	 strleh      r2, [r3]
; Line 864
  00030	d49df004	 ldrle       pc, [sp], #4
  00034		 |$LN1@SetLength|
; Line 860
  00034	e59f0000	 ldr         r0, [pc]		; -2147024809 (0x80070057)
  00038	eb000000	 bl          |?AtlThrowImpl@ATL@@YAXJ@Z|
  0003c		 |$LN15@SetLength|
  0003c		 |$LN16@SetLength|
  0003c	80070057	 DCD         0x80070057
  00040		 |$LN14@SetLength|
  00040		 |$LN10@SetLength|
  00040		 |$M80814|

			 ENDP  ; |?SetLength@?$CSimpleStringT@_W$0A@@ATL@@AAAXH@Z|, ATL::CSimpleStringT<wchar_t,0>::SetLength

	EXPORT	|?AllocateHeap@?$CTempBuffer@_W$0EAA@VCCRTAllocator@ATL@@@ATL@@AAAXI@Z| ; ATL::CTempBuffer<wchar_t,1024,ATL::CCRTAllocator>::AllocateHeap
; File c:\program files (x86)\microsoft visual studio 9.0\vc\ce\atlmfc\include\atlalloc.h

  00000			 AREA	 |.pdata|, PDATA
|$T80834| DCD	|$LN10@AllocateHe|
	DCD	0x40000b01
; Function compile flags: /Ogspy

  00000			 AREA	 |.text|, CODE, ARM

  00000		 |?AllocateHeap@?$CTempBuffer@_W$0EAA@VCCRTAllocator@ATL@@@ATL@@AAAXI@Z| PROC ; ATL::CTempBuffer<wchar_t,1024,ATL::CCRTAllocator>::AllocateHeap
; Line 539
  00000		 |$LN10@AllocateHe|
  00000	e92d4010	 stmdb       sp!, {r4, lr}
  00004		 |$M80831|
  00004	e1a04000	 mov         r4, r0
; Line 540
  00008	e1a00001	 mov         r0, r1
  0000c	eb000000	 bl          malloc
  00010	e3500000	 cmp         r0, #0
; Line 541
  00014	1a000002	 bne         |$LN1@AllocateHe|
  00018	e3a0313a	 mov         r3, #0x3A, 2
; Line 543
  0001c	e3830807	 orr         r0, r3, #7, 16	; 458752 (0x70000)
  00020	eb000000	 bl          |?AtlThrowImpl@ATL@@YAXJ@Z|
  00024		 |$LN11@AllocateHe|
  00024		 |$LN1@AllocateHe|
; Line 545
  00024	e5840000	 str         r0, [r4]
; Line 546
  00028	e8bd8010	 ldmia       sp!, {r4, pc}
  0002c		 |$LN7@AllocateHe|
  0002c		 |$M80832|

			 ENDP  ; |?AllocateHeap@?$CTempBuffer@_W$0EAA@VCCRTAllocator@ATL@@@ATL@@AAAXI@Z|, ATL::CTempBuffer<wchar_t,1024,ATL::CCRTAllocator>::AllocateHeap

	EXPORT	|?AllocateHeap@?$CTempBuffer@_W$0BAA@VCCRTAllocator@ATL@@@ATL@@AAAXI@Z| ; ATL::CTempBuffer<wchar_t,256,ATL::CCRTAllocator>::AllocateHeap

  00000			 AREA	 |.pdata|, PDATA
|$T80850| DCD	|$LN10@AllocateHe@2|
	DCD	0x40000b01
; Function compile flags: /Ogspy

  00000			 AREA	 |.text|, CODE, ARM

  00000		 |?AllocateHeap@?$CTempBuffer@_W$0BAA@VCCRTAllocator@ATL@@@ATL@@AAAXI@Z| PROC ; ATL::CTempBuffer<wchar_t,256,ATL::CCRTAllocator>::AllocateHeap
; Line 539
  00000		 |$LN10@AllocateHe@2|
  00000	e92d4010	 stmdb       sp!, {r4, lr}
  00004		 |$M80847|
  00004	e1a04000	 mov         r4, r0
; Line 540
  00008	e1a00001	 mov         r0, r1
  0000c	eb000000	 bl          malloc
  00010	e3500000	 cmp         r0, #0
; Line 541
  00014	1a000002	 bne         |$LN1@AllocateHe@2|
  00018	e3a0313a	 mov         r3, #0x3A, 2
; Line 543
  0001c	e3830807	 orr         r0, r3, #7, 16	; 458752 (0x70000)
  00020	eb000000	 bl          |?AtlThrowImpl@ATL@@YAXJ@Z|
  00024		 |$LN11@AllocateHe@2|
  00024		 |$LN1@AllocateHe@2|
; Line 545
  00024	e5840000	 str         r0, [r4]
; Line 546
  00028	e8bd8010	 ldmia       sp!, {r4, pc}
  0002c		 |$LN7@AllocateHe@2|
  0002c		 |$M80848|

			 ENDP  ; |?AllocateHeap@?$CTempBuffer@_W$0BAA@VCCRTAllocator@ATL@@@ATL@@AAAXI@Z|, ATL::CTempBuffer<wchar_t,256,ATL::CCRTAllocator>::AllocateHeap

	EXPORT	|?AllocateHeap@?$CTempBuffer@E$0BAA@VCCRTAllocator@ATL@@@ATL@@AAAXI@Z| ; ATL::CTempBuffer<unsigned char,256,ATL::CCRTAllocator>::AllocateHeap

  00000			 AREA	 |.pdata|, PDATA
|$T80866| DCD	|$LN10@AllocateHe@3|
	DCD	0x40000b01
; Function compile flags: /Ogspy

  00000			 AREA	 |.text|, CODE, ARM

  00000		 |?AllocateHeap@?$CTempBuffer@E$0BAA@VCCRTAllocator@ATL@@@ATL@@AAAXI@Z| PROC ; ATL::CTempBuffer<unsigned char,256,ATL::CCRTAllocator>::AllocateHeap
; Line 539
  00000		 |$LN10@AllocateHe@3|
  00000	e92d4010	 stmdb       sp!, {r4, lr}
  00004		 |$M80863|
  00004	e1a04000	 mov         r4, r0
; Line 540
  00008	e1a00001	 mov         r0, r1
  0000c	eb000000	 bl          malloc
  00010	e3500000	 cmp         r0, #0
; Line 541
  00014	1a000002	 bne         |$LN1@AllocateHe@3|
  00018	e3a0313a	 mov         r3, #0x3A, 2
; Line 543
  0001c	e3830807	 orr         r0, r3, #7, 16	; 458752 (0x70000)
  00020	eb000000	 bl          |?AtlThrowImpl@ATL@@YAXJ@Z|
  00024		 |$LN11@AllocateHe@3|
  00024		 |$LN1@AllocateHe@3|
; Line 545
  00024	e5840000	 str         r0, [r4]
; Line 546
  00028	e8bd8010	 ldmia       sp!, {r4, pc}
  0002c		 |$LN7@AllocateHe@3|
  0002c		 |$M80864|

			 ENDP  ; |?AllocateHeap@?$CTempBuffer@E$0BAA@VCCRTAllocator@ATL@@@ATL@@AAAXI@Z|, ATL::CTempBuffer<unsigned char,256,ATL::CCRTAllocator>::AllocateHeap

	EXPORT	|??0?$Wrapper@PA_W@?$CSimpleMap@PA_WPA_WVCExpansionVectorEqualHelper@ATL@@@ATL@@QAA@ABQA_W@Z| ; ATL::CSimpleMap<wchar_t *,wchar_t *,ATL::CExpansionVectorEqualHelper>::Wrapper<wchar_t *>::Wrapper<wchar_t *>
; File c:\program files (x86)\microsoft visual studio 9.0\vc\ce\atlmfc\include\atlsimpcoll.h

  00000			 AREA	 |.pdata|, PDATA
|$T80878| DCD	|$LN5@Wrapper|
	DCD	0x40000400
; Function compile flags: /Ogspy

  00000			 AREA	 |.text|, CODE, ARM

  00000		 |??0?$Wrapper@PA_W@?$CSimpleMap@PA_WPA_WVCExpansionVectorEqualHelper@ATL@@@ATL@@QAA@ABQA_W@Z| PROC ; ATL::CSimpleMap<wchar_t *,wchar_t *,ATL::CExpansionVectorEqualHelper>::Wrapper<wchar_t *>::Wrapper<wchar_t *>
; Line 454
  00000		 |$LN5@Wrapper|
  00000		 |$M80875|
  00000	e1a02000	 mov         r2, r0
  00004	e5913000	 ldr         r3, [r1]
; Line 455
  00008	e5823000	 str         r3, [r2]
  0000c	e1a0f00e	 mov         pc, lr
  00010		 |$M80876|

			 ENDP  ; |??0?$Wrapper@PA_W@?$CSimpleMap@PA_WPA_WVCExpansionVectorEqualHelper@ATL@@@ATL@@QAA@ABQA_W@Z|, ATL::CSimpleMap<wchar_t *,wchar_t *,ATL::CExpansionVectorEqualHelper>::Wrapper<wchar_t *>::Wrapper<wchar_t *>

	EXPORT	|?CopyChars@?$CSimpleStringT@_W$0A@@ATL@@SAXPA_WIPB_WH@Z| ; ATL::CSimpleStringT<wchar_t,0>::CopyChars
; File c:\program files (x86)\microsoft visual studio 9.0\vc\ce\atlmfc\include\atlsimpstr.h

  00000			 AREA	 |.pdata|, PDATA
|$T80889| DCD	|$LN5@CopyChars|
	DCD	0x40000300
; Function compile flags: /Ogspy

  00000			 AREA	 |.text|, CODE, ARM

  00000		 |?CopyChars@?$CSimpleStringT@_W$0A@@ATL@@SAXPA_WIPB_WH@Z| PROC ; ATL::CSimpleStringT<wchar_t,0>::CopyChars
; Line 695
  00000		 |$LN5@CopyChars|
  00000		 |$M80886|
; Line 697
  00000	e1a03083	 mov         r3, r3, lsl #1
  00004	e1a01081	 mov         r1, r1, lsl #1
  00008	ea000000	 b           memcpy_s
  0000c		 |$M80887|

			 ENDP  ; |?CopyChars@?$CSimpleStringT@_W$0A@@ATL@@SAXPA_WIPB_WH@Z|, ATL::CSimpleStringT<wchar_t,0>::CopyChars

	EXPORT	|?ThrowMemoryException@?$CSimpleStringT@_W$0A@@ATL@@KAXXZ| ; ATL::CSimpleStringT<wchar_t,0>::ThrowMemoryException

  00000			 AREA	 |.pdata|, PDATA
|$T80898| DCD	|$LN7@ThrowMemor|
	DCD	0x40000401
; Function compile flags: /Ogspy

  00000			 AREA	 |.text|, CODE, ARM

  00000		 |?ThrowMemoryException@?$CSimpleStringT@_W$0A@@ATL@@KAXXZ| PROC ; ATL::CSimpleStringT<wchar_t,0>::ThrowMemoryException
; Line 764
  00000		 |$LN7@ThrowMemor|
  00000	e52de004	 str         lr, [sp, #-4]!
  00004		 |$M80895|
  00004	e3a0313a	 mov         r3, #0x3A, 2
; Line 765
  00008	e3830807	 orr         r0, r3, #7, 16	; 458752 (0x70000)
  0000c	eb000000	 bl          |?AtlThrowImpl@ATL@@YAXJ@Z|
  00010		 |$LN8@ThrowMemor|
  00010		 |$LN4@ThrowMemor|
  00010		 |$M80896|

			 ENDP  ; |?ThrowMemoryException@?$CSimpleStringT@_W$0A@@ATL@@KAXXZ|, ATL::CSimpleStringT<wchar_t,0>::ThrowMemoryException

	EXPORT	|??$AtlMultiplyThrow@I@ATL@@YAIII@Z|	; ATL::AtlMultiplyThrow<unsigned int>
; File c:\program files (x86)\microsoft visual studio 9.0\vc\ce\atlmfc\include\atlalloc.h

  00000			 AREA	 |.pdata|, PDATA
|$T80923| DCD	|$LN13@AtlMultipl@3|
	DCD	0x40000c01
; Function compile flags: /Ogspy

  00000			 AREA	 |.text|, CODE, ARM

  00000		 |??$AtlMultiplyThrow@I@ATL@@YAIII@Z| PROC ; ATL::AtlMultiplyThrow<unsigned int>
; Line 173
  00000		 |$LN13@AtlMultipl@3|
  00000	e52de004	 str         lr, [sp, #-4]!
  00004		 |$M80920|
; Line 175
  00004	e0832190	 umull       r2, r3, r0, r1
  00008	e3530000	 cmp         r3, #0
  0000c	8a000004	 bhi         |$LN7@AtlMultipl@3|
  00010	3a000001	 bcc         |$LN8@AtlMultipl@3|
  00014	e3720001	 cmn         r2, #1
  00018	8a000001	 bhi         |$LN7@AtlMultipl@3|
  0001c		 |$LN8@AtlMultipl@3|
; Line 181
  0001c	e1a00002	 mov         r0, r2
  00020	e49df004	 ldr         pc, [sp], #4
  00024		 |$LN7@AtlMultipl@3|
; Line 178
  00024	e59f0000	 ldr         r0, [pc]		; -2147024809 (0x80070057)
  00028	eb000000	 bl          |?AtlThrowImpl@ATL@@YAXJ@Z|
  0002c		 |$LN15@AtlMultipl@3|
  0002c		 |$LN16@AtlMultipl@3|
  0002c	80070057	 DCD         0x80070057
  00030		 |$LN14@AtlMultipl@3|
  00030		 |$LN10@AtlMultipl@3|
  00030		 |$M80921|

			 ENDP  ; |??$AtlMultiplyThrow@I@ATL@@YAIII@Z|, ATL::AtlMultiplyThrow<unsigned int>

	EXPORT	|??$?2PA_W@?$Wrapper@PA_W@?$CSimpleMap@PA_WPA_WVCExpansionVectorEqualHelper@ATL@@@ATL@@SAPAXIPAPA_W@Z| ; ATL::CSimpleMap<wchar_t *,wchar_t *,ATL::CExpansionVectorEqualHelper>::Wrapper<wchar_t *>::operator new<wchar_t *>
; File c:\program files (x86)\microsoft visual studio 9.0\vc\ce\atlmfc\include\atlsimpcoll.h

  00000			 AREA	 |.pdata|, PDATA
|$T80936| DCD	|$LN5@operator@7|
	DCD	0x40000200
; Function compile flags: /Ogspy

  00000			 AREA	 |.text|, CODE, ARM

  00000		 |??$?2PA_W@?$Wrapper@PA_W@?$CSimpleMap@PA_WPA_WVCExpansionVectorEqualHelper@ATL@@@ATL@@SAPAXIPAPA_W@Z| PROC ; ATL::CSimpleMap<wchar_t *,wchar_t *,ATL::CExpansionVectorEqualHelper>::Wrapper<wchar_t *>::operator new<wchar_t *>
; Line 457
  00000		 |$LN5@operator@7|
  00000		 |$M80933|
; Line 460
  00000	e1a00001	 mov         r0, r1
  00004	e1a0f00e	 mov         pc, lr
  00008		 |$M80934|

			 ENDP  ; |??$?2PA_W@?$Wrapper@PA_W@?$CSimpleMap@PA_WPA_WVCExpansionVectorEqualHelper@ATL@@@ATL@@SAPAXIPAPA_W@Z|, ATL::CSimpleMap<wchar_t *,wchar_t *,ATL::CExpansionVectorEqualHelper>::Wrapper<wchar_t *>::operator new<wchar_t *>

	EXPORT	|??$?3PA_W@?$Wrapper@PA_W@?$CSimpleMap@PA_WPA_WVCExpansionVectorEqualHelper@ATL@@@ATL@@SAXPAXPAPA_W@Z| ; ATL::CSimpleMap<wchar_t *,wchar_t *,ATL::CExpansionVectorEqualHelper>::Wrapper<wchar_t *>::operator delete<wchar_t *>

  00000			 AREA	 |.pdata|, PDATA
|$T80943| DCD	|$LN5@operator@8|
	DCD	0x40000100
; Function compile flags: /Ogspy

  00000			 AREA	 |.text|, CODE, ARM

  00000		 |??$?3PA_W@?$Wrapper@PA_W@?$CSimpleMap@PA_WPA_WVCExpansionVectorEqualHelper@ATL@@@ATL@@SAXPAXPAPA_W@Z| PROC ; ATL::CSimpleMap<wchar_t *,wchar_t *,ATL::CExpansionVectorEqualHelper>::Wrapper<wchar_t *>::operator delete<wchar_t *>
; Line 462
  00000		 |$LN5@operator@8|
  00000		 |$M80940|
; Line 464
  00000	e1a0f00e	 mov         pc, lr
  00004		 |$M80941|

			 ENDP  ; |??$?3PA_W@?$Wrapper@PA_W@?$CSimpleMap@PA_WPA_WVCExpansionVectorEqualHelper@ATL@@@ATL@@SAXPAXPAPA_W@Z|, ATL::CSimpleMap<wchar_t *,wchar_t *,ATL::CExpansionVectorEqualHelper>::Wrapper<wchar_t *>::operator delete<wchar_t *>

	EXPORT	|??0?$CComObjectRootEx@VCComMultiThreadModel@ATL@@@ATL@@QAA@XZ| ; ATL::CComObjectRootEx<ATL::CComMultiThreadModel>::CComObjectRootEx<ATL::CComMultiThreadModel>

  00000			 AREA	 |.pdata|, PDATA
|$T80974| DCD	|$LN14@CComObject@4|
	DCD	0x40000c01
; Function compile flags: /Ogspy

  00000			 AREA	 |.text|, CODE, ARM

  00000		 |??0?$CComObjectRootEx@VCComMultiThreadModel@ATL@@@ATL@@QAA@XZ| PROC ; ATL::CComObjectRootEx<ATL::CComMultiThreadModel>::CComObjectRootEx<ATL::CComMultiThreadModel>
  00000		 |$LN14@CComObject@4|
  00000	e92d4070	 stmdb       sp!, {r4 - r6, lr}
  00004		 |$M80971|
  00004	e1a05000	 mov         r5, r0
  00008	e1a04005	 mov         r4, r5
  0000c	e3a06000	 mov         r6, #0
  00010	e4846004	 str         r6, [r4], #4
  00014	e3a02014	 mov         r2, #0x14
  00018	e3a01000	 mov         r1, #0
  0001c	e1a00004	 mov         r0, r4
  00020	eb000000	 bl          memset
  00024	e5c46014	 strb        r6, [r4, #0x14]
  00028	e1a00005	 mov         r0, r5
  0002c	e8bd8070	 ldmia       sp!, {r4 - r6, pc}
  00030		 |$M80972|

			 ENDP  ; |??0?$CComObjectRootEx@VCComMultiThreadModel@ATL@@@ATL@@QAA@XZ|, ATL::CComObjectRootEx<ATL::CComMultiThreadModel>::CComObjectRootEx<ATL::CComMultiThreadModel>

	EXPORT	|??0IMangoClass@@QAA@XZ|		; IMangoClass::IMangoClass

  00000			 AREA	 |.pdata|, PDATA
|$T80987| DCD	|$LN7@IMangoClas|
	DCD	0x40000100
; Function compile flags: /Ogspy

  00000			 AREA	 |.text|, CODE, ARM

  00000		 |??0IMangoClass@@QAA@XZ| PROC		; IMangoClass::IMangoClass
  00000		 |$LN7@IMangoClas|
  00000		 |$M80984|
  00000	e1a0f00e	 mov         pc, lr
  00004		 |$M80985|

			 ENDP  ; |??0IMangoClass@@QAA@XZ|, IMangoClass::IMangoClass

	EXPORT	|__$ArrayPad$| [ DATA ]
	EXPORT	|?Format@?$ChTraitsOS@_W@ATL@@SAHPA_WIPB_WPAD@Z| ; ATL::ChTraitsOS<wchar_t>::Format
; File c:\program files (x86)\microsoft visual studio 9.0\vc\ce\atlmfc\include\atlchecked.h

  00000			 AREA	 |.pdata|, PDATA
|$T81026| DCD	|$LN30@Format|
	DCD	0xc0002e03

  00000			 AREA	 |.xdata|, DATA
|$T81022| DCD	0xffffffec
; Function compile flags: /Ogspy

  00000			 AREA	 |.text|, CODE, ARM

  00000	00000000	 DCD         |__GSHandlerCheck|
  00004	00000000	 DCD         |$T81022|

  00008		 |?Format@?$ChTraitsOS@_W@ATL@@SAHPA_WIPB_WPAD@Z| PROC ; ATL::ChTraitsOS<wchar_t>::Format
; File c:\program files (x86)\microsoft visual studio 9.0\vc\ce\atlmfc\include\atlstr.h
; Line 951
  00008		 |$LN30@Format|
  00008	e92d4070	 stmdb       sp!, {r4 - r6, lr}
  0000c	e59fc0a8	 ldr         r12, [pc, #0xA8]	; -2147024809 (0x80070057)
  00010	e08dd00c	 add         sp, sp, r12
  00014		 |$M81023|
  00014	e1a05001	 mov         r5, r1
  00018	e1a06000	 mov         r6, r0
  0001c	e59fe094	 ldr         lr, [pc, #0x94]	; -2147024809 (0x80070057)
  00020	e59ee000	 ldr         lr, [lr]
  00024	e58de808	 str         lr, [sp, #0x808]
; Line 969
  00028	e3a01b01	 mov         r1, #1, 22
  0002c	e28d0000	 add         r0, sp, #0
  00030	eb000000	 bl          _vsnwprintf
  00034	e1b04000	 movs        r4, r0
  00038	43a04b01	 movmi       r4, #1, 22
  0003c	e3a03000	 mov         r3, #0
; Line 973
  00040	e3540b01	 cmp         r4, #1, 22		; 1024 (0x400)
  00044	e28dcb02	 add         r12, sp, #2, 22	; 2048 (0x800)
  00048	e1cc30b0	 strh        r3, [r12]
  0004c	da000002	 ble         |$LN11@Format|
  00050	e3a03116	 mov         r3, #0x16, 2
  00054	e3830901	 orr         r0, r3, #1, 18	; 16384 (0x4000)
  00058	eb000000	 bl          |?AtlThrowImpl@ATL@@YAXJ@Z|
  0005c		 |$LN31@Format|
  0005c		 |$LN11@Format|
; Line 975
  0005c	e1540005	 cmp         r4, r5
  00060	3a000001	 bcc         |$LN7@Format|
  00064	e59f0048	 ldr         r0, [pc, #0x48]	; -2147024809 (0x80070057)
  00068	eb000000	 bl          |?AtlThrowImpl@ATL@@YAXJ@Z|
  0006c		 |$LN32@Format|
  0006c		 |$LN7@Format|
; Line 976
  0006c	e28d0000	 add         r0, sp, #0
  00070	eb000000	 bl          wcslen
  00074	e1500005	 cmp         r0, r5
  00078	3a000001	 bcc         |$LN3@Format|
  0007c	e59f0030	 ldr         r0, [pc, #0x30]	; -2147024809 (0x80070057)
  00080	eb000000	 bl          |?AtlThrowImpl@ATL@@YAXJ@Z|
  00084		 |$LN33@Format|
  00084		 |$LN3@Format|
; Line 980
  00084	e28d2000	 add         r2, sp, #0
  00088	e1a01005	 mov         r1, r5
  0008c	e1a00006	 mov         r0, r6
  00090	eb000000	 bl          wcscpy_s
  00094	eb000000	 bl          |?AtlCrtErrorCheck@ATL@@YAHH@Z|
; Line 982
  00098	e59d0808	 ldr         r0, [sp, #0x808]
  0009c	eb000000	 bl          __security_check_cookie
; Line 983
  000a0	e1a00004	 mov         r0, r4
  000a4	e3a0cb02	 mov         r12, #2, 22
  000a8	e38cc00c	 orr         r12, r12, #0xC
  000ac	e08dd00c	 add         sp, sp, r12
  000b0	e8bd8070	 ldmia       sp!, {r4 - r6, pc}
  000b4		 |$LN34@Format|
  000b4		 |$LN35@Format|
  000b4	80070057	 DCD         0x80070057
  000b8		 |$LN36@Format|
  000b8	00000000	 DCD         |__security_cookie|
  000bc		 |$LN37@Format|
  000bc	fffff7f4	 DCD         0xfffff7f4
  000c0		 |$LN27@Format|
  000c0		 |$M81024|

			 ENDP  ; |?Format@?$ChTraitsOS@_W@ATL@@SAHPA_WIPB_WPAD@Z|, ATL::ChTraitsOS<wchar_t>::Format

	EXPORT	|?ConvertToBaseType@?$ChTraitsOS@_W@ATL@@SAXPA_WHPB_WH@Z| ; ATL::ChTraitsOS<wchar_t>::ConvertToBaseType
; File c:\program files (x86)\microsoft visual studio 9.0\vc\ce\include\altcecrt.h

  00000			 AREA	 |.pdata|, PDATA
|$T81067| DCD	|$LN16@ConvertToB|
	DCD	0x40001401
; Function compile flags: /Ogspy

  00000			 AREA	 |.text|, CODE, ARM

  00000		 |?ConvertToBaseType@?$ChTraitsOS@_W@ATL@@SAXPA_WHPB_WH@Z| PROC ; ATL::ChTraitsOS<wchar_t>::ConvertToBaseType
; File c:\program files (x86)\microsoft visual studio 9.0\vc\ce\atlmfc\include\atlstr.h
; Line 1020
  00000		 |$LN16@ConvertToB|
  00000	e92d4070	 stmdb       sp!, {r4 - r6, lr}
  00004		 |$M81064|
  00004	e1a04002	 mov         r4, r2
  00008	e1a05001	 mov         r5, r1
  0000c	e1a06000	 mov         r6, r0
; Line 1021
  00010	e3730001	 cmn         r3, #1
  00014	1a000006	 bne         |$LN1@ConvertToB|
  00018	e3540000	 cmp         r4, #0
  0001c	0a000002	 beq         |$LN8@ConvertToB|
  00020	e1a00004	 mov         r0, r4
  00024	eb000000	 bl          wcslen
  00028	ea000000	 b           |$LN9@ConvertToB|
  0002c		 |$LN8@ConvertToB|
  0002c	e3a00000	 mov         r0, #0
  00030		 |$LN9@ConvertToB|
  00030	e2803001	 add         r3, r0, #1
  00034		 |$LN1@ConvertToB|
; Line 1023
  00034	e1a03083	 mov         r3, r3, lsl #1
  00038	e1a02004	 mov         r2, r4
  0003c	e1a01085	 mov         r1, r5, lsl #1
  00040	e1a00006	 mov         r0, r6
  00044	eb000000	 bl          memcpy_s
  00048	e8bd4070	 ldmia       sp!, {r4 - r6, lr}
  0004c	ea000000	 b           |?AtlCrtErrorCheck@ATL@@YAHH@Z|
  00050		 |$M81065|

			 ENDP  ; |?ConvertToBaseType@?$ChTraitsOS@_W@ATL@@SAXPA_WHPB_WH@Z|, ATL::ChTraitsOS<wchar_t>::ConvertToBaseType

	EXPORT	|?Zune_VoidCall@CMangoClass@@UAAJPB_W@Z| ; CMangoClass::Zune_VoidCall
	EXPORT	|??_C@_1CC@FIGAIKMG@?$AAX?$AAn?$AAa?$AAF?$AAr?$AAa?$AAm?$AAe?$AAw?$AAo?$AAr?$AAk?$AAC?$AAo?$AAr?$AAe?$AA?$AA@| [ DATA ] ; `string'
; File c:\users\steven\desktop\csharp - dllimport\csharp - dllimport\vs2008\dllimportmango\mangoclass.cpp

  00000			 AREA	 |.pdata|, PDATA
|$T81077| DCD	|$LN5@Zune_VoidC|
	DCD	0x40000300

  00000			 AREA	 |.rdata|, DATA, READONLY
|??_C@_1CC@FIGAIKMG@?$AAX?$AAn?$AAa?$AAF?$AAr?$AAa?$AAm?$AAe?$AAw?$AAo?$AAr?$AAk?$AAC?$AAo?$AAr?$AAe?$AA?$AA@| DCB "X"
	DCB	0x0, "n", 0x0, "a", 0x0, "F", 0x0, "r", 0x0, "a", 0x0, "m"
	DCB	0x0, "e", 0x0, "w", 0x0, "o", 0x0, "r", 0x0, "k", 0x0, "C"
	DCB	0x0, "o", 0x0, "r", 0x0, "e", 0x0, 0x0, 0x0 ; `string'
; Function compile flags: /Ogspy

  00000			 AREA	 |.text|, CODE, ARM

  00000		 |?Zune_VoidCall@CMangoClass@@UAAJPB_W@Z| PROC ; CMangoClass::Zune_VoidCall
; Line 439
  00000		 |$LN5@Zune_VoidC|
  00000		 |$M81074|
; Line 440
  00000	e59f0000	 ldr         r0, [pc]
  00004	ea000000	 b           |??$DLLCALL_PARAM@I@@YAJPB_W0@Z|
  00008		 |$LN6@Zune_VoidC|
  00008		 |$LN7@Zune_VoidC|
  00008	00000000	 DCD         |??_C@_1CC@FIGAIKMG@?$AAX?$AAn?$AAa?$AAF?$AAr?$AAa?$AAm?$AAe?$AAw?$AAo?$AAr?$AAk?$AAC?$AAo?$AAr?$AAe?$AA?$AA@|
  0000c		 |$M81075|

			 ENDP  ; |?Zune_VoidCall@CMangoClass@@UAAJPB_W@Z|, CMangoClass::Zune_VoidCall

	EXPORT	|?Radio_Toggle@CMangoClass@@UAAJI@Z|	; CMangoClass::Radio_Toggle
	EXPORT	|??_C@_1CK@GOOBMECO@?$AAM?$AAe?$AAd?$AAi?$AAa?$AAA?$AAp?$AAi?$AA_?$AAE?$AAn?$AAa?$AAb?$AAl?$AAe?$AAR?$AAa?$AAd?$AAi?$AAo?$AA?$AA@| [ DATA ] ; `string'
	EXPORT	|??_C@_1BA@PBLNAFPI@?$AAz?$AAu?$AAn?$AAe?$AAa?$AAp?$AAi?$AA?$AA@| [ DATA ] ; `string'

  00000			 AREA	 |.pdata|, PDATA
|$T81089| DCD	|$LN5@Radio_Togg|
	DCD	0x40000700

  00000			 AREA	 |.rdata|, DATA, READONLY
|??_C@_1CK@GOOBMECO@?$AAM?$AAe?$AAd?$AAi?$AAa?$AAA?$AAp?$AAi?$AA_?$AAE?$AAn?$AAa?$AAb?$AAl?$AAe?$AAR?$AAa?$AAd?$AAi?$AAo?$AA?$AA@| DCB "M"
	DCB	0x0, "e", 0x0, "d", 0x0, "i", 0x0, "a", 0x0, "A", 0x0, "p"
	DCB	0x0, "i", 0x0, "_", 0x0, "E", 0x0, "n", 0x0, "a", 0x0, "b"
	DCB	0x0, "l", 0x0, "e", 0x0, "R", 0x0, "a", 0x0, "d", 0x0, "i"
	DCB	0x0, "o", 0x0, 0x0, 0x0			; `string'

  00000			 AREA	 |.rdata|, DATA, READONLY
|??_C@_1BA@PBLNAFPI@?$AAz?$AAu?$AAn?$AAe?$AAa?$AAp?$AAi?$AA?$AA@| DCB "z", 0x0
	DCB	"u", 0x0, "n", 0x0, "e", 0x0, "a", 0x0, "p", 0x0, "i", 0x0
	DCB	0x0, 0x0				; `string'
; Function compile flags: /Ogspy

  00000			 AREA	 |.text|, CODE, ARM

  00000		 |?Radio_Toggle@CMangoClass@@UAAJI@Z| PROC ; CMangoClass::Radio_Toggle
; Line 444
  00000		 |$LN5@Radio_Togg|
  00000		 |$M81086|
  00000	e1a02001	 mov         r2, r1
; Line 446
  00004	e59f100c	 ldr         r1, [pc, #0xC]
  00008	e59f0004	 ldr         r0, [pc, #4]
  0000c	e3a03001	 mov         r3, #1
  00010	ea000000	 b           |??$DLLCALL_PARAM@II@@YAJPB_W0IH@Z|
  00014		 |$LN6@Radio_Togg|
  00014		 |$LN7@Radio_Togg|
  00014	00000000	 DCD         |??_C@_1BA@PBLNAFPI@?$AAz?$AAu?$AAn?$AAe?$AAa?$AAp?$AAi?$AA?$AA@|
  00018		 |$LN8@Radio_Togg|
  00018	00000000	 DCD         |??_C@_1CK@GOOBMECO@?$AAM?$AAe?$AAd?$AAi?$AAa?$AAA?$AAp?$AAi?$AA_?$AAE?$AAn?$AAa?$AAb?$AAl?$AAe?$AAR?$AAa?$AAd?$AAi?$AAo?$AA?$AA@|
  0001c		 |$M81087|

			 ENDP  ; |?Radio_Toggle@CMangoClass@@UAAJI@Z|, CMangoClass::Radio_Toggle

	EXPORT	|?VoidCall@CMangoClass@@UAAJPB_W0@Z|	; CMangoClass::VoidCall

  00000			 AREA	 |.pdata|, PDATA
|$T81103| DCD	|$LN5@VoidCall|
	DCD	0x40000300
; Function compile flags: /Ogspy

  00000			 AREA	 |.text|, CODE, ARM

  00000		 |?VoidCall@CMangoClass@@UAAJPB_W0@Z| PROC ; CMangoClass::VoidCall
; Line 641
  00000		 |$LN5@VoidCall|
  00000		 |$M81100|
  00000	e1a00001	 mov         r0, r1
; Line 642
  00004	e1a01002	 mov         r1, r2
  00008	ea000000	 b           |??$DLLCALL_PARAM@J@@YAJPB_W0@Z|
  0000c		 |$M81101|

			 ENDP  ; |?VoidCall@CMangoClass@@UAAJPB_W0@Z|, CMangoClass::VoidCall

	EXPORT	|?StringCall@CMangoClass@@UAAJPB_W00@Z|	; CMangoClass::StringCall

  00000			 AREA	 |.pdata|, PDATA
|$T81115| DCD	|$LN5@StringCall|
	DCD	0x40000a01
; Function compile flags: /Ogspy

  00000			 AREA	 |.text|, CODE, ARM

  00000		 |?StringCall@CMangoClass@@UAAJPB_W00@Z| PROC ; CMangoClass::StringCall
; Line 1130
  00000		 |$LN5@StringCall|
  00000	e92d4010	 stmdb       sp!, {r4, lr}
  00004		 |$M81112|
  00004	e1a00003	 mov         r0, r3
  00008	e1a0e002	 mov         lr, r2
  0000c	e1a04001	 mov         r4, r1
; Line 1131
  00010	e1a02000	 mov         r2, r0
  00014	e1a00004	 mov         r0, r4
  00018	e3a03001	 mov         r3, #1
  0001c	e1a0100e	 mov         r1, lr
  00020	e8bd4010	 ldmia       sp!, {r4, lr}
  00024	ea000000	 b           |??$DLLCALL_PARAM@IPB_W@@YAJPB_W00H@Z|
  00028		 |$M81113|

			 ENDP  ; |?StringCall@CMangoClass@@UAAJPB_W00@Z|, CMangoClass::StringCall

	EXPORT	|?UintCall@CMangoClass@@UAAJPB_W0I@Z|	; CMangoClass::UintCall

  00000			 AREA	 |.pdata|, PDATA
|$T81127| DCD	|$LN5@UintCall|
	DCD	0x40000a01
; Function compile flags: /Ogspy

  00000			 AREA	 |.text|, CODE, ARM

  00000		 |?UintCall@CMangoClass@@UAAJPB_W0I@Z| PROC ; CMangoClass::UintCall
; Line 1353
  00000		 |$LN5@UintCall|
  00000	e92d4010	 stmdb       sp!, {r4, lr}
  00004		 |$M81124|
  00004	e1a00003	 mov         r0, r3
  00008	e1a0e002	 mov         lr, r2
  0000c	e1a04001	 mov         r4, r1
; Line 1354
  00010	e1a02000	 mov         r2, r0
  00014	e1a00004	 mov         r0, r4
  00018	e3a03001	 mov         r3, #1
  0001c	e1a0100e	 mov         r1, lr
  00020	e8bd4010	 ldmia       sp!, {r4, lr}
  00024	ea000000	 b           |??$DLLCALL_PARAM@II@@YAJPB_W0IH@Z|
  00028		 |$M81125|

			 ENDP  ; |?UintCall@CMangoClass@@UAAJPB_W0I@Z|, CMangoClass::UintCall

	EXPORT	|?BoolCall@CMangoClass@@UAAJPB_W0_N@Z|	; CMangoClass::BoolCall

  00000			 AREA	 |.pdata|, PDATA
|$T81139| DCD	|$LN5@BoolCall|
	DCD	0x40000a01
; Function compile flags: /Ogspy

  00000			 AREA	 |.text|, CODE, ARM

  00000		 |?BoolCall@CMangoClass@@UAAJPB_W0_N@Z| PROC ; CMangoClass::BoolCall
; Line 1373
  00000		 |$LN5@BoolCall|
  00000	e92d4010	 stmdb       sp!, {r4, lr}
  00004		 |$M81136|
  00004	e1a00003	 mov         r0, r3
  00008	e1a0e002	 mov         lr, r2
  0000c	e1a04001	 mov         r4, r1
; Line 1374
  00010	e1a02000	 mov         r2, r0
  00014	e1a00004	 mov         r0, r4
  00018	e3a03001	 mov         r3, #1
  0001c	e1a0100e	 mov         r1, lr
  00020	e8bd4010	 ldmia       sp!, {r4, lr}
  00024	ea000000	 b           |??$DLLCALL_PARAM@I_N@@YAJPB_W0_NH@Z|
  00028		 |$M81137|

			 ENDP  ; |?BoolCall@CMangoClass@@UAAJPB_W0_N@Z|, CMangoClass::BoolCall

	EXPORT	|?IntCall@CMangoClass@@UAAJPB_W0H@Z|	; CMangoClass::IntCall

  00000			 AREA	 |.pdata|, PDATA
|$T81151| DCD	|$LN5@IntCall|
	DCD	0x40000a01
; Function compile flags: /Ogspy

  00000			 AREA	 |.text|, CODE, ARM

  00000		 |?IntCall@CMangoClass@@UAAJPB_W0H@Z| PROC ; CMangoClass::IntCall
; Line 1455
  00000		 |$LN5@IntCall|
  00000	e92d4010	 stmdb       sp!, {r4, lr}
  00004		 |$M81148|
  00004	e1a00003	 mov         r0, r3
  00008	e1a0e002	 mov         lr, r2
  0000c	e1a04001	 mov         r4, r1
; Line 1456
  00010	e1a02000	 mov         r2, r0
  00014	e1a00004	 mov         r0, r4
  00018	e3a03001	 mov         r3, #1
  0001c	e1a0100e	 mov         r1, lr
  00020	e8bd4010	 ldmia       sp!, {r4, lr}
  00024	ea000000	 b           |??$DLLCALL_PARAM@IH@@YAJPB_W0HH@Z|
  00028		 |$M81149|

			 ENDP  ; |?IntCall@CMangoClass@@UAAJPB_W0H@Z|, CMangoClass::IntCall

	EXPORT	|?IntDualCall@CMangoClass@@UAAJPB_W0HH@Z| ; CMangoClass::IntDualCall

  00000			 AREA	 |.pdata|, PDATA
|$T81163| DCD	|$LN5@IntDualCal|
	DCD	0x40000e02
; Function compile flags: /Ogspy

  00000			 AREA	 |.text|, CODE, ARM

  00000		 |?IntDualCall@CMangoClass@@UAAJPB_W0HH@Z| PROC ; CMangoClass::IntDualCall
; Line 1460
  00000		 |$LN5@IntDualCal|
  00000	e92d4030	 stmdb       sp!, {r4, r5, lr}
  00004	e24dd004	 sub         sp, sp, #4
  00008		 |$M81160|
  00008	e1a00003	 mov         r0, r3
  0000c	e1a0e002	 mov         lr, r2
  00010	e1a04001	 mov         r4, r1
; Line 1461
  00014	e59d3010	 ldr         r3, [sp, #0x10]
  00018	e3a05001	 mov         r5, #1
  0001c	e1a02000	 mov         r2, r0
  00020	e1a0100e	 mov         r1, lr
  00024	e1a00004	 mov         r0, r4
  00028	e58d5000	 str         r5, [sp]
  0002c	eb000000	 bl          |??$DLLCALL_PARAM_DUAL@IH@@YAJPB_W0HHH@Z|
; Line 1462
  00030	e28dd004	 add         sp, sp, #4
  00034	e8bd8030	 ldmia       sp!, {r4, r5, pc}
  00038		 |$M81161|

			 ENDP  ; |?IntDualCall@CMangoClass@@UAAJPB_W0HH@Z|, CMangoClass::IntDualCall

	EXPORT	|?StringIntIntCall@CMangoClass@@UAAJPB_W0PA_WHH@Z| ; CMangoClass::StringIntIntCall

  00000			 AREA	 |.pdata|, PDATA
|$T81175| DCD	|$LN5@StringIntI|
	DCD	0x40000c01
; Function compile flags: /Ogspy

  00000			 AREA	 |.text|, CODE, ARM

  00000		 |?StringIntIntCall@CMangoClass@@UAAJPB_W0PA_WHH@Z| PROC ; CMangoClass::StringIntIntCall
; Line 1563
  00000		 |$LN5@StringIntI|
  00000	e92d4030	 stmdb       sp!, {r4, r5, lr}
  00004		 |$M81172|
  00004	e1a05003	 mov         r5, r3
  00008	e1a00001	 mov         r0, r1
; Line 1564
  0000c	e1a01002	 mov         r1, r2
  00010	eb000000	 bl          |??$LoadMethod@P6AIPA_WHH@Z@@YAP6AIPA_WHH@ZPB_W1@Z|
  00014	e59d2010	 ldr         r2, [sp, #0x10]
  00018	e59d100c	 ldr         r1, [sp, #0xC]
  0001c	e1a04000	 mov         r4, r0
  00020	e1a00005	 mov         r0, r5
  00024	e1a0e00f	 mov         lr, pc
  00028	e1a0f004	 mov         pc, r4
; Line 1565
  0002c	e8bd8030	 ldmia       sp!, {r4, r5, pc}
  00030		 |$M81173|

			 ENDP  ; |?StringIntIntCall@CMangoClass@@UAAJPB_W0PA_WHH@Z|, CMangoClass::StringIntIntCall

	EXPORT	|?StringIntIntOutCall@CMangoClass@@UAAJPB_W0PA_WHPAH@Z| ; CMangoClass::StringIntIntOutCall

  00000			 AREA	 |.pdata|, PDATA
|$T81187| DCD	|$LN5@StringIntI@2|
	DCD	0x40000c01
; Function compile flags: /Ogspy

  00000			 AREA	 |.text|, CODE, ARM

  00000		 |?StringIntIntOutCall@CMangoClass@@UAAJPB_W0PA_WHPAH@Z| PROC ; CMangoClass::StringIntIntOutCall
; Line 1575
  00000		 |$LN5@StringIntI@2|
  00000	e92d4030	 stmdb       sp!, {r4, r5, lr}
  00004		 |$M81184|
  00004	e1a05003	 mov         r5, r3
  00008	e1a00001	 mov         r0, r1
; Line 1576
  0000c	e1a01002	 mov         r1, r2
  00010	eb000000	 bl          |??$LoadMethod@P6AIPA_WHPAH@Z@@YAP6AIPA_WHPAH@ZPB_W2@Z|
  00014	e59d2010	 ldr         r2, [sp, #0x10]
  00018	e59d100c	 ldr         r1, [sp, #0xC]
  0001c	e1a04000	 mov         r4, r0
  00020	e1a00005	 mov         r0, r5
  00024	e1a0e00f	 mov         lr, pc
  00028	e1a0f004	 mov         pc, r4
; Line 1577
  0002c	e8bd8030	 ldmia       sp!, {r4, r5, pc}
  00030		 |$M81185|

			 ENDP  ; |?StringIntIntOutCall@CMangoClass@@UAAJPB_W0PA_WHPAH@Z|, CMangoClass::StringIntIntOutCall

	EXPORT	|?IntQuadCall@CMangoClass@@UAAJPB_W0HHHH@Z| ; CMangoClass::IntQuadCall

  00000			 AREA	 |.pdata|, PDATA
|$T81199| DCD	|$LN5@IntQuadCal|
	DCD	0x40000d01
; Function compile flags: /Ogspy

  00000			 AREA	 |.text|, CODE, ARM

  00000		 |?IntQuadCall@CMangoClass@@UAAJPB_W0HHHH@Z| PROC ; CMangoClass::IntQuadCall
; Line 1692
  00000		 |$LN5@IntQuadCal|
  00000	e92d4030	 stmdb       sp!, {r4, r5, lr}
  00004		 |$M81196|
  00004	e1a05003	 mov         r5, r3
  00008	e1a00001	 mov         r0, r1
; Line 1693
  0000c	e1a01002	 mov         r1, r2
  00010	eb000000	 bl          |??$LoadMethod@P6AJHHHH@Z@@YAP6AJHHHH@ZPB_W0@Z|
  00014	e59d3014	 ldr         r3, [sp, #0x14]
  00018	e59d2010	 ldr         r2, [sp, #0x10]
  0001c	e59d100c	 ldr         r1, [sp, #0xC]
  00020	e1a04000	 mov         r4, r0
  00024	e1a00005	 mov         r0, r5
  00028	e1a0e00f	 mov         lr, pc
  0002c	e1a0f004	 mov         pc, r4
; Line 1694
  00030	e8bd8030	 ldmia       sp!, {r4, r5, pc}
  00034		 |$M81197|

			 ENDP  ; |?IntQuadCall@CMangoClass@@UAAJPB_W0HHHH@Z|, CMangoClass::IntQuadCall

	EXPORT	|?StringStringCall@CMangoClass@@UAAJPB_W0PA_W1@Z| ; CMangoClass::StringStringCall

  00000			 AREA	 |.pdata|, PDATA
|$T81211| DCD	|$LN5@StringStri|
	DCD	0x40000b01
; Function compile flags: /Ogspy

  00000			 AREA	 |.text|, CODE, ARM

  00000		 |?StringStringCall@CMangoClass@@UAAJPB_W0PA_W1@Z| PROC ; CMangoClass::StringStringCall
; Line 1731
  00000		 |$LN5@StringStri|
  00000	e92d4010	 stmdb       sp!, {r4, lr}
  00004		 |$M81208|
  00004	e1a04003	 mov         r4, r3
  00008	e1a00001	 mov         r0, r1
; Line 1732
  0000c	e1a01002	 mov         r1, r2
  00010	eb000000	 bl          |??$LoadMethod@P6AIPA_W0@Z@@YAP6AIPA_W0@ZPB_W1@Z|
  00014	e59d1008	 ldr         r1, [sp, #8]
  00018	e1a02000	 mov         r2, r0
  0001c	e1a00004	 mov         r0, r4
  00020	e1a0e00f	 mov         lr, pc
  00024	e1a0f002	 mov         pc, r2
; Line 1734
  00028	e8bd8010	 ldmia       sp!, {r4, pc}
  0002c		 |$M81209|

			 ENDP  ; |?StringStringCall@CMangoClass@@UAAJPB_W0PA_W1@Z|, CMangoClass::StringStringCall

	EXPORT	|?CeRunAppAtTime7@CMangoClass@@UAAJPA_WU_SYSTEMTIME@@@Z| ; CMangoClass::CeRunAppAtTime7
	EXPORT	|??_C@_1BO@DIHIFDLC@?$AAC?$AAe?$AAR?$AAu?$AAn?$AAA?$AAp?$AAp?$AAA?$AAt?$AAT?$AAi?$AAm?$AAe?$AA?$AA@| [ DATA ] ; `string'
; File c:\program files (x86)\microsoft visual studio 9.0\vc\ce\atlmfc\include\atlconv.h

  00000			 AREA	 |.pdata|, PDATA
|$T81227| DCD	|$LN9@CeRunAppAt|
	DCD	0x40000f03

  00000			 AREA	 |.rdata|, DATA, READONLY
|??_C@_1BO@DIHIFDLC@?$AAC?$AAe?$AAR?$AAu?$AAn?$AAA?$AAp?$AAp?$AAA?$AAt?$AAT?$AAi?$AAm?$AAe?$AA?$AA@| DCB "C"
	DCB	0x0, "e", 0x0, "R", 0x0, "u", 0x0, "n", 0x0, "A", 0x0, "p"
	DCB	0x0, "p", 0x0, "A", 0x0, "t", 0x0, "T", 0x0, "i", 0x0, "m"
	DCB	0x0, "e", 0x0, 0x0, 0x0			; `string'
; Function compile flags: /Ogspy

  00000			 AREA	 |.text|, CODE, ARM

  00000		 |?CeRunAppAtTime7@CMangoClass@@UAAJPA_WU_SYSTEMTIME@@@Z| PROC ; CMangoClass::CeRunAppAtTime7
; File c:\users\steven\desktop\csharp - dllimport\csharp - dllimport\vs2008\dllimportmango\mangoclass.cpp
; Line 1824
  00000		 |$LN9@CeRunAppAt|
  00000	e1a0c00d	 mov         r12, sp
  00004	e92d000f	 stmdb       sp!, {r0 - r3}
  00008	e92d5010	 stmdb       sp!, {r4, r12, lr}
  0000c		 |$M81224|
  0000c	e1a04001	 mov         r4, r1
; Line 1827
  00010	e59f1020	 ldr         r1, [pc, #0x20]
  00014	e59f0018	 ldr         r0, [pc, #0x18]
  00018	eb000000	 bl          |??$LoadMethod@P6AHPA_WPAU_SYSTEMTIME@@@Z@@YAP6AHPA_WPAU_SYSTEMTIME@@@ZPB_W2@Z|
  0001c	e1a03000	 mov         r3, r0
  00020	e1a00004	 mov         r0, r4
  00024	e28d1014	 add         r1, sp, #0x14
  00028	e1a0e00f	 mov         lr, pc
  0002c	e1a0f003	 mov         pc, r3
; Line 1828
  00030	e89da010	 ldmia       sp, {r4, sp, pc}
  00034		 |$LN10@CeRunAppAt|
  00034		 |$LN11@CeRunAppAt|
  00034	00000000	 DCD         |??_C@_1BA@HMFMEPIE@?$AAc?$AAo?$AAr?$AAe?$AAd?$AAl?$AAl?$AA?$AA@|
  00038		 |$LN12@CeRunAppAt|
  00038	00000000	 DCD         |??_C@_1BO@DIHIFDLC@?$AAC?$AAe?$AAR?$AAu?$AAn?$AAA?$AAp?$AAp?$AAA?$AAt?$AAT?$AAi?$AAm?$AAe?$AA?$AA@|
  0003c		 |$M81225|

			 ENDP  ; |?CeRunAppAtTime7@CMangoClass@@UAAJPA_WU_SYSTEMTIME@@@Z|, CMangoClass::CeRunAppAtTime7

	EXPORT	|?ThisTaskHostInformation@CMangoClass@@UAAJPB_W0PAX@Z| ; CMangoClass::ThisTaskHostInformation

  00000			 AREA	 |.pdata|, PDATA
|$T81242| DCD	|$LN5@ThisTaskHo|
	DCD	0x40000801
; Function compile flags: /Ogspy

  00000			 AREA	 |.text|, CODE, ARM

  00000		 |?ThisTaskHostInformation@CMangoClass@@UAAJPB_W0PAX@Z| PROC ; CMangoClass::ThisTaskHostInformation
; Line 1911
  00000		 |$LN5@ThisTaskHo|
  00000	e52de004	 str         lr, [sp, #-4]!
  00004		 |$M81239|
  00004	e1a00002	 mov         r0, r2
  00008	e1a0e001	 mov         lr, r1
; Line 1912
  0000c	e1a01000	 mov         r1, r0
  00010	e1a0000e	 mov         r0, lr
  00014	e1a02003	 mov         r2, r3
  00018	e49de004	 ldr         lr, [sp], #4
  0001c	ea000000	 b           |??$DLLCALL_PARAM_OUT@J@@YAJPB_W0PAX@Z|
  00020		 |$M81240|

			 ENDP  ; |?ThisTaskHostInformation@CMangoClass@@UAAJPB_W0PAX@Z|, CMangoClass::ThisTaskHostInformation

	EXPORT	|?InternalAddRef@?$CComObjectRootEx@VCComMultiThreadModel@ATL@@@ATL@@QAAKXZ| ; ATL::CComObjectRootEx<ATL::CComMultiThreadModel>::InternalAddRef
; File c:\program files (x86)\microsoft visual studio 9.0\vc\ce\atlmfc\include\atlbase.h

  00000			 AREA	 |.pdata|, PDATA
|$T81255| DCD	|$LN10@InternalAd|
	DCD	0x40000100
; Function compile flags: /Ogspy

  00000			 AREA	 |.text|, CODE, ARM

  00000		 |?InternalAddRef@?$CComObjectRootEx@VCComMultiThreadModel@ATL@@@ATL@@QAAKXZ| PROC ; ATL::CComObjectRootEx<ATL::CComMultiThreadModel>::InternalAddRef
; File c:\program files (x86)\microsoft visual studio 9.0\vc\ce\atlmfc\include\atlcom.h
; Line 2473
  00000		 |$LN10@InternalAd|
  00000		 |$M81252|
; Line 2475
  00000	ea000000	 b           InterlockedIncrement
  00004		 |$M81253|

			 ENDP  ; |?InternalAddRef@?$CComObjectRootEx@VCComMultiThreadModel@ATL@@@ATL@@QAAKXZ|, ATL::CComObjectRootEx<ATL::CComMultiThreadModel>::InternalAddRef

	EXPORT	|?InternalRelease@?$CComObjectRootEx@VCComMultiThreadModel@ATL@@@ATL@@QAAKXZ| ; ATL::CComObjectRootEx<ATL::CComMultiThreadModel>::InternalRelease
; File c:\program files (x86)\microsoft visual studio 9.0\vc\ce\atlmfc\include\atlbase.h

  00000			 AREA	 |.pdata|, PDATA
|$T81268| DCD	|$LN7@InternalRe|
	DCD	0x40000100
; Function compile flags: /Ogspy

  00000			 AREA	 |.text|, CODE, ARM

  00000		 |?InternalRelease@?$CComObjectRootEx@VCComMultiThreadModel@ATL@@@ATL@@QAAKXZ| PROC ; ATL::CComObjectRootEx<ATL::CComMultiThreadModel>::InternalRelease
; File c:\program files (x86)\microsoft visual studio 9.0\vc\ce\atlmfc\include\atlcom.h
; Line 2478
  00000		 |$LN7@InternalRe|
  00000		 |$M81265|
; Line 2487
  00000	ea000000	 b           InterlockedDecrement
  00004		 |$M81266|

			 ENDP  ; |?InternalRelease@?$CComObjectRootEx@VCComMultiThreadModel@ATL@@@ATL@@QAAKXZ|, ATL::CComObjectRootEx<ATL::CComMultiThreadModel>::InternalRelease

	EXPORT	|??0?$CSimpleStringT@_W$0A@@ATL@@QAA@PAUIAtlStringMgr@1@@Z| ; ATL::CSimpleStringT<wchar_t,0>::CSimpleStringT<wchar_t,0>
; File c:\program files (x86)\microsoft visual studio 9.0\vc\ce\atlmfc\include\atlsimpstr.h

  00000			 AREA	 |.pdata|, PDATA
|$T81291| DCD	|$LN17@CSimpleStr|
	DCD	0x40000f01
; Function compile flags: /Ogspy

  00000			 AREA	 |.text|, CODE, ARM

  00000		 |??0?$CSimpleStringT@_W$0A@@ATL@@QAA@PAUIAtlStringMgr@1@@Z| PROC ; ATL::CSimpleStringT<wchar_t,0>::CSimpleStringT<wchar_t,0>
; Line 225
  00000		 |$LN17@CSimpleStr|
  00000	e92d4010	 stmdb       sp!, {r4, lr}
  00004		 |$M81288|
  00004	e3510000	 cmp         r1, #0
  00008	e1a04000	 mov         r4, r0
; Line 227
  0000c	1a000002	 bne         |$LN3@CSimpleStr|
  00010	e3a03116	 mov         r3, #0x16, 2
  00014	e3830901	 orr         r0, r3, #1, 18	; 16384 (0x4000)
  00018	eb000000	 bl          |?AtlThrowImpl@ATL@@YAXJ@Z|
  0001c		 |$LN18@CSimpleStr|
  0001c		 |$LN3@CSimpleStr|
; Line 229
  0001c	e5913000	 ldr         r3, [r1]
  00020	e1a00001	 mov         r0, r1
  00024	e1a0e00f	 mov         lr, pc
  00028	e593f00c	 ldr         pc, [r3, #0xC]
  0002c	e2803010	 add         r3, r0, #0x10
  00030	e5843000	 str         r3, [r4]
; Line 230
  00034	e1a00004	 mov         r0, r4
  00038	e8bd8010	 ldmia       sp!, {r4, pc}
  0003c		 |$LN14@CSimpleStr|
  0003c		 |$M81289|

			 ENDP  ; |??0?$CSimpleStringT@_W$0A@@ATL@@QAA@PAUIAtlStringMgr@1@@Z|, ATL::CSimpleStringT<wchar_t,0>::CSimpleStringT<wchar_t,0>

	EXPORT	|??1?$CSimpleStringT@_W$0A@@ATL@@QAA@XZ| ; ATL::CSimpleStringT<wchar_t,0>::~CSimpleStringT<wchar_t,0>

  00000			 AREA	 |.pdata|, PDATA
|$T81308| DCD	|$LN10@CSimpleStr@2|
	DCD	0x40000c01
; Function compile flags: /Ogspy

  00000			 AREA	 |.text|, CODE, ARM

  00000		 |??1?$CSimpleStringT@_W$0A@@ATL@@QAA@XZ| PROC ; ATL::CSimpleStringT<wchar_t,0>::~CSimpleStringT<wchar_t,0>
; Line 277
  00000		 |$LN10@CSimpleStr@2|
  00000	e92d4010	 stmdb       sp!, {r4, lr}
  00004		 |$M81305|
; Line 278
  00004	e5903000	 ldr         r3, [r0]
  00008	e2434010	 sub         r4, r3, #0x10
; Line 279
  0000c	e284000c	 add         r0, r4, #0xC
  00010	eb000000	 bl          InterlockedDecrement
  00014	e3500000	 cmp         r0, #0
  00018	d5940000	 ldrle       r0, [r4]
  0001c	d1a01004	 movle       r1, r4
  00020	d5903000	 ldrle       r3, [r0]
  00024	d1a0e00f	 movle       lr, pc
  00028	d593f004	 ldrle       pc, [r3, #4]
; Line 280
  0002c	e8bd8010	 ldmia       sp!, {r4, pc}
  00030		 |$M81306|

			 ENDP  ; |??1?$CSimpleStringT@_W$0A@@ATL@@QAA@XZ|, ATL::CSimpleStringT<wchar_t,0>::~CSimpleStringT<wchar_t,0>

	EXPORT	|?GetLength@?$CSimpleStringT@_W$0A@@ATL@@QBAHXZ| ; ATL::CSimpleStringT<wchar_t,0>::GetLength

  00000			 AREA	 |.pdata|, PDATA
|$T81321| DCD	|$LN7@GetLength|
	DCD	0x40000300
; Function compile flags: /Ogspy

  00000			 AREA	 |.text|, CODE, ARM

  00000		 |?GetLength@?$CSimpleStringT@_W$0A@@ATL@@QBAHXZ| PROC ; ATL::CSimpleStringT<wchar_t,0>::GetLength
; Line 530
  00000		 |$LN7@GetLength|
  00000		 |$M81318|
; Line 531
  00000	e5903000	 ldr         r3, [r0]
  00004	e513000c	 ldr         r0, [r3, #-0xC]
; Line 532
  00008	e1a0f00e	 mov         pc, lr
  0000c		 |$M81319|

			 ENDP  ; |?GetLength@?$CSimpleStringT@_W$0A@@ATL@@QBAHXZ|, ATL::CSimpleStringT<wchar_t,0>::GetLength

	EXPORT	|??0IClassFactory@@QAA@XZ|		; IClassFactory::IClassFactory

  00000			 AREA	 |.pdata|, PDATA
|$T81334| DCD	|$LN7@IClassFact|
	DCD	0x40000100
; Function compile flags: /Ogspy

  00000			 AREA	 |.text|, CODE, ARM

  00000		 |??0IClassFactory@@QAA@XZ| PROC	; IClassFactory::IClassFactory
  00000		 |$LN7@IClassFact|
  00000		 |$M81331|
  00000	e1a0f00e	 mov         pc, lr
  00004		 |$M81332|

			 ENDP  ; |??0IClassFactory@@QAA@XZ|, IClassFactory::IClassFactory

	EXPORT	|?CloneData@?$CSimpleStringT@_W$0A@@ATL@@CAPAUCStringData@2@PAU32@@Z| ; ATL::CSimpleStringT<wchar_t,0>::CloneData

  00000			 AREA	 |.pdata|, PDATA
|$T81371| DCD	|$LN22@CloneData|
	DCD	0x40002701
; Function compile flags: /Ogspy

  00000			 AREA	 |.text|, CODE, ARM

  00000		 |?CloneData@?$CSimpleStringT@_W$0A@@ATL@@CAPAUCStringData@2@PAU32@@Z| PROC ; ATL::CSimpleStringT<wchar_t,0>::CloneData
; Line 867
  00000		 |$LN22@CloneData|
  00000	e92d4030	 stmdb       sp!, {r4, r5, lr}
  00004		 |$M81368|
  00004	e1a04000	 mov         r4, r0
; Line 870
  00008	e5940000	 ldr         r0, [r4]
  0000c	e5903000	 ldr         r3, [r0]
  00010	e1a0e00f	 mov         lr, pc
  00014	e593f010	 ldr         pc, [r3, #0x10]
; Line 871
  00018	e594300c	 ldr         r3, [r4, #0xC]
  0001c	e3530000	 cmp         r3, #0
  00020	b3a03001	 movlt       r3, #1
  00024	a3a03000	 movge       r3, #0
  00028	e21330ff	 ands        r3, r3, #0xFF
; Line 889
  0002c	1a000007	 bne         |$LN3@CloneData|
  00030	e5943000	 ldr         r3, [r4]
  00034	e1500003	 cmp         r0, r3
  00038	1a000004	 bne         |$LN3@CloneData|
  0003c	e284000c	 add         r0, r4, #0xC
  00040	e1a05004	 mov         r5, r4
  00044	eb000000	 bl          InterlockedIncrement
  00048	e1a00005	 mov         r0, r5
  0004c	e8bd8030	 ldmia       sp!, {r4, r5, pc}
  00050		 |$LN3@CloneData|
; Line 878
  00050	e5903000	 ldr         r3, [r0]
  00054	e5941004	 ldr         r1, [r4, #4]
  00058	e3a02002	 mov         r2, #2
  0005c	e1a0e00f	 mov         lr, pc
  00060	e593f000	 ldr         pc, [r3]
  00064	e1b05000	 movs        r5, r0
; Line 879
  00068	1a000000	 bne         |$LN1@CloneData|
; Line 881
  0006c	eb000000	 bl          |?ThrowMemoryException@?$CSimpleStringT@_W$0A@@ATL@@KAXXZ|
  00070		 |$LN23@CloneData|
  00070		 |$LN1@CloneData|
; Line 883
  00070	e5943004	 ldr         r3, [r4, #4]
; Line 885
  00074	e2842010	 add         r2, r4, #0x10
  00078	e2850010	 add         r0, r5, #0x10
  0007c	e5853004	 str         r3, [r5, #4]
  00080	e5943004	 ldr         r3, [r4, #4]
  00084	e2831001	 add         r1, r3, #1
  00088	e1a03081	 mov         r3, r1, lsl #1
  0008c	e1a01081	 mov         r1, r1, lsl #1
  00090	eb000000	 bl          memcpy_s
; Line 889
  00094	e1a00005	 mov         r0, r5
  00098	e8bd8030	 ldmia       sp!, {r4, r5, pc}
  0009c		 |$LN19@CloneData|
  0009c		 |$M81369|

			 ENDP  ; |?CloneData@?$CSimpleStringT@_W$0A@@ATL@@CAPAUCStringData@2@PAU32@@Z|, ATL::CSimpleStringT<wchar_t,0>::CloneData

	EXPORT	|?_AtlInitialConstruct@?$CComAggObject@VCMangoClass@@@ATL@@QAAJXZ| ; ATL::CComAggObject<CMangoClass>::_AtlInitialConstruct
; File c:\program files (x86)\microsoft visual studio 9.0\vc\ce\atlmfc\include\atlcore.h

  00000			 AREA	 |.pdata|, PDATA
|$T81407| DCD	|$LN16@AtlInitial@3|
	DCD	0x40000901
; Function compile flags: /Ogspy

  00000			 AREA	 |.text|, CODE, ARM

  00000		 |?_AtlInitialConstruct@?$CComAggObject@VCMangoClass@@@ATL@@QAAJXZ| PROC ; ATL::CComAggObject<CMangoClass>::_AtlInitialConstruct
; File c:\program files (x86)\microsoft visual studio 9.0\vc\ce\atlmfc\include\atlcom.h
; Line 3076
  00000		 |$LN16@AtlInitial@3|
  00000	e92d4010	 stmdb       sp!, {r4, lr}
  00004		 |$M81404|
  00004	e1a04000	 mov         r4, r0
; Line 3077
  00008	e2840014	 add         r0, r4, #0x14
  0000c	eb000000	 bl          |?Init@CComCriticalSection@ATL@@QAAJXZ|
  00010	e3500000	 cmp         r0, #0
  00014	53a03001	 movpl       r3, #1
  00018	55c43028	 strplb      r3, [r4, #0x28]
; Line 3080
  0001c	53a00000	 movpl       r0, #0
; Line 3083
  00020	e8bd8010	 ldmia       sp!, {r4, pc}
  00024		 |$M81405|

			 ENDP  ; |?_AtlInitialConstruct@?$CComAggObject@VCMangoClass@@@ATL@@QAAJXZ|, ATL::CComAggObject<CMangoClass>::_AtlInitialConstruct

	EXPORT	|?FinalConstruct@?$CComAggObject@VCMangoClass@@@ATL@@QAAJXZ| ; ATL::CComAggObject<CMangoClass>::FinalConstruct
; File c:\users\steven\desktop\csharp - dllimport\csharp - dllimport\vs2008\dllimportmango\mangoclass.h

  00000			 AREA	 |.pdata|, PDATA
|$T81422| DCD	|$LN9@FinalConst@4|
	DCD	0x40000200
; Function compile flags: /Ogspy

  00000			 AREA	 |.text|, CODE, ARM

  00000		 |?FinalConstruct@?$CComAggObject@VCMangoClass@@@ATL@@QAAJXZ| PROC ; ATL::CComAggObject<CMangoClass>::FinalConstruct
; File c:\program files (x86)\microsoft visual studio 9.0\vc\ce\atlmfc\include\atlcom.h
; Line 3087
  00000		 |$LN9@FinalConst@4|
  00000		 |$M81419|
; Line 3089
  00000	e3a00000	 mov         r0, #0
; Line 3090
  00004	e1a0f00e	 mov         pc, lr
  00008		 |$M81420|

			 ENDP  ; |?FinalConstruct@?$CComAggObject@VCMangoClass@@@ATL@@QAAJXZ|, ATL::CComAggObject<CMangoClass>::FinalConstruct

	EXPORT	|??1CMangoClass@@QAA@XZ|		; CMangoClass::~CMangoClass

  00000			 AREA	 |.pdata|, PDATA
|$T81474| DCD	|$LN19@CMangoClas|
	DCD	0x40000801
; Function compile flags: /Ogspy

  00000			 AREA	 |.text|, CODE, ARM

  00000		 |??1CMangoClass@@QAA@XZ| PROC		; CMangoClass::~CMangoClass
  00000		 |$LN19@CMangoClas|
  00000	e52de004	 str         lr, [sp, #-4]!
  00004		 |$M81471|
  00004	e5d0301c	 ldrb        r3, [r0, #0x1C]
  00008	e3530000	 cmp         r3, #0
  0000c	13a03000	 movne       r3, #0
  00010	15c0301c	 strneb      r3, [r0, #0x1C]
  00014	12800008	 addne       r0, r0, #8
  00018	1b000000	 blne        DeleteCriticalSection
  0001c	e49df004	 ldr         pc, [sp], #4
  00020		 |$M81472|

			 ENDP  ; |??1CMangoClass@@QAA@XZ|, CMangoClass::~CMangoClass

	EXPORT	|??0?$CComObjectRootEx@VCComMultiThreadModelNoCS@ATL@@@ATL@@QAA@XZ| ; ATL::CComObjectRootEx<ATL::CComMultiThreadModelNoCS>::CComObjectRootEx<ATL::CComMultiThreadModelNoCS>

  00000			 AREA	 |.pdata|, PDATA
|$T81487| DCD	|$LN7@CComObject@5|
	DCD	0x40000300
; Function compile flags: /Ogspy

  00000			 AREA	 |.text|, CODE, ARM

  00000		 |??0?$CComObjectRootEx@VCComMultiThreadModelNoCS@ATL@@@ATL@@QAA@XZ| PROC ; ATL::CComObjectRootEx<ATL::CComMultiThreadModelNoCS>::CComObjectRootEx<ATL::CComMultiThreadModelNoCS>
  00000		 |$LN7@CComObject@5|
  00000		 |$M81484|
  00000	e3a03000	 mov         r3, #0
  00004	e5803000	 str         r3, [r0]
  00008	e1a0f00e	 mov         pc, lr
  0000c		 |$M81485|

			 ENDP  ; |??0?$CComObjectRootEx@VCComMultiThreadModelNoCS@ATL@@@ATL@@QAA@XZ|, ATL::CComObjectRootEx<ATL::CComMultiThreadModelNoCS>::CComObjectRootEx<ATL::CComMultiThreadModelNoCS>

	EXPORT	|??1?$CComContainedObject@VCMangoClass@@@ATL@@QAA@XZ| ; ATL::CComContainedObject<CMangoClass>::~CComContainedObject<CMangoClass>

  00000			 AREA	 |.pdata|, PDATA
|$T81555| DCD	|$LN21@CComContai|
	DCD	0x40000801
; Function compile flags: /Ogspy

  00000			 AREA	 |.text|, CODE, ARM

  00000		 |??1?$CComContainedObject@VCMangoClass@@@ATL@@QAA@XZ| PROC ; ATL::CComContainedObject<CMangoClass>::~CComContainedObject<CMangoClass>
  00000		 |$LN21@CComContai|
  00000	e52de004	 str         lr, [sp, #-4]!
  00004		 |$M81552|
  00004	e5d0301c	 ldrb        r3, [r0, #0x1C]
  00008	e3530000	 cmp         r3, #0
  0000c	13a03000	 movne       r3, #0
  00010	15c0301c	 strneb      r3, [r0, #0x1C]
  00014	12800008	 addne       r0, r0, #8
  00018	1b000000	 blne        DeleteCriticalSection
  0001c	e49df004	 ldr         pc, [sp], #4
  00020		 |$M81553|

			 ENDP  ; |??1?$CComContainedObject@VCMangoClass@@@ATL@@QAA@XZ|, ATL::CComContainedObject<CMangoClass>::~CComContainedObject<CMangoClass>

	EXPORT	|?GetAllocLength@?$CSimpleStringT@_W$0A@@ATL@@QBAHXZ| ; ATL::CSimpleStringT<wchar_t,0>::GetAllocLength
; File c:\program files (x86)\microsoft visual studio 9.0\vc\ce\atlmfc\include\atlsimpstr.h

  00000			 AREA	 |.pdata|, PDATA
|$T81568| DCD	|$LN7@GetAllocLe|
	DCD	0x40000300
; Function compile flags: /Ogspy

  00000			 AREA	 |.text|, CODE, ARM

  00000		 |?GetAllocLength@?$CSimpleStringT@_W$0A@@ATL@@QBAHXZ| PROC ; ATL::CSimpleStringT<wchar_t,0>::GetAllocLength
; Line 497
  00000		 |$LN7@GetAllocLe|
  00000		 |$M81565|
; Line 498
  00000	e5903000	 ldr         r3, [r0]
  00004	e5130008	 ldr         r0, [r3, #-8]
; Line 499
  00008	e1a0f00e	 mov         pc, lr
  0000c		 |$M81566|

			 ENDP  ; |?GetAllocLength@?$CSimpleStringT@_W$0A@@ATL@@QBAHXZ|, ATL::CSimpleStringT<wchar_t,0>::GetAllocLength

	EXPORT	|?ReleaseBufferSetLength@?$CSimpleStringT@_W$0A@@ATL@@QAAXH@Z| ; ATL::CSimpleStringT<wchar_t,0>::ReleaseBufferSetLength

  00000			 AREA	 |.pdata|, PDATA
|$T81577| DCD	|$LN5@ReleaseBuf|
	DCD	0x40000100
; Function compile flags: /Ogspy

  00000			 AREA	 |.text|, CODE, ARM

  00000		 |?ReleaseBufferSetLength@?$CSimpleStringT@_W$0A@@ATL@@QAAXH@Z| PROC ; ATL::CSimpleStringT<wchar_t,0>::ReleaseBufferSetLength
; Line 578
  00000		 |$LN5@ReleaseBuf|
  00000		 |$M81574|
; Line 580
  00000	ea000000	 b           |?SetLength@?$CSimpleStringT@_W$0A@@ATL@@AAAXH@Z|
  00004		 |$M81575|

			 ENDP  ; |?ReleaseBufferSetLength@?$CSimpleStringT@_W$0A@@ATL@@QAAXH@Z|, ATL::CSimpleStringT<wchar_t,0>::ReleaseBufferSetLength

	EXPORT	|??1?$CComObjectRootEx@VCComMultiThreadModelNoCS@ATL@@@ATL@@QAA@XZ| ; ATL::CComObjectRootEx<ATL::CComMultiThreadModelNoCS>::~CComObjectRootEx<ATL::CComMultiThreadModelNoCS>
; File c:\program files (x86)\microsoft visual studio 9.0\vc\ce\atlmfc\include\atlcom.h

  00000			 AREA	 |.pdata|, PDATA
|$T81587| DCD	|$LN7@CComObject@6|
	DCD	0x40000100
; Function compile flags: /Ogspy

  00000			 AREA	 |.text|, CODE, ARM

  00000		 |??1?$CComObjectRootEx@VCComMultiThreadModelNoCS@ATL@@@ATL@@QAA@XZ| PROC ; ATL::CComObjectRootEx<ATL::CComMultiThreadModelNoCS>::~CComObjectRootEx<ATL::CComMultiThreadModelNoCS>
; Line 2470
  00000		 |$LN7@CComObject@6|
  00000		 |$M81584|
  00000	e1a0f00e	 mov         pc, lr
  00004		 |$M81585|

			 ENDP  ; |??1?$CComObjectRootEx@VCComMultiThreadModelNoCS@ATL@@@ATL@@QAA@XZ|, ATL::CComObjectRootEx<ATL::CComMultiThreadModelNoCS>::~CComObjectRootEx<ATL::CComMultiThreadModelNoCS>

	EXPORT	|??1CRegKey@ATL@@QAA@XZ|		; ATL::CRegKey::~CRegKey
; File c:\program files (x86)\microsoft visual studio 9.0\vc\ce\atlmfc\include\atlbase.h

  00000			 AREA	 |.pdata|, PDATA
|$T81600| DCD	|$LN8@CRegKey@2|
	DCD	0x40000a01
; Function compile flags: /Ogspy

  00000			 AREA	 |.text|, CODE, ARM

  00000		 |??1CRegKey@ATL@@QAA@XZ| PROC		; ATL::CRegKey::~CRegKey
; Line 5302
  00000		 |$LN8@CRegKey@2|
  00000	e92d4010	 stmdb       sp!, {r4, lr}
  00004		 |$M81597|
  00004	e1a04000	 mov         r4, r0
  00008	e5943000	 ldr         r3, [r4]
  0000c	e3530000	 cmp         r3, #0
  00010	0a000003	 beq         |$LN3@CRegKey@2|
  00014	e1a00003	 mov         r0, r3
  00018	eb000000	 bl          RegCloseKey
  0001c	e3a03000	 mov         r3, #0
  00020	e5843000	 str         r3, [r4]
  00024		 |$LN3@CRegKey@2|
  00024	e8bd8010	 ldmia       sp!, {r4, pc}
  00028		 |$M81598|

			 ENDP  ; |??1CRegKey@ATL@@QAA@XZ|, ATL::CRegKey::~CRegKey

	EXPORT	|__$ArrayPad$| [ DATA ]
	EXPORT	|?RecurseDeleteKey@CRegKey@ATL@@QAAJPB_W@Z| ; ATL::CRegKey::RecurseDeleteKey
	IMPORT	|RegEnumKeyExW|

  00000			 AREA	 |.pdata|, PDATA
|$T81681| DCD	|$LN39@RecurseDel|
	DCD	0xc0004b02

  00000			 AREA	 |.xdata|, DATA
|$T81677| DCD	0xffffffe0
; Function compile flags: /Ogspy

  00000			 AREA	 |.text|, CODE, ARM

  00000	00000000	 DCD         |__GSHandlerCheck|
  00004	00000000	 DCD         |$T81677|

  00008		 |?RecurseDeleteKey@CRegKey@ATL@@QAAJPB_W@Z| PROC ; ATL::CRegKey::RecurseDeleteKey
; Line 5847
  00008		 |$LN39@RecurseDel|
  00008	e92d43f0	 stmdb       sp!, {r4 - r9, lr}
  0000c	e24ddf89	 sub         sp, sp, #0x89, 30	; 548 (0x224)
  00010		 |$M81678|
  00010	e1a07001	 mov         r7, r1
  00014	e1a06000	 mov         r6, r0
  00018	e59f3110	 ldr         r3, [pc, #0x110]
  0001c	e5933000	 ldr         r3, [r3]
  00020	e58d3220	 str         r3, [sp, #0x220]
; Line 5852
  00024	e5961000	 ldr         r1, [r6]
  00028	e3a03802	 mov         r3, #2, 16
  0002c	e3a0e000	 mov         lr, #0
  00030	e383301f	 orr         r3, r3, #0x1F
  00034	e1a02007	 mov         r2, r7
  00038	e28d0010	 add         r0, sp, #0x10
  0003c	e58de010	 str         lr, [sp, #0x10]
  00040	eb000000	 bl          |?Open@CRegKey@ATL@@QAAJPAUHKEY__@@PB_WK@Z|
  00044	e1b04000	 movs        r4, r0
; Line 5860
  00048	e59d0010	 ldr         r0, [sp, #0x10]
  0004c	0a000002	 beq         |$LN5@RecurseDel|
  00050		 |$LN34@RecurseDel|
  00050	e3500000	 cmp         r0, #0
  00054	0a000030	 beq         |$LN30@RecurseDel|
  00058	ea00002e	 b           |$LN36@RecurseDel|
  0005c		 |$LN5@RecurseDel|
; Line 5866
  0005c	e3a04c01	 mov         r4, #1, 24
  00060	e28de018	 add         lr, sp, #0x18
  00064	e3a08000	 mov         r8, #0
  00068	e28d3014	 add         r3, sp, #0x14
  0006c	e28d2020	 add         r2, sp, #0x20
  00070	e3a01000	 mov         r1, #0
  00074	e58d4014	 str         r4, [sp, #0x14]
  00078	e58de00c	 str         lr, [sp, #0xC]
  0007c	e58d8008	 str         r8, [sp, #8]
  00080	e58d8004	 str         r8, [sp, #4]
  00084	e58d8000	 str         r8, [sp]
  00088	eb000000	 bl          RegEnumKeyExW
  0008c	e3500000	 cmp         r0, #0
  00090	1a000012	 bne         |$LN2@RecurseDel|
  00094	e3a09c01	 mov         r9, #1, 24
  00098	e28d5018	 add         r5, sp, #0x18
  0009c		 |$LL3@RecurseDel|
; Line 5868
  0009c	e28d1020	 add         r1, sp, #0x20
  000a0	e28d0010	 add         r0, sp, #0x10
  000a4	eb000000	 bl          |?RecurseDeleteKey@CRegKey@ATL@@QAAJPB_W@Z|
  000a8	e1b04000	 movs        r4, r0
; Line 5869
  000ac	e59d0010	 ldr         r0, [sp, #0x10]
  000b0	1affffe6	 bne         |$LN34@RecurseDel|
  000b4	e28d3014	 add         r3, sp, #0x14
  000b8	e28d2020	 add         r2, sp, #0x20
  000bc	e3a01000	 mov         r1, #0
; Line 5871
  000c0	e58d9014	 str         r9, [sp, #0x14]
  000c4	e58d500c	 str         r5, [sp, #0xC]
  000c8	e58d8008	 str         r8, [sp, #8]
  000cc	e58d8004	 str         r8, [sp, #4]
  000d0	e58d8000	 str         r8, [sp]
  000d4	eb000000	 bl          RegEnumKeyExW
  000d8	e3500000	 cmp         r0, #0
  000dc	0affffee	 beq         |$LL3@RecurseDel|
  000e0		 |$LN2@RecurseDel|
; Line 5873
  000e0	e59d0010	 ldr         r0, [sp, #0x10]
  000e4	e3500000	 cmp         r0, #0
  000e8	0a000002	 beq         |$LN25@RecurseDel|
  000ec	eb000000	 bl          RegCloseKey
  000f0	e3a03000	 mov         r3, #0
  000f4	e58d3010	 str         r3, [sp, #0x10]
; Line 5874
  000f8		 |$LN25@RecurseDel|
  000f8	e5960000	 ldr         r0, [r6]
  000fc	e1a01007	 mov         r1, r7
  00100	eb000000	 bl          RegDeleteKeyW
  00104	e59d3010	 ldr         r3, [sp, #0x10]
  00108	e1a04000	 mov         r4, r0
  0010c	e3530000	 cmp         r3, #0
  00110	0a000001	 beq         |$LN30@RecurseDel|
  00114	e1a00003	 mov         r0, r3
  00118		 |$LN36@RecurseDel|
  00118	eb000000	 bl          RegCloseKey
  0011c		 |$LN30@RecurseDel|
  0011c	e59d0220	 ldr         r0, [sp, #0x220]
  00120	eb000000	 bl          __security_check_cookie
; Line 5875
  00124	e1a00004	 mov         r0, r4
  00128	e28ddf89	 add         sp, sp, #0x89, 30	; 548 (0x224)
  0012c	e8bd83f0	 ldmia       sp!, {r4 - r9, pc}
  00130		 |$LN40@RecurseDel|
  00130		 |$LN41@RecurseDel|
  00130	00000000	 DCD         |__security_cookie|
  00134		 |$M81679|

			 ENDP  ; |?RecurseDeleteKey@CRegKey@ATL@@QAAJPB_W@Z|, ATL::CRegKey::RecurseDeleteKey

	EXPORT	|?ClearReplacements@CExpansionVector@ATL@@QAAJXZ| ; ATL::CExpansionVector::ClearReplacements
; File c:\program files (x86)\microsoft visual studio 9.0\vc\ce\atlmfc\include\atlexcept.h

  00000			 AREA	 |.pdata|, PDATA
|$T81730| DCD	|$LN29@ClearRepla|
	DCD	0x40002701
; Function compile flags: /Ogspy

  00000			 AREA	 |.text|, CODE, ARM

  00000		 |?ClearReplacements@CExpansionVector@ATL@@QAAJXZ| PROC ; ATL::CExpansionVector::ClearReplacements
; File c:\program files (x86)\microsoft visual studio 9.0\vc\ce\atlmfc\include\statreg.h
; Line 134
  00000		 |$LN29@ClearRepla|
  00000	e92d4030	 stmdb       sp!, {r4, r5, lr}
  00004		 |$M81727|
  00004	e1a05000	 mov         r5, r0
; Line 135
  00008	e5953008	 ldr         r3, [r5, #8]
  0000c	e3a04000	 mov         r4, #0
  00010	e3530000	 cmp         r3, #0
  00014	da000010	 ble         |$LN1@ClearRepla|
  00018		 |$LL3@ClearRepla|
; Line 137
  00018	e3540000	 cmp         r4, #0
  0001c	4a000018	 bmi         |$LN8@ClearRepla|
  00020	e1540003	 cmp         r4, r3
  00024	aa000016	 bge         |$LN8@ClearRepla|
  00028	e5953000	 ldr         r3, [r5]
  0002c	e7930104	 ldr         r0, [r3, +r4, lsl #2]
  00030	eb000000	 bl          |??3@YAXPAX@Z|
; Line 138
  00034	e5953008	 ldr         r3, [r5, #8]
  00038	e1540003	 cmp         r4, r3
  0003c	aa00000a	 bge         |$LN23@ClearRepla|
  00040	e5953004	 ldr         r3, [r5, #4]
  00044	e7930104	 ldr         r0, [r3, +r4, lsl #2]
  00048	eb000000	 bl          |??3@YAXPAX@Z|
  0004c	e5953008	 ldr         r3, [r5, #8]
  00050	e2844001	 add         r4, r4, #1
  00054	e1540003	 cmp         r4, r3
  00058	baffffee	 blt         |$LL3@ClearRepla|
  0005c		 |$LN1@ClearRepla|
; Line 140
  0005c	e1a00005	 mov         r0, r5
  00060	eb000000	 bl          |?RemoveAll@?$CSimpleMap@PA_WPA_WVCExpansionVectorEqualHelper@ATL@@@ATL@@QAAXXZ|
; Line 141
  00064	e3a00000	 mov         r0, #0
; Line 142
  00068	e8bd8030	 ldmia       sp!, {r4, r5, pc}
  0006c		 |$LN23@ClearRepla|
; Line 138
  0006c	e3a03103	 mov         r3, #3, 2
  00070	e383008c	 orr         r0, r3, #0x8C
  00074	e3a03000	 mov         r3, #0
  00078	e3a02000	 mov         r2, #0
  0007c	e3a01001	 mov         r1, #1
  00080	eb000000	 bl          RaiseException
  00084		 |$LN30@ClearRepla|
; Line 137
  00084		 |$LN8@ClearRepla|
  00084	e3a03103	 mov         r3, #3, 2
  00088	e383008c	 orr         r0, r3, #0x8C
  0008c	e3a03000	 mov         r3, #0
  00090	e3a02000	 mov         r2, #0
  00094	e3a01001	 mov         r1, #1
  00098	eb000000	 bl          RaiseException
  0009c		 |$LN31@ClearRepla|
  0009c		 |$LN26@ClearRepla|
  0009c		 |$M81728|

			 ENDP  ; |?ClearReplacements@CExpansionVector@ATL@@QAAJXZ|, ATL::CExpansionVector::ClearReplacements

	EXPORT	|?AddString@CParseBuffer@CRegParser@ATL@@QAAHPB_W@Z| ; ATL::CRegParser::CParseBuffer::AddString
; File c:\program files (x86)\microsoft visual studio 9.0\vc\ce\atlmfc\include\atlalloc.h

  00000			 AREA	 |.pdata|, PDATA
|$T81796| DCD	|$LN38@AddString|
	DCD	0xc0001204

  00000			 AREA	 |.pdata|, PDATA
|$T81799| DCD	|__unwind$81738|
	DCD	0x40000401

  00000			 AREA	 |.rdata|, DATA, READONLY
|__unwindtable$?AddString@CParseBuffer@CRegParser@ATL@@QAAHPB_W@Z| DCD 0xffffffff
	DCD	|__unwind$81738|
|__ehfuncinfo$?AddString@CParseBuffer@CRegParser@ATL@@QAAHPB_W@Z| DCD 0x19930522
	DCD	0x1
	DCD	|__unwindtable$?AddString@CParseBuffer@CRegParser@ATL@@QAAHPB_W@Z|
	DCD	0x0
	DCD	0x0
	DCD	0x3
	DCD	|$T81792|
	DCD	0x0
	DCD	0x1
|$T81792| DCD	|$M81789|
	DCD	0x0
	DCD	|$M81790|
	DCD	0xffffffff
	DCD	|$M81791|
	DCD	0x0
; Function compile flags: /Ogspy

  00000			 AREA	 |.text|, CODE, ARM

  00000	00000000	 DCD         |__CxxFrameHandler3|
  00004	00000000	 DCD         |__ehfuncinfo$?AddString@CParseBuffer@CRegParser@ATL@@QAAHPB_W@Z|

  00008		 |?AddString@CParseBuffer@CRegParser@ATL@@QAAHPB_W@Z| PROC ; ATL::CRegParser::CParseBuffer::AddString
; File c:\program files (x86)\microsoft visual studio 9.0\vc\ce\atlmfc\include\statreg.h
; Line 247
  00008		 |$LN38@AddString|
  00008	e1a0c00d	 mov         r12, sp
  0000c	e92d5830	 stmdb       sp!, {r4, r5, r11, r12, lr}
  00010	e28db014	 add         r11, sp, #0x14
  00014	e24dd004	 sub         sp, sp, #4
  00018		 |$M81793|
  00018	e1b04001	 movs        r4, r1
  0001c	e1a05000	 mov         r5, r0
; Line 250
  00020	03a00000	 moveq       r0, #0
  00024		 |$M81789|
  00024	0a000007	 beq         |$LN3@AddString|
  00028		 |$M81790|
; Line 252
  00028	e3a03000	 mov         r3, #0
  0002c	e50b3018	 str         r3, [r11, #-0x18]
; Line 258
  00030	e1a00004	 mov         r0, r4
  00034		 |$M81791|
  00034	eb000000	 bl          wcslen
  00038	e1a02000	 mov         r2, r0
  0003c	e1a00005	 mov         r0, r5
  00040	e1a01004	 mov         r1, r4
  00044	eb000000	 bl          |?Append@CParseBuffer@CRegParser@ATL@@QAAHPB_WH@Z|
  00048		 |$LN3@AddString|
; Line 259
  00048	e24bd014	 sub         sp, r11, #0x14
  0004c	e89da830	 ldmia       sp, {r4, r5, r11, sp, pc}
  00050		 |$M81794|
  00050		 |__unwind$81738|
  00050	e52de004	 str         lr, [sp, #-4]!
  00054		 |$M81797|
  00054	e24b0018	 sub         r0, r11, #0x18
  00058	eb000000	 bl          |??1?$CAtlSafeAllocBufferManager@VCCRTAllocator@ATL@@@_ATL_SAFE_ALLOCA_IMPL@ATL@@QAA@XZ|
  0005c	e8bd8000	 ldmia       sp!, {pc}
  00060		 |$M81798|

			 ENDP  ; |?AddString@CParseBuffer@CRegParser@ATL@@QAAHPB_W@Z|, ATL::CRegParser::CParseBuffer::AddString

	EXPORT	|?ClearReplacements@CRegObject@ATL@@UAAJXZ| ; ATL::CRegObject::ClearReplacements
; File c:\program files (x86)\microsoft visual studio 9.0\vc\ce\atlmfc\include\atlcore.h

  00000			 AREA	 |.pdata|, PDATA
|$T81826| DCD	|$LN14@ClearRepla@2|
	DCD	0x40000b01
; Function compile flags: /Ogspy

  00000			 AREA	 |.text|, CODE, ARM

  00000		 |?ClearReplacements@CRegObject@ATL@@UAAJXZ| PROC ; ATL::CRegObject::ClearReplacements
; File c:\program files (x86)\microsoft visual studio 9.0\vc\ce\atlmfc\include\statreg.h
; Line 539
  00000		 |$LN14@ClearRepla@2|
  00000	e92d4030	 stmdb       sp!, {r4, r5, lr}
  00004		 |$M81823|
  00004	e1a05000	 mov         r5, r0
; Line 540
  00008	e2850010	 add         r0, r5, #0x10
  0000c	eb000000	 bl          EnterCriticalSection
; Line 541
  00010	e2850004	 add         r0, r5, #4
  00014	eb000000	 bl          |?ClearReplacements@CExpansionVector@ATL@@QAAJXZ|
  00018	e1a04000	 mov         r4, r0
; Line 542
  0001c	e2850010	 add         r0, r5, #0x10
  00020	eb000000	 bl          LeaveCriticalSection
; Line 544
  00024	e1a00004	 mov         r0, r4
  00028	e8bd8030	 ldmia       sp!, {r4, r5, pc}
  0002c		 |$M81824|

			 ENDP  ; |?ClearReplacements@CRegObject@ATL@@UAAJXZ|, ATL::CRegObject::ClearReplacements

	EXPORT	|??0IRegistrarBase@@QAA@XZ|		; IRegistrarBase::IRegistrarBase

  00000			 AREA	 |.pdata|, PDATA
|$T81839| DCD	|$LN7@IRegistrar|
	DCD	0x40000100
; Function compile flags: /Ogspy

  00000			 AREA	 |.text|, CODE, ARM

  00000		 |??0IRegistrarBase@@QAA@XZ| PROC	; IRegistrarBase::IRegistrarBase
  00000		 |$LN7@IRegistrar|
  00000		 |$M81836|
  00000	e1a0f00e	 mov         pc, lr
  00004		 |$M81837|

			 ENDP  ; |??0IRegistrarBase@@QAA@XZ|, IRegistrarBase::IRegistrarBase

	EXPORT	|??1CComClassFactory@ATL@@UAA@XZ|	; ATL::CComClassFactory::~CComClassFactory
	EXPORT	|??_7CComClassFactory@ATL@@6B@| [ DATA ] ; ATL::CComClassFactory::`vftable'
	EXPORT	|?CreateInstance@CComClassFactory@ATL@@UAAJPAUIUnknown@@ABU_GUID@@PAPAX@Z| ; ATL::CComClassFactory::CreateInstance
	EXPORT	|?LockServer@CComClassFactory@ATL@@UAAJH@Z| ; ATL::CComClassFactory::LockServer
	IMPORT	|_purecall|
	IMPORT	|??_ECComClassFactory@ATL@@UAAPAXI@Z|, WEAK |??_GCComClassFactory@ATL@@UAAPAXI@Z| ; ATL::CComClassFactory::`vector deleting destructor', ATL::CComClassFactory::`scalar deleting destructor'
; File c:\program files (x86)\microsoft visual studio 9.0\vc\ce\atlmfc\include\atlcom.h

  00000			 AREA	 |.pdata|, PDATA
|$T81891| DCD	|$LN19@CComClassF|
	DCD	0x40000a01

  00000			 AREA	 |.rdata|, DATA, READONLY
|??_7CComClassFactory@ATL@@6B@| DCD |_purecall|		; ATL::CComClassFactory::`vftable'
	DCD	|_purecall|
	DCD	|_purecall|
	DCD	|?CreateInstance@CComClassFactory@ATL@@UAAJPAUIUnknown@@ABU_GUID@@PAPAX@Z|
	DCD	|?LockServer@CComClassFactory@ATL@@UAAJH@Z|
	DCD	|??_ECComClassFactory@ATL@@UAAPAXI@Z|
; Function compile flags: /Ogspy

  00000			 AREA	 |.text|, CODE, ARM

  00000		 |??1CComClassFactory@ATL@@UAA@XZ| PROC	; ATL::CComClassFactory::~CComClassFactory
; Line 3417
  00000		 |$LN19@CComClassF|
  00000	e52de004	 str         lr, [sp, #-4]!
  00004		 |$M81888|
  00004	e59f3018	 ldr         r3, [pc, #0x18]
  00008	e4803008	 str         r3, [r0], #8
; Line 3418
  0000c	e5d03014	 ldrb        r3, [r0, #0x14]
  00010	e3530000	 cmp         r3, #0
  00014	13a03000	 movne       r3, #0
  00018	15c03014	 strneb      r3, [r0, #0x14]
  0001c	1b000000	 blne        DeleteCriticalSection
  00020	e49df004	 ldr         pc, [sp], #4
  00024		 |$LN20@CComClassF|
  00024		 |$LN21@CComClassF|
  00024	00000000	 DCD         |??_7CComClassFactory@ATL@@6B@|
  00028		 |$M81889|

			 ENDP  ; |??1CComClassFactory@ATL@@UAA@XZ|, ATL::CComClassFactory::~CComClassFactory

	EXPORT	|?InlineIsEqualUnknown@ATL@@YAHABU_GUID@@@Z| ; ATL::InlineIsEqualUnknown
; File c:\program files (x86)\microsoft visual studio 9.0\vc\ce\atlmfc\include\atlbase.h

  00000			 AREA	 |.pdata|, PDATA
|$T81905| DCD	|$LN7@InlineIsEq|
	DCD	0x40000e00
; Function compile flags: /Ogspy

  00000			 AREA	 |.text|, CODE, ARM

  00000		 |?InlineIsEqualUnknown@ATL@@YAHABU_GUID@@@Z| PROC ; ATL::InlineIsEqualUnknown
; Line 578
  00000		 |$LN7@InlineIsEq|
  00000		 |$M81902|
; Line 587
  00000	e5903000	 ldr         r3, [r0]
  00004	e3530000	 cmp         r3, #0
  00008	1a000008	 bne         |$LN3@InlineIsEq|
  0000c	e5903004	 ldr         r3, [r0, #4]
  00010	e3530000	 cmp         r3, #0
  00014	1a000005	 bne         |$LN3@InlineIsEq|
  00018	e5903008	 ldr         r3, [r0, #8]
  0001c	e35300c0	 cmp         r3, #0xC0
  00020	0590300c	 ldreq       r3, [r0, #0xC]
  00024	03530446	 cmpeq       r3, #0x46, 8	; 1174405120 (0x46000000)
  00028	03a00001	 moveq       r0, #1
; Line 589
  0002c	01a0f00e	 moveq       pc, lr
  00030		 |$LN3@InlineIsEq|
; Line 587
  00030	e3a00000	 mov         r0, #0
; Line 589
  00034	e1a0f00e	 mov         pc, lr
  00038		 |$M81903|

			 ENDP  ; |?InlineIsEqualUnknown@ATL@@YAHABU_GUID@@@Z|, ATL::InlineIsEqualUnknown


  00000			 AREA	 |.pdata|, PDATA
|$T81926| DCD	|$LN15@CreateInst|
	DCD	0x40002201
; Function compile flags: /Ogspy

  00000			 AREA	 |.text|, CODE, ARM

  00000		 |?CreateInstance@CComClassFactory@ATL@@UAAJPAUIUnknown@@ABU_GUID@@PAPAX@Z| PROC ; ATL::CComClassFactory::CreateInstance
; File c:\program files (x86)\microsoft visual studio 9.0\vc\ce\atlmfc\include\atlcom.h
; Line 3422
  00000		 |$LN15@CreateInst|
  00000	e92d4070	 stmdb       sp!, {r4 - r6, lr}
  00004		 |$M81923|
  00004	e1a04002	 mov         r4, r2
  00008	e1a02000	 mov         r2, r0
  0000c	e1b05003	 movs        r5, r3
  00010	e1a06001	 mov         r6, r1
  00014	e3a0310e	 mov         r3, #0xE, 2
; Line 3424
  00018	e3830901	 orr         r0, r3, #1, 18	; 16384 (0x4000)
; Line 3425
  0001c	0a000017	 beq         |$LN1@CreateInst|
; Line 3427
  00020	e3a03000	 mov         r3, #0
  00024	e5853000	 str         r3, [r5]
; Line 3430
  00028	e3560000	 cmp         r6, #0
  0002c	0a00000d	 beq         |$LN2@CreateInst|
  00030	e594e000	 ldr         lr, [r4]
  00034	e35e0000	 cmp         lr, #0
  00038	1a000008	 bne         |$LN11@CreateInst|
  0003c	e594e004	 ldr         lr, [r4, #4]
  00040	e35e0000	 cmp         lr, #0
  00044	1a000005	 bne         |$LN11@CreateInst|
  00048	e594e008	 ldr         lr, [r4, #8]
  0004c	e35e00c0	 cmp         lr, #0xC0
  00050	1a000002	 bne         |$LN11@CreateInst|
  00054	e594300c	 ldr         r3, [r4, #0xC]
  00058	e3530446	 cmp         r3, #0x46, 8	; 1174405120 (0x46000000)
  0005c	0a000001	 beq         |$LN2@CreateInst|
  00060		 |$LN11@CreateInst|
; Line 3433
  00060	e59f001c	 ldr         r0, [pc, #0x1C]	; -2147221232 (0x80040110)
; Line 3439
  00064	e8bd8070	 ldmia       sp!, {r4 - r6, pc}
  00068		 |$LN2@CreateInst|
; Line 3436
  00068	e5923020	 ldr         r3, [r2, #0x20]
  0006c	e1a02005	 mov         r2, r5
  00070	e1a01004	 mov         r1, r4
  00074	e1a00006	 mov         r0, r6
  00078	e1a0e00f	 mov         lr, pc
  0007c	e1a0f003	 mov         pc, r3
  00080		 |$LN1@CreateInst|
; Line 3439
  00080	e8bd8070	 ldmia       sp!, {r4 - r6, pc}
  00084		 |$LN16@CreateInst|
  00084		 |$LN17@CreateInst|
  00084	80040110	 DCD         0x80040110
  00088		 |$M81924|

			 ENDP  ; |?CreateInstance@CComClassFactory@ATL@@UAAJPAUIUnknown@@ABU_GUID@@PAPAX@Z|, ATL::CComClassFactory::CreateInstance


  00000			 AREA	 |.pdata|, PDATA
|$T81938| DCD	|$LN7@LockServer|
	DCD	0x40000f01
; Function compile flags: /Ogspy

  00000			 AREA	 |.text|, CODE, ARM

  00000		 |?LockServer@CComClassFactory@ATL@@UAAJH@Z| PROC ; ATL::CComClassFactory::LockServer
; Line 3442
  00000		 |$LN7@LockServer|
  00000	e52de004	 str         lr, [sp, #-4]!
  00004		 |$M81935|
  00004	e3510000	 cmp         r1, #0
; Line 3444
  00008	e59f3028	 ldr         r3, [pc, #0x28]
  0000c	e5930000	 ldr         r0, [r3]
  00010	e5903000	 ldr         r3, [r0]
  00014	0a000003	 beq         |$LN2@LockServer|
  00018	e1a0e00f	 mov         lr, pc
  0001c	e593f004	 ldr         pc, [r3, #4]
; Line 3447
  00020	e3a00000	 mov         r0, #0
; Line 3448
  00024	e49df004	 ldr         pc, [sp], #4
  00028		 |$LN2@LockServer|
; Line 3446
  00028	e1a0e00f	 mov         lr, pc
  0002c	e593f008	 ldr         pc, [r3, #8]
; Line 3447
  00030	e3a00000	 mov         r0, #0
; Line 3448
  00034	e49df004	 ldr         pc, [sp], #4
  00038		 |$LN8@LockServer|
  00038		 |$LN9@LockServer|
  00038	00000000	 DCD         |?_pAtlModule@ATL@@3PAVCAtlModule@1@A|
  0003c		 |$M81936|

			 ENDP  ; |?LockServer@CComClassFactory@ATL@@UAAJH@Z|, ATL::CComClassFactory::LockServer


  00000			 AREA	 |.pdata|, PDATA
|$T82010| DCD	|$LN21@scalar|
	DCD	0x40001001
; Function compile flags: /Ogspy

  00000			 AREA	 |.text|, CODE, ARM

  00000		 |??_GCComClassFactory@ATL@@UAAPAXI@Z| PROC ; ATL::CComClassFactory::`scalar deleting destructor'
  00000		 |$LN21@scalar|
  00000	e92d4030	 stmdb       sp!, {r4, r5, lr}
  00004		 |$M82007|
  00004	e1a05001	 mov         r5, r1
  00008	e1a04000	 mov         r4, r0
  0000c	e59f3028	 ldr         r3, [pc, #0x28]
  00010	e4803008	 str         r3, [r0], #8
  00014	e5d03014	 ldrb        r3, [r0, #0x14]
  00018	e3530000	 cmp         r3, #0
  0001c	13a03000	 movne       r3, #0
  00020	15c03014	 strneb      r3, [r0, #0x14]
  00024	1b000000	 blne        DeleteCriticalSection
  00028	e3150001	 tst         r5, #1
  0002c	11a00004	 movne       r0, r4
  00030	1b000000	 blne        |??3@YAXPAX@Z|
  00034	e1a00004	 mov         r0, r4
  00038	e8bd8030	 ldmia       sp!, {r4, r5, pc}
  0003c		 |$LN22@scalar|
  0003c		 |$LN23@scalar|
  0003c	00000000	 DCD         |??_7CComClassFactory@ATL@@6B@|
  00040		 |$M82008|

			 ENDP  ; |??_GCComClassFactory@ATL@@UAAPAXI@Z|, ATL::CComClassFactory::`scalar deleting destructor'

	EXPORT	|??1?$CSimpleMap@PA_WPA_WVCExpansionVectorEqualHelper@ATL@@@ATL@@QAA@XZ| ; ATL::CSimpleMap<wchar_t *,wchar_t *,ATL::CExpansionVectorEqualHelper>::~CSimpleMap<wchar_t *,wchar_t *,ATL::CExpansionVectorEqualHelper>
; File c:\program files (x86)\microsoft visual studio 9.0\vc\ce\atlmfc\include\atlsimpcoll.h

  00000			 AREA	 |.pdata|, PDATA
|$T82020| DCD	|$LN5@CSimpleMap@2|
	DCD	0x40000100
; Function compile flags: /Ogspy

  00000			 AREA	 |.text|, CODE, ARM

  00000		 |??1?$CSimpleMap@PA_WPA_WVCExpansionVectorEqualHelper@ATL@@@ATL@@QAA@XZ| PROC ; ATL::CSimpleMap<wchar_t *,wchar_t *,ATL::CExpansionVectorEqualHelper>::~CSimpleMap<wchar_t *,wchar_t *,ATL::CExpansionVectorEqualHelper>
; Line 302
  00000		 |$LN5@CSimpleMap@2|
  00000		 |$M82017|
; Line 303
  00000	ea000000	 b           |?RemoveAll@?$CSimpleMap@PA_WPA_WVCExpansionVectorEqualHelper@ATL@@@ATL@@QAAXXZ|
  00004		 |$M82018|

			 ENDP  ; |??1?$CSimpleMap@PA_WPA_WVCExpansionVectorEqualHelper@ATL@@@ATL@@QAA@XZ|, ATL::CSimpleMap<wchar_t *,wchar_t *,ATL::CExpansionVectorEqualHelper>::~CSimpleMap<wchar_t *,wchar_t *,ATL::CExpansionVectorEqualHelper>

	EXPORT	|?Lookup@?$CSimpleMap@PA_WPA_WVCExpansionVectorEqualHelper@ATL@@@ATL@@QBAPA_WABQA_W@Z| ; ATL::CSimpleMap<wchar_t *,wchar_t *,ATL::CExpansionVectorEqualHelper>::Lookup
; File c:\program files (x86)\microsoft visual studio 9.0\vc\ce\atlmfc\include\atlexcept.h

  00000			 AREA	 |.pdata|, PDATA
|$T82046| DCD	|$LN15@Lookup|
	DCD	0x40001301
; Function compile flags: /Ogspy

  00000			 AREA	 |.text|, CODE, ARM

  00000		 |?Lookup@?$CSimpleMap@PA_WPA_WVCExpansionVectorEqualHelper@ATL@@@ATL@@QBAPA_WABQA_W@Z| PROC ; ATL::CSimpleMap<wchar_t *,wchar_t *,ATL::CExpansionVectorEqualHelper>::Lookup
; File c:\program files (x86)\microsoft visual studio 9.0\vc\ce\atlmfc\include\atlsimpcoll.h
; Line 389
  00000		 |$LN15@Lookup|
  00000	e92d4010	 stmdb       sp!, {r4, lr}
  00004		 |$M82043|
  00004	e1a04000	 mov         r4, r0
; Line 390
  00008	eb000000	 bl          |?FindKey@?$CSimpleMap@PA_WPA_WVCExpansionVectorEqualHelper@ATL@@@ATL@@QBAHABQA_W@Z|
; Line 391
  0000c	e3700001	 cmn         r0, #1
; Line 392
  00010	03a00000	 moveq       r0, #0
; Line 394
  00014	08bd8010	 ldmeqia     sp!, {r4, pc}
  00018	e3500000	 cmp         r0, #0
  0001c	4a000004	 bmi         |$LN4@Lookup|
  00020	e5943008	 ldr         r3, [r4, #8]
  00024	e1500003	 cmp         r0, r3
  00028	b5943004	 ldrlt       r3, [r4, #4]
  0002c	b7930100	 ldrlt       r0, [r3, +r0, lsl #2]
  00030	b8bd8010	 ldmltia     sp!, {r4, pc}
; Line 393
  00034		 |$LN4@Lookup|
  00034	e3a03103	 mov         r3, #3, 2
  00038	e383008c	 orr         r0, r3, #0x8C
  0003c	e3a03000	 mov         r3, #0
  00040	e3a02000	 mov         r2, #0
  00044	e3a01001	 mov         r1, #1
  00048	eb000000	 bl          RaiseException
  0004c		 |$LN16@Lookup|
  0004c		 |$LN12@Lookup|
  0004c		 |$M82044|

			 ENDP  ; |?Lookup@?$CSimpleMap@PA_WPA_WVCExpansionVectorEqualHelper@ATL@@@ATL@@QBAPA_WABQA_W@Z|, ATL::CSimpleMap<wchar_t *,wchar_t *,ATL::CExpansionVectorEqualHelper>::Lookup

	EXPORT	|??1?$CAutoVectorPtr@_W@ATL@@QAA@XZ|	; ATL::CAutoVectorPtr<wchar_t>::~CAutoVectorPtr<wchar_t>
; File c:\program files (x86)\microsoft visual studio 9.0\vc\ce\atlmfc\include\atlbase.h

  00000			 AREA	 |.pdata|, PDATA
|$T82060| DCD	|$LN7@CAutoVecto@2|
	DCD	0x40000701
; Function compile flags: /Ogspy

  00000			 AREA	 |.text|, CODE, ARM

  00000		 |??1?$CAutoVectorPtr@_W@ATL@@QAA@XZ| PROC ; ATL::CAutoVectorPtr<wchar_t>::~CAutoVectorPtr<wchar_t>
; Line 649
  00000		 |$LN7@CAutoVecto@2|
  00000	e92d4010	 stmdb       sp!, {r4, lr}
  00004		 |$M82057|
  00004	e1a04000	 mov         r4, r0
; Line 650
  00008	e5940000	 ldr         r0, [r4]
  0000c	eb000000	 bl          |??3@YAXPAX@Z|
  00010	e3a03000	 mov         r3, #0
  00014	e5843000	 str         r3, [r4]
; Line 651
  00018	e8bd8010	 ldmia       sp!, {r4, pc}
  0001c		 |$M82058|

			 ENDP  ; |??1?$CAutoVectorPtr@_W@ATL@@QAA@XZ|, ATL::CAutoVectorPtr<wchar_t>::~CAutoVectorPtr<wchar_t>

	EXPORT	|??1?$CTempBuffer@_W$0EAA@VCCRTAllocator@ATL@@@ATL@@QAA@XZ| ; ATL::CTempBuffer<wchar_t,1024,ATL::CCRTAllocator>::~CTempBuffer<wchar_t,1024,ATL::CCRTAllocator>
; File c:\program files (x86)\microsoft visual studio 9.0\vc\ce\atlmfc\include\atlalloc.h

  00000			 AREA	 |.pdata|, PDATA
|$T82068| DCD	|$LN6@CTempBuffe@4|
	DCD	0x40000601
; Function compile flags: /Ogspy

  00000			 AREA	 |.text|, CODE, ARM

  00000		 |??1?$CTempBuffer@_W$0EAA@VCCRTAllocator@ATL@@@ATL@@QAA@XZ| PROC ; ATL::CTempBuffer<wchar_t,1024,ATL::CCRTAllocator>::~CTempBuffer<wchar_t,1024,ATL::CCRTAllocator>
; Line 466
  00000		 |$LN6@CTempBuffe@4|
  00000	e52de004	 str         lr, [sp, #-4]!
  00004		 |$M82065|
; Line 467
  00004	e5902000	 ldr         r2, [r0]
  00008	e2803004	 add         r3, r0, #4
  0000c	e1520003	 cmp         r2, r3
; Line 469
  00010	1b000000	 blne        |?FreeHeap@?$CTempBuffer@_W$0EAA@VCCRTAllocator@ATL@@@ATL@@AAAXXZ|
; Line 471
  00014	e49df004	 ldr         pc, [sp], #4
  00018		 |$M82066|

			 ENDP  ; |??1?$CTempBuffer@_W$0EAA@VCCRTAllocator@ATL@@@ATL@@QAA@XZ|, ATL::CTempBuffer<wchar_t,1024,ATL::CCRTAllocator>::~CTempBuffer<wchar_t,1024,ATL::CCRTAllocator>

	EXPORT	|??1?$CTempBuffer@_W$0BAA@VCCRTAllocator@ATL@@@ATL@@QAA@XZ| ; ATL::CTempBuffer<wchar_t,256,ATL::CCRTAllocator>::~CTempBuffer<wchar_t,256,ATL::CCRTAllocator>

  00000			 AREA	 |.pdata|, PDATA
|$T82076| DCD	|$LN6@CTempBuffe@5|
	DCD	0x40000601
; Function compile flags: /Ogspy

  00000			 AREA	 |.text|, CODE, ARM

  00000		 |??1?$CTempBuffer@_W$0BAA@VCCRTAllocator@ATL@@@ATL@@QAA@XZ| PROC ; ATL::CTempBuffer<wchar_t,256,ATL::CCRTAllocator>::~CTempBuffer<wchar_t,256,ATL::CCRTAllocator>
; Line 466
  00000		 |$LN6@CTempBuffe@5|
  00000	e52de004	 str         lr, [sp, #-4]!
  00004		 |$M82073|
; Line 467
  00004	e5902000	 ldr         r2, [r0]
  00008	e2803004	 add         r3, r0, #4
  0000c	e1520003	 cmp         r2, r3
; Line 469
  00010	1b000000	 blne        |?FreeHeap@?$CTempBuffer@_W$0BAA@VCCRTAllocator@ATL@@@ATL@@AAAXXZ|
; Line 471
  00014	e49df004	 ldr         pc, [sp], #4
  00018		 |$M82074|

			 ENDP  ; |??1?$CTempBuffer@_W$0BAA@VCCRTAllocator@ATL@@@ATL@@QAA@XZ|, ATL::CTempBuffer<wchar_t,256,ATL::CCRTAllocator>::~CTempBuffer<wchar_t,256,ATL::CCRTAllocator>

	EXPORT	|??1?$CTempBuffer@E$0BAA@VCCRTAllocator@ATL@@@ATL@@QAA@XZ| ; ATL::CTempBuffer<unsigned char,256,ATL::CCRTAllocator>::~CTempBuffer<unsigned char,256,ATL::CCRTAllocator>

  00000			 AREA	 |.pdata|, PDATA
|$T82084| DCD	|$LN6@CTempBuffe@6|
	DCD	0x40000601
; Function compile flags: /Ogspy

  00000			 AREA	 |.text|, CODE, ARM

  00000		 |??1?$CTempBuffer@E$0BAA@VCCRTAllocator@ATL@@@ATL@@QAA@XZ| PROC ; ATL::CTempBuffer<unsigned char,256,ATL::CCRTAllocator>::~CTempBuffer<unsigned char,256,ATL::CCRTAllocator>
; Line 466
  00000		 |$LN6@CTempBuffe@6|
  00000	e52de004	 str         lr, [sp, #-4]!
  00004		 |$M82081|
; Line 467
  00004	e5902000	 ldr         r2, [r0]
  00008	e2803004	 add         r3, r0, #4
  0000c	e1520003	 cmp         r2, r3
; Line 469
  00010	1b000000	 blne        |?FreeHeap@?$CTempBuffer@E$0BAA@VCCRTAllocator@ATL@@@ATL@@AAAXXZ|
; Line 471
  00014	e49df004	 ldr         pc, [sp], #4
  00018		 |$M82082|

			 ENDP  ; |??1?$CTempBuffer@E$0BAA@VCCRTAllocator@ATL@@@ATL@@QAA@XZ|, ATL::CTempBuffer<unsigned char,256,ATL::CCRTAllocator>::~CTempBuffer<unsigned char,256,ATL::CCRTAllocator>

	EXPORT	|?Empty@?$CSimpleStringT@_W$0A@@ATL@@QAAXXZ| ; ATL::CSimpleStringT<wchar_t,0>::Empty
; File c:\program files (x86)\microsoft visual studio 9.0\vc\ce\atlmfc\include\atlsimpstr.h

  00000			 AREA	 |.pdata|, PDATA
|$T82134| DCD	|$LN32@Empty|
	DCD	0x40002801
; Function compile flags: /Ogspy

  00000			 AREA	 |.text|, CODE, ARM

  00000		 |?Empty@?$CSimpleStringT@_W$0A@@ATL@@QAAXXZ| PROC ; ATL::CSimpleStringT<wchar_t,0>::Empty
; Line 448
  00000		 |$LN32@Empty|
  00000	e92d4070	 stmdb       sp!, {r4 - r6, lr}
  00004		 |$M82131|
  00004	e1a05000	 mov         r5, r0
; Line 449
  00008	e5953000	 ldr         r3, [r5]
  0000c	e2434010	 sub         r4, r3, #0x10
; Line 451
  00010	e5943004	 ldr         r3, [r4, #4]
  00014	e5946000	 ldr         r6, [r4]
  00018	e3530000	 cmp         r3, #0
  0001c	0a00001d	 beq         |$LN28@Empty|
; Line 456
  00020	e594300c	 ldr         r3, [r4, #0xC]
  00024	e3530000	 cmp         r3, #0
  00028	b3a03001	 movlt       r3, #1
  0002c	a3a03000	 movge       r3, #0
  00030	e21330ff	 ands        r3, r3, #0xFF
; Line 465
  00034	0a000009	 beq         |$LN2@Empty|
  00038	e5943008	 ldr         r3, [r4, #8]
  0003c	e3530000	 cmp         r3, #0
  00040	aa000001	 bge         |$LN13@Empty|
  00044	e59f0050	 ldr         r0, [pc, #0x50]	; -2147024809 (0x80070057)
  00048	eb000000	 bl          |?AtlThrowImpl@ATL@@YAXJ@Z|
  0004c		 |$LN33@Empty|
; Line 459
  0004c		 |$LN13@Empty|
  0004c	e3a02000	 mov         r2, #0
  00050	e5842004	 str         r2, [r4, #4]
  00054	e5953000	 ldr         r3, [r5]
  00058	e1c320b0	 strh        r2, [r3]
; Line 467
  0005c	e8bd8070	 ldmia       sp!, {r4 - r6, pc}
  00060		 |$LN2@Empty|
; Line 463
  00060	e284000c	 add         r0, r4, #0xC
  00064	eb000000	 bl          InterlockedDecrement
  00068	e3500000	 cmp         r0, #0
  0006c	d5940000	 ldrle       r0, [r4]
  00070	d1a01004	 movle       r1, r4
  00074	d5903000	 ldrle       r3, [r0]
  00078	d1a0e00f	 movle       lr, pc
  0007c	d593f004	 ldrle       pc, [r3, #4]
; Line 465
  00080	e5963000	 ldr         r3, [r6]
  00084	e1a00006	 mov         r0, r6
  00088	e1a0e00f	 mov         lr, pc
  0008c	e593f00c	 ldr         pc, [r3, #0xC]
  00090	e2803010	 add         r3, r0, #0x10
  00094	e5853000	 str         r3, [r5]
  00098		 |$LN28@Empty|
; Line 467
  00098	e8bd8070	 ldmia       sp!, {r4 - r6, pc}
  0009c		 |$LN34@Empty|
  0009c		 |$LN35@Empty|
  0009c	80070057	 DCD         0x80070057
  000a0		 |$LN29@Empty|
  000a0		 |$M82132|

			 ENDP  ; |?Empty@?$CSimpleStringT@_W$0A@@ATL@@QAAXXZ|, ATL::CSimpleStringT<wchar_t,0>::Empty

	EXPORT	|?ReleaseBuffer@?$CSimpleStringT@_W$0A@@ATL@@QAAXH@Z| ; ATL::CSimpleStringT<wchar_t,0>::ReleaseBuffer

  00000			 AREA	 |.pdata|, PDATA
|$T82158| DCD	|$LN11@ReleaseBuf@2|
	DCD	0x40000f01
; Function compile flags: /Ogspy

  00000			 AREA	 |.text|, CODE, ARM

  00000		 |?ReleaseBuffer@?$CSimpleStringT@_W$0A@@ATL@@QAAXH@Z| PROC ; ATL::CSimpleStringT<wchar_t,0>::ReleaseBuffer
; Line 569
  00000		 |$LN11@ReleaseBuf@2|
  00000	e92d4010	 stmdb       sp!, {r4, lr}
  00004		 |$M82155|
  00004	e1a04000	 mov         r4, r0
; Line 570
  00008	e3710001	 cmn         r1, #1
  0000c	1a000007	 bne         |$LN7@ReleaseBuf@2|
; Line 572
  00010	e5943000	 ldr         r3, [r4]
  00014	e5131008	 ldr         r1, [r3, #-8]
; Line 573
  00018	e3530000	 cmp         r3, #0
  0001c	03a01000	 moveq       r1, #0
  00020	0a000002	 beq         |$LN7@ReleaseBuf@2|
  00024	e1a00003	 mov         r0, r3
  00028	eb000000	 bl          wcsnlen
  0002c	e1a01000	 mov         r1, r0
  00030		 |$LN7@ReleaseBuf@2|
; Line 575
  00030	e1a00004	 mov         r0, r4
  00034	e8bd4010	 ldmia       sp!, {r4, lr}
  00038	ea000000	 b           |?SetLength@?$CSimpleStringT@_W$0A@@ATL@@AAAXH@Z|
  0003c		 |$M82156|

			 ENDP  ; |?ReleaseBuffer@?$CSimpleStringT@_W$0A@@ATL@@QAAXH@Z|, ATL::CSimpleStringT<wchar_t,0>::ReleaseBuffer

	EXPORT	|?InternalSetAtIndex@?$CSimpleMap@PA_WPA_WVCExpansionVectorEqualHelper@ATL@@@ATL@@QAAXHABQA_W0@Z| ; ATL::CSimpleMap<wchar_t *,wchar_t *,ATL::CExpansionVectorEqualHelper>::InternalSetAtIndex
; File c:\program files (x86)\microsoft visual studio 9.0\vc\ce\atlmfc\include\atlsimpcoll.h

  00000			 AREA	 |.pdata|, PDATA
|$T82193| DCD	|$LN19@InternalSe|
	DCD	0x40000a01
; Function compile flags: /Ogspy

  00000			 AREA	 |.text|, CODE, ARM

  00000		 |?InternalSetAtIndex@?$CSimpleMap@PA_WPA_WVCExpansionVectorEqualHelper@ATL@@@ATL@@QAAXHABQA_W0@Z| PROC ; ATL::CSimpleMap<wchar_t *,wchar_t *,ATL::CExpansionVectorEqualHelper>::InternalSetAtIndex
; Line 468
  00000		 |$LN19@InternalSe|
  00000	e52de004	 str         lr, [sp, #-4]!
  00004		 |$M82190|
; Line 469
  00004	e590e000	 ldr         lr, [r0]
  00008	e09ee101	 adds        lr, lr, r1, lsl #2
  0000c	15922000	 ldrne       r2, [r2]
  00010	158e2000	 strne       r2, [lr]
; Line 470
  00014	e5902004	 ldr         r2, [r0, #4]
  00018	e0922101	 adds        r2, r2, r1, lsl #2
  0001c	15933000	 ldrne       r3, [r3]
  00020	15823000	 strne       r3, [r2]
; Line 471
  00024	e49df004	 ldr         pc, [sp], #4
  00028		 |$M82191|

			 ENDP  ; |?InternalSetAtIndex@?$CSimpleMap@PA_WPA_WVCExpansionVectorEqualHelper@ATL@@@ATL@@QAAXHABQA_W0@Z|, ATL::CSimpleMap<wchar_t *,wchar_t *,ATL::CExpansionVectorEqualHelper>::InternalSetAtIndex

	EXPORT	|?AllocateBytes@?$CTempBuffer@_W$0EAA@VCCRTAllocator@ATL@@@ATL@@QAAPA_WI@Z| ; ATL::CTempBuffer<wchar_t,1024,ATL::CCRTAllocator>::AllocateBytes
; File c:\program files (x86)\microsoft visual studio 9.0\vc\ce\atlmfc\include\atlalloc.h

  00000			 AREA	 |.pdata|, PDATA
|$T82204| DCD	|$LN7@AllocateBy|
	DCD	0x40000b01
; Function compile flags: /Ogspy

  00000			 AREA	 |.text|, CODE, ARM

  00000		 |?AllocateBytes@?$CTempBuffer@_W$0EAA@VCCRTAllocator@ATL@@@ATL@@QAAPA_WI@Z| PROC ; ATL::CTempBuffer<wchar_t,1024,ATL::CCRTAllocator>::AllocateBytes
; Line 523
  00000		 |$LN7@AllocateBy|
  00000	e92d4010	 stmdb       sp!, {r4, lr}
  00004		 |$M82201|
  00004	e1a04000	 mov         r4, r0
; Line 525
  00008	e3510b01	 cmp         r1, #1, 22		; 1024 (0x400)
  0000c	9a000002	 bls         |$LN2@AllocateBy|
; Line 527
  00010	eb000000	 bl          |?AllocateHeap@?$CTempBuffer@_W$0EAA@VCCRTAllocator@ATL@@@ATL@@AAAXI@Z|
; Line 534
  00014	e5940000	 ldr         r0, [r4]
; Line 535
  00018	e8bd8010	 ldmia       sp!, {r4, pc}
  0001c		 |$LN2@AllocateBy|
; Line 531
  0001c	e2843004	 add         r3, r4, #4
  00020	e5843000	 str         r3, [r4]
; Line 534
  00024	e1a00003	 mov         r0, r3
; Line 535
  00028	e8bd8010	 ldmia       sp!, {r4, pc}
  0002c		 |$M82202|

			 ENDP  ; |?AllocateBytes@?$CTempBuffer@_W$0EAA@VCCRTAllocator@ATL@@@ATL@@QAAPA_WI@Z|, ATL::CTempBuffer<wchar_t,1024,ATL::CCRTAllocator>::AllocateBytes

	EXPORT	|?AllocateBytes@?$CTempBuffer@_W$0BAA@VCCRTAllocator@ATL@@@ATL@@QAAPA_WI@Z| ; ATL::CTempBuffer<wchar_t,256,ATL::CCRTAllocator>::AllocateBytes

  00000			 AREA	 |.pdata|, PDATA
|$T82215| DCD	|$LN7@AllocateBy@2|
	DCD	0x40000b01
; Function compile flags: /Ogspy

  00000			 AREA	 |.text|, CODE, ARM

  00000		 |?AllocateBytes@?$CTempBuffer@_W$0BAA@VCCRTAllocator@ATL@@@ATL@@QAAPA_WI@Z| PROC ; ATL::CTempBuffer<wchar_t,256,ATL::CCRTAllocator>::AllocateBytes
; Line 523
  00000		 |$LN7@AllocateBy@2|
  00000	e92d4010	 stmdb       sp!, {r4, lr}
  00004		 |$M82212|
  00004	e1a04000	 mov         r4, r0
; Line 525
  00008	e3510c01	 cmp         r1, #1, 24		; 256 (0x100)
  0000c	9a000002	 bls         |$LN2@AllocateBy@2|
; Line 527
  00010	eb000000	 bl          |?AllocateHeap@?$CTempBuffer@_W$0BAA@VCCRTAllocator@ATL@@@ATL@@AAAXI@Z|
; Line 534
  00014	e5940000	 ldr         r0, [r4]
; Line 535
  00018	e8bd8010	 ldmia       sp!, {r4, pc}
  0001c		 |$LN2@AllocateBy@2|
; Line 531
  0001c	e2843004	 add         r3, r4, #4
  00020	e5843000	 str         r3, [r4]
; Line 534
  00024	e1a00003	 mov         r0, r3
; Line 535
  00028	e8bd8010	 ldmia       sp!, {r4, pc}
  0002c		 |$M82213|

			 ENDP  ; |?AllocateBytes@?$CTempBuffer@_W$0BAA@VCCRTAllocator@ATL@@@ATL@@QAAPA_WI@Z|, ATL::CTempBuffer<wchar_t,256,ATL::CCRTAllocator>::AllocateBytes

	EXPORT	|?AllocateBytes@?$CTempBuffer@E$0BAA@VCCRTAllocator@ATL@@@ATL@@QAAPAEI@Z| ; ATL::CTempBuffer<unsigned char,256,ATL::CCRTAllocator>::AllocateBytes

  00000			 AREA	 |.pdata|, PDATA
|$T82226| DCD	|$LN7@AllocateBy@3|
	DCD	0x40000b01
; Function compile flags: /Ogspy

  00000			 AREA	 |.text|, CODE, ARM

  00000		 |?AllocateBytes@?$CTempBuffer@E$0BAA@VCCRTAllocator@ATL@@@ATL@@QAAPAEI@Z| PROC ; ATL::CTempBuffer<unsigned char,256,ATL::CCRTAllocator>::AllocateBytes
; Line 523
  00000		 |$LN7@AllocateBy@3|
  00000	e92d4010	 stmdb       sp!, {r4, lr}
  00004		 |$M82223|
  00004	e1a04000	 mov         r4, r0
; Line 525
  00008	e3510c01	 cmp         r1, #1, 24		; 256 (0x100)
  0000c	9a000002	 bls         |$LN2@AllocateBy@3|
; Line 527
  00010	eb000000	 bl          |?AllocateHeap@?$CTempBuffer@E$0BAA@VCCRTAllocator@ATL@@@ATL@@AAAXI@Z|
; Line 534
  00014	e5940000	 ldr         r0, [r4]
; Line 535
  00018	e8bd8010	 ldmia       sp!, {r4, pc}
  0001c		 |$LN2@AllocateBy@3|
; Line 531
  0001c	e2843004	 add         r3, r4, #4
  00020	e5843000	 str         r3, [r4]
; Line 534
  00024	e1a00003	 mov         r0, r3
; Line 535
  00028	e8bd8010	 ldmia       sp!, {r4, pc}
  0002c		 |$M82224|

			 ENDP  ; |?AllocateBytes@?$CTempBuffer@E$0BAA@VCCRTAllocator@ATL@@@ATL@@QAAPAEI@Z|, ATL::CTempBuffer<unsigned char,256,ATL::CCRTAllocator>::AllocateBytes

	EXPORT	|?Fork@?$CSimpleStringT@_W$0A@@ATL@@AAAXH@Z| ; ATL::CSimpleStringT<wchar_t,0>::Fork
; File c:\program files (x86)\microsoft visual studio 9.0\vc\ce\atlmfc\include\atlsimpstr.h

  00000			 AREA	 |.pdata|, PDATA
|$T82269| DCD	|$LN25@Fork|
	DCD	0x40002601
; Function compile flags: /Ogspy

  00000			 AREA	 |.text|, CODE, ARM

  00000		 |?Fork@?$CSimpleStringT@_W$0A@@ATL@@AAAXH@Z| PROC ; ATL::CSimpleStringT<wchar_t,0>::Fork
; Line 775
  00000		 |$LN25@Fork|
  00000	e92d41f0	 stmdb       sp!, {r4 - r8, lr}
  00004		 |$M82266|
  00004	e1a05001	 mov         r5, r1
  00008	e1a07000	 mov         r7, r0
; Line 776
  0000c	e5973000	 ldr         r3, [r7]
; Line 778
  00010	e2434010	 sub         r4, r3, #0x10
  00014	e5940000	 ldr         r0, [r4]
  00018	e5946004	 ldr         r6, [r4, #4]
  0001c	e5903000	 ldr         r3, [r0]
  00020	e1a0e00f	 mov         lr, pc
  00024	e593f010	 ldr         pc, [r3, #0x10]
  00028	e5903000	 ldr         r3, [r0]
  0002c	e3a02002	 mov         r2, #2
  00030	e1a01005	 mov         r1, r5
  00034	e1a0e00f	 mov         lr, pc
  00038	e593f000	 ldr         pc, [r3]
  0003c	e1b08000	 movs        r8, r0
; Line 779
  00040	1a000000	 bne         |$LN1@Fork|
; Line 781
  00044	eb000000	 bl          |?ThrowMemoryException@?$CSimpleStringT@_W$0A@@ATL@@KAXXZ|
  00048		 |$LN26@Fork|
  00048		 |$LN1@Fork|
; Line 783
  00048	e1560005	 cmp         r6, r5
  0004c	b1a05006	 movlt       r5, r6
  00050	e2852001	 add         r2, r5, #1
; Line 785
  00054	e2885010	 add         r5, r8, #0x10
  00058	e1a03082	 mov         r3, r2, lsl #1
  0005c	e1a01082	 mov         r1, r2, lsl #1
  00060	e2842010	 add         r2, r4, #0x10
  00064	e1a00005	 mov         r0, r5
  00068	eb000000	 bl          memcpy_s
; Line 787
  0006c	e284000c	 add         r0, r4, #0xC
  00070	e5886004	 str         r6, [r8, #4]
  00074	eb000000	 bl          InterlockedDecrement
  00078	e3500000	 cmp         r0, #0
  0007c	d5940000	 ldrle       r0, [r4]
  00080	d1a01004	 movle       r1, r4
  00084	d5903000	 ldrle       r3, [r0]
  00088	d1a0e00f	 movle       lr, pc
  0008c	d593f004	 ldrle       pc, [r3, #4]
; Line 788
  00090	e5875000	 str         r5, [r7]
; Line 789
  00094	e8bd81f0	 ldmia       sp!, {r4 - r8, pc}
  00098		 |$LN22@Fork|
  00098		 |$M82267|

			 ENDP  ; |?Fork@?$CSimpleStringT@_W$0A@@ATL@@AAAXH@Z|, ATL::CSimpleStringT<wchar_t,0>::Fork

	EXPORT	|?Reallocate@?$CSimpleStringT@_W$0A@@ATL@@AAAXH@Z| ; ATL::CSimpleStringT<wchar_t,0>::Reallocate

  00000			 AREA	 |.pdata|, PDATA
|$T82295| DCD	|$LN16@Reallocate|
	DCD	0x40001601
; Function compile flags: /Ogspy

  00000			 AREA	 |.text|, CODE, ARM

  00000		 |?Reallocate@?$CSimpleStringT@_W$0A@@ATL@@AAAXH@Z| PROC ; ATL::CSimpleStringT<wchar_t,0>::Reallocate
; Line 837
  00000		 |$LN16@Reallocate|
  00000	e92d4030	 stmdb       sp!, {r4, r5, lr}
  00004		 |$M82292|
  00004	e1a02001	 mov         r2, r1
  00008	e1a05000	 mov         r5, r0
; Line 838
  0000c	e5951000	 ldr         r1, [r5]
; Line 840
  00010	e5310010	 ldr         r0, [r1, #-0x10]!
; Line 841
  00014	e5913008	 ldr         r3, [r1, #8]
  00018	e1530002	 cmp         r3, r2
  0001c	aa00000c	 bge         |$LN2@Reallocate|
  00020	e3520000	 cmp         r2, #0
  00024	da00000a	 ble         |$LN2@Reallocate|
; Line 846
  00028	e590e000	 ldr         lr, [r0]
  0002c	e3a03002	 mov         r3, #2
  00030	e59e4008	 ldr         r4, [lr, #8]
  00034	e1a0e00f	 mov         lr, pc
  00038	e1a0f004	 mov         pc, r4
  0003c	e3500000	 cmp         r0, #0
; Line 847
  00040	1a000000	 bne         |$LN1@Reallocate|
; Line 849
  00044	eb000000	 bl          |?ThrowMemoryException@?$CSimpleStringT@_W$0A@@ATL@@KAXXZ|
  00048		 |$LN17@Reallocate|
  00048		 |$LN1@Reallocate|
; Line 851
  00048	e2803010	 add         r3, r0, #0x10
  0004c	e5853000	 str         r3, [r5]
; Line 852
  00050	e8bd8030	 ldmia       sp!, {r4, r5, pc}
  00054		 |$LN2@Reallocate|
; Line 843
  00054	eb000000	 bl          |?ThrowMemoryException@?$CSimpleStringT@_W$0A@@ATL@@KAXXZ|
  00058		 |$LN18@Reallocate|
  00058		 |$LN13@Reallocate|
  00058		 |$M82293|

			 ENDP  ; |?Reallocate@?$CSimpleStringT@_W$0A@@ATL@@AAAXH@Z|, ATL::CSimpleStringT<wchar_t,0>::Reallocate

	EXPORT	|??0CMangoClass@@QAA@XZ|		; CMangoClass::CMangoClass
; File c:\program files (x86)\microsoft visual studio 9.0\vc\ce\atlmfc\include\atlbase.h

  00000			 AREA	 |.pdata|, PDATA
|$T82349| DCD	|$LN20@CMangoClas@2|
	DCD	0x40000c01
; Function compile flags: /Ogspy

  00000			 AREA	 |.text|, CODE, ARM

  00000		 |??0CMangoClass@@QAA@XZ| PROC		; CMangoClass::CMangoClass
; File c:\users\steven\desktop\csharp - dllimport\csharp - dllimport\vs2008\dllimportmango\mangoclass.h
; Line 30
  00000		 |$LN20@CMangoClas@2|
  00000	e92d4070	 stmdb       sp!, {r4 - r6, lr}
  00004		 |$M82346|
  00004	e1a05000	 mov         r5, r0
  00008	e1a04005	 mov         r4, r5
  0000c	e3a06000	 mov         r6, #0
  00010	e5a46004	 str         r6, [r4, #4]!
  00014	e3a02014	 mov         r2, #0x14
  00018	e3a01000	 mov         r1, #0
  0001c	e2840004	 add         r0, r4, #4
  00020	eb000000	 bl          memset
  00024	e5c46018	 strb        r6, [r4, #0x18]
; Line 32
  00028	e1a00005	 mov         r0, r5
  0002c	e8bd8070	 ldmia       sp!, {r4 - r6, pc}
  00030		 |$M82347|

			 ENDP  ; |??0CMangoClass@@QAA@XZ|, CMangoClass::CMangoClass

	EXPORT	|?InternalFinalConstructAddRef@CMangoClass@@QAAXXZ| ; CMangoClass::InternalFinalConstructAddRef
; File c:\program files (x86)\microsoft visual studio 9.0\vc\ce\atlmfc\include\atlbase.h

  00000			 AREA	 |.pdata|, PDATA
|$T82368| DCD	|$LN12@InternalFi@3|
	DCD	0x40000200
; Function compile flags: /Ogspy

  00000			 AREA	 |.text|, CODE, ARM

  00000		 |?InternalFinalConstructAddRef@CMangoClass@@QAAXXZ| PROC ; CMangoClass::InternalFinalConstructAddRef
; File c:\users\steven\desktop\csharp - dllimport\csharp - dllimport\vs2008\dllimportmango\mangoclass.h
; Line 229
  00000		 |$LN12@InternalFi@3|
  00000		 |$M82365|
  00000	e2800004	 add         r0, r0, #4
  00004	ea000000	 b           InterlockedIncrement
  00008		 |$M82366|

			 ENDP  ; |?InternalFinalConstructAddRef@CMangoClass@@QAAXXZ|, CMangoClass::InternalFinalConstructAddRef

	EXPORT	|?InternalFinalConstructRelease@CMangoClass@@QAAXXZ| ; CMangoClass::InternalFinalConstructRelease
; File c:\program files (x86)\microsoft visual studio 9.0\vc\ce\atlmfc\include\atlbase.h

  00000			 AREA	 |.pdata|, PDATA
|$T82384| DCD	|$LN9@InternalFi@4|
	DCD	0x40000200
; Function compile flags: /Ogspy

  00000			 AREA	 |.text|, CODE, ARM

  00000		 |?InternalFinalConstructRelease@CMangoClass@@QAAXXZ| PROC ; CMangoClass::InternalFinalConstructRelease
; File c:\users\steven\desktop\csharp - dllimport\csharp - dllimport\vs2008\dllimportmango\mangoclass.h
; Line 229
  00000		 |$LN9@InternalFi@4|
  00000		 |$M82381|
  00000	e2800004	 add         r0, r0, #4
  00004	ea000000	 b           InterlockedDecrement
  00008		 |$M82382|

			 ENDP  ; |?InternalFinalConstructRelease@CMangoClass@@QAAXXZ|, CMangoClass::InternalFinalConstructRelease

	EXPORT	|??0?$CStringT@_WV?$StrTraitATL@_WV?$ChTraitsOS@_W@ATL@@@ATL@@@ATL@@QAA@XZ| ; ATL::CStringT<wchar_t,ATL::StrTraitATL<wchar_t,ATL::ChTraitsOS<wchar_t> > >::CStringT<wchar_t,ATL::StrTraitATL<wchar_t,ATL::ChTraitsOS<wchar_t> > >
; File c:\program files (x86)\microsoft visual studio 9.0\vc\ce\atlmfc\include\atlsimpstr.h

  00000			 AREA	 |.pdata|, PDATA
|$T82424| DCD	|$LN20@CStringT|
	DCD	0x40000b01
; Function compile flags: /Ogspy

  00000			 AREA	 |.text|, CODE, ARM

  00000		 |??0?$CStringT@_WV?$StrTraitATL@_WV?$ChTraitsOS@_W@ATL@@@ATL@@@ATL@@QAA@XZ| PROC ; ATL::CStringT<wchar_t,ATL::StrTraitATL<wchar_t,ATL::ChTraitsOS<wchar_t> > >::CStringT<wchar_t,ATL::StrTraitATL<wchar_t,ATL::ChTraitsOS<wchar_t> > >
; File c:\program files (x86)\microsoft visual studio 9.0\vc\ce\atlmfc\include\cstringt.h
; Line 788
  00000		 |$LN20@CStringT|
  00000	e92d4010	 stmdb       sp!, {r4, lr}
  00004		 |$M82421|
  00004	e1a04000	 mov         r4, r0
  00008	e59f0018	 ldr         r0, [pc, #0x18]
  0000c	e5903000	 ldr         r3, [r0]
  00010	e1a0e00f	 mov         lr, pc
  00014	e593f00c	 ldr         pc, [r3, #0xC]
  00018	e2803010	 add         r3, r0, #0x10
  0001c	e5843000	 str         r3, [r4]
; Line 789
  00020	e1a00004	 mov         r0, r4
  00024	e8bd8010	 ldmia       sp!, {r4, pc}
  00028		 |$LN21@CStringT|
  00028		 |$LN22@CStringT|
  00028	00000000	 DCD         |?g_strmgr@ATL@@3VCAtlStringMgr@1@A|
  0002c		 |$M82422|

			 ENDP  ; |??0?$CStringT@_WV?$StrTraitATL@_WV?$ChTraitsOS@_W@ATL@@@ATL@@@ATL@@QAA@XZ|, ATL::CStringT<wchar_t,ATL::StrTraitATL<wchar_t,ATL::ChTraitsOS<wchar_t> > >::CStringT<wchar_t,ATL::StrTraitATL<wchar_t,ATL::ChTraitsOS<wchar_t> > >

	EXPORT	|??1?$CStringT@_WV?$StrTraitATL@_WV?$ChTraitsOS@_W@ATL@@@ATL@@@ATL@@QAA@XZ| ; ATL::CStringT<wchar_t,ATL::StrTraitATL<wchar_t,ATL::ChTraitsOS<wchar_t> > >::~CStringT<wchar_t,ATL::StrTraitATL<wchar_t,ATL::ChTraitsOS<wchar_t> > >
; File c:\program files (x86)\microsoft visual studio 9.0\vc\ce\atlmfc\include\atlsimpstr.h

  00000			 AREA	 |.pdata|, PDATA
|$T82451| DCD	|$LN12@CStringT@2|
	DCD	0x40000c01
; Function compile flags: /Ogspy

  00000			 AREA	 |.text|, CODE, ARM

  00000		 |??1?$CStringT@_WV?$StrTraitATL@_WV?$ChTraitsOS@_W@ATL@@@ATL@@@ATL@@QAA@XZ| PROC ; ATL::CStringT<wchar_t,ATL::StrTraitATL<wchar_t,ATL::ChTraitsOS<wchar_t> > >::~CStringT<wchar_t,ATL::StrTraitATL<wchar_t,ATL::ChTraitsOS<wchar_t> > >
; File c:\program files (x86)\microsoft visual studio 9.0\vc\ce\atlmfc\include\cstringt.h
; Line 1028
  00000		 |$LN12@CStringT@2|
  00000	e92d4010	 stmdb       sp!, {r4, lr}
  00004		 |$M82448|
; Line 1029
  00004	e5903000	 ldr         r3, [r0]
  00008	e2434010	 sub         r4, r3, #0x10
  0000c	e284000c	 add         r0, r4, #0xC
  00010	eb000000	 bl          InterlockedDecrement
  00014	e3500000	 cmp         r0, #0
  00018	d5940000	 ldrle       r0, [r4]
  0001c	d1a01004	 movle       r1, r4
  00020	d5903000	 ldrle       r3, [r0]
  00024	d1a0e00f	 movle       lr, pc
  00028	d593f004	 ldrle       pc, [r3, #4]
  0002c	e8bd8010	 ldmia       sp!, {r4, pc}
  00030		 |$M82449|

			 ENDP  ; |??1?$CStringT@_WV?$StrTraitATL@_WV?$ChTraitsOS@_W@ATL@@@ATL@@@ATL@@QAA@XZ|, ATL::CStringT<wchar_t,ATL::StrTraitATL<wchar_t,ATL::ChTraitsOS<wchar_t> > >::~CStringT<wchar_t,ATL::StrTraitATL<wchar_t,ATL::ChTraitsOS<wchar_t> > >

	EXPORT	|?AllocSysString@?$CStringT@_WV?$StrTraitATL@_WV?$ChTraitsOS@_W@ATL@@@ATL@@@ATL@@QBAPA_WXZ| ; ATL::CStringT<wchar_t,ATL::StrTraitATL<wchar_t,ATL::ChTraitsOS<wchar_t> > >::AllocSysString
; File c:\program files (x86)\microsoft visual studio 9.0\vc\ce\atlmfc\include\atlstr.h

  00000			 AREA	 |.pdata|, PDATA
|$T82485| DCD	|$LN16@AllocSysSt@2|
	DCD	0x40000801
; Function compile flags: /Ogspy

  00000			 AREA	 |.text|, CODE, ARM

  00000		 |?AllocSysString@?$CStringT@_WV?$StrTraitATL@_WV?$ChTraitsOS@_W@ATL@@@ATL@@@ATL@@QBAPA_WXZ| PROC ; ATL::CStringT<wchar_t,ATL::StrTraitATL<wchar_t,ATL::ChTraitsOS<wchar_t> > >::AllocSysString
; File c:\program files (x86)\microsoft visual studio 9.0\vc\ce\atlmfc\include\cstringt.h
; Line 1952
  00000		 |$LN16@AllocSysSt@2|
  00000	e52de004	 str         lr, [sp, #-4]!
  00004		 |$M82482|
; Line 1953
  00004	e5900000	 ldr         r0, [r0]
  00008	e510100c	 ldr         r1, [r0, #-0xC]
  0000c	eb000000	 bl          SysAllocStringLen
  00010	e3500000	 cmp         r0, #0
; Line 1959
  00014	1a000000	 bne         |$LN12@AllocSysSt@2|
; Line 1961
  00018	eb000000	 bl          |?ThrowMemoryException@?$CSimpleStringT@_W$0A@@ATL@@KAXXZ|
  0001c		 |$LN17@AllocSysSt@2|
  0001c		 |$LN12@AllocSysSt@2|
; Line 1967
  0001c	e49df004	 ldr         pc, [sp], #4
  00020		 |$LN13@AllocSysSt@2|
  00020		 |$M82483|

			 ENDP  ; |?AllocSysString@?$CStringT@_WV?$StrTraitATL@_WV?$ChTraitsOS@_W@ATL@@@ATL@@@ATL@@QBAPA_WXZ|, ATL::CStringT<wchar_t,ATL::StrTraitATL<wchar_t,ATL::ChTraitsOS<wchar_t> > >::AllocSysString

	EXPORT	|??0CComClassFactory@ATL@@QAA@XZ|	; ATL::CComClassFactory::CComClassFactory

  00000			 AREA	 |.pdata|, PDATA
|$T82538| DCD	|$LN20@CComClassF@2|
	DCD	0x40000f01
; Function compile flags: /Ogspy

  00000			 AREA	 |.text|, CODE, ARM

  00000		 |??0CComClassFactory@ATL@@QAA@XZ| PROC	; ATL::CComClassFactory::CComClassFactory
  00000		 |$LN20@CComClassF@2|
  00000	e92d4070	 stmdb       sp!, {r4 - r6, lr}
  00004		 |$M82535|
  00004	e1a05000	 mov         r5, r0
  00008	e1a04005	 mov         r4, r5
  0000c	e3a06000	 mov         r6, #0
  00010	e5a46004	 str         r6, [r4, #4]!
  00014	e3a02014	 mov         r2, #0x14
  00018	e3a01000	 mov         r1, #0
  0001c	e2840004	 add         r0, r4, #4
  00020	eb000000	 bl          memset
  00024	e59f300c	 ldr         r3, [pc, #0xC]
  00028	e5c46018	 strb        r6, [r4, #0x18]
  0002c	e1a00005	 mov         r0, r5
  00030	e5853000	 str         r3, [r5]
  00034	e8bd8070	 ldmia       sp!, {r4 - r6, pc}
  00038		 |$LN21@CComClassF@2|
  00038		 |$LN22@CComClassF@2|
  00038	00000000	 DCD         |??_7CComClassFactory@ATL@@6B@|
  0003c		 |$M82536|

			 ENDP  ; |??0CComClassFactory@ATL@@QAA@XZ|, ATL::CComClassFactory::CComClassFactory

	EXPORT	|??0?$CComObject@VCMangoClass@@@ATL@@QAA@PAX@Z| ; ATL::CComObject<CMangoClass>::CComObject<CMangoClass>
	EXPORT	|??_7?$CComObject@VCMangoClass@@@ATL@@6B@| [ DATA ] ; ATL::CComObject<CMangoClass>::`vftable'
	EXPORT	|?QueryInterface@?$CComObject@VCMangoClass@@@ATL@@UAAJABU_GUID@@PAPAX@Z| ; ATL::CComObject<CMangoClass>::QueryInterface
	EXPORT	|?AddRef@?$CComObject@VCMangoClass@@@ATL@@UAAKXZ| ; ATL::CComObject<CMangoClass>::AddRef
	EXPORT	|?Release@?$CComObject@VCMangoClass@@@ATL@@UAAKXZ| ; ATL::CComObject<CMangoClass>::Release
	EXPORT	|?MessageBoxRunningProc@CMangoClass@@UAAJPAPA_W@Z| ; CMangoClass::MessageBoxRunningProc
	EXPORT	|?Crnch@CMangoClass@@UAAJPAPA_W@Z|	; CMangoClass::Crnch
	EXPORT	|?ddirFiles7@CMangoClass@@UAAJPA_WPAPA_W@Z| ; CMangoClass::ddirFiles7
	EXPORT	|?WindowTextOfHWND@CMangoClass@@UAAJHPAPA_W_N@Z| ; CMangoClass::WindowTextOfHWND
	EXPORT	|?EnumWindows7@CMangoClass@@UAAJ_NPAPA_W@Z| ; CMangoClass::EnumWindows7
	EXPORT	|?TextForHWNDEnumWindows@CMangoClass@@UAAJHPAPA_W@Z| ; CMangoClass::TextForHWNDEnumWindows
	EXPORT	|?GetClassNameForHWNDEnumWindows@CMangoClass@@UAAJHPAPA_W@Z| ; CMangoClass::GetClassNameForHWNDEnumWindows
	EXPORT	|?GetSystemPowerStatusEx7@CMangoClass@@UAAJPAPA_W_N@Z| ; CMangoClass::GetSystemPowerStatusEx7
	EXPORT	|?GetSystemPowerStatusExAdv7@CMangoClass@@UAAJPAPA_W_N@Z| ; CMangoClass::GetSystemPowerStatusExAdv7
	EXPORT	|?GlobalMemoryStatus7@CMangoClass@@UAAJPAPA_W@Z| ; CMangoClass::GlobalMemoryStatus7
	EXPORT	|?EnumDisplaySettings7@CMangoClass@@UAAJPA_WKPAPA_W@Z| ; CMangoClass::EnumDisplaySettings7
	EXPORT	|?GetCommandLine7@CMangoClass@@UAAJPAPA_W@Z| ; CMangoClass::GetCommandLine7
	EXPORT	|?TestFunc2@CMangoClass@@UAAJXZ|	; CMangoClass::TestFunc2
	IMPORT	|??_E?$CComObject@VCMangoClass@@@ATL@@UAAPAXI@Z|, WEAK |??_G?$CComObject@VCMangoClass@@@ATL@@UAAPAXI@Z| ; ATL::CComObject<CMangoClass>::`vector deleting destructor', ATL::CComObject<CMangoClass>::`scalar deleting destructor'
; File c:\program files (x86)\microsoft visual studio 9.0\vc\ce\atlmfc\include\atlbase.h

  00000			 AREA	 |.pdata|, PDATA
|$T82608| DCD	|$LN21@CComObject@7|
	DCD	0x40001501

  00000			 AREA	 |.rdata|, DATA, READONLY
|??_7?$CComObject@VCMangoClass@@@ATL@@6B@| DCD |?QueryInterface@?$CComObject@VCMangoClass@@@ATL@@UAAJABU_GUID@@PAPAX@Z| ; ATL::CComObject<CMangoClass>::`vftable'
	DCD	|?AddRef@?$CComObject@VCMangoClass@@@ATL@@UAAKXZ|
	DCD	|?Release@?$CComObject@VCMangoClass@@@ATL@@UAAKXZ|
	DCD	|?Zune_VoidCall@CMangoClass@@UAAJPB_W@Z|
	DCD	|?Radio_Toggle@CMangoClass@@UAAJI@Z|
	DCD	|?LoadLibrary7@CMangoClass@@UAAJPB_WPAI@Z|
	DCD	|?GetProcAddress7@CMangoClass@@UAAJIPB_WPAH@Z|
	DCD	|?FreeLibrary7@CMangoClass@@UAAJI@Z|
	DCD	|?Clipboard_SET@CMangoClass@@UAAJPA_W@Z|
	DCD	|?Clipboard_GET@CMangoClass@@UAAJPAPA_W@Z|
	DCD	|?VoidCall@CMangoClass@@UAAJPB_W0@Z|
	DCD	|?MessageBoxRunningProc@CMangoClass@@UAAJPAPA_W@Z|
	DCD	|?TerminateProcess7@CMangoClass@@UAAJII@Z|
	DCD	|?GetAsyncKeyState7@CMangoClass@@UAAJH@Z|
	DCD	|?Crnch@CMangoClass@@UAAJPAPA_W@Z|
	DCD	|?QueryPerformanceCounter7@CMangoClass@@UAAJPA_K@Z|
	DCD	|?SetWindowsHookExW@CMangoClass@@UAAJHH@Z|
	DCD	|?ShellExecuteEx7@CMangoClass@@UAAJPA_W0@Z|
	DCD	|?CreateProcess7@CMangoClass@@UAAJPA_W0@Z|
	DCD	|?GetProcessTimes7@CMangoClass@@UAAJHPAH0000000@Z|
	DCD	|?NavigateToExternalPage7@CMangoClass@@UAAJHPA_WHH@Z|
	DCD	|?MessageBox7@CMangoClass@@UAAJPB_W0IPAH@Z|
	DCD	|?ShutdownOS@CMangoClass@@UAAJI@Z|
	DCD	|?CeCreateProcessEx@CMangoClass@@UAAJXZ|
	DCD	|?GetLastError7@CMangoClass@@UAAJXZ|
	DCD	|?StringCall@CMangoClass@@UAAJPB_W00@Z|
	DCD	|?Tests@CMangoClass@@UAAJXZ|
	DCD	|?CreateDirectoryPath7@CMangoClass@@UAAJPB_W@Z|
	DCD	|?NdisGetSystemUpTimeEx7@CMangoClass@@UAAJH@Z|
	DCD	|?fopen7@CMangoClass@@UAAJPA_W0@Z|
	DCD	|?fclose7@CMangoClass@@UAAJH@Z|
	DCD	|?fseek7@CMangoClass@@UAAJHJH@Z|
	DCD	|?fgetc7@CMangoClass@@UAAJH@Z|
	DCD	|?fsize7@CMangoClass@@UAAJH@Z|
	DCD	|?fputc7@CMangoClass@@UAAJHD@Z|
	DCD	|?ddirFiles7@CMangoClass@@UAAJPA_WPAPA_W@Z|
	DCD	|?dirFiles7@CMangoClass@@UAAJPA_WPAPA_W@Z|
	DCD	|?FindFirstFile7@CMangoClass@@UAAJPA_WPAU_WIN32_FIND_DATAW@@@Z|
	DCD	|?FindNextFile7@CMangoClass@@UAAJHPAU_WIN32_FIND_DATAW@@@Z|
	DCD	|?FindClose7@CMangoClass@@UAAJH@Z|
	DCD	|?UintCall@CMangoClass@@UAAJPB_W0I@Z|
	DCD	|?WindowTextOfHWND@CMangoClass@@UAAJHPAPA_W_N@Z|
	DCD	|?BoolCall@CMangoClass@@UAAJPB_W0_N@Z|
	DCD	|?EnumWindows7@CMangoClass@@UAAJ_NPAPA_W@Z|
	DCD	|?TextForHWNDEnumWindows@CMangoClass@@UAAJHPAPA_W@Z|
	DCD	|?GetClassNameForHWNDEnumWindows@CMangoClass@@UAAJHPAPA_W@Z|
	DCD	|?IntCall@CMangoClass@@UAAJPB_W0H@Z|
	DCD	|?IntDualCall@CMangoClass@@UAAJPB_W0HH@Z|
	DCD	|?EnumDisplayDevices7@CMangoClass@@UAAJKPAU_DISPLAY_DEVICE@@K@Z|
	DCD	|?waveOutGetVolume7@CMangoClass@@UAAJPAK@Z|
	DCD	|?waveOutSetVolume7@CMangoClass@@UAAJK@Z|
	DCD	|?waveOutSetPitch7@CMangoClass@@UAAJK@Z|
	DCD	|?waveGetHWAVEOUT@CMangoClass@@UAAJXZ|
	DCD	|?KernelIoControl@CMangoClass@@UAAJIHIHIPAI@Z|
	DCD	|?GetSystemPowerStatusEx7@CMangoClass@@UAAJPAPA_W_N@Z|
	DCD	|?StringIntIntCall@CMangoClass@@UAAJPB_W0PA_WHH@Z|
	DCD	|?StringIntIntOutCall@CMangoClass@@UAAJPB_W0PA_WHPAH@Z|
	DCD	|?ScreenSetContrast@CMangoClass@@UAAJK@Z|
	DCD	|?ScreenGetContrast@CMangoClass@@UAAJXZ|
	DCD	|?IntQuadCall@CMangoClass@@UAAJPB_W0HHHH@Z|
	DCD	|?PhoneMakeCall7@CMangoClass@@UAAJPA_W@Z|
	DCD	|?SetSystemTime7@CMangoClass@@UAAJGGGGGGGG@Z|
	DCD	|?StringStringCall@CMangoClass@@UAAJPB_W0PA_W1@Z|
	DCD	|?GetSystemPowerStatusExAdv7@CMangoClass@@UAAJPAPA_W_N@Z|
	DCD	|?GlobalMemoryStatus7@CMangoClass@@UAAJPAPA_W@Z|
	DCD	|?CeRunAppAtTime7@CMangoClass@@UAAJPA_WU_SYSTEMTIME@@@Z|
	DCD	|?EnumDisplaySettings7@CMangoClass@@UAAJPA_WKPAPA_W@Z|
	DCD	|?GetCommandLine7@CMangoClass@@UAAJPAPA_W@Z|
	DCD	|?PostMessage7@CMangoClass@@UAAJHIII@Z|
	DCD	|?SendMessage7@CMangoClass@@UAAJHIII@Z|
	DCD	|?ThisTaskHostInformation@CMangoClass@@UAAJPB_W0PAX@Z|
	DCD	|?CaptureScreen@CMangoClass@@UAAJPAPAUHBITMAP__@@PAHPAPAX@Z|
	DCD	|?DeleteObject@CMangoClass@@UAAJPAX@Z|
	DCD	|?ASMExecute@CMangoClass@@UAAJPAE@Z|
	DCD	|?GetHelloWorldMSGBPtr@CMangoClass@@UAAJXZ|
	DCD	|?ValueAtAddres@CMangoClass@@UAAJPAH@Z|
	DCD	|?AddressOfObject@CMangoClass@@UAAJPAX@Z|
	DCD	|?TestFunc1@CMangoClass@@UAAJXZ|
	DCD	|?TestFunc2@CMangoClass@@UAAJXZ|
	DCD	|?DeviceIoControl7@CMangoClass@@UAAJPAXK0K0KPAKPAU_OVERLAPPED@@@Z|
	DCD	|?WriteByte@CMangoClass@@UAAJPAHE@Z|
	DCD	|?EDB_Mount@CMangoClass@@UAAJPA_WPA_N@Z|
	DCD	|?EDB_OpenMounted@CMangoClass@@UAAJPA_WPAU_CEGUID@@@Z|
	DCD	|?EDB_FindFirstDB@CMangoClass@@UAAJPAU_CEGUID@@@Z|
	DCD	|?EDB_FindNextDB@CMangoClass@@UAAJPAXPAU_CEGUID@@@Z|
	DCD	|?EDB_OpenDBSession@CMangoClass@@UAAJPAU_CEGUID@@PAK@Z|
	DCD	|?EDB_CloseHandle@CMangoClass@@UAAJPAX@Z|
	DCD	|?EDB_CeOidGetInfoEx@CMangoClass@@UAAJPAU_CEGUID@@K@Z|
	DCD	|?EDB_OpenDBFind@CMangoClass@@UAAJPAU_CEGUID@@K@Z|
	DCD	|?EDB_CeOpenDatabaseEx@CMangoClass@@UAAJPAU_CEGUID@@K@Z|
	DCD	|??_E?$CComObject@VCMangoClass@@@ATL@@UAAPAXI@Z|
; Function compile flags: /Ogspy

  00000			 AREA	 |.text|, CODE, ARM

  00000		 |??0?$CComObject@VCMangoClass@@@ATL@@QAA@PAX@Z| PROC ; ATL::CComObject<CMangoClass>::CComObject<CMangoClass>
; File c:\program files (x86)\microsoft visual studio 9.0\vc\ce\atlmfc\include\atlcom.h
; Line 2705
  00000		 |$LN21@CComObject@7|
  00000	e92d4070	 stmdb       sp!, {r4 - r6, lr}
  00004		 |$M82605|
  00004	e1a05000	 mov         r5, r0
  00008	e1a04005	 mov         r4, r5
  0000c	e3a06000	 mov         r6, #0
  00010	e5a46004	 str         r6, [r4, #4]!
  00014	e3a02014	 mov         r2, #0x14
  00018	e3a01000	 mov         r1, #0
  0001c	e2840004	 add         r0, r4, #4
  00020	eb000000	 bl          memset
  00024	e59f3024	 ldr         r3, [pc, #0x24]
; Line 2707
  00028	e59f201c	 ldr         r2, [pc, #0x1C]
  0002c	e5c46018	 strb        r6, [r4, #0x18]
  00030	e5853000	 str         r3, [r5]
  00034	e5920000	 ldr         r0, [r2]
  00038	e5903000	 ldr         r3, [r0]
  0003c	e1a0e00f	 mov         lr, pc
  00040	e593f004	 ldr         pc, [r3, #4]
; Line 2708
  00044	e1a00005	 mov         r0, r5
  00048	e8bd8070	 ldmia       sp!, {r4 - r6, pc}
  0004c		 |$LN22@CComObject@7|
  0004c		 |$LN23@CComObject@7|
  0004c	00000000	 DCD         |?_pAtlModule@ATL@@3PAVCAtlModule@1@A|
  00050		 |$LN24@CComObject@7|
  00050	00000000	 DCD         |??_7?$CComObject@VCMangoClass@@@ATL@@6B@|
  00054		 |$M82606|

			 ENDP  ; |??0?$CComObject@VCMangoClass@@@ATL@@QAA@PAX@Z|, ATL::CComObject<CMangoClass>::CComObject<CMangoClass>

	EXPORT	|?_GetEntries@CMangoClass@@SAPBU_ATL_INTMAP_ENTRY@ATL@@XZ| ; CMangoClass::_GetEntries
	EXPORT	|?_entries@?1??_GetEntries@CMangoClass@@SAPBU_ATL_INTMAP_ENTRY@ATL@@XZ@4QBU34@B| [ DATA ] ; `CMangoClass::_GetEntries'::`2'::_entries
	EXPORT	|_GUID_a980817d_1dfc_4307_a069_a725e544f79c| [ DATA ]
; File c:\users\steven\desktop\csharp - dllimport\csharp - dllimport\vs2008\dllimportmango\mangoclass.h

  00000			 AREA	 |.pdata|, PDATA
|$T82620| DCD	|$LN5@GetEntries|
	DCD	0x40000300

  00000			 AREA	 |.rdata|, DATA, READONLY
|_GUID_a980817d_1dfc_4307_a069_a725e544f79c| DCD 0xa980817d
	DCW	0x1dfc
	DCW	0x4307
	DCB	0xa0
	DCB	0x69
	DCB	0xa7
	DCB	0x25
	DCB	0xe5
	DCB	0x44
	DCB	0xf7
	DCB	0x9c

  00000			 AREA	 |.rdata|, DATA, READONLY
|?_entries@?1??_GetEntries@CMangoClass@@SAPBU_ATL_INTMAP_ENTRY@ATL@@XZ@4QBU34@B| DCD |_GUID_a980817d_1dfc_4307_a069_a725e544f79c| ; `CMangoClass::_GetEntries'::`2'::_entries
	DCD	0x0
	DCD	0x1
	DCD	0x0
	DCD	0x0
	DCD	0x0
; Function compile flags: /Ogspy

  00000			 AREA	 |.text|, CODE, ARM

  00000		 |?_GetEntries@CMangoClass@@SAPBU_ATL_INTMAP_ENTRY@ATL@@XZ| PROC ; CMangoClass::_GetEntries
; Line 39
  00000		 |$LN5@GetEntries|
  00000		 |$M82617|
; Line 42
  00000	e59f0000	 ldr         r0, [pc]
  00004	e1a0f00e	 mov         pc, lr
  00008		 |$LN6@GetEntries|
  00008		 |$LN7@GetEntries|
  00008	00000000	 DCD         |?_entries@?1??_GetEntries@CMangoClass@@SAPBU_ATL_INTMAP_ENTRY@ATL@@XZ@4QBU34@B|
  0000c		 |$M82618|

			 ENDP  ; |?_GetEntries@CMangoClass@@SAPBU_ATL_INTMAP_ENTRY@ATL@@XZ|, CMangoClass::_GetEntries

	EXPORT	|?FinalRelease@CMangoClass@@QAAXXZ|	; CMangoClass::FinalRelease

  00000			 AREA	 |.pdata|, PDATA
|$T82629| DCD	|$LN5@FinalRelea|
	DCD	0x40000100
; Function compile flags: /Ogspy

  00000			 AREA	 |.text|, CODE, ARM

  00000		 |?FinalRelease@CMangoClass@@QAAXXZ| PROC ; CMangoClass::FinalRelease
; Line 237
  00000		 |$LN5@FinalRelea|
  00000		 |$M82626|
; Line 238
  00000	e1a0f00e	 mov         pc, lr
  00004		 |$M82627|

			 ENDP  ; |?FinalRelease@CMangoClass@@QAAXXZ|, CMangoClass::FinalRelease

	EXPORT	|?InlineIsEqualGUID@ATL@@YAHABU_GUID@@0@Z| ; ATL::InlineIsEqualGUID
; File c:\program files (x86)\microsoft visual studio 9.0\vc\ce\atlmfc\include\atlosapice.h

  00000			 AREA	 |.pdata|, PDATA
|$T82642| DCD	|$LN7@InlineIsEq@2|
	DCD	0x40001200
; Function compile flags: /Ogspy

  00000			 AREA	 |.text|, CODE, ARM

  00000		 |?InlineIsEqualGUID@ATL@@YAHABU_GUID@@0@Z| PROC ; ATL::InlineIsEqualGUID
; Line 1314
  00000		 |$LN7@InlineIsEq@2|
  00000		 |$M82639|
; Line 1319
  00000	e5902000	 ldr         r2, [r0]
  00004	e5913000	 ldr         r3, [r1]
  00008	e1520003	 cmp         r2, r3
  0000c	1a00000b	 bne         |$LN3@InlineIsEq@2|
  00010	e5902004	 ldr         r2, [r0, #4]
  00014	e5913004	 ldr         r3, [r1, #4]
  00018	e1520003	 cmp         r2, r3
  0001c	1a000007	 bne         |$LN3@InlineIsEq@2|
  00020	e5902008	 ldr         r2, [r0, #8]
  00024	e5913008	 ldr         r3, [r1, #8]
  00028	e1520003	 cmp         r2, r3
  0002c	0590200c	 ldreq       r2, [r0, #0xC]
  00030	0591300c	 ldreq       r3, [r1, #0xC]
  00034	01520003	 cmpeq       r2, r3
  00038	03a00001	 moveq       r0, #1
; Line 1320
  0003c	01a0f00e	 moveq       pc, lr
  00040		 |$LN3@InlineIsEq@2|
; Line 1319
  00040	e3a00000	 mov         r0, #0
; Line 1320
  00044	e1a0f00e	 mov         pc, lr
  00048		 |$M82640|

			 ENDP  ; |?InlineIsEqualGUID@ATL@@YAHABU_GUID@@0@Z|, ATL::InlineIsEqualGUID

	EXPORT	|?AtlInternalQueryInterface@ATL@@YAJPAXPBU_ATL_INTMAP_ENTRY@1@ABU_GUID@@PAPAX@Z| ; ATL::AtlInternalQueryInterface
; File c:\program files (x86)\microsoft visual studio 9.0\vc\ce\atlmfc\include\atlbase.h

  00000			 AREA	 |.pdata|, PDATA
|$T82677| DCD	|$LN32@AtlInterna|
	DCD	0x40004c01
; Function compile flags: /Ogspy

  00000			 AREA	 |.text|, CODE, ARM

  00000		 |?AtlInternalQueryInterface@ATL@@YAJPAXPBU_ATL_INTMAP_ENTRY@1@ABU_GUID@@PAPAX@Z| PROC ; ATL::AtlInternalQueryInterface
; File c:\program files (x86)\microsoft visual studio 9.0\vc\ce\atlmfc\include\atlbase.inl
; Line 260
  00000		 |$LN32@AtlInterna|
  00000	e92d43f0	 stmdb       sp!, {r4 - r9, lr}
  00004		 |$M82674|
  00004	e1a06003	 mov         r6, r3
  00008	e1a05002	 mov         r5, r2
  0000c	e1a04001	 mov         r4, r1
  00010	e1b09000	 movs        r9, r0
; Line 264
  00014	0a000042	 beq         |$LN11@AtlInterna|
  00018	e3540000	 cmp         r4, #0
  0001c	0a000040	 beq         |$LN11@AtlInterna|
; Line 269
  00020	e3560000	 cmp         r6, #0
  00024	03a0310e	 moveq       r3, #0xE, 2
; Line 270
  00028	03830901	 orreq       r0, r3, #1, 18	; 16384 (0x4000)
; Line 303
  0002c	08bd83f0	 ldmeqia     sp!, {r4 - r9, pc}
; Line 271
  00030	e3a03000	 mov         r3, #0
  00034	e5863000	 str         r3, [r6]
; Line 272
  00038	e5953000	 ldr         r3, [r5]
  0003c	e3530000	 cmp         r3, #0
  00040	1a00002a	 bne         |$LN21@AtlInterna|
  00044	e5953004	 ldr         r3, [r5, #4]
  00048	e3530000	 cmp         r3, #0
  0004c	1a000027	 bne         |$LN21@AtlInterna|
  00050	e5953008	 ldr         r3, [r5, #8]
  00054	e35300c0	 cmp         r3, #0xC0
  00058	1a000024	 bne         |$LN21@AtlInterna|
  0005c	e595300c	 ldr         r3, [r5, #0xC]
  00060	e3530446	 cmp         r3, #0x46, 8	; 1174405120 (0x46000000)
  00064	1a000021	 bne         |$LN21@AtlInterna|
; Line 274
  00068	e5943004	 ldr         r3, [r4, #4]
; Line 275
  0006c	e0834009	 add         r4, r3, r9
  00070	e5943000	 ldr         r3, [r4]
  00074	e1a00004	 mov         r0, r4
  00078	e1a0e00f	 mov         lr, pc
  0007c	e593f004	 ldr         pc, [r3, #4]
  00080		 |$LN29@AtlInterna|
; Line 276
  00080	e5864000	 str         r4, [r6]
; Line 277
  00084	e3a00000	 mov         r0, #0
; Line 303
  00088	e8bd83f0	 ldmia       sp!, {r4 - r9, pc}
  0008c		 |$LL8@AtlInterna|
; Line 281
  0008c	e5943000	 ldr         r3, [r4]
  00090	e3530000	 cmp         r3, #0
  00094	03a08001	 moveq       r8, #1
  00098	0a000005	 beq         |$LN5@AtlInterna|
; Line 282
  0009c	e1a01005	 mov         r1, r5
  000a0	e1a00003	 mov         r0, r3
  000a4	e3a08000	 mov         r8, #0
  000a8	eb000000	 bl          |?InlineIsEqualGUID@ATL@@YAHABU_GUID@@0@Z|
  000ac	e3500000	 cmp         r0, #0
  000b0	0a00000d	 beq         |$LN2@AtlInterna|
  000b4		 |$LN5@AtlInterna|
; Line 284
  000b4	e3570001	 cmp         r7, #1
  000b8	0a000012	 beq         |$LN22@AtlInterna|
; Line 295
  000bc	e5943004	 ldr         r3, [r4, #4]
  000c0	e1a02006	 mov         r2, r6
  000c4	e1a01005	 mov         r1, r5
  000c8	e1a00009	 mov         r0, r9
  000cc	e1a0e00f	 mov         lr, pc
  000d0	e1a0f007	 mov         pc, r7
  000d4	e3500000	 cmp         r0, #0
; Line 296
  000d8	0a000012	 beq         |$LN13@AtlInterna|
  000dc	e3580000	 cmp         r8, #0
  000e0	1a000001	 bne         |$LN2@AtlInterna|
  000e4	e3500000	 cmp         r0, #0
  000e8	4a00000e	 bmi         |$LN13@AtlInterna|
  000ec		 |$LN2@AtlInterna|
; Line 300
  000ec	e284400c	 add         r4, r4, #0xC
  000f0		 |$LN21@AtlInterna|
  000f0	e5943008	 ldr         r3, [r4, #8]
  000f4	e1b07003	 movs        r7, r3
  000f8	1affffe3	 bne         |$LL8@AtlInterna|
; Line 290
  000fc	e3a0310a	 mov         r3, #0xA, 2
; Line 270
  00100	e3830901	 orr         r0, r3, #1, 18	; 16384 (0x4000)
; Line 303
  00104	e8bd83f0	 ldmia       sp!, {r4 - r9, pc}
  00108		 |$LN22@AtlInterna|
; Line 287
  00108	e5943004	 ldr         r3, [r4, #4]
; Line 288
  0010c	e0834009	 add         r4, r3, r9
  00110	e5943000	 ldr         r3, [r4]
  00114	e1a00004	 mov         r0, r4
  00118	e1a0e00f	 mov         lr, pc
  0011c	e593f004	 ldr         pc, [r3, #4]
; Line 290
  00120	eaffffd6	 b           |$LN29@AtlInterna|
  00124		 |$LN11@AtlInterna|
; Line 265
  00124	e59f0000	 ldr         r0, [pc]		; -2147024809 (0x80070057)
  00128		 |$LN13@AtlInterna|
; Line 303
  00128	e8bd83f0	 ldmia       sp!, {r4 - r9, pc}
  0012c		 |$LN33@AtlInterna|
  0012c		 |$LN34@AtlInterna|
  0012c	80070057	 DCD         0x80070057
  00130		 |$M82675|

			 ENDP  ; |?AtlInternalQueryInterface@ATL@@YAJPAXPBU_ATL_INTMAP_ENTRY@1@ABU_GUID@@PAPAX@Z|, ATL::AtlInternalQueryInterface

	EXPORT	|?InternalQueryInterface@CComObjectRootBase@ATL@@SAJPAXPBU_ATL_INTMAP_ENTRY@2@ABU_GUID@@PAPAX@Z| ; ATL::CComObjectRootBase::InternalQueryInterface
; File c:\program files (x86)\microsoft visual studio 9.0\vc\ce\atlmfc\include\atlcom.h

  00000			 AREA	 |.pdata|, PDATA
|$T82692| DCD	|$LN5@InternalQu|
	DCD	0x40000100
; Function compile flags: /Ogspy

  00000			 AREA	 |.text|, CODE, ARM

  00000		 |?InternalQueryInterface@CComObjectRootBase@ATL@@SAJPAXPBU_ATL_INTMAP_ENTRY@2@ABU_GUID@@PAPAX@Z| PROC ; ATL::CComObjectRootBase::InternalQueryInterface
; Line 2328
  00000		 |$LN5@InternalQu|
  00000		 |$M82689|
; Line 2339
  00000	ea000000	 b           |?AtlInternalQueryInterface@ATL@@YAJPAXPBU_ATL_INTMAP_ENTRY@1@ABU_GUID@@PAPAX@Z|
  00004		 |$M82690|

			 ENDP  ; |?InternalQueryInterface@CComObjectRootBase@ATL@@SAJPAXPBU_ATL_INTMAP_ENTRY@2@ABU_GUID@@PAPAX@Z|, ATL::CComObjectRootBase::InternalQueryInterface

	EXPORT	|?_InternalQueryInterface@CMangoClass@@QAAJABU_GUID@@PAPAX@Z| ; CMangoClass::_InternalQueryInterface

  00000			 AREA	 |.pdata|, PDATA
|$T82713| DCD	|$LN9@InternalQu@2|
	DCD	0x40000500
; Function compile flags: /Ogspy

  00000			 AREA	 |.text|, CODE, ARM

  00000		 |?_InternalQueryInterface@CMangoClass@@QAAJABU_GUID@@PAPAX@Z| PROC ; CMangoClass::_InternalQueryInterface
; File c:\users\steven\desktop\csharp - dllimport\csharp - dllimport\vs2008\dllimportmango\mangoclass.h
; Line 39
  00000		 |$LN9@InternalQu@2|
  00000		 |$M82710|
  00000	e1a03002	 mov         r3, r2
  00004	e1a02001	 mov         r2, r1
  00008	e59f1000	 ldr         r1, [pc]
  0000c	ea000000	 b           |?AtlInternalQueryInterface@ATL@@YAJPAXPBU_ATL_INTMAP_ENTRY@1@ABU_GUID@@PAPAX@Z|
  00010		 |$LN10@InternalQu@2|
  00010		 |$LN11@InternalQu@2|
  00010	00000000	 DCD         |?_entries@?1??_GetEntries@CMangoClass@@SAPBU_ATL_INTMAP_ENTRY@ATL@@XZ@4QBU34@B|
  00014		 |$M82711|

			 ENDP  ; |?_InternalQueryInterface@CMangoClass@@QAAJABU_GUID@@PAPAX@Z|, CMangoClass::_InternalQueryInterface

; File c:\program files (x86)\microsoft visual studio 9.0\vc\ce\atlmfc\include\atlbase.h

  00000			 AREA	 |.pdata|, PDATA
|$T82736| DCD	|$LN12@AddRef@2|
	DCD	0x40000200
; Function compile flags: /Ogspy

  00000			 AREA	 |.text|, CODE, ARM

  00000		 |?AddRef@?$CComObject@VCMangoClass@@@ATL@@UAAKXZ| PROC ; ATL::CComObject<CMangoClass>::AddRef
; File c:\program files (x86)\microsoft visual studio 9.0\vc\ce\atlmfc\include\atlcom.h
; Line 2722
  00000		 |$LN12@AddRef@2|
  00000		 |$M82733|
  00000	e2800004	 add         r0, r0, #4
  00004	ea000000	 b           InterlockedIncrement
  00008		 |$M82734|

			 ENDP  ; |?AddRef@?$CComObject@VCMangoClass@@@ATL@@UAAKXZ|, ATL::CComObject<CMangoClass>::AddRef

; File c:\program files (x86)\microsoft visual studio 9.0\vc\ce\atlmfc\include\atlbase.h

  00000			 AREA	 |.pdata|, PDATA
|$T82759| DCD	|$LN12@Release@2|
	DCD	0x40000e01
; Function compile flags: /Ogspy

  00000			 AREA	 |.text|, CODE, ARM

  00000		 |?Release@?$CComObject@VCMangoClass@@@ATL@@UAAKXZ| PROC ; ATL::CComObject<CMangoClass>::Release
; File c:\program files (x86)\microsoft visual studio 9.0\vc\ce\atlmfc\include\atlcom.h
; Line 2724
  00000		 |$LN12@Release@2|
  00000	e92d4030	 stmdb       sp!, {r4, r5, lr}
  00004		 |$M82756|
  00004	e1a04000	 mov         r4, r0
; Line 2725
  00008	e2840004	 add         r0, r4, #4
  0000c	eb000000	 bl          InterlockedDecrement
  00010	e1b05000	 movs        r5, r0
; Line 2726
  00014	1a000005	 bne         |$LN4@Release@2|
; Line 2727
  00018	e3540000	 cmp         r4, #0
  0001c	15943000	 ldrne       r3, [r4]
  00020	13a01001	 movne       r1, #1
  00024	11a00004	 movne       r0, r4
  00028	11a0e00f	 movne       lr, pc
  0002c	1593f168	 ldrne       pc, [r3, #0x168]
  00030		 |$LN4@Release@2|
; Line 2729
  00030	e1a00005	 mov         r0, r5
  00034	e8bd8030	 ldmia       sp!, {r4, r5, pc}
  00038		 |$M82757|

			 ENDP  ; |?Release@?$CComObject@VCMangoClass@@@ATL@@UAAKXZ|, ATL::CComObject<CMangoClass>::Release


  00000			 AREA	 |.pdata|, PDATA
|$T82789| DCD	|$LN11@QueryInter|
	DCD	0x40000500
; Function compile flags: /Ogspy

  00000			 AREA	 |.text|, CODE, ARM

  00000		 |?QueryInterface@?$CComObject@VCMangoClass@@@ATL@@UAAJABU_GUID@@PAPAX@Z| PROC ; ATL::CComObject<CMangoClass>::QueryInterface
; Line 2732
  00000		 |$LN11@QueryInter|
  00000		 |$M82786|
  00000	e1a03002	 mov         r3, r2
  00004	e1a02001	 mov         r2, r1
  00008	e59f1000	 ldr         r1, [pc]
  0000c	ea000000	 b           |?AtlInternalQueryInterface@ATL@@YAJPAXPBU_ATL_INTMAP_ENTRY@1@ABU_GUID@@PAPAX@Z|
  00010		 |$LN12@QueryInter|
  00010		 |$LN13@QueryInter|
  00010	00000000	 DCD         |?_entries@?1??_GetEntries@CMangoClass@@SAPBU_ATL_INTMAP_ENTRY@ATL@@XZ@4QBU34@B|
  00014		 |$M82787|

			 ENDP  ; |?QueryInterface@?$CComObject@VCMangoClass@@@ATL@@UAAJABU_GUID@@PAPAX@Z|, ATL::CComObject<CMangoClass>::QueryInterface

	EXPORT	|??1?$CComObject@VCMangoClass@@@ATL@@UAA@XZ| ; ATL::CComObject<CMangoClass>::~CComObject<CMangoClass>

  00000			 AREA	 |.pdata|, PDATA
|$T82861| DCD	|$LN22@CComObject@8|
	DCD	0x40001401
; Function compile flags: /Ogspy

  00000			 AREA	 |.text|, CODE, ARM

  00000		 |??1?$CComObject@VCMangoClass@@@ATL@@UAA@XZ| PROC ; ATL::CComObject<CMangoClass>::~CComObject<CMangoClass>
; Line 2712
  00000		 |$LN22@CComObject@8|
  00000	e92d4010	 stmdb       sp!, {r4, lr}
  00004		 |$M82858|
  00004	e1a04000	 mov         r4, r0
  00008	e59f303c	 ldr         r3, [pc, #0x3C]
; Line 2718
  0000c	e59f2034	 ldr         r2, [pc, #0x34]
  00010	e3a01107	 mov         r1, #7, 2
  00014	e5843000	 str         r3, [r4]
  00018	e5841004	 str         r1, [r4, #4]
  0001c	e5920000	 ldr         r0, [r2]
  00020	e5903000	 ldr         r3, [r0]
  00024	e1a0e00f	 mov         lr, pc
  00028	e593f008	 ldr         pc, [r3, #8]
; Line 2719
  0002c	e5d4301c	 ldrb        r3, [r4, #0x1C]
  00030	e3530000	 cmp         r3, #0
  00034	13a03000	 movne       r3, #0
  00038	12840008	 addne       r0, r4, #8
  0003c	15c4301c	 strneb      r3, [r4, #0x1C]
  00040	1b000000	 blne        DeleteCriticalSection
  00044	e8bd8010	 ldmia       sp!, {r4, pc}
  00048		 |$LN23@CComObject@8|
  00048		 |$LN24@CComObject@8|
  00048	00000000	 DCD         |?_pAtlModule@ATL@@3PAVCAtlModule@1@A|
  0004c		 |$LN25@CComObject@8|
  0004c	00000000	 DCD         |??_7?$CComObject@VCMangoClass@@@ATL@@6B@|
  00050		 |$M82859|

			 ENDP  ; |??1?$CComObject@VCMangoClass@@@ATL@@UAA@XZ|, ATL::CComObject<CMangoClass>::~CComObject<CMangoClass>


  00000			 AREA	 |.pdata|, PDATA
|$T82875| DCD	|$LN6@scalar@2|
	DCD	0x40000901
; Function compile flags: /Ogspy

  00000			 AREA	 |.text|, CODE, ARM

  00000		 |??_G?$CComObject@VCMangoClass@@@ATL@@UAAPAXI@Z| PROC ; ATL::CComObject<CMangoClass>::`scalar deleting destructor'
  00000		 |$LN6@scalar@2|
  00000	e92d4030	 stmdb       sp!, {r4, r5, lr}
  00004		 |$M82872|
  00004	e1a04001	 mov         r4, r1
  00008	e1a05000	 mov         r5, r0
  0000c	eb000000	 bl          |??1?$CComObject@VCMangoClass@@@ATL@@UAA@XZ|
  00010	e3140001	 tst         r4, #1
  00014	11a00005	 movne       r0, r5
  00018	1b000000	 blne        |??3@YAXPAX@Z|
  0001c	e1a00005	 mov         r0, r5
  00020	e8bd8030	 ldmia       sp!, {r4, r5, pc}
  00024		 |$M82873|

			 ENDP  ; |??_G?$CComObject@VCMangoClass@@@ATL@@UAAPAXI@Z|, ATL::CComObject<CMangoClass>::`scalar deleting destructor'

	EXPORT	|??0?$CComContainedObject@VCMangoClass@@@ATL@@QAA@PAX@Z| ; ATL::CComContainedObject<CMangoClass>::CComContainedObject<CMangoClass>
	EXPORT	|??_7?$CComContainedObject@VCMangoClass@@@ATL@@6B@| [ DATA ] ; ATL::CComContainedObject<CMangoClass>::`vftable'
	EXPORT	|?QueryInterface@?$CComContainedObject@VCMangoClass@@@ATL@@UAAJABU_GUID@@PAPAX@Z| ; ATL::CComContainedObject<CMangoClass>::QueryInterface
	EXPORT	|?AddRef@?$CComContainedObject@VCMangoClass@@@ATL@@UAAKXZ| ; ATL::CComContainedObject<CMangoClass>::AddRef
	EXPORT	|?Release@?$CComContainedObject@VCMangoClass@@@ATL@@UAAKXZ| ; ATL::CComContainedObject<CMangoClass>::Release
; File c:\program files (x86)\microsoft visual studio 9.0\vc\ce\atlmfc\include\atlbase.h

  00000			 AREA	 |.pdata|, PDATA
|$T82945| DCD	|$LN22@CComContai@2|
	DCD	0x40001001

  00000			 AREA	 |.rdata|, DATA, READONLY
|??_7?$CComContainedObject@VCMangoClass@@@ATL@@6B@| DCD |?QueryInterface@?$CComContainedObject@VCMangoClass@@@ATL@@UAAJABU_GUID@@PAPAX@Z| ; ATL::CComContainedObject<CMangoClass>::`vftable'
	DCD	|?AddRef@?$CComContainedObject@VCMangoClass@@@ATL@@UAAKXZ|
	DCD	|?Release@?$CComContainedObject@VCMangoClass@@@ATL@@UAAKXZ|
	DCD	|?Zune_VoidCall@CMangoClass@@UAAJPB_W@Z|
	DCD	|?Radio_Toggle@CMangoClass@@UAAJI@Z|
	DCD	|?LoadLibrary7@CMangoClass@@UAAJPB_WPAI@Z|
	DCD	|?GetProcAddress7@CMangoClass@@UAAJIPB_WPAH@Z|
	DCD	|?FreeLibrary7@CMangoClass@@UAAJI@Z|
	DCD	|?Clipboard_SET@CMangoClass@@UAAJPA_W@Z|
	DCD	|?Clipboard_GET@CMangoClass@@UAAJPAPA_W@Z|
	DCD	|?VoidCall@CMangoClass@@UAAJPB_W0@Z|
	DCD	|?MessageBoxRunningProc@CMangoClass@@UAAJPAPA_W@Z|
	DCD	|?TerminateProcess7@CMangoClass@@UAAJII@Z|
	DCD	|?GetAsyncKeyState7@CMangoClass@@UAAJH@Z|
	DCD	|?Crnch@CMangoClass@@UAAJPAPA_W@Z|
	DCD	|?QueryPerformanceCounter7@CMangoClass@@UAAJPA_K@Z|
	DCD	|?SetWindowsHookExW@CMangoClass@@UAAJHH@Z|
	DCD	|?ShellExecuteEx7@CMangoClass@@UAAJPA_W0@Z|
	DCD	|?CreateProcess7@CMangoClass@@UAAJPA_W0@Z|
	DCD	|?GetProcessTimes7@CMangoClass@@UAAJHPAH0000000@Z|
	DCD	|?NavigateToExternalPage7@CMangoClass@@UAAJHPA_WHH@Z|
	DCD	|?MessageBox7@CMangoClass@@UAAJPB_W0IPAH@Z|
	DCD	|?ShutdownOS@CMangoClass@@UAAJI@Z|
	DCD	|?CeCreateProcessEx@CMangoClass@@UAAJXZ|
	DCD	|?GetLastError7@CMangoClass@@UAAJXZ|
	DCD	|?StringCall@CMangoClass@@UAAJPB_W00@Z|
	DCD	|?Tests@CMangoClass@@UAAJXZ|
	DCD	|?CreateDirectoryPath7@CMangoClass@@UAAJPB_W@Z|
	DCD	|?NdisGetSystemUpTimeEx7@CMangoClass@@UAAJH@Z|
	DCD	|?fopen7@CMangoClass@@UAAJPA_W0@Z|
	DCD	|?fclose7@CMangoClass@@UAAJH@Z|
	DCD	|?fseek7@CMangoClass@@UAAJHJH@Z|
	DCD	|?fgetc7@CMangoClass@@UAAJH@Z|
	DCD	|?fsize7@CMangoClass@@UAAJH@Z|
	DCD	|?fputc7@CMangoClass@@UAAJHD@Z|
	DCD	|?ddirFiles7@CMangoClass@@UAAJPA_WPAPA_W@Z|
	DCD	|?dirFiles7@CMangoClass@@UAAJPA_WPAPA_W@Z|
	DCD	|?FindFirstFile7@CMangoClass@@UAAJPA_WPAU_WIN32_FIND_DATAW@@@Z|
	DCD	|?FindNextFile7@CMangoClass@@UAAJHPAU_WIN32_FIND_DATAW@@@Z|
	DCD	|?FindClose7@CMangoClass@@UAAJH@Z|
	DCD	|?UintCall@CMangoClass@@UAAJPB_W0I@Z|
	DCD	|?WindowTextOfHWND@CMangoClass@@UAAJHPAPA_W_N@Z|
	DCD	|?BoolCall@CMangoClass@@UAAJPB_W0_N@Z|
	DCD	|?EnumWindows7@CMangoClass@@UAAJ_NPAPA_W@Z|
	DCD	|?TextForHWNDEnumWindows@CMangoClass@@UAAJHPAPA_W@Z|
	DCD	|?GetClassNameForHWNDEnumWindows@CMangoClass@@UAAJHPAPA_W@Z|
	DCD	|?IntCall@CMangoClass@@UAAJPB_W0H@Z|
	DCD	|?IntDualCall@CMangoClass@@UAAJPB_W0HH@Z|
	DCD	|?EnumDisplayDevices7@CMangoClass@@UAAJKPAU_DISPLAY_DEVICE@@K@Z|
	DCD	|?waveOutGetVolume7@CMangoClass@@UAAJPAK@Z|
	DCD	|?waveOutSetVolume7@CMangoClass@@UAAJK@Z|
	DCD	|?waveOutSetPitch7@CMangoClass@@UAAJK@Z|
	DCD	|?waveGetHWAVEOUT@CMangoClass@@UAAJXZ|
	DCD	|?KernelIoControl@CMangoClass@@UAAJIHIHIPAI@Z|
	DCD	|?GetSystemPowerStatusEx7@CMangoClass@@UAAJPAPA_W_N@Z|
	DCD	|?StringIntIntCall@CMangoClass@@UAAJPB_W0PA_WHH@Z|
	DCD	|?StringIntIntOutCall@CMangoClass@@UAAJPB_W0PA_WHPAH@Z|
	DCD	|?ScreenSetContrast@CMangoClass@@UAAJK@Z|
	DCD	|?ScreenGetContrast@CMangoClass@@UAAJXZ|
	DCD	|?IntQuadCall@CMangoClass@@UAAJPB_W0HHHH@Z|
	DCD	|?PhoneMakeCall7@CMangoClass@@UAAJPA_W@Z|
	DCD	|?SetSystemTime7@CMangoClass@@UAAJGGGGGGGG@Z|
	DCD	|?StringStringCall@CMangoClass@@UAAJPB_W0PA_W1@Z|
	DCD	|?GetSystemPowerStatusExAdv7@CMangoClass@@UAAJPAPA_W_N@Z|
	DCD	|?GlobalMemoryStatus7@CMangoClass@@UAAJPAPA_W@Z|
	DCD	|?CeRunAppAtTime7@CMangoClass@@UAAJPA_WU_SYSTEMTIME@@@Z|
	DCD	|?EnumDisplaySettings7@CMangoClass@@UAAJPA_WKPAPA_W@Z|
	DCD	|?GetCommandLine7@CMangoClass@@UAAJPAPA_W@Z|
	DCD	|?PostMessage7@CMangoClass@@UAAJHIII@Z|
	DCD	|?SendMessage7@CMangoClass@@UAAJHIII@Z|
	DCD	|?ThisTaskHostInformation@CMangoClass@@UAAJPB_W0PAX@Z|
	DCD	|?CaptureScreen@CMangoClass@@UAAJPAPAUHBITMAP__@@PAHPAPAX@Z|
	DCD	|?DeleteObject@CMangoClass@@UAAJPAX@Z|
	DCD	|?ASMExecute@CMangoClass@@UAAJPAE@Z|
	DCD	|?GetHelloWorldMSGBPtr@CMangoClass@@UAAJXZ|
	DCD	|?ValueAtAddres@CMangoClass@@UAAJPAH@Z|
	DCD	|?AddressOfObject@CMangoClass@@UAAJPAX@Z|
	DCD	|?TestFunc1@CMangoClass@@UAAJXZ|
	DCD	|?TestFunc2@CMangoClass@@UAAJXZ|
	DCD	|?DeviceIoControl7@CMangoClass@@UAAJPAXK0K0KPAKPAU_OVERLAPPED@@@Z|
	DCD	|?WriteByte@CMangoClass@@UAAJPAHE@Z|
	DCD	|?EDB_Mount@CMangoClass@@UAAJPA_WPA_N@Z|
	DCD	|?EDB_OpenMounted@CMangoClass@@UAAJPA_WPAU_CEGUID@@@Z|
	DCD	|?EDB_FindFirstDB@CMangoClass@@UAAJPAU_CEGUID@@@Z|
	DCD	|?EDB_FindNextDB@CMangoClass@@UAAJPAXPAU_CEGUID@@@Z|
	DCD	|?EDB_OpenDBSession@CMangoClass@@UAAJPAU_CEGUID@@PAK@Z|
	DCD	|?EDB_CloseHandle@CMangoClass@@UAAJPAX@Z|
	DCD	|?EDB_CeOidGetInfoEx@CMangoClass@@UAAJPAU_CEGUID@@K@Z|
	DCD	|?EDB_OpenDBFind@CMangoClass@@UAAJPAU_CEGUID@@K@Z|
	DCD	|?EDB_CeOpenDatabaseEx@CMangoClass@@UAAJPAU_CEGUID@@K@Z|
; Function compile flags: /Ogspy

  00000			 AREA	 |.text|, CODE, ARM

  00000		 |??0?$CComContainedObject@VCMangoClass@@@ATL@@QAA@PAX@Z| PROC ; ATL::CComContainedObject<CMangoClass>::CComContainedObject<CMangoClass>
; File c:\program files (x86)\microsoft visual studio 9.0\vc\ce\atlmfc\include\atlcom.h
; Line 3028
  00000		 |$LN22@CComContai@2|
  00000	e92d40f0	 stmdb       sp!, {r4 - r7, lr}
  00004		 |$M82942|
  00004	e1a05001	 mov         r5, r1
  00008	e1a06000	 mov         r6, r0
  0000c	e1a04006	 mov         r4, r6
  00010	e3a07000	 mov         r7, #0
  00014	e5a47004	 str         r7, [r4, #4]!
  00018	e3a02014	 mov         r2, #0x14
  0001c	e3a01000	 mov         r1, #0
  00020	e2840004	 add         r0, r4, #4
  00024	eb000000	 bl          memset
  00028	e59f300c	 ldr         r3, [pc, #0xC]
  0002c	e5c47018	 strb        r7, [r4, #0x18]
  00030	e1a00006	 mov         r0, r6
  00034	e8860028	 stmia       r6, {r3, r5}
  00038	e8bd80f0	 ldmia       sp!, {r4 - r7, pc}
  0003c		 |$LN23@CComContai@2|
  0003c		 |$LN24@CComContai@2|
  0003c	00000000	 DCD         |??_7?$CComContainedObject@VCMangoClass@@@ATL@@6B@|
  00040		 |$M82943|

			 ENDP  ; |??0?$CComContainedObject@VCMangoClass@@@ATL@@QAA@PAX@Z|, ATL::CComContainedObject<CMangoClass>::CComContainedObject<CMangoClass>

	EXPORT	|?OuterAddRef@CComObjectRootBase@ATL@@QAAKXZ| ; ATL::CComObjectRootBase::OuterAddRef

  00000			 AREA	 |.pdata|, PDATA
|$T82957| DCD	|$LN5@OuterAddRe|
	DCD	0x40000601
; Function compile flags: /Ogspy

  00000			 AREA	 |.text|, CODE, ARM

  00000		 |?OuterAddRef@CComObjectRootBase@ATL@@QAAKXZ| PROC ; ATL::CComObjectRootBase::OuterAddRef
; Line 2348
  00000		 |$LN5@OuterAddRe|
  00000	e52de004	 str         lr, [sp, #-4]!
  00004		 |$M82954|
; Line 2349
  00004	e5900000	 ldr         r0, [r0]
  00008	e5903000	 ldr         r3, [r0]
  0000c	e1a0e00f	 mov         lr, pc
  00010	e593f004	 ldr         pc, [r3, #4]
; Line 2350
  00014	e49df004	 ldr         pc, [sp], #4
  00018		 |$M82955|

			 ENDP  ; |?OuterAddRef@CComObjectRootBase@ATL@@QAAKXZ|, ATL::CComObjectRootBase::OuterAddRef

	EXPORT	|?OuterRelease@CComObjectRootBase@ATL@@QAAKXZ| ; ATL::CComObjectRootBase::OuterRelease

  00000			 AREA	 |.pdata|, PDATA
|$T82967| DCD	|$LN5@OuterRelea|
	DCD	0x40000601
; Function compile flags: /Ogspy

  00000			 AREA	 |.text|, CODE, ARM

  00000		 |?OuterRelease@CComObjectRootBase@ATL@@QAAKXZ| PROC ; ATL::CComObjectRootBase::OuterRelease
; Line 2352
  00000		 |$LN5@OuterRelea|
  00000	e52de004	 str         lr, [sp, #-4]!
  00004		 |$M82964|
; Line 2353
  00004	e5900000	 ldr         r0, [r0]
  00008	e5903000	 ldr         r3, [r0]
  0000c	e1a0e00f	 mov         lr, pc
  00010	e593f008	 ldr         pc, [r3, #8]
; Line 2354
  00014	e49df004	 ldr         pc, [sp], #4
  00018		 |$M82965|

			 ENDP  ; |?OuterRelease@CComObjectRootBase@ATL@@QAAKXZ|, ATL::CComObjectRootBase::OuterRelease

	EXPORT	|?OuterQueryInterface@CComObjectRootBase@ATL@@QAAJABU_GUID@@PAPAX@Z| ; ATL::CComObjectRootBase::OuterQueryInterface

  00000			 AREA	 |.pdata|, PDATA
|$T82979| DCD	|$LN5@OuterQuery|
	DCD	0x40000601
; Function compile flags: /Ogspy

  00000			 AREA	 |.text|, CODE, ARM

  00000		 |?OuterQueryInterface@CComObjectRootBase@ATL@@QAAJABU_GUID@@PAPAX@Z| PROC ; ATL::CComObjectRootBase::OuterQueryInterface
; Line 2356
  00000		 |$LN5@OuterQuery|
  00000	e52de004	 str         lr, [sp, #-4]!
  00004		 |$M82976|
; Line 2357
  00004	e5900000	 ldr         r0, [r0]
  00008	e5903000	 ldr         r3, [r0]
  0000c	e1a0e00f	 mov         lr, pc
  00010	e593f000	 ldr         pc, [r3]
; Line 2358
  00014	e49df004	 ldr         pc, [sp], #4
  00018		 |$M82977|

			 ENDP  ; |?OuterQueryInterface@CComObjectRootBase@ATL@@QAAJABU_GUID@@PAPAX@Z|, ATL::CComObjectRootBase::OuterQueryInterface


  00000			 AREA	 |.pdata|, PDATA
|$T82994| DCD	|$LN7@AddRef@3|
	DCD	0x40000701
; Function compile flags: /Ogspy

  00000			 AREA	 |.text|, CODE, ARM

  00000		 |?AddRef@?$CComContainedObject@VCMangoClass@@@ATL@@UAAKXZ| PROC ; ATL::CComContainedObject<CMangoClass>::AddRef
; Line 3037
  00000		 |$LN7@AddRef@3|
  00000	e52de004	 str         lr, [sp, #-4]!
  00004		 |$M82991|
  00004	e5b02004	 ldr         r2, [r0, #4]!
  00008	e5923000	 ldr         r3, [r2]
  0000c	e1a00002	 mov         r0, r2
  00010	e1a0e00f	 mov         lr, pc
  00014	e593f004	 ldr         pc, [r3, #4]
  00018	e49df004	 ldr         pc, [sp], #4
  0001c		 |$M82992|

			 ENDP  ; |?AddRef@?$CComContainedObject@VCMangoClass@@@ATL@@UAAKXZ|, ATL::CComContainedObject<CMangoClass>::AddRef


  00000			 AREA	 |.pdata|, PDATA
|$T83009| DCD	|$LN7@Release@3|
	DCD	0x40000701
; Function compile flags: /Ogspy

  00000			 AREA	 |.text|, CODE, ARM

  00000		 |?Release@?$CComContainedObject@VCMangoClass@@@ATL@@UAAKXZ| PROC ; ATL::CComContainedObject<CMangoClass>::Release
; Line 3038
  00000		 |$LN7@Release@3|
  00000	e52de004	 str         lr, [sp, #-4]!
  00004		 |$M83006|
  00004	e5b02004	 ldr         r2, [r0, #4]!
  00008	e5923000	 ldr         r3, [r2]
  0000c	e1a00002	 mov         r0, r2
  00010	e1a0e00f	 mov         lr, pc
  00014	e593f008	 ldr         pc, [r3, #8]
  00018	e49df004	 ldr         pc, [sp], #4
  0001c		 |$M83007|

			 ENDP  ; |?Release@?$CComContainedObject@VCMangoClass@@@ATL@@UAAKXZ|, ATL::CComContainedObject<CMangoClass>::Release


  00000			 AREA	 |.pdata|, PDATA
|$T83026| DCD	|$LN7@QueryInter@2|
	DCD	0x40000701
; Function compile flags: /Ogspy

  00000			 AREA	 |.text|, CODE, ARM

  00000		 |?QueryInterface@?$CComContainedObject@VCMangoClass@@@ATL@@UAAJABU_GUID@@PAPAX@Z| PROC ; ATL::CComContainedObject<CMangoClass>::QueryInterface
; Line 3040
  00000		 |$LN7@QueryInter@2|
  00000	e92d4010	 stmdb       sp!, {r4, lr}
  00004		 |$M83023|
; Line 3041
  00004	e5b04004	 ldr         r4, [r0, #4]!
  00008	e5943000	 ldr         r3, [r4]
  0000c	e1a00004	 mov         r0, r4
  00010	e1a0e00f	 mov         lr, pc
  00014	e593f000	 ldr         pc, [r3]
; Line 3042
  00018	e8bd8010	 ldmia       sp!, {r4, pc}
  0001c		 |$M83024|

			 ENDP  ; |?QueryInterface@?$CComContainedObject@VCMangoClass@@@ATL@@UAAJABU_GUID@@PAPAX@Z|, ATL::CComContainedObject<CMangoClass>::QueryInterface

	EXPORT	|??1CExpansionVector@ATL@@QAA@XZ|	; ATL::CExpansionVector::~CExpansionVector
; File c:\program files (x86)\microsoft visual studio 9.0\vc\ce\atlmfc\include\atlsimpcoll.h

  00000			 AREA	 |.pdata|, PDATA
|$T83038| DCD	|$LN8@CExpansion|
	DCD	0x40000601
; Function compile flags: /Ogspy

  00000			 AREA	 |.text|, CODE, ARM

  00000		 |??1CExpansionVector@ATL@@QAA@XZ| PROC	; ATL::CExpansionVector::~CExpansionVector
; File c:\program files (x86)\microsoft visual studio 9.0\vc\ce\atlmfc\include\statreg.h
; Line 92
  00000		 |$LN8@CExpansion|
  00000	e92d4010	 stmdb       sp!, {r4, lr}
  00004		 |$M83035|
  00004	e1a04000	 mov         r4, r0
; Line 93
  00008	eb000000	 bl          |?ClearReplacements@CExpansionVector@ATL@@QAAJXZ|
; Line 94
  0000c	e1a00004	 mov         r0, r4
  00010	e8bd4010	 ldmia       sp!, {r4, lr}
  00014	ea000000	 b           |?RemoveAll@?$CSimpleMap@PA_WPA_WVCExpansionVectorEqualHelper@ATL@@@ATL@@QAAXXZ|
  00018		 |$M83036|

			 ENDP  ; |??1CExpansionVector@ATL@@QAA@XZ|, ATL::CExpansionVector::~CExpansionVector

	EXPORT	|??1CRegObject@ATL@@UAA@XZ|		; ATL::CRegObject::~CRegObject
	EXPORT	|??_7CRegObject@ATL@@6B@| [ DATA ]	; ATL::CRegObject::`vftable'
	EXPORT	|?QueryInterface@CRegObject@ATL@@UAAJABU_GUID@@PAPAX@Z| ; ATL::CRegObject::QueryInterface
	EXPORT	|?AddRef@CRegObject@ATL@@UAAKXZ|	; ATL::CRegObject::AddRef
	EXPORT	|?Release@CRegObject@ATL@@UAAKXZ|	; ATL::CRegObject::Release
	EXPORT	|?AddReplacement@CRegObject@ATL@@UAAJPB_W0@Z| ; ATL::CRegObject::AddReplacement
	IMPORT	|??_ECRegObject@ATL@@UAAPAXI@Z|, WEAK |??_GCRegObject@ATL@@UAAPAXI@Z| ; ATL::CRegObject::`vector deleting destructor', ATL::CRegObject::`scalar deleting destructor'
; File c:\program files (x86)\microsoft visual studio 9.0\vc\ce\atlmfc\include\atlsimpcoll.h

  00000			 AREA	 |.pdata|, PDATA
|$T83111| DCD	|$LN31@CRegObject|
	DCD	0x40001701

  00000			 AREA	 |.rdata|, DATA, READONLY
|??_7CRegObject@ATL@@6B@| DCD |?QueryInterface@CRegObject@ATL@@UAAJABU_GUID@@PAPAX@Z| ; ATL::CRegObject::`vftable'
	DCD	|?AddRef@CRegObject@ATL@@UAAKXZ|
	DCD	|?Release@CRegObject@ATL@@UAAKXZ|
	DCD	|?AddReplacement@CRegObject@ATL@@UAAJPB_W0@Z|
	DCD	|?ClearReplacements@CRegObject@ATL@@UAAJXZ|
	DCD	|??_ECRegObject@ATL@@UAAPAXI@Z|
; Function compile flags: /Ogspy

  00000			 AREA	 |.text|, CODE, ARM

  00000		 |??1CRegObject@ATL@@UAA@XZ| PROC	; ATL::CRegObject::~CRegObject
; File c:\program files (x86)\microsoft visual studio 9.0\vc\ce\atlmfc\include\statreg.h
; Line 300
  00000		 |$LN31@CRegObject|
  00000	e92d4030	 stmdb       sp!, {r4, r5, lr}
  00004		 |$M83108|
  00004	e1a05000	 mov         r5, r0
  00008	e59f3048	 ldr         r3, [pc, #0x48]
  0000c	e1a04005	 mov         r4, r5
  00010	e4843010	 str         r3, [r4], #0x10
  00014	e1a00004	 mov         r0, r4
  00018	eb000000	 bl          EnterCriticalSection
  0001c	e2850004	 add         r0, r5, #4
  00020	eb000000	 bl          |?ClearReplacements@CExpansionVector@ATL@@QAAJXZ|
  00024	e1a00004	 mov         r0, r4
  00028	eb000000	 bl          LeaveCriticalSection
  0002c	e5d43014	 ldrb        r3, [r4, #0x14]
  00030	e3530000	 cmp         r3, #0
  00034	13a03000	 movne       r3, #0
  00038	11a00004	 movne       r0, r4
  0003c	15c43014	 strneb      r3, [r4, #0x14]
  00040	1b000000	 blne        DeleteCriticalSection
  00044	e2850004	 add         r0, r5, #4
  00048	eb000000	 bl          |?ClearReplacements@CExpansionVector@ATL@@QAAJXZ|
  0004c	e2850004	 add         r0, r5, #4
  00050	e8bd4030	 ldmia       sp!, {r4, r5, lr}
  00054	ea000000	 b           |?RemoveAll@?$CSimpleMap@PA_WPA_WVCExpansionVectorEqualHelper@ATL@@@ATL@@QAAXXZ|
  00058		 |$LN32@CRegObject|
  00058		 |$LN33@CRegObject|
  00058	00000000	 DCD         |??_7CRegObject@ATL@@6B@|
  0005c		 |$M83109|

			 ENDP  ; |??1CRegObject@ATL@@UAA@XZ|, ATL::CRegObject::~CRegObject


  00000			 AREA	 |.pdata|, PDATA
|$T83122| DCD	|$LN5@QueryInter@3|
	DCD	0x40000300
; Function compile flags: /Ogspy

  00000			 AREA	 |.text|, CODE, ARM

  00000		 |?QueryInterface@CRegObject@ATL@@UAAJABU_GUID@@PAPAX@Z| PROC ; ATL::CRegObject::QueryInterface
; Line 284
  00000		 |$LN5@QueryInter@3|
  00000		 |$M83119|
  00000	e3a03106	 mov         r3, #6, 2
; Line 286
  00004	e3830901	 orr         r0, r3, #1, 18	; 16384 (0x4000)
; Line 287
  00008	e1a0f00e	 mov         pc, lr
  0000c		 |$M83120|

			 ENDP  ; |?QueryInterface@CRegObject@ATL@@UAAJABU_GUID@@PAPAX@Z|, ATL::CRegObject::QueryInterface


  00000			 AREA	 |.pdata|, PDATA
|$T83131| DCD	|$LN5@AddRef@4|
	DCD	0x40000200
; Function compile flags: /Ogspy

  00000			 AREA	 |.text|, CODE, ARM

  00000		 |?AddRef@CRegObject@ATL@@UAAKXZ| PROC	; ATL::CRegObject::AddRef
; Line 290
  00000		 |$LN5@AddRef@4|
  00000		 |$M83128|
; Line 292
  00000	e3a00001	 mov         r0, #1
; Line 293
  00004	e1a0f00e	 mov         pc, lr
  00008		 |$M83129|

			 ENDP  ; |?AddRef@CRegObject@ATL@@UAAKXZ|, ATL::CRegObject::AddRef


  00000			 AREA	 |.pdata|, PDATA
|$T83140| DCD	|$LN5@Release@4|
	DCD	0x40000200
; Function compile flags: /Ogspy

  00000			 AREA	 |.text|, CODE, ARM

  00000		 |?Release@CRegObject@ATL@@UAAKXZ| PROC	; ATL::CRegObject::Release
; Line 295
  00000		 |$LN5@Release@4|
  00000		 |$M83137|
; Line 297
  00000	e3a00000	 mov         r0, #0
; Line 298
  00004	e1a0f00e	 mov         pc, lr
  00008		 |$M83138|

			 ENDP  ; |?Release@CRegObject@ATL@@UAAKXZ|, ATL::CRegObject::Release


  00000			 AREA	 |.pdata|, PDATA
|$T83151| DCD	|$LN6@scalar@3|
	DCD	0x40000901
; Function compile flags: /Ogspy

  00000			 AREA	 |.text|, CODE, ARM

  00000		 |??_GCRegObject@ATL@@UAAPAXI@Z| PROC	; ATL::CRegObject::`scalar deleting destructor'
  00000		 |$LN6@scalar@3|
  00000	e92d4030	 stmdb       sp!, {r4, r5, lr}
  00004		 |$M83148|
  00004	e1a04001	 mov         r4, r1
  00008	e1a05000	 mov         r5, r0
  0000c	eb000000	 bl          |??1CRegObject@ATL@@UAA@XZ|
  00010	e3140001	 tst         r4, #1
  00014	11a00005	 movne       r0, r5
  00018	1b000000	 blne        |??3@YAXPAX@Z|
  0001c	e1a00005	 mov         r0, r5
  00020	e8bd8030	 ldmia       sp!, {r4, r5, pc}
  00024		 |$M83149|

			 ENDP  ; |??_GCRegObject@ATL@@UAAPAXI@Z|, ATL::CRegObject::`scalar deleting destructor'

	EXPORT	|?StrFromMap@CRegObject@ATL@@QAAPB_WPA_W@Z| ; ATL::CRegObject::StrFromMap
; File c:\program files (x86)\microsoft visual studio 9.0\vc\ce\atlmfc\include\atlcore.h

  00000			 AREA	 |.pdata|, PDATA
|$T83176| DCD	|$LN15@StrFromMap|
	DCD	0x40000e03
; Function compile flags: /Ogspy

  00000			 AREA	 |.text|, CODE, ARM

  00000		 |?StrFromMap@CRegObject@ATL@@QAAPB_WPA_W@Z| PROC ; ATL::CRegObject::StrFromMap
; File c:\program files (x86)\microsoft visual studio 9.0\vc\ce\atlmfc\include\statreg.h
; Line 548
  00000		 |$LN15@StrFromMap|
  00000	e1a0c00d	 mov         r12, sp
  00004	e92d000f	 stmdb       sp!, {r0 - r3}
  00008	e92d5030	 stmdb       sp!, {r4, r5, r12, lr}
  0000c		 |$M83173|
  0000c	e1a05000	 mov         r5, r0
; Line 549
  00010	e2850010	 add         r0, r5, #0x10
  00014	eb000000	 bl          EnterCriticalSection
; Line 550
  00018	e28d1014	 add         r1, sp, #0x14
  0001c	e2850004	 add         r0, r5, #4
  00020	eb000000	 bl          |?Lookup@?$CSimpleMap@PA_WPA_WVCExpansionVectorEqualHelper@ATL@@@ATL@@QBAPA_WABQA_W@Z|
  00024	e1a04000	 mov         r4, r0
; Line 553
  00028	e2850010	 add         r0, r5, #0x10
  0002c	eb000000	 bl          LeaveCriticalSection
; Line 555
  00030	e1a00004	 mov         r0, r4
  00034	e89da030	 ldmia       sp, {r4, r5, sp, pc}
  00038		 |$M83174|

			 ENDP  ; |?StrFromMap@CRegObject@ATL@@QAAPB_WPA_W@Z|, ATL::CRegObject::StrFromMap

	EXPORT	|__$ArrayPad$| [ DATA ]
	EXPORT	|?PreProcessBuffer@CRegParser@ATL@@QAAJPA_WPAPA_W@Z| ; ATL::CRegParser::PreProcessBuffer
	EXPORT	|??_C@_1BE@LJOLIMEM@?$AA?$AN?$AA?6?$AA?7?$AA?$HN?$AA?$AN?$AA?6?$AA?$HN?$AA?$AN?$AA?6?$AA?$AA@| [ DATA ] ; `string'
	EXPORT	|??_C@_1EA@NHKLICFA@?$AAH?$AAK?$AAC?$AAU?$AA?$AN?$AA?6?$AA?$HL?$AA?7?$AAS?$AAo?$AAf?$AAt?$AAw?$AAa?$AAr?$AAe?$AA?$AN?$AA?6?$AA?7?$AA?$HL?$AA?$AN?$AA?6?$AA?7?$AA?7?$AAC?$AAl?$AAa?$AAs?$AAs?$AAe?$AAs?$AA?$AA@| [ DATA ] ; `string'
	IMPORT	|__GSHandlerCheck_EH|

  00000			 AREA	 |.pdata|, PDATA
|$T83335| DCD	|$LN108@PreProcess|
	DCD	0xc000d904

  00000			 AREA	 |.pdata|, PDATA
|$T83338| DCD	|__unwind$83183|
	DCD	0x40000901

  00000			 AREA	 |.rdata|, DATA, READONLY
|__unwindtable$?PreProcessBuffer@CRegParser@ATL@@QAAJPA_WPAPA_W@Z| DCD 0xffffffff
	DCD	|__unwind$83183|
|__ehfuncinfo$?PreProcessBuffer@CRegParser@ATL@@QAAJPA_WPAPA_W@Z| DCD 0x19930522
	DCD	0x1
	DCD	|__unwindtable$?PreProcessBuffer@CRegParser@ATL@@QAAJPA_WPAPA_W@Z|
	DCD	0x0
	DCD	0x0
	DCD	0x2
	DCD	|$T83330|
	DCD	0x0
	DCD	0x1
	DCD	0xffffffd4
|$T83330| DCD	|$M83328|
	DCD	0x0
	DCD	|$M83329|
	DCD	0xffffffff

  00000			 AREA	 |.rdata|, DATA, READONLY
|??_C@_1BE@LJOLIMEM@?$AA?$AN?$AA?6?$AA?7?$AA?$HN?$AA?$AN?$AA?6?$AA?$HN?$AA?$AN?$AA?6?$AA?$AA@| DCB 0xd
	DCB	0x0, 0xa, 0x0, 0x9, 0x0, "}", 0x0, 0xd, 0x0, 0xa, 0x0, "}"
	DCB	0x0, 0xd, 0x0, 0xa, 0x0, 0x0, 0x0	; `string'

  00000			 AREA	 |.rdata|, DATA, READONLY
|??_C@_1EA@NHKLICFA@?$AAH?$AAK?$AAC?$AAU?$AA?$AN?$AA?6?$AA?$HL?$AA?7?$AAS?$AAo?$AAf?$AAt?$AAw?$AAa?$AAr?$AAe?$AA?$AN?$AA?6?$AA?7?$AA?$HL?$AA?$AN?$AA?6?$AA?7?$AA?7?$AAC?$AAl?$AAa?$AAs?$AAs?$AAe?$AAs?$AA?$AA@| DCB "H"
	DCB	0x0, "K", 0x0, "C", 0x0, "U", 0x0, 0xd, 0x0, 0xa, 0x0, "{"
	DCB	0x0, 0x9, 0x0, "S", 0x0, "o", 0x0, "f", 0x0, "t", 0x0, "w"
	DCB	0x0, "a", 0x0, "r", 0x0, "e", 0x0, 0xd, 0x0, 0xa, 0x0, 0x9
	DCB	0x0, "{", 0x0, 0xd, 0x0, 0xa, 0x0, 0x9, 0x0, 0x9, 0x0, "C"
	DCB	0x0, "l", 0x0, "a", 0x0, "s", 0x0, "s", 0x0, "e", 0x0, "s"
	DCB	0x0, 0x0, 0x0				; `string'
; Function compile flags: /Ogspy

  00000			 AREA	 |.text|, CODE, ARM

  00000	00000000	 DCD         |__GSHandlerCheck_EH|
  00004	00000000	 DCD         |__ehfuncinfo$?PreProcessBuffer@CRegParser@ATL@@QAAJPA_WPAPA_W@Z|

  00008		 |?PreProcessBuffer@CRegParser@ATL@@QAAJPA_WPAPA_W@Z| PROC ; ATL::CRegParser::PreProcessBuffer
; Line 1072
  00008		 |$LN108@PreProcess|
  00008	e1a0c00d	 mov         r12, sp
  0000c	e92d5ff0	 stmdb       sp!, {r4 - r12, lr}
  00010	e28db028	 add         r11, sp, #0x28
  00014	e24dd058	 sub         sp, sp, #0x58
  00018		 |$M83332|
  00018	e1a0a002	 mov         r10, r2
  0001c	e1b04001	 movs        r4, r1
  00020	e1a06000	 mov         r6, r0
  00024	e59f3360	 ldr         r3, [pc, #0x360]
  00028	e5933000	 ldr         r3, [r3]
  0002c	e50b302c	 str         r3, [r11, #-0x2C]
; Line 1076
  00030	0a0000c6	 beq         |$LN32@PreProcess|
  00034	e35a0000	 cmp         r10, #0
  00038	0a0000c4	 beq         |$LN32@PreProcess|
; Line 1079
  0003c	e3a03000	 mov         r3, #0
; Line 1080
  00040	e1a00004	 mov         r0, r4
  00044	e58a3000	 str         r3, [r10]
  00048	eb000000	 bl          wcslen
  0004c	e1a01080	 mov         r1, r0, lsl #1
; Line 1081
  00050	e24b007c	 sub         r0, r11, #0x7C
  00054	eb000000	 bl          |??0CParseBuffer@CRegParser@ATL@@QAA@H@Z|
; Line 1082
  00058	e51be074	 ldr         lr, [r11, #-0x74]
  0005c	e35e0000	 cmp         lr, #0
  00060	1a000006	 bne         |$LN31@PreProcess|
; Line 1083
  00064	e3a00000	 mov         r0, #0
  00068	eb000000	 bl          CoTaskMemFree
  0006c	e51b002c	 ldr         r0, [r11, #-0x2C]
  00070	eb000000	 bl          __security_check_cookie
  00074	e3a0313a	 mov         r3, #0x3A, 2
  00078	e3835807	 orr         r5, r3, #7, 16	; 458752 (0x70000)
  0007c	ea0000b7	 b           |$LN34@PreProcess|
  00080		 |$LN31@PreProcess|
; Line 1084
  00080	e5864000	 str         r4, [r6]
; Line 1100
  00084	e1d430b0	 ldrh        r3, [r4]
  00088	e59f22f8	 ldr         r2, [pc, #0x2F8]
  0008c	e3a07000	 mov         r7, #0
  00090	e3530000	 cmp         r3, #0
  00094	e5d23000	 ldrb        r3, [r2]
  00098	e3a04000	 mov         r4, #0
  0009c	e3a05000	 mov         r5, #0
  000a0	e54b307e	 strb        r3, [r11, #-0x7E]
  000a4	e3a09000	 mov         r9, #0
  000a8	e54b707f	 strb        r7, [r11, #-0x7F]
  000ac	e54b4080	 strb        r4, [r11, #-0x80]
  000b0	0a00009b	 beq         |$LN95@PreProcess|
  000b4	e24b806c	 sub         r8, r11, #0x6C
  000b8		 |$LL29@PreProcess|
; Line 1102
  000b8	e3530001	 cmp         r3, #1
  000bc	1a00004a	 bne         |$LN15@PreProcess|
; Line 1107
  000c0	e3590000	 cmp         r9, #0
  000c4	1a00001a	 bne         |$LN25@PreProcess|
; Line 1112
  000c8	e5960000	 ldr         r0, [r6]
  000cc	e59f12b0	 ldr         r1, [pc, #0x2B0]
  000d0	eb000000	 bl          wcsstr
  000d4	e1b03000	 movs        r3, r0
  000d8	0a000015	 beq         |$LN25@PreProcess|
  000dc	e5960000	 ldr         r0, [r6]
  000e0	e1530000	 cmp         r3, r0
  000e4	1a000012	 bne         |$LN25@PreProcess|
; Line 1115
  000e8	eb000000	 bl          CharNextW
  000ec	e1a03000	 mov         r3, r0
; Line 1116
  000f0	e5863000	 str         r3, [r6]
  000f4	eb000000	 bl          CharNextW
  000f8	e1a03000	 mov         r3, r0
; Line 1117
  000fc	e5863000	 str         r3, [r6]
  00100	eb000000	 bl          CharNextW
  00104	e1a03000	 mov         r3, r0
; Line 1118
  00108	e5863000	 str         r3, [r6]
  0010c	eb000000	 bl          CharNextW
; Line 1121
  00110	e59f1268	 ldr         r1, [pc, #0x268]
  00114	e1a03000	 mov         r3, r0
  00118	e24b007c	 sub         r0, r11, #0x7C
  0011c	e5863000	 str         r3, [r6]
  00120		 |$M83328|
  00120	eb000000	 bl          |?AddString@CParseBuffer@CRegParser@ATL@@QAAHPB_W@Z|
  00124	e3500000	 cmp         r0, #0
  00128	0a00003f	 beq         |$LN92@PreProcess|
; Line 1127
  0012c	e3a07001	 mov         r7, #1
  00130	e54b707f	 strb        r7, [r11, #-0x7F]
  00134		 |$LN25@PreProcess|
; Line 1131
  00134	e5960000	 ldr         r0, [r6]
  00138	e1d030b0	 ldrh        r3, [r0]
  0013c	e3530027	 cmp         r3, #0x27
  00140	1a000013	 bne         |$LN18@PreProcess|
; Line 1133
  00144	e3540000	 cmp         r4, #0
; Line 1135
  00148	03a04001	 moveq       r4, #1
; Line 1142
  0014c	054b4080	 streqb      r4, [r11, #-0x80]
  00150	0a00000f	 beq         |$LN18@PreProcess|
  00154	eb000000	 bl          CharNextW
  00158	e1d030b0	 ldrh        r3, [r0]
  0015c	e3530027	 cmp         r3, #0x27
  00160	13a04000	 movne       r4, #0
  00164	154b4080	 strneb      r4, [r11, #-0x80]
  00168	1a000009	 bne         |$LN18@PreProcess|
; Line 1147
  0016c	e5960000	 ldr         r0, [r6]
  00170	eb000000	 bl          CharNextW
  00174	e1a03000	 mov         r3, r0
; Line 1148
  00178	e1a01003	 mov         r1, r3
  0017c	e3a02001	 mov         r2, #1
  00180	e24b007c	 sub         r0, r11, #0x7C
  00184	e5863000	 str         r3, [r6]
  00188	eb000000	 bl          |?Append@CParseBuffer@CRegParser@ATL@@QAAHPB_WH@Z|
  0018c	e3500000	 cmp         r0, #0
  00190	0a000025	 beq         |$LN92@PreProcess|
  00194		 |$LN18@PreProcess|
; Line 1157
  00194	e1b02004	 movs        r2, r4
  00198	05963000	 ldreq       r3, [r6]
  0019c	01d330b0	 ldreqh      r3, [r3]
  001a0	0353007b	 cmpeq       r3, #0x7B
; Line 1159
  001a4	02899001	 addeq       r9, r9, #1
; Line 1162
  001a8	e3520000	 cmp         r2, #0
  001ac	1a00000e	 bne         |$LN15@PreProcess|
  001b0	e5963000	 ldr         r3, [r6]
  001b4	e1d330b0	 ldrh        r3, [r3]
  001b8	e353007d	 cmp         r3, #0x7D
  001bc	1a00000a	 bne         |$LN15@PreProcess|
; Line 1164
  001c0	e2599001	 subs        r9, r9, #1
; Line 1165
  001c4	1a000008	 bne         |$LN15@PreProcess|
  001c8	e3570001	 cmp         r7, #1
  001cc	1a000006	 bne         |$LN15@PreProcess|
; Line 1167
  001d0	e59f11a4	 ldr         r1, [pc, #0x1A4]
  001d4	e24b007c	 sub         r0, r11, #0x7C
  001d8	eb000000	 bl          |?AddString@CParseBuffer@CRegParser@ATL@@QAAHPB_W@Z|
  001dc	e3500000	 cmp         r0, #0
  001e0	0a000011	 beq         |$LN92@PreProcess|
; Line 1173
  001e4	e3a07000	 mov         r7, #0
  001e8	e54b707f	 strb        r7, [r11, #-0x7F]
  001ec		 |$LN15@PreProcess|
; Line 1178
  001ec	e5961000	 ldr         r1, [r6]
  001f0	e1d130b0	 ldrh        r3, [r1]
  001f4	e3530025	 cmp         r3, #0x25
  001f8	1a000006	 bne         |$LN13@PreProcess|
; Line 1180
  001fc	e1a00001	 mov         r0, r1
  00200	eb000000	 bl          CharNextW
  00204	e5860000	 str         r0, [r6]
; Line 1181
  00208	e1d030b0	 ldrh        r3, [r0]
  0020c	e3530025	 cmp         r3, #0x25
  00210	1a000009	 bne         |$LN12@PreProcess|
; Line 1183
  00214	e1a01000	 mov         r1, r0
  00218		 |$LN13@PreProcess|
  00218	e3a02001	 mov         r2, #1
  0021c	e24b007c	 sub         r0, r11, #0x7C
  00220	eb000000	 bl          |?Append@CParseBuffer@CRegParser@ATL@@QAAHPB_WH@Z|
  00224	e3500000	 cmp         r0, #0
  00228	1a00002b	 bne         |$LN2@PreProcess|
  0022c		 |$LN92@PreProcess|
; Line 1224
  0022c	e3a0313a	 mov         r3, #0x3A, 2
; Line 1233
  00230	e51b0074	 ldr         r0, [r11, #-0x74]
  00234	e3835807	 orr         r5, r3, #7, 16	; 458752 (0x70000)
  00238	ea000040	 b           |$LN1@PreProcess|
  0023c		 |$LN12@PreProcess|
; Line 1191
  0023c	e3a01025	 mov         r1, #0x25
  00240	eb000000	 bl          |?StrChrW@CRegParser@ATL@@KAPA_WPA_W_W@Z|
  00244	e1b07000	 movs        r7, r0
; Line 1192
  00248	0a000030	 beq         |$LN88@PreProcess|
; Line 1198
  0024c	e5962000	 ldr         r2, [r6]
  00250	e0473002	 sub         r3, r7, r2
  00254	e1a030c3	 mov         r3, r3, asr #1
  00258	e353001f	 cmp         r3, #0x1F
  0025c	ca000027	 bgt         |$LN89@PreProcess|
; Line 1205
  00260	e3a01020	 mov         r1, #0x20
  00264	e24b006c	 sub         r0, r11, #0x6C
  00268	eb000000	 bl          wcsncpy_s
  0026c	eb000000	 bl          |?AtlCrtErrorCheck@ATL@@YAHH@Z|
; Line 1206
  00270	e5964004	 ldr         r4, [r6, #4]
  00274	e50b8070	 str         r8, [r11, #-0x70]
  00278	e2840010	 add         r0, r4, #0x10
  0027c	eb000000	 bl          EnterCriticalSection
  00280	e24b1070	 sub         r1, r11, #0x70
  00284	e2840004	 add         r0, r4, #4
  00288	eb000000	 bl          |?Lookup@?$CSimpleMap@PA_WPA_WVCExpansionVectorEqualHelper@ATL@@@ATL@@QBAPA_WABQA_W@Z|
  0028c	e1a08000	 mov         r8, r0
  00290	e2840010	 add         r0, r4, #0x10
  00294	eb000000	 bl          LeaveCriticalSection
; Line 1207
  00298	e3580000	 cmp         r8, #0
  0029c	0a00001b	 beq         |$LN88@PreProcess|
; Line 1212
  002a0	e1a01008	 mov         r1, r8
  002a4	e24b007c	 sub         r0, r11, #0x7C
  002a8	eb000000	 bl          |?AddString@CParseBuffer@CRegParser@ATL@@QAAHPB_W@Z|
  002ac	e3500000	 cmp         r0, #0
  002b0	0affffdd	 beq         |$LN92@PreProcess|
; Line 1218
  002b4	ea000002	 b           |$LN102@PreProcess|
  002b8		 |$LL5@PreProcess|
; Line 1219
  002b8	e5960000	 ldr         r0, [r6]
  002bc	eb000000	 bl          CharNextW
  002c0	e5860000	 str         r0, [r6]
  002c4		 |$LN102@PreProcess|
  002c4	e5963000	 ldr         r3, [r6]
  002c8	e1530007	 cmp         r3, r7
  002cc	1afffff9	 bne         |$LL5@PreProcess|
  002d0	e55b707f	 ldrb        r7, [r11, #-0x7F]
  002d4	e55b4080	 ldrb        r4, [r11, #-0x80]
  002d8	e24b806c	 sub         r8, r11, #0x6C
  002dc		 |$LN2@PreProcess|
; Line 1231
  002dc	e5960000	 ldr         r0, [r6]
  002e0	eb000000	 bl          CharNextW
  002e4	e1a03000	 mov         r3, r0
  002e8	e5860000	 str         r0, [r6]
  002ec	e1d330b0	 ldrh        r3, [r3]
  002f0	e3530000	 cmp         r3, #0
  002f4	0a000009	 beq         |$LN97@PreProcess|
  002f8	e55b307e	 ldrb        r3, [r11, #-0x7E]
  002fc	eaffff6d	 b           |$LL29@PreProcess|
  00300		 |$LN89@PreProcess|
; Line 1210
  00300	e3a03116	 mov         r3, #0x16, 2
; Line 1233
  00304	e51b0074	 ldr         r0, [r11, #-0x74]
  00308	e3835901	 orr         r5, r3, #1, 18	; 16384 (0x4000)
  0030c	ea00000b	 b           |$LN1@PreProcess|
  00310		 |$LN88@PreProcess|
; Line 1201
  00310	e3a03126	 mov         r3, #0x26, 2
; Line 1233
  00314	e51b0074	 ldr         r0, [r11, #-0x74]
  00318	e3835802	 orr         r5, r3, #2, 16	; 131072 (0x20000)
  0031c	ea000007	 b           |$LN1@PreProcess|
  00320		 |$LN97@PreProcess|
; Line 1224
  00320	e51be074	 ldr         lr, [r11, #-0x74]
  00324		 |$LN95@PreProcess|
; Line 1234
  00324	e3a03000	 mov         r3, #0
  00328	e3a02000	 mov         r2, #0
  0032c	e3a00000	 mov         r0, #0
  00330	e50b0074	 str         r0, [r11, #-0x74]
  00334	e50b307c	 str         r3, [r11, #-0x7C]
  00338	e50b2078	 str         r2, [r11, #-0x78]
  0033c	e58ae000	 str         lr, [r10]
  00340		 |$LN1@PreProcess|
; Line 1235
  00340	eb000000	 bl          CoTaskMemFree
  00344	e51b002c	 ldr         r0, [r11, #-0x2C]
  00348		 |$M83329|
  00348	eb000000	 bl          __security_check_cookie
  0034c	ea000003	 b           |$LN34@PreProcess|
  00350		 |$LN32@PreProcess|
; Line 1077
  00350	e51b002c	 ldr         r0, [r11, #-0x2C]
  00354	eb000000	 bl          __security_check_cookie
  00358	e3a0310e	 mov         r3, #0xE, 2
  0035c	e3835901	 orr         r5, r3, #1, 18	; 16384 (0x4000)
  00360		 |$LN34@PreProcess|
; Line 1236
  00360	e1a00005	 mov         r0, r5
  00364	e24bd028	 sub         sp, r11, #0x28
  00368	e89daff0	 ldmia       sp, {r4 - r11, sp, pc}
  0036c		 |$M83333|
  0036c		 |__unwind$83183|
  0036c	e52de004	 str         lr, [sp, #-4]!
  00370		 |$M83336|
  00370	e24b007c	 sub         r0, r11, #0x7C
  00374	eb000000	 bl          |??1CParseBuffer@CRegParser@ATL@@QAA@XZ|
  00378	e8bd8000	 ldmia       sp!, {pc}
  0037c		 |$LN111@PreProcess|
  0037c		 |$LN112@PreProcess|
  0037c	00000000	 DCD         |??_C@_1BE@LJOLIMEM@?$AA?$AN?$AA?6?$AA?7?$AA?$HN?$AA?$AN?$AA?6?$AA?$HN?$AA?$AN?$AA?6?$AA?$AA@|
  00380		 |$LN113@PreProcess|
  00380	00000000	 DCD         |??_C@_1EA@NHKLICFA@?$AAH?$AAK?$AAC?$AAU?$AA?$AN?$AA?6?$AA?$HL?$AA?7?$AAS?$AAo?$AAf?$AAt?$AAw?$AAa?$AAr?$AAe?$AA?$AN?$AA?6?$AA?7?$AA?$HL?$AA?$AN?$AA?6?$AA?7?$AA?7?$AAC?$AAl?$AAa?$AAs?$AAs?$AAe?$AAs?$AA?$AA@|
  00384		 |$LN114@PreProcess|
  00384	00000000	 DCD         |??_C@_19NCHLBIN@?$AAH?$AAK?$AAC?$AAR?$AA?$AA@|
  00388		 |$LN115@PreProcess|
  00388	00000000	 DCD         |?_AtlRegisterPerUser@ATL@@3_NA|
  0038c		 |$LN116@PreProcess|
  0038c	00000000	 DCD         |__security_cookie|
  00390		 |$M83337|

			 ENDP  ; |?PreProcessBuffer@CRegParser@ATL@@QAAJPA_WPAPA_W@Z|, ATL::CRegParser::PreProcessBuffer

	EXPORT	|??0CExpansionVector@ATL@@QAA@XZ|	; ATL::CExpansionVector::CExpansionVector

  00000			 AREA	 |.pdata|, PDATA
|$T83360| DCD	|$LN8@CExpansion@2|
	DCD	0x40000500
; Function compile flags: /Ogspy

  00000			 AREA	 |.text|, CODE, ARM

  00000		 |??0CExpansionVector@ATL@@QAA@XZ| PROC	; ATL::CExpansionVector::CExpansionVector
  00000		 |$LN8@CExpansion@2|
  00000		 |$M83357|
  00000	e3a03000	 mov         r3, #0
  00004	e5803000	 str         r3, [r0]
  00008	e5803004	 str         r3, [r0, #4]
  0000c	e5803008	 str         r3, [r0, #8]
  00010	e1a0f00e	 mov         pc, lr
  00014		 |$M83358|

			 ENDP  ; |??0CExpansionVector@ATL@@QAA@XZ|, ATL::CExpansionVector::CExpansionVector

	EXPORT	|?Add@?$CSimpleMap@PA_WPA_WVCExpansionVectorEqualHelper@ATL@@@ATL@@QAAHABQA_W0@Z| ; ATL::CSimpleMap<wchar_t *,wchar_t *,ATL::CExpansionVectorEqualHelper>::Add
	IMPORT	|realloc|
; File c:\program files (x86)\microsoft visual studio 9.0\vc\ce\atlmfc\include\atlsimpcoll.h

  00000			 AREA	 |.pdata|, PDATA
|$T83418| DCD	|$LN22@Add|
	DCD	0x40002401
; Function compile flags: /Ogspy

  00000			 AREA	 |.text|, CODE, ARM

  00000		 |?Add@?$CSimpleMap@PA_WPA_WVCExpansionVectorEqualHelper@ATL@@@ATL@@QAAHABQA_W0@Z| PROC ; ATL::CSimpleMap<wchar_t *,wchar_t *,ATL::CExpansionVectorEqualHelper>::Add
; Line 312
  00000		 |$LN22@Add|
  00000	e92d4070	 stmdb       sp!, {r4 - r6, lr}
  00004		 |$M83415|
  00004	e1a05002	 mov         r5, r2
  00008	e1a06001	 mov         r6, r1
  0000c	e1a04000	 mov         r4, r0
; Line 314
  00010	e5943008	 ldr         r3, [r4, #8]
  00014	e5940000	 ldr         r0, [r4]
  00018	e2833001	 add         r3, r3, #1
  0001c	e1a01103	 mov         r1, r3, lsl #2
  00020	eb000000	 bl          realloc
  00024	e1b02000	 movs        r2, r0
; Line 315
  00028	1a000001	 bne         |$LN2@Add|
  0002c		 |$LN19@Add|
; Line 316
  0002c	e3a00000	 mov         r0, #0
; Line 326
  00030	e8bd8070	 ldmia       sp!, {r4 - r6, pc}
  00034		 |$LN2@Add|
; Line 319
  00034	e5943008	 ldr         r3, [r4, #8]
  00038	e5940004	 ldr         r0, [r4, #4]
  0003c	e5842000	 str         r2, [r4]
  00040	e2833001	 add         r3, r3, #1
  00044	e1a01103	 mov         r1, r3, lsl #2
  00048	eb000000	 bl          realloc
  0004c	e3500000	 cmp         r0, #0
; Line 321
  00050	0afffff5	 beq         |$LN19@Add|
; Line 323
  00054	e5942008	 ldr         r2, [r4, #8]
  00058	e5943000	 ldr         r3, [r4]
  0005c	e5840004	 str         r0, [r4, #4]
; Line 325
  00060	e3a00001	 mov         r0, #1
  00064	e0931102	 adds        r1, r3, r2, lsl #2
  00068	15963000	 ldrne       r3, [r6]
  0006c	15813000	 strne       r3, [r1]
  00070	e5943004	 ldr         r3, [r4, #4]
  00074	e0932102	 adds        r2, r3, r2, lsl #2
  00078	15953000	 ldrne       r3, [r5]
  0007c	15823000	 strne       r3, [r2]
  00080	e5943008	 ldr         r3, [r4, #8]
  00084	e2833001	 add         r3, r3, #1
  00088	e5843008	 str         r3, [r4, #8]
; Line 326
  0008c	e8bd8070	 ldmia       sp!, {r4 - r6, pc}
  00090		 |$M83416|

			 ENDP  ; |?Add@?$CSimpleMap@PA_WPA_WVCExpansionVectorEqualHelper@ATL@@@ATL@@QAAHABQA_W0@Z|, ATL::CSimpleMap<wchar_t *,wchar_t *,ATL::CExpansionVectorEqualHelper>::Add

	EXPORT	|?Allocate@?$CTempBuffer@_W$0EAA@VCCRTAllocator@ATL@@@ATL@@QAAPA_WI@Z| ; ATL::CTempBuffer<wchar_t,1024,ATL::CCRTAllocator>::Allocate
; File c:\program files (x86)\microsoft visual studio 9.0\vc\ce\atlmfc\include\atlalloc.h

  00000			 AREA	 |.pdata|, PDATA
|$T83461| DCD	|$LN20@Allocate@2|
	DCD	0x40001701
; Function compile flags: /Ogspy

  00000			 AREA	 |.text|, CODE, ARM

  00000		 |?Allocate@?$CTempBuffer@_W$0EAA@VCCRTAllocator@ATL@@@ATL@@QAAPA_WI@Z| PROC ; ATL::CTempBuffer<wchar_t,1024,ATL::CCRTAllocator>::Allocate
; Line 484
  00000		 |$LN20@Allocate@2|
  00000	e92d4010	 stmdb       sp!, {r4, lr}
  00004		 |$M83458|
  00004	e1a04000	 mov         r4, r0
; Line 485
  00008	e3a03002	 mov         r3, #2
  0000c	e0832391	 umull       r2, r3, r1, r3
  00010	e3530000	 cmp         r3, #0
  00014	8a00000d	 bhi         |$LN14@Allocate@2|
  00018	3a000001	 bcc         |$LN15@Allocate@2|
  0001c	e3720001	 cmn         r2, #1
  00020	8a00000a	 bhi         |$LN14@Allocate@2|
  00024		 |$LN15@Allocate@2|
  00024	e3520b01	 cmp         r2, #1, 22		; 1024 (0x400)
  00028	9a000004	 bls         |$LN11@Allocate@2|
  0002c	e1a01002	 mov         r1, r2
  00030	e1a00004	 mov         r0, r4
  00034	eb000000	 bl          |?AllocateHeap@?$CTempBuffer@_W$0EAA@VCCRTAllocator@ATL@@@ATL@@AAAXI@Z|
  00038	e5940000	 ldr         r0, [r4]
; Line 486
  0003c	e8bd8010	 ldmia       sp!, {r4, pc}
; Line 485
  00040		 |$LN11@Allocate@2|
  00040	e2843004	 add         r3, r4, #4
  00044	e5843000	 str         r3, [r4]
  00048	e1a00003	 mov         r0, r3
; Line 486
  0004c	e8bd8010	 ldmia       sp!, {r4, pc}
  00050		 |$LN14@Allocate@2|
; Line 485
  00050	e59f0000	 ldr         r0, [pc]		; -2147024809 (0x80070057)
  00054	eb000000	 bl          |?AtlThrowImpl@ATL@@YAXJ@Z|
  00058		 |$LN22@Allocate@2|
  00058		 |$LN23@Allocate@2|
  00058	80070057	 DCD         0x80070057
  0005c		 |$LN21@Allocate@2|
  0005c		 |$LN17@Allocate@2|
  0005c		 |$M83459|

			 ENDP  ; |?Allocate@?$CTempBuffer@_W$0EAA@VCCRTAllocator@ATL@@@ATL@@QAAPA_WI@Z|, ATL::CTempBuffer<wchar_t,1024,ATL::CCRTAllocator>::Allocate

	EXPORT	|?Allocate@?$CTempBuffer@_W$0BAA@VCCRTAllocator@ATL@@@ATL@@QAAPA_WI@Z| ; ATL::CTempBuffer<wchar_t,256,ATL::CCRTAllocator>::Allocate

  00000			 AREA	 |.pdata|, PDATA
|$T83507| DCD	|$LN20@Allocate@3|
	DCD	0x40001701
; Function compile flags: /Ogspy

  00000			 AREA	 |.text|, CODE, ARM

  00000		 |?Allocate@?$CTempBuffer@_W$0BAA@VCCRTAllocator@ATL@@@ATL@@QAAPA_WI@Z| PROC ; ATL::CTempBuffer<wchar_t,256,ATL::CCRTAllocator>::Allocate
; Line 484
  00000		 |$LN20@Allocate@3|
  00000	e92d4010	 stmdb       sp!, {r4, lr}
  00004		 |$M83504|
  00004	e1a04000	 mov         r4, r0
; Line 485
  00008	e3a03002	 mov         r3, #2
  0000c	e0832391	 umull       r2, r3, r1, r3
  00010	e3530000	 cmp         r3, #0
  00014	8a00000d	 bhi         |$LN14@Allocate@3|
  00018	3a000001	 bcc         |$LN15@Allocate@3|
  0001c	e3720001	 cmn         r2, #1
  00020	8a00000a	 bhi         |$LN14@Allocate@3|
  00024		 |$LN15@Allocate@3|
  00024	e3520c01	 cmp         r2, #1, 24		; 256 (0x100)
  00028	9a000004	 bls         |$LN11@Allocate@3|
  0002c	e1a01002	 mov         r1, r2
  00030	e1a00004	 mov         r0, r4
  00034	eb000000	 bl          |?AllocateHeap@?$CTempBuffer@_W$0BAA@VCCRTAllocator@ATL@@@ATL@@AAAXI@Z|
  00038	e5940000	 ldr         r0, [r4]
; Line 486
  0003c	e8bd8010	 ldmia       sp!, {r4, pc}
; Line 485
  00040		 |$LN11@Allocate@3|
  00040	e2843004	 add         r3, r4, #4
  00044	e5843000	 str         r3, [r4]
  00048	e1a00003	 mov         r0, r3
; Line 486
  0004c	e8bd8010	 ldmia       sp!, {r4, pc}
  00050		 |$LN14@Allocate@3|
; Line 485
  00050	e59f0000	 ldr         r0, [pc]		; -2147024809 (0x80070057)
  00054	eb000000	 bl          |?AtlThrowImpl@ATL@@YAXJ@Z|
  00058		 |$LN22@Allocate@3|
  00058		 |$LN23@Allocate@3|
  00058	80070057	 DCD         0x80070057
  0005c		 |$LN21@Allocate@3|
  0005c		 |$LN17@Allocate@3|
  0005c		 |$M83505|

			 ENDP  ; |?Allocate@?$CTempBuffer@_W$0BAA@VCCRTAllocator@ATL@@@ATL@@QAAPA_WI@Z|, ATL::CTempBuffer<wchar_t,256,ATL::CCRTAllocator>::Allocate

	EXPORT	|?Allocate@?$CTempBuffer@E$0BAA@VCCRTAllocator@ATL@@@ATL@@QAAPAEI@Z| ; ATL::CTempBuffer<unsigned char,256,ATL::CCRTAllocator>::Allocate

  00000			 AREA	 |.pdata|, PDATA
|$T83553| DCD	|$LN20@Allocate@4|
	DCD	0x40001501
; Function compile flags: /Ogspy

  00000			 AREA	 |.text|, CODE, ARM

  00000		 |?Allocate@?$CTempBuffer@E$0BAA@VCCRTAllocator@ATL@@@ATL@@QAAPAEI@Z| PROC ; ATL::CTempBuffer<unsigned char,256,ATL::CCRTAllocator>::Allocate
; Line 484
  00000		 |$LN20@Allocate@4|
  00000	e92d4010	 stmdb       sp!, {r4, lr}
  00004		 |$M83550|
  00004	e1a04000	 mov         r4, r0
; Line 485
  00008	e3a03000	 mov         r3, #0
  0000c	e3530000	 cmp         r3, #0
  00010	8a00000c	 bhi         |$LN14@Allocate@4|
  00014	3a000001	 bcc         |$LN15@Allocate@4|
  00018	e3710001	 cmn         r1, #1
  0001c	8a000009	 bhi         |$LN14@Allocate@4|
  00020		 |$LN15@Allocate@4|
  00020	e3510c01	 cmp         r1, #1, 24		; 256 (0x100)
  00024	9a000003	 bls         |$LN11@Allocate@4|
  00028	e1a00004	 mov         r0, r4
  0002c	eb000000	 bl          |?AllocateHeap@?$CTempBuffer@E$0BAA@VCCRTAllocator@ATL@@@ATL@@AAAXI@Z|
  00030	e5940000	 ldr         r0, [r4]
; Line 486
  00034	e8bd8010	 ldmia       sp!, {r4, pc}
; Line 485
  00038		 |$LN11@Allocate@4|
  00038	e2843004	 add         r3, r4, #4
  0003c	e5843000	 str         r3, [r4]
  00040	e1a00003	 mov         r0, r3
; Line 486
  00044	e8bd8010	 ldmia       sp!, {r4, pc}
  00048		 |$LN14@Allocate@4|
; Line 485
  00048	e59f0000	 ldr         r0, [pc]		; -2147024809 (0x80070057)
  0004c	eb000000	 bl          |?AtlThrowImpl@ATL@@YAXJ@Z|
  00050		 |$LN22@Allocate@4|
  00050		 |$LN23@Allocate@4|
  00050	80070057	 DCD         0x80070057
  00054		 |$LN21@Allocate@4|
  00054		 |$LN17@Allocate@4|
  00054		 |$M83551|

			 ENDP  ; |?Allocate@?$CTempBuffer@E$0BAA@VCCRTAllocator@ATL@@@ATL@@QAAPAEI@Z|, ATL::CTempBuffer<unsigned char,256,ATL::CCRTAllocator>::Allocate

	EXPORT	|?PrepareWrite2@?$CSimpleStringT@_W$0A@@ATL@@AAAXH@Z| ; ATL::CSimpleStringT<wchar_t,0>::PrepareWrite2
; File c:\program files (x86)\microsoft visual studio 9.0\vc\ce\atlmfc\include\atlsimpstr.h

  00000			 AREA	 |.pdata|, PDATA
|$T83578| DCD	|$LN18@PrepareWri|
	DCD	0x40001901
; Function compile flags: /Ogspy

  00000			 AREA	 |.text|, CODE, ARM

  00000		 |?PrepareWrite2@?$CSimpleStringT@_W$0A@@ATL@@AAAXH@Z| PROC ; ATL::CSimpleStringT<wchar_t,0>::PrepareWrite2
; Line 807
  00000		 |$LN18@PrepareWri|
  00000	e52de004	 str         lr, [sp, #-4]!
  00004		 |$M83575|
  00004	e1a02001	 mov         r2, r1
; Line 808
  00008	e5903000	 ldr         r3, [r0]
  0000c	e2431010	 sub         r1, r3, #0x10
; Line 809
  00010	e5913004	 ldr         r3, [r1, #4]
  00014	e1530002	 cmp         r3, r2
; Line 811
  00018	c1a02003	 movgt       r2, r3
; Line 813
  0001c	e591300c	 ldr         r3, [r1, #0xC]
  00020	e3530001	 cmp         r3, #1
  00024	c3a03001	 movgt       r3, #1
  00028	d3a03000	 movle       r3, #0
  0002c	e21330ff	 ands        r3, r3, #0xFF
; Line 833
  00030	11a01002	 movne       r1, r2
  00034	149de004	 ldrne       lr, [sp], #4
  00038	1a000000	 bne         |?Fork@?$CSimpleStringT@_W$0A@@ATL@@AAAXH@Z|
; Line 817
  0003c	e5913008	 ldr         r3, [r1, #8]
  00040	e1530002	 cmp         r3, r2
  00044	aa000005	 bge         |$LN4@PrepareWri|
; Line 821
  00048	e3530b01	 cmp         r3, #1, 22		; 1024 (0x400)
; Line 823
  0004c	c2831b01	 addgt       r1, r3, #1, 22	; 1024 (0x400)
; Line 827
  00050	d1a01083	 movle       r1, r3, lsl #1
; Line 829
  00054	e1510002	 cmp         r1, r2
; Line 831
  00058	b1a01002	 movlt       r1, r2
; Line 833
  0005c	eb000000	 bl          |?Reallocate@?$CSimpleStringT@_W$0A@@ATL@@AAAXH@Z|
  00060		 |$LN4@PrepareWri|
; Line 835
  00060	e49df004	 ldr         pc, [sp], #4
  00064		 |$M83576|

			 ENDP  ; |?PrepareWrite2@?$CSimpleStringT@_W$0A@@ATL@@AAAXH@Z|, ATL::CSimpleStringT<wchar_t,0>::PrepareWrite2

	EXPORT	|??0?$CComObjectCached@VCComClassFactory@ATL@@@ATL@@QAA@PAX@Z| ; ATL::CComObjectCached<ATL::CComClassFactory>::CComObjectCached<ATL::CComClassFactory>
	EXPORT	|??_7?$CComObjectCached@VCComClassFactory@ATL@@@ATL@@6B@| [ DATA ] ; ATL::CComObjectCached<ATL::CComClassFactory>::`vftable'
	EXPORT	|?QueryInterface@?$CComObjectCached@VCComClassFactory@ATL@@@ATL@@UAAJABU_GUID@@PAPAX@Z| ; ATL::CComObjectCached<ATL::CComClassFactory>::QueryInterface
	EXPORT	|?AddRef@?$CComObjectCached@VCComClassFactory@ATL@@@ATL@@UAAKXZ| ; ATL::CComObjectCached<ATL::CComClassFactory>::AddRef
	EXPORT	|?Release@?$CComObjectCached@VCComClassFactory@ATL@@@ATL@@UAAKXZ| ; ATL::CComObjectCached<ATL::CComClassFactory>::Release
	IMPORT	|??_E?$CComObjectCached@VCComClassFactory@ATL@@@ATL@@UAAPAXI@Z|, WEAK |??_G?$CComObjectCached@VCComClassFactory@ATL@@@ATL@@UAAPAXI@Z| ; ATL::CComObjectCached<ATL::CComClassFactory>::`vector deleting destructor', ATL::CComObjectCached<ATL::CComClassFactory>::`scalar deleting destructor'
; File c:\program files (x86)\microsoft visual studio 9.0\vc\ce\atlmfc\include\atlcore.h

  00000			 AREA	 |.pdata|, PDATA
|$T83647| DCD	|$LN22@CComObject@9|
	DCD	0x40000f01

  00000			 AREA	 |.rdata|, DATA, READONLY
|??_7?$CComObjectCached@VCComClassFactory@ATL@@@ATL@@6B@| DCD |?QueryInterface@?$CComObjectCached@VCComClassFactory@ATL@@@ATL@@UAAJABU_GUID@@PAPAX@Z| ; ATL::CComObjectCached<ATL::CComClassFactory>::`vftable'
	DCD	|?AddRef@?$CComObjectCached@VCComClassFactory@ATL@@@ATL@@UAAKXZ|
	DCD	|?Release@?$CComObjectCached@VCComClassFactory@ATL@@@ATL@@UAAKXZ|
	DCD	|?CreateInstance@CComClassFactory@ATL@@UAAJPAUIUnknown@@ABU_GUID@@PAPAX@Z|
	DCD	|?LockServer@CComClassFactory@ATL@@UAAJH@Z|
	DCD	|??_E?$CComObjectCached@VCComClassFactory@ATL@@@ATL@@UAAPAXI@Z|
; Function compile flags: /Ogspy

  00000			 AREA	 |.text|, CODE, ARM

  00000		 |??0?$CComObjectCached@VCComClassFactory@ATL@@@ATL@@QAA@PAX@Z| PROC ; ATL::CComObjectCached<ATL::CComClassFactory>::CComObjectCached<ATL::CComClassFactory>
; File c:\program files (x86)\microsoft visual studio 9.0\vc\ce\atlmfc\include\atlcom.h
; Line 2782
  00000		 |$LN22@CComObject@9|
  00000	e92d4070	 stmdb       sp!, {r4 - r6, lr}
  00004		 |$M83644|
  00004	e1a05000	 mov         r5, r0
  00008	e1a04005	 mov         r4, r5
  0000c	e3a06000	 mov         r6, #0
  00010	e5a46004	 str         r6, [r4, #4]!
  00014	e3a02014	 mov         r2, #0x14
  00018	e3a01000	 mov         r1, #0
  0001c	e2840004	 add         r0, r4, #4
  00020	eb000000	 bl          memset
  00024	e59f300c	 ldr         r3, [pc, #0xC]
  00028	e5c46018	 strb        r6, [r4, #0x18]
  0002c	e1a00005	 mov         r0, r5
  00030	e5853000	 str         r3, [r5]
  00034	e8bd8070	 ldmia       sp!, {r4 - r6, pc}
  00038		 |$LN23@CComObject@9|
  00038		 |$LN24@CComObject@9|
  00038	00000000	 DCD         |??_7?$CComObjectCached@VCComClassFactory@ATL@@@ATL@@6B@|
  0003c		 |$M83645|

			 ENDP  ; |??0?$CComObjectCached@VCComClassFactory@ATL@@@ATL@@QAA@PAX@Z|, ATL::CComObjectCached<ATL::CComClassFactory>::CComObjectCached<ATL::CComClassFactory>

	EXPORT	|?FinalRelease@CComObjectRootBase@ATL@@QAAXXZ| ; ATL::CComObjectRootBase::FinalRelease

  00000			 AREA	 |.pdata|, PDATA
|$T83656| DCD	|$LN5@FinalRelea@2|
	DCD	0x40000100
; Function compile flags: /Ogspy

  00000			 AREA	 |.text|, CODE, ARM

  00000		 |?FinalRelease@CComObjectRootBase@ATL@@QAAXXZ| PROC ; ATL::CComObjectRootBase::FinalRelease
; Line 2306
  00000		 |$LN5@FinalRelea@2|
  00000		 |$M83653|
  00000	e1a0f00e	 mov         pc, lr
  00004		 |$M83654|

			 ENDP  ; |?FinalRelease@CComObjectRootBase@ATL@@QAAXXZ|, ATL::CComObjectRootBase::FinalRelease

	EXPORT	|?_GetEntries@CComClassFactory@ATL@@SAPBU_ATL_INTMAP_ENTRY@2@XZ| ; ATL::CComClassFactory::_GetEntries
	EXPORT	|?_entries@?1??_GetEntries@CComClassFactory@ATL@@SAPBU_ATL_INTMAP_ENTRY@3@XZ@4QBU43@B| [ DATA ] ; `ATL::CComClassFactory::_GetEntries'::`2'::_entries
	EXPORT	|_GUID_00000001_0000_0000_c000_000000000046| [ DATA ]

  00000			 AREA	 |.pdata|, PDATA
|$T83665| DCD	|$LN5@GetEntries@2|
	DCD	0x40000300

  00000			 AREA	 |.rdata|, DATA, READONLY
|_GUID_00000001_0000_0000_c000_000000000046| DCD 0x1
	DCW	0x0
	DCW	0x0
	DCB	0xc0
	DCB	0x0
	DCB	0x0
	DCB	0x0
	DCB	0x0
	DCB	0x0
	DCB	0x0
	DCB	0x46

  00000			 AREA	 |.rdata|, DATA, READONLY
|?_entries@?1??_GetEntries@CComClassFactory@ATL@@SAPBU_ATL_INTMAP_ENTRY@3@XZ@4QBU43@B| DCD |_GUID_00000001_0000_0000_c000_000000000046| ; `ATL::CComClassFactory::_GetEntries'::`2'::_entries
	DCD	0x0
	DCD	0x1
	DCD	0x0
	DCD	0x0
	DCD	0x0
; Function compile flags: /Ogspy

  00000			 AREA	 |.text|, CODE, ARM

  00000		 |?_GetEntries@CComClassFactory@ATL@@SAPBU_ATL_INTMAP_ENTRY@2@XZ| PROC ; ATL::CComClassFactory::_GetEntries
; Line 3412
  00000		 |$LN5@GetEntries@2|
  00000		 |$M83662|
; Line 3414
  00000	e59f0000	 ldr         r0, [pc]
  00004	e1a0f00e	 mov         pc, lr
  00008		 |$LN6@GetEntries@2|
  00008		 |$LN7@GetEntries@2|
  00008	00000000	 DCD         |?_entries@?1??_GetEntries@CComClassFactory@ATL@@SAPBU_ATL_INTMAP_ENTRY@3@XZ@4QBU43@B|
  0000c		 |$M83663|

			 ENDP  ; |?_GetEntries@CComClassFactory@ATL@@SAPBU_ATL_INTMAP_ENTRY@2@XZ|, ATL::CComClassFactory::_GetEntries

; File c:\program files (x86)\microsoft visual studio 9.0\vc\ce\atlmfc\include\atlbase.h

  00000			 AREA	 |.pdata|, PDATA
|$T83689| DCD	|$LN13@AddRef@5|
	DCD	0x40000d01
; Function compile flags: /Ogspy

  00000			 AREA	 |.text|, CODE, ARM

  00000		 |?AddRef@?$CComObjectCached@VCComClassFactory@ATL@@@ATL@@UAAKXZ| PROC ; ATL::CComObjectCached<ATL::CComClassFactory>::AddRef
; File c:\program files (x86)\microsoft visual studio 9.0\vc\ce\atlmfc\include\atlcom.h
; Line 2796
  00000		 |$LN13@AddRef@5|
  00000	e92d4010	 stmdb       sp!, {r4, lr}
  00004		 |$M83686|
; Line 2797
  00004	e2800004	 add         r0, r0, #4
  00008	eb000000	 bl          InterlockedIncrement
  0000c	e1a04000	 mov         r4, r0
; Line 2798
  00010	e3540002	 cmp         r4, #2
; Line 2799
  00014	059f3014	 ldreq       r3, [pc, #0x14]
  00018	05930000	 ldreq       r0, [r3]
  0001c	05903000	 ldreq       r3, [r0]
  00020	01a0e00f	 moveq       lr, pc
  00024	0593f004	 ldreq       pc, [r3, #4]
; Line 2801
  00028	e1a00004	 mov         r0, r4
  0002c	e8bd8010	 ldmia       sp!, {r4, pc}
  00030		 |$LN14@AddRef@5|
  00030		 |$LN15@AddRef@5|
  00030	00000000	 DCD         |?_pAtlModule@ATL@@3PAVCAtlModule@1@A|
  00034		 |$M83687|

			 ENDP  ; |?AddRef@?$CComObjectCached@VCComClassFactory@ATL@@@ATL@@UAAKXZ|, ATL::CComObjectCached<ATL::CComClassFactory>::AddRef

; File c:\program files (x86)\microsoft visual studio 9.0\vc\ce\atlmfc\include\atlbase.h

  00000			 AREA	 |.pdata|, PDATA
|$T83714| DCD	|$LN14@Release@5|
	DCD	0x40001801
; Function compile flags: /Ogspy

  00000			 AREA	 |.text|, CODE, ARM

  00000		 |?Release@?$CComObjectCached@VCComClassFactory@ATL@@@ATL@@UAAKXZ| PROC ; ATL::CComObjectCached<ATL::CComClassFactory>::Release
; File c:\program files (x86)\microsoft visual studio 9.0\vc\ce\atlmfc\include\atlcom.h
; Line 2803
  00000		 |$LN14@Release@5|
  00000	e92d4030	 stmdb       sp!, {r4, r5, lr}
  00004		 |$M83711|
  00004	e1a04000	 mov         r4, r0
; Line 2804
  00008	e2840004	 add         r0, r4, #4
  0000c	eb000000	 bl          InterlockedDecrement
  00010	e1b05000	 movs        r5, r0
; Line 2805
  00014	1a000008	 bne         |$LN3@Release@5|
; Line 2806
  00018	e3540000	 cmp         r4, #0
  0001c	0a00000c	 beq         |$LN1@Release@5|
  00020	e5943000	 ldr         r3, [r4]
  00024	e3a01001	 mov         r1, #1
  00028	e1a00004	 mov         r0, r4
  0002c	e1a0e00f	 mov         lr, pc
  00030	e593f014	 ldr         pc, [r3, #0x14]
; Line 2810
  00034	e1a00005	 mov         r0, r5
  00038	e8bd8030	 ldmia       sp!, {r4, r5, pc}
  0003c		 |$LN3@Release@5|
; Line 2807
  0003c	e3550001	 cmp         r5, #1
; Line 2808
  00040	059f3014	 ldreq       r3, [pc, #0x14]
  00044	05930000	 ldreq       r0, [r3]
  00048	05903000	 ldreq       r3, [r0]
  0004c	01a0e00f	 moveq       lr, pc
  00050	0593f008	 ldreq       pc, [r3, #8]
  00054		 |$LN1@Release@5|
; Line 2810
  00054	e1a00005	 mov         r0, r5
  00058	e8bd8030	 ldmia       sp!, {r4, r5, pc}
  0005c		 |$LN15@Release@5|
  0005c		 |$LN16@Release@5|
  0005c	00000000	 DCD         |?_pAtlModule@ATL@@3PAVCAtlModule@1@A|
  00060		 |$M83712|

			 ENDP  ; |?Release@?$CComObjectCached@VCComClassFactory@ATL@@@ATL@@UAAKXZ|, ATL::CComObjectCached<ATL::CComClassFactory>::Release

	EXPORT	|?_InternalQueryInterface@CComClassFactory@ATL@@QAAJABU_GUID@@PAPAX@Z| ; ATL::CComClassFactory::_InternalQueryInterface

  00000			 AREA	 |.pdata|, PDATA
|$T83737| DCD	|$LN9@InternalQu@3|
	DCD	0x40000500
; Function compile flags: /Ogspy

  00000			 AREA	 |.text|, CODE, ARM

  00000		 |?_InternalQueryInterface@CComClassFactory@ATL@@QAAJABU_GUID@@PAPAX@Z| PROC ; ATL::CComClassFactory::_InternalQueryInterface
; Line 3412
  00000		 |$LN9@InternalQu@3|
  00000		 |$M83734|
  00000	e1a03002	 mov         r3, r2
  00004	e1a02001	 mov         r2, r1
  00008	e59f1000	 ldr         r1, [pc]
  0000c	ea000000	 b           |?AtlInternalQueryInterface@ATL@@YAJPAXPBU_ATL_INTMAP_ENTRY@1@ABU_GUID@@PAPAX@Z|
  00010		 |$LN10@InternalQu@3|
  00010		 |$LN11@InternalQu@3|
  00010	00000000	 DCD         |?_entries@?1??_GetEntries@CComClassFactory@ATL@@SAPBU_ATL_INTMAP_ENTRY@3@XZ@4QBU43@B|
  00014		 |$M83735|

			 ENDP  ; |?_InternalQueryInterface@CComClassFactory@ATL@@QAAJABU_GUID@@PAPAX@Z|, ATL::CComClassFactory::_InternalQueryInterface

	EXPORT	|??1?$CComObjectCached@VCComClassFactory@ATL@@@ATL@@UAA@XZ| ; ATL::CComObjectCached<ATL::CComClassFactory>::~CComObjectCached<ATL::CComClassFactory>

  00000			 AREA	 |.pdata|, PDATA
|$T83810| DCD	|$LN23@CComObject@10|
	DCD	0x40000e01
; Function compile flags: /Ogspy

  00000			 AREA	 |.text|, CODE, ARM

  00000		 |??1?$CComObjectCached@VCComClassFactory@ATL@@@ATL@@UAA@XZ| PROC ; ATL::CComObjectCached<ATL::CComClassFactory>::~CComObjectCached<ATL::CComClassFactory>
; Line 2786
  00000		 |$LN23@CComObject@10|
  00000	e52de004	 str         lr, [sp, #-4]!
  00004		 |$M83807|
; Line 2792
  00004	e59f3028	 ldr         r3, [pc, #0x28]
  00008	e1a02000	 mov         r2, r0
  0000c	e3a01107	 mov         r1, #7, 2
  00010	e4823008	 str         r3, [r2], #8
  00014	e5801004	 str         r1, [r0, #4]
  00018	e5d23014	 ldrb        r3, [r2, #0x14]
  0001c	e3530000	 cmp         r3, #0
  00020	13a03000	 movne       r3, #0
  00024	11a00002	 movne       r0, r2
  00028	15c23014	 strneb      r3, [r2, #0x14]
  0002c	1b000000	 blne        DeleteCriticalSection
  00030	e49df004	 ldr         pc, [sp], #4
  00034		 |$LN24@CComObject@10|
  00034		 |$LN25@CComObject@10|
  00034	00000000	 DCD         |??_7CComClassFactory@ATL@@6B@|
  00038		 |$M83808|

			 ENDP  ; |??1?$CComObjectCached@VCComClassFactory@ATL@@@ATL@@UAA@XZ|, ATL::CComObjectCached<ATL::CComClassFactory>::~CComObjectCached<ATL::CComClassFactory>


  00000			 AREA	 |.pdata|, PDATA
|$T83842| DCD	|$LN11@QueryInter@4|
	DCD	0x40000500
; Function compile flags: /Ogspy

  00000			 AREA	 |.text|, CODE, ARM

  00000		 |?QueryInterface@?$CComObjectCached@VCComClassFactory@ATL@@@ATL@@UAAJABU_GUID@@PAPAX@Z| PROC ; ATL::CComObjectCached<ATL::CComClassFactory>::QueryInterface
; Line 2813
  00000		 |$LN11@QueryInter@4|
  00000		 |$M83839|
  00000	e1a03002	 mov         r3, r2
  00004	e1a02001	 mov         r2, r1
  00008	e59f1000	 ldr         r1, [pc]
  0000c	ea000000	 b           |?AtlInternalQueryInterface@ATL@@YAJPAXPBU_ATL_INTMAP_ENTRY@1@ABU_GUID@@PAPAX@Z|
  00010		 |$LN12@QueryInter@4|
  00010		 |$LN13@QueryInter@4|
  00010	00000000	 DCD         |?_entries@?1??_GetEntries@CComClassFactory@ATL@@SAPBU_ATL_INTMAP_ENTRY@3@XZ@4QBU43@B|
  00014		 |$M83840|

			 ENDP  ; |?QueryInterface@?$CComObjectCached@VCComClassFactory@ATL@@@ATL@@UAAJABU_GUID@@PAPAX@Z|, ATL::CComObjectCached<ATL::CComClassFactory>::QueryInterface


  00000			 AREA	 |.pdata|, PDATA
|$T83937| DCD	|$LN25@scalar@4|
	DCD	0x40001201
; Function compile flags: /Ogspy

  00000			 AREA	 |.text|, CODE, ARM

  00000		 |??_G?$CComObjectCached@VCComClassFactory@ATL@@@ATL@@UAAPAXI@Z| PROC ; ATL::CComObjectCached<ATL::CComClassFactory>::`scalar deleting destructor'
  00000		 |$LN25@scalar@4|
  00000	e92d4030	 stmdb       sp!, {r4, r5, lr}
  00004		 |$M83934|
  00004	e1a05001	 mov         r5, r1
  00008	e1a04000	 mov         r4, r0
  0000c	e59f3030	 ldr         r3, [pc, #0x30]
  00010	e3a02107	 mov         r2, #7, 2
  00014	e5842004	 str         r2, [r4, #4]
  00018	e4803008	 str         r3, [r0], #8
  0001c	e5d03014	 ldrb        r3, [r0, #0x14]
  00020	e3530000	 cmp         r3, #0
  00024	13a03000	 movne       r3, #0
  00028	15c03014	 strneb      r3, [r0, #0x14]
  0002c	1b000000	 blne        DeleteCriticalSection
  00030	e3150001	 tst         r5, #1
  00034	11a00004	 movne       r0, r4
  00038	1b000000	 blne        |??3@YAXPAX@Z|
  0003c	e1a00004	 mov         r0, r4
  00040	e8bd8030	 ldmia       sp!, {r4, r5, pc}
  00044		 |$LN26@scalar@4|
  00044		 |$LN27@scalar@4|
  00044	00000000	 DCD         |??_7CComClassFactory@ATL@@6B@|
  00048		 |$M83935|

			 ENDP  ; |??_G?$CComObjectCached@VCComClassFactory@ATL@@@ATL@@UAAPAXI@Z|, ATL::CComObjectCached<ATL::CComClassFactory>::`scalar deleting destructor'

	EXPORT	|?CreateInstance@?$CComCreator@V?$CComObject@VCMangoClass@@@ATL@@@ATL@@SAJPAXABU_GUID@@PAPAX@Z| ; ATL::CComCreator<ATL::CComObject<CMangoClass> >::CreateInstance
	IMPORT	|??2@YAPAXI@Z|				; operator new
; File c:\program files (x86)\microsoft visual studio 9.0\vc\ce\atlmfc\include\atlbase.h

  00000			 AREA	 |.pdata|, PDATA
|$T84035| DCD	|$LN51@CreateInst@2|
	DCD	0xc0004105

  00000			 AREA	 |.pdata|, PDATA
|$T84038| DCD	|__catch$83951|
	DCD	0xc0000300

  00000			 AREA	 |.rdata|, DATA, READONLY
|__unwindtable$?CreateInstance@?$CComCreator@V?$CComObject@VCMangoClass@@@ATL@@@ATL@@SAJPAXABU_GUID@@PAPAX@Z| DCD 0xffffffff
	DCD	0x0
	DCD	0xffffffff
	DCD	0x0
|__catchsym$?CreateInstance@?$CComCreator@V?$CComObject@VCMangoClass@@@ATL@@@ATL@@SAJPAXABU_GUID@@PAPAX@Z$2| DCD 0x40
	DCD	0x0
	DCD	0x0
	DCD	0x1
	DCD	|__catch$83951|
|__tryblocktable$?CreateInstance@?$CComCreator@V?$CComObject@VCMangoClass@@@ATL@@@ATL@@SAJPAXABU_GUID@@PAPAX@Z| DCD 0x0
	DCD	0x0
	DCD	0x0
	DCD	0x1
	DCD	|__catchsym$?CreateInstance@?$CComCreator@V?$CComObject@VCMangoClass@@@ATL@@@ATL@@SAJPAXABU_GUID@@PAPAX@Z$2|
|__ehfuncinfo$?CreateInstance@?$CComCreator@V?$CComObject@VCMangoClass@@@ATL@@@ATL@@SAJPAXABU_GUID@@PAPAX@Z| DCD 0x19930522
	DCD	0x2
	DCD	|__unwindtable$?CreateInstance@?$CComCreator@V?$CComObject@VCMangoClass@@@ATL@@@ATL@@SAJPAXABU_GUID@@PAPAX@Z|
	DCD	0x1
	DCD	|__tryblocktable$?CreateInstance@?$CComCreator@V?$CComObject@VCMangoClass@@@ATL@@@ATL@@SAJPAXABU_GUID@@PAPAX@Z|
	DCD	0x4
	DCD	|$T84030|
	DCD	0x0
	DCD	0x1
|$T84030| DCD	|$M84026|
	DCD	0x0
	DCD	|$M84027|
	DCD	0xffffffff
	DCD	|$M84028|
	DCD	0x0
	DCD	|$M84029|
	DCD	0xffffffff
; Function compile flags: /Ogspy

  00000			 AREA	 |.text|, CODE, ARM

  00000	00000000	 DCD         |__CxxFrameHandler3|
  00004	00000000	 DCD         |__ehfuncinfo$?CreateInstance@?$CComCreator@V?$CComObject@VCMangoClass@@@ATL@@@ATL@@SAJPAXABU_GUID@@PAPAX@Z|

  00008		 |?CreateInstance@?$CComCreator@V?$CComObject@VCMangoClass@@@ATL@@@ATL@@SAJPAXABU_GUID@@PAPAX@Z| PROC ; ATL::CComCreator<ATL::CComObject<CMangoClass> >::CreateInstance
; File c:\program files (x86)\microsoft visual studio 9.0\vc\ce\atlmfc\include\atlcom.h
; Line 1870
  00008		 |$LN51@CreateInst@2|
  00008	e1a0c00d	 mov         r12, sp
  0000c	e92d0007	 stmdb       sp!, {r0 - r2}
  00010	e92d58f0	 stmdb       sp!, {r4 - r7, r11, r12, lr}
  00014	e28db01c	 add         r11, sp, #0x1C
  00018	e24dd008	 sub         sp, sp, #8
  0001c		 |$M84032|
  0001c	e1b06002	 movs        r6, r2
  00020	e1a07001	 mov         r7, r1
  00024	e58b6008	 str         r6, [r11, #8]
  00028	e58b7004	 str         r7, [r11, #4]
  0002c	e1a04000	 mov         r4, r0
; Line 1872
  00030	03a0310e	 moveq       r3, #0xE, 2
; Line 1873
  00034	03835901	 orreq       r5, r3, #1, 18	; 16384 (0x4000)
  00038		 |$M84026|
  00038	0a000030	 beq         |$LN12@CreateInst@2|
  0003c		 |$M84027|
  0003c	e3a0313a	 mov         r3, #0x3A, 2
; Line 1876
  00040	e3835807	 orr         r5, r3, #7, 16	; 458752 (0x70000)
  00044	e3a03000	 mov         r3, #0
; Line 1877
  00048	e3a02000	 mov         r2, #0
  0004c	e5863000	 str         r3, [r6]
  00050	e50b5024	 str         r5, [r11, #-0x24]
  00054	e50b2020	 str         r2, [r11, #-0x20]
; Line 1881
  00058	e3a00020	 mov         r0, #0x20
  0005c		 |$M84028|
  0005c	eb000000	 bl          |??2@YAPAXI@Z|
  00060	e3500000	 cmp         r0, #0
  00064	0a000003	 beq         |$LN10@CreateInst@2|
  00068	e1a01004	 mov         r1, r4
  0006c	eb000000	 bl          |??0?$CComObject@VCMangoClass@@@ATL@@QAA@PAX@Z|
  00070	e1a04000	 mov         r4, r0
  00074	ea000000	 b           |$LN11@CreateInst@2|
  00078		 |$LN10@CreateInst@2|
  00078	e3a04000	 mov         r4, #0
  0007c		 |$LN11@CreateInst@2|
  0007c	ea000003	 b           |$LN16@CreateInst@2|
  00080		 |$LN17@CreateInst@2|
  00080	e59b6008	 ldr         r6, [r11, #8]
  00084	e59b7004	 ldr         r7, [r11, #4]
  00088	e51b5024	 ldr         r5, [r11, #-0x24]
  0008c	e51b4020	 ldr         r4, [r11, #-0x20]
  00090		 |$LN16@CreateInst@2|
; Line 1883
  00090	e3540000	 cmp         r4, #0
  00094	0a000019	 beq         |$LN12@CreateInst@2|
; Line 1886
  00098	e2840004	 add         r0, r4, #4
  0009c	eb000000	 bl          InterlockedIncrement
; Line 1887
  000a0	e2840008	 add         r0, r4, #8
  000a4	eb000000	 bl          |?Init@CComCriticalSection@ATL@@QAAJXZ|
  000a8	e1b05000	 movs        r5, r0
  000ac	53a03001	 movpl       r3, #1
  000b0	55c4301c	 strplb      r3, [r4, #0x1C]
; Line 1888
  000b4	e3550000	 cmp         r5, #0
; Line 1892
  000b8	e2840004	 add         r0, r4, #4
  000bc	53a05000	 movpl       r5, #0
  000c0	eb000000	 bl          InterlockedDecrement
; Line 1893
  000c4	e3550000	 cmp         r5, #0
  000c8	1a000007	 bne         |$LN44@CreateInst@2|
; Line 1894
  000cc	e5943000	 ldr         r3, [r4]
  000d0	e1a02006	 mov         r2, r6
  000d4	e1a01007	 mov         r1, r7
  000d8	e1a00004	 mov         r0, r4
  000dc		 |$M84029|
  000dc	e1a0e00f	 mov         lr, pc
  000e0	e593f000	 ldr         pc, [r3]
  000e4	e1b05000	 movs        r5, r0
; Line 1895
  000e8	0a000004	 beq         |$LN12@CreateInst@2|
  000ec		 |$LN44@CreateInst@2|
; Line 1896
  000ec	e5943000	 ldr         r3, [r4]
  000f0	e3a01001	 mov         r1, #1
  000f4	e1a00004	 mov         r0, r4
  000f8	e1a0e00f	 mov         lr, pc
  000fc	e593f168	 ldr         pc, [r3, #0x168]
  00100		 |$LN12@CreateInst@2|
; Line 1899
  00100	e1a00005	 mov         r0, r5
  00104	e24bd01c	 sub         sp, r11, #0x1C
  00108	e89da8f0	 ldmia       sp, {r4 - r7, r11, sp, pc}
  0010c		 |$M84033|
  0010c	00000000	 DCD         |__CxxFrameHandler3|
  00110	00000000	 DCD         |__ehfuncinfo$?CreateInstance@?$CComCreator@V?$CComObject@VCMangoClass@@@ATL@@@ATL@@SAJPAXABU_GUID@@PAPAX@Z|
  00114		 |__catch$83951|
  00114		 |$M84036|
; Line 1881
  00114	e59f0000	 ldr         r0, [pc]
  00118	e1a0f00e	 mov         pc, lr
  0011c		 |$LN54@CreateInst@2|
  0011c		 |$LN55@CreateInst@2|
  0011c	00000000	 DCD         |$LN17@CreateInst@2|
  00120		 |$M84037|

			 ENDP  ; |?CreateInstance@?$CComCreator@V?$CComObject@VCMangoClass@@@ATL@@@ATL@@SAJPAXABU_GUID@@PAPAX@Z|, ATL::CComCreator<ATL::CComObject<CMangoClass> >::CreateInstance

	EXPORT	|??0?$CComAggObject@VCMangoClass@@@ATL@@QAA@PAX@Z| ; ATL::CComAggObject<CMangoClass>::CComAggObject<CMangoClass>
	EXPORT	|??_7?$CComAggObject@VCMangoClass@@@ATL@@6B@| [ DATA ] ; ATL::CComAggObject<CMangoClass>::`vftable'
	EXPORT	|?QueryInterface@?$CComAggObject@VCMangoClass@@@ATL@@UAAJABU_GUID@@PAPAX@Z| ; ATL::CComAggObject<CMangoClass>::QueryInterface
	EXPORT	|?AddRef@?$CComAggObject@VCMangoClass@@@ATL@@UAAKXZ| ; ATL::CComAggObject<CMangoClass>::AddRef
	EXPORT	|?Release@?$CComAggObject@VCMangoClass@@@ATL@@UAAKXZ| ; ATL::CComAggObject<CMangoClass>::Release
	IMPORT	|??_E?$CComAggObject@VCMangoClass@@@ATL@@UAAPAXI@Z|, WEAK |??_G?$CComAggObject@VCMangoClass@@@ATL@@UAAPAXI@Z| ; ATL::CComAggObject<CMangoClass>::`vector deleting destructor', ATL::CComAggObject<CMangoClass>::`scalar deleting destructor'
; File c:\program files (x86)\microsoft visual studio 9.0\vc\ce\atlmfc\include\atlbase.h

  00000			 AREA	 |.pdata|, PDATA
|$T84150| DCD	|$LN31@CComAggObj|
	DCD	0xc0001e04

  00000			 AREA	 |.pdata|, PDATA
|$T84153| DCD	|__unwind$84046|
	DCD	0x40000a02

  00000			 AREA	 |.rdata|, DATA, READONLY
|__unwindtable$??0?$CComAggObject@VCMangoClass@@@ATL@@QAA@PAX@Z| DCD 0xffffffff
	DCD	|__unwind$84046|
|__ehfuncinfo$??0?$CComAggObject@VCMangoClass@@@ATL@@QAA@PAX@Z| DCD 0x19930522
	DCD	0x1
	DCD	|__unwindtable$??0?$CComAggObject@VCMangoClass@@@ATL@@QAA@PAX@Z|
	DCD	0x0
	DCD	0x0
	DCD	0x1
	DCD	|$T84146|
	DCD	0x0
	DCD	0x1
|$T84146| DCD	|$M84145|
	DCD	0x0

  00000			 AREA	 |.rdata|, DATA, READONLY
|??_7?$CComAggObject@VCMangoClass@@@ATL@@6B@| DCD |?QueryInterface@?$CComAggObject@VCMangoClass@@@ATL@@UAAJABU_GUID@@PAPAX@Z| ; ATL::CComAggObject<CMangoClass>::`vftable'
	DCD	|?AddRef@?$CComAggObject@VCMangoClass@@@ATL@@UAAKXZ|
	DCD	|?Release@?$CComAggObject@VCMangoClass@@@ATL@@UAAKXZ|
	DCD	|??_E?$CComAggObject@VCMangoClass@@@ATL@@UAAPAXI@Z|
; Function compile flags: /Ogspy

  00000			 AREA	 |.text|, CODE, ARM

  00000	00000000	 DCD         |__CxxFrameHandler3|
  00004	00000000	 DCD         |__ehfuncinfo$??0?$CComAggObject@VCMangoClass@@@ATL@@QAA@PAX@Z|

  00008		 |??0?$CComAggObject@VCMangoClass@@@ATL@@QAA@PAX@Z| PROC ; ATL::CComAggObject<CMangoClass>::CComAggObject<CMangoClass>
; File c:\program files (x86)\microsoft visual studio 9.0\vc\ce\atlmfc\include\atlcom.h
; Line 3072
  00008		 |$LN31@CComAggObj|
  00008	e1a0c00d	 mov         r12, sp
  0000c	e92d000f	 stmdb       sp!, {r0 - r3}
  00010	e92d59f0	 stmdb       sp!, {r4 - r8, r11, r12, lr}
  00014	e28db020	 add         r11, sp, #0x20
  00018		 |$M84147|
  00018	e1a07000	 mov         r7, r0
  0001c	e58b7000	 str         r7, [r11]
  00020	e1a06001	 mov         r6, r1
  00024	e59f2078	 ldr         r2, [pc, #0x78]
  00028	e1a03007	 mov         r3, r7
  0002c	e3a08000	 mov         r8, #0
  00030	e1a05007	 mov         r5, r7
  00034	e5a38004	 str         r8, [r3, #4]!
  00038	e485200c	 str         r2, [r5], #0xC
  0003c	e3a02014	 mov         r2, #0x14
  00040	e3a01000	 mov         r1, #0
  00044	e1a04005	 mov         r4, r5
  00048	e5a48004	 str         r8, [r4, #4]!
  0004c	e2840004	 add         r0, r4, #4
  00050	eb000000	 bl          memset
  00054	e59f3044	 ldr         r3, [pc, #0x44]
  00058	e5c48018	 strb        r8, [r4, #0x18]
  0005c	e8850048	 stmia       r5, {r3, r6}
; Line 3073
  00060	e59f3034	 ldr         r3, [pc, #0x34]
  00064	e5930000	 ldr         r0, [r3]
  00068	e5903000	 ldr         r3, [r0]
  0006c		 |$M84145|
  0006c	e1a0e00f	 mov         lr, pc
  00070	e593f004	 ldr         pc, [r3, #4]
; Line 3074
  00074	e1a00007	 mov         r0, r7
  00078	e24bd020	 sub         sp, r11, #0x20
  0007c	e89da9f0	 ldmia       sp, {r4 - r8, r11, sp, pc}
  00080		 |$M84148|
  00080		 |__unwind$84046|
  00080	e52de004	 str         lr, [sp, #-4]!
  00084	e24bb010	 sub         r11, r11, #0x10
  00088		 |$M84151|
  00088	e59b3000	 ldr         r3, [r11]
  0008c	e283000c	 add         r0, r3, #0xC
  00090	eb000000	 bl          |??1?$CComContainedObject@VCMangoClass@@@ATL@@QAA@XZ|
  00094	e28bb010	 add         r11, r11, #0x10
  00098	e8bd8000	 ldmia       sp!, {pc}
  0009c		 |$LN34@CComAggObj|
  0009c		 |$LN35@CComAggObj|
  0009c	00000000	 DCD         |?_pAtlModule@ATL@@3PAVCAtlModule@1@A|
  000a0		 |$LN36@CComAggObj|
  000a0	00000000	 DCD         |??_7?$CComContainedObject@VCMangoClass@@@ATL@@6B@|
  000a4		 |$LN37@CComAggObj|
  000a4	00000000	 DCD         |??_7?$CComAggObject@VCMangoClass@@@ATL@@6B@|
  000a8		 |$M84152|

			 ENDP  ; |??0?$CComAggObject@VCMangoClass@@@ATL@@QAA@PAX@Z|, ATL::CComAggObject<CMangoClass>::CComAggObject<CMangoClass>

	EXPORT	|?Increment@CComMultiThreadModelNoCS@ATL@@SAKPAJ@Z| ; ATL::CComMultiThreadModelNoCS::Increment
; File c:\program files (x86)\microsoft visual studio 9.0\vc\ce\atlmfc\include\atlbase.h

  00000			 AREA	 |.pdata|, PDATA
|$T84169| DCD	|$LN5@Increment@2|
	DCD	0x40000100
; Function compile flags: /Ogspy

  00000			 AREA	 |.text|, CODE, ARM

  00000		 |?Increment@CComMultiThreadModelNoCS@ATL@@SAKPAJ@Z| PROC ; ATL::CComMultiThreadModelNoCS::Increment
; Line 369
  00000		 |$LN5@Increment@2|
  00000		 |$M84166|
  00000	ea000000	 b           InterlockedIncrement
  00004		 |$M84167|

			 ENDP  ; |?Increment@CComMultiThreadModelNoCS@ATL@@SAKPAJ@Z|, ATL::CComMultiThreadModelNoCS::Increment

	EXPORT	|?Decrement@CComMultiThreadModelNoCS@ATL@@SAKPAJ@Z| ; ATL::CComMultiThreadModelNoCS::Decrement

  00000			 AREA	 |.pdata|, PDATA
|$T84179| DCD	|$LN5@Decrement@2|
	DCD	0x40000100
; Function compile flags: /Ogspy

  00000			 AREA	 |.text|, CODE, ARM

  00000		 |?Decrement@CComMultiThreadModelNoCS@ATL@@SAKPAJ@Z| PROC ; ATL::CComMultiThreadModelNoCS::Decrement
; Line 370
  00000		 |$LN5@Decrement@2|
  00000		 |$M84176|
  00000	ea000000	 b           InterlockedDecrement
  00004		 |$M84177|

			 ENDP  ; |?Decrement@CComMultiThreadModelNoCS@ATL@@SAKPAJ@Z|, ATL::CComMultiThreadModelNoCS::Decrement

; File c:\program files (x86)\microsoft visual studio 9.0\vc\ce\atlmfc\include\atlcom.h

  00000			 AREA	 |.pdata|, PDATA
|$T84218| DCD	|$LN19@QueryInter@5|
	DCD	0x40002301
; Function compile flags: /Ogspy

  00000			 AREA	 |.text|, CODE, ARM

  00000		 |?QueryInterface@?$CComAggObject@VCMangoClass@@@ATL@@UAAJABU_GUID@@PAPAX@Z| PROC ; ATL::CComAggObject<CMangoClass>::QueryInterface
; Line 3117
  00000		 |$LN19@QueryInter@5|
  00000	e92d4010	 stmdb       sp!, {r4, lr}
  00004		 |$M84215|
  00004	e1b0e002	 movs        lr, r2
  00008	e1a02001	 mov         r2, r1
; Line 3119
  0000c	03a0310e	 moveq       r3, #0xE, 2
; Line 3120
  00010	03834901	 orreq       r4, r3, #1, 18	; 16384 (0x4000)
; Line 3135
  00014	01a00004	 moveq       r0, r4
  00018	08bd8010	 ldmeqia     sp!, {r4, pc}
; Line 3121
  0001c	e3a03000	 mov         r3, #0
  00020	e58e3000	 str         r3, [lr]
; Line 3124
  00024	e5923000	 ldr         r3, [r2]
  00028	e3a04000	 mov         r4, #0
  0002c	e3530000	 cmp         r3, #0
  00030	1a00000e	 bne         |$LN2@QueryInter@5|
  00034	e5923004	 ldr         r3, [r2, #4]
  00038	e3530000	 cmp         r3, #0
  0003c	1a00000b	 bne         |$LN2@QueryInter@5|
  00040	e5923008	 ldr         r3, [r2, #8]
  00044	e35300c0	 cmp         r3, #0xC0
  00048	1a000008	 bne         |$LN2@QueryInter@5|
  0004c	e592300c	 ldr         r3, [r2, #0xC]
  00050	e3530446	 cmp         r3, #0x46, 8	; 1174405120 (0x46000000)
  00054	1a000005	 bne         |$LN2@QueryInter@5|
; Line 3126
  00058	e58e0000	 str         r0, [lr]
; Line 3127
  0005c	e5903000	 ldr         r3, [r0]
  00060	e1a0e00f	 mov         lr, pc
  00064	e593f004	 ldr         pc, [r3, #4]
; Line 3135
  00068	e1a00004	 mov         r0, r4
  0006c	e8bd8010	 ldmia       sp!, {r4, pc}
  00070		 |$LN2@QueryInter@5|
; Line 3133
  00070	e59f1010	 ldr         r1, [pc, #0x10]
  00074	e1a0300e	 mov         r3, lr
  00078	e280000c	 add         r0, r0, #0xC
  0007c	eb000000	 bl          |?AtlInternalQueryInterface@ATL@@YAJPAXPBU_ATL_INTMAP_ENTRY@1@ABU_GUID@@PAPAX@Z|
  00080	e1a04000	 mov         r4, r0
; Line 3135
  00084	e8bd8010	 ldmia       sp!, {r4, pc}
  00088		 |$LN20@QueryInter@5|
  00088		 |$LN21@QueryInter@5|
  00088	00000000	 DCD         |?_entries@?1??_GetEntries@CMangoClass@@SAPBU_ATL_INTMAP_ENTRY@ATL@@XZ@4QBU34@B|
  0008c		 |$M84216|

			 ENDP  ; |?QueryInterface@?$CComAggObject@VCMangoClass@@@ATL@@UAAJABU_GUID@@PAPAX@Z|, ATL::CComAggObject<CMangoClass>::QueryInterface

	EXPORT	|?FinalRelease@?$CComAggObject@VCMangoClass@@@ATL@@QAAXXZ| ; ATL::CComAggObject<CMangoClass>::FinalRelease
; File c:\users\steven\desktop\csharp - dllimport\csharp - dllimport\vs2008\dllimportmango\mangoclass.h

  00000			 AREA	 |.pdata|, PDATA
|$T84233| DCD	|$LN9@FinalRelea@3|
	DCD	0x40000100
; Function compile flags: /Ogspy

  00000			 AREA	 |.text|, CODE, ARM

  00000		 |?FinalRelease@?$CComAggObject@VCMangoClass@@@ATL@@QAAXXZ| PROC ; ATL::CComAggObject<CMangoClass>::FinalRelease
; File c:\program files (x86)\microsoft visual studio 9.0\vc\ce\atlmfc\include\atlcom.h
; Line 3092
  00000		 |$LN9@FinalRelea@3|
  00000		 |$M84230|
; Line 3095
  00000	e1a0f00e	 mov         pc, lr
  00004		 |$M84231|

			 ENDP  ; |?FinalRelease@?$CComAggObject@VCMangoClass@@@ATL@@QAAXXZ|, ATL::CComAggObject<CMangoClass>::FinalRelease

	EXPORT	|?InternalAddRef@?$CComObjectRootEx@VCComMultiThreadModelNoCS@ATL@@@ATL@@QAAKXZ| ; ATL::CComObjectRootEx<ATL::CComMultiThreadModelNoCS>::InternalAddRef
; File c:\program files (x86)\microsoft visual studio 9.0\vc\ce\atlmfc\include\atlbase.h

  00000			 AREA	 |.pdata|, PDATA
|$T84246| DCD	|$LN10@InternalAd@2|
	DCD	0x40000100
; Function compile flags: /Ogspy

  00000			 AREA	 |.text|, CODE, ARM

  00000		 |?InternalAddRef@?$CComObjectRootEx@VCComMultiThreadModelNoCS@ATL@@@ATL@@QAAKXZ| PROC ; ATL::CComObjectRootEx<ATL::CComMultiThreadModelNoCS>::InternalAddRef
; File c:\program files (x86)\microsoft visual studio 9.0\vc\ce\atlmfc\include\atlcom.h
; Line 2473
  00000		 |$LN10@InternalAd@2|
  00000		 |$M84243|
; Line 2475
  00000	ea000000	 b           InterlockedIncrement
  00004		 |$M84244|

			 ENDP  ; |?InternalAddRef@?$CComObjectRootEx@VCComMultiThreadModelNoCS@ATL@@@ATL@@QAAKXZ|, ATL::CComObjectRootEx<ATL::CComMultiThreadModelNoCS>::InternalAddRef

	EXPORT	|?InternalRelease@?$CComObjectRootEx@VCComMultiThreadModelNoCS@ATL@@@ATL@@QAAKXZ| ; ATL::CComObjectRootEx<ATL::CComMultiThreadModelNoCS>::InternalRelease
; File c:\program files (x86)\microsoft visual studio 9.0\vc\ce\atlmfc\include\atlbase.h

  00000			 AREA	 |.pdata|, PDATA
|$T84259| DCD	|$LN7@InternalRe@2|
	DCD	0x40000100
; Function compile flags: /Ogspy

  00000			 AREA	 |.text|, CODE, ARM

  00000		 |?InternalRelease@?$CComObjectRootEx@VCComMultiThreadModelNoCS@ATL@@@ATL@@QAAKXZ| PROC ; ATL::CComObjectRootEx<ATL::CComMultiThreadModelNoCS>::InternalRelease
; File c:\program files (x86)\microsoft visual studio 9.0\vc\ce\atlmfc\include\atlcom.h
; Line 2478
  00000		 |$LN7@InternalRe@2|
  00000		 |$M84256|
; Line 2487
  00000	ea000000	 b           InterlockedDecrement
  00004		 |$M84257|

			 ENDP  ; |?InternalRelease@?$CComObjectRootEx@VCComMultiThreadModelNoCS@ATL@@@ATL@@QAAKXZ|, ATL::CComObjectRootEx<ATL::CComMultiThreadModelNoCS>::InternalRelease

	EXPORT	|??1?$CComAggObject@VCMangoClass@@@ATL@@UAA@XZ| ; ATL::CComAggObject<CMangoClass>::~CComAggObject<CMangoClass>

  00000			 AREA	 |.pdata|, PDATA
|$T84370| DCD	|$LN34@CComAggObj@2|
	DCD	0xc0001704

  00000			 AREA	 |.pdata|, PDATA
|$T84373| DCD	|__unwind$84263|
	DCD	0x40000902

  00000			 AREA	 |.rdata|, DATA, READONLY
|__unwindtable$??1?$CComAggObject@VCMangoClass@@@ATL@@UAA@XZ| DCD 0xffffffff
	DCD	|__unwind$84263|
|__ehfuncinfo$??1?$CComAggObject@VCMangoClass@@@ATL@@UAA@XZ| DCD 0x19930522
	DCD	0x1
	DCD	|__unwindtable$??1?$CComAggObject@VCMangoClass@@@ATL@@UAA@XZ|
	DCD	0x0
	DCD	0x0
	DCD	0x1
	DCD	|$T84366|
	DCD	0x0
	DCD	0x1
|$T84366| DCD	|$M84365|
	DCD	0x0
; Function compile flags: /Ogspy

  00000			 AREA	 |.text|, CODE, ARM

  00000	00000000	 DCD         |__CxxFrameHandler3|
  00004	00000000	 DCD         |__ehfuncinfo$??1?$CComAggObject@VCMangoClass@@@ATL@@UAA@XZ|

  00008		 |??1?$CComAggObject@VCMangoClass@@@ATL@@UAA@XZ| PROC ; ATL::CComAggObject<CMangoClass>::~CComAggObject<CMangoClass>
; Line 3099
  00008		 |$LN34@CComAggObj@2|
  00008	e1a0c00d	 mov         r12, sp
  0000c	e92d000f	 stmdb       sp!, {r0 - r3}
  00010	e92d5810	 stmdb       sp!, {r4, r11, r12, lr}
  00014	e28db010	 add         r11, sp, #0x10
  00018		 |$M84367|
  00018	e1a04000	 mov         r4, r0
  0001c	e58b4000	 str         r4, [r11]
  00020	e59f305c	 ldr         r3, [pc, #0x5C]
  00024	e5843000	 str         r3, [r4]
; Line 3105
  00028	e59f3050	 ldr         r3, [pc, #0x50]
  0002c	e3a02107	 mov         r2, #7, 2
  00030	e5842004	 str         r2, [r4, #4]
  00034	e5930000	 ldr         r0, [r3]
  00038	e5903000	 ldr         r3, [r0]
  0003c		 |$M84365|
  0003c	e1a0e00f	 mov         lr, pc
  00040	e593f008	 ldr         pc, [r3, #8]
; Line 3106
  00044	e5d43028	 ldrb        r3, [r4, #0x28]
  00048	e3530000	 cmp         r3, #0
  0004c	13a03000	 movne       r3, #0
  00050	12840014	 addne       r0, r4, #0x14
  00054	15c43028	 strneb      r3, [r4, #0x28]
  00058	1b000000	 blne        DeleteCriticalSection
  0005c	e24bd010	 sub         sp, r11, #0x10
  00060	e89da810	 ldmia       sp, {r4, r11, sp, pc}
  00064		 |$M84368|
  00064		 |__unwind$84263|
  00064	e52de004	 str         lr, [sp, #-4]!
  00068	e24bb010	 sub         r11, r11, #0x10
  0006c		 |$M84371|
  0006c	e59b3000	 ldr         r3, [r11]
  00070	e283000c	 add         r0, r3, #0xC
  00074	eb000000	 bl          |??1?$CComContainedObject@VCMangoClass@@@ATL@@QAA@XZ|
  00078	e28bb010	 add         r11, r11, #0x10
  0007c	e8bd8000	 ldmia       sp!, {pc}
  00080		 |$LN37@CComAggObj@2|
  00080		 |$LN38@CComAggObj@2|
  00080	00000000	 DCD         |?_pAtlModule@ATL@@3PAVCAtlModule@1@A|
  00084		 |$LN39@CComAggObj@2|
  00084	00000000	 DCD         |??_7?$CComAggObject@VCMangoClass@@@ATL@@6B@|
  00088		 |$M84372|

			 ENDP  ; |??1?$CComAggObject@VCMangoClass@@@ATL@@UAA@XZ|, ATL::CComAggObject<CMangoClass>::~CComAggObject<CMangoClass>

; File c:\program files (x86)\microsoft visual studio 9.0\vc\ce\atlmfc\include\atlbase.h

  00000			 AREA	 |.pdata|, PDATA
|$T84399| DCD	|$LN12@AddRef@6|
	DCD	0x40000200
; Function compile flags: /Ogspy

  00000			 AREA	 |.text|, CODE, ARM

  00000		 |?AddRef@?$CComAggObject@VCMangoClass@@@ATL@@UAAKXZ| PROC ; ATL::CComAggObject<CMangoClass>::AddRef
; File c:\program files (x86)\microsoft visual studio 9.0\vc\ce\atlmfc\include\atlcom.h
; Line 3108
  00000		 |$LN12@AddRef@6|
  00000		 |$M84396|
  00000	e2800004	 add         r0, r0, #4
  00004	ea000000	 b           InterlockedIncrement
  00008		 |$M84397|

			 ENDP  ; |?AddRef@?$CComAggObject@VCMangoClass@@@ATL@@UAAKXZ|, ATL::CComAggObject<CMangoClass>::AddRef

; File c:\program files (x86)\microsoft visual studio 9.0\vc\ce\atlmfc\include\atlbase.h

  00000			 AREA	 |.pdata|, PDATA
|$T84422| DCD	|$LN12@Release@6|
	DCD	0x40000e01
; Function compile flags: /Ogspy

  00000			 AREA	 |.text|, CODE, ARM

  00000		 |?Release@?$CComAggObject@VCMangoClass@@@ATL@@UAAKXZ| PROC ; ATL::CComAggObject<CMangoClass>::Release
; File c:\program files (x86)\microsoft visual studio 9.0\vc\ce\atlmfc\include\atlcom.h
; Line 3110
  00000		 |$LN12@Release@6|
  00000	e92d4030	 stmdb       sp!, {r4, r5, lr}
  00004		 |$M84419|
  00004	e1a04000	 mov         r4, r0
; Line 3111
  00008	e2840004	 add         r0, r4, #4
  0000c	eb000000	 bl          InterlockedDecrement
  00010	e1b05000	 movs        r5, r0
; Line 3112
  00014	1a000005	 bne         |$LN4@Release@6|
; Line 3113
  00018	e3540000	 cmp         r4, #0
  0001c	15943000	 ldrne       r3, [r4]
  00020	13a01001	 movne       r1, #1
  00024	11a00004	 movne       r0, r4
  00028	11a0e00f	 movne       lr, pc
  0002c	1593f00c	 ldrne       pc, [r3, #0xC]
  00030		 |$LN4@Release@6|
; Line 3115
  00030	e1a00005	 mov         r0, r5
  00034	e8bd8030	 ldmia       sp!, {r4, r5, pc}
  00038		 |$M84420|

			 ENDP  ; |?Release@?$CComAggObject@VCMangoClass@@@ATL@@UAAKXZ|, ATL::CComAggObject<CMangoClass>::Release


  00000			 AREA	 |.pdata|, PDATA
|$T84433| DCD	|$LN6@scalar@5|
	DCD	0x40000901
; Function compile flags: /Ogspy

  00000			 AREA	 |.text|, CODE, ARM

  00000		 |??_G?$CComAggObject@VCMangoClass@@@ATL@@UAAPAXI@Z| PROC ; ATL::CComAggObject<CMangoClass>::`scalar deleting destructor'
  00000		 |$LN6@scalar@5|
  00000	e92d4030	 stmdb       sp!, {r4, r5, lr}
  00004		 |$M84430|
  00004	e1a04001	 mov         r4, r1
  00008	e1a05000	 mov         r5, r0
  0000c	eb000000	 bl          |??1?$CComAggObject@VCMangoClass@@@ATL@@UAA@XZ|
  00010	e3140001	 tst         r4, #1
  00014	11a00005	 movne       r0, r5
  00018	1b000000	 blne        |??3@YAXPAX@Z|
  0001c	e1a00005	 mov         r0, r5
  00020	e8bd8030	 ldmia       sp!, {r4, r5, pc}
  00024		 |$M84431|

			 ENDP  ; |??_G?$CComAggObject@VCMangoClass@@@ATL@@UAAPAXI@Z|, ATL::CComAggObject<CMangoClass>::`scalar deleting destructor'

	EXPORT	|?Add@CExpansionVector@ATL@@QAAHPB_W0@Z| ; ATL::CExpansionVector::Add
; File c:\program files (x86)\microsoft visual studio 9.0\vc\ce\atlmfc\include\atlbase.h

  00000			 AREA	 |.pdata|, PDATA
|$T84561| DCD	|$LN77@Add@2|
	DCD	0xc0006205

  00000			 AREA	 |.pdata|, PDATA
|$T84564| DCD	|__catch$84447|
	DCD	0xc0000200

  00000			 AREA	 |.pdata|, PDATA
|$T84567| DCD	|__catch$84449|
	DCD	0xc0000200

  00000			 AREA	 |.pdata|, PDATA
|$T84570| DCD	|__unwind$84450|
	DCD	0x40000602

  00000			 AREA	 |.pdata|, PDATA
|$T84573| DCD	|__unwind$84451|
	DCD	0x40000802

  00000			 AREA	 |.rdata|, DATA, READONLY
|__unwindtable$?Add@CExpansionVector@ATL@@QAAHPB_W0@Z| DCD 0xffffffff
	DCD	0x0
	DCD	0xffffffff
	DCD	0x0
	DCD	0xffffffff
	DCD	|__unwind$84450|
	DCD	0x2
	DCD	0x0
	DCD	0xffffffff
	DCD	0x0
	DCD	0x2
	DCD	|__unwind$84451|
|__catchsym$?Add@CExpansionVector@ATL@@QAAHPB_W0@Z$6| DCD 0x40
	DCD	0x0
	DCD	0x0
	DCD	0x1
	DCD	|__catch$84447|
|__catchsym$?Add@CExpansionVector@ATL@@QAAHPB_W0@Z$7| DCD 0x40
	DCD	0x0
	DCD	0x0
	DCD	0x1
	DCD	|__catch$84449|
|__tryblocktable$?Add@CExpansionVector@ATL@@QAAHPB_W0@Z| DCD 0x0
	DCD	0x0
	DCD	0x0
	DCD	0x1
	DCD	|__catchsym$?Add@CExpansionVector@ATL@@QAAHPB_W0@Z$6|
	DCD	0x3
	DCD	0x3
	DCD	0x1
	DCD	0x1
	DCD	|__catchsym$?Add@CExpansionVector@ATL@@QAAHPB_W0@Z$7|
|__ehfuncinfo$?Add@CExpansionVector@ATL@@QAAHPB_W0@Z| DCD 0x19930522
	DCD	0x6
	DCD	|__unwindtable$?Add@CExpansionVector@ATL@@QAAHPB_W0@Z|
	DCD	0x2
	DCD	|__tryblocktable$?Add@CExpansionVector@ATL@@QAAHPB_W0@Z|
	DCD	0x6
	DCD	|$T84555|
	DCD	0x0
	DCD	0x1
|$T84555| DCD	|$M84549|
	DCD	0x0
	DCD	|$M84550|
	DCD	0x2
	DCD	|$M84551|
	DCD	0x3
	DCD	|$M84552|
	DCD	0x5
	DCD	|$M84553|
	DCD	0x0
	DCD	|$M84554|
	DCD	0x5
; Function compile flags: /Ogspy

  00000			 AREA	 |.text|, CODE, ARM

  00000	00000000	 DCD         |__CxxFrameHandler3|
  00004	00000000	 DCD         |__ehfuncinfo$?Add@CExpansionVector@ATL@@QAAHPB_W0@Z|

  00008		 |?Add@CExpansionVector@ATL@@QAAHPB_W0@Z| PROC ; ATL::CExpansionVector::Add
; File c:\program files (x86)\microsoft visual studio 9.0\vc\ce\atlmfc\include\statreg.h
; Line 97
  00008		 |$LN77@Add@2|
  00008	e1a0c00d	 mov         r12, sp
  0000c	e92d0007	 stmdb       sp!, {r0 - r2}
  00010	e92d5ff0	 stmdb       sp!, {r4 - r12, lr}
  00014	e28db028	 add         r11, sp, #0x28
  00018	e24dd018	 sub         sp, sp, #0x18
  0001c		 |$M84558|
  0001c	e1a07002	 mov         r7, r2
  00020	e1b09001	 movs        r9, r1
  00024	e1a03000	 mov         r3, r0
  00028	e58b7008	 str         r7, [r11, #8]
  0002c	e50b3038	 str         r3, [r11, #-0x38]
  00030	e58b9004	 str         r9, [r11, #4]
  00034	e58b3000	 str         r3, [r11]
; Line 99
  00038	0a000050	 beq         |$LN8@Add@2|
  0003c	e3570000	 cmp         r7, #0
  00040	0a00004e	 beq         |$LN8@Add@2|
; Line 104
  00044	e1a00009	 mov         r0, r9
  00048	eb000000	 bl          wcslen
  0004c	e2803001	 add         r3, r0, #1
  00050	e1a06083	 mov         r6, r3, lsl #1
; Line 105
  00054	e3a03000	 mov         r3, #0
  00058	e50b3040	 str         r3, [r11, #-0x40]
  0005c	e50b6034	 str         r6, [r11, #-0x34]
; Line 107
  00060	e3760106	 cmn         r6, #6, 2		; -2147483647 (0x80000001)
  00064	e3e04000	 mvn         r4, #0
  00068	91a00086	 movls       r0, r6, lsl #1
  0006c	81a00004	 movhi       r0, r4
  00070		 |$M84549|
  00070	eb000000	 bl          |??2@YAPAXI@Z|
  00074	e1a05000	 mov         r5, r0
  00078	e50b5040	 str         r5, [r11, #-0x40]
  0007c	ea000006	 b           |$LN24@Add@2|
  00080		 |$LN25@Add@2|
  00080	e59b3000	 ldr         r3, [r11]
  00084	e59b9004	 ldr         r9, [r11, #4]
  00088	e51b6034	 ldr         r6, [r11, #-0x34]
  0008c	e50b3038	 str         r3, [r11, #-0x38]
  00090	e51b5040	 ldr         r5, [r11, #-0x40]
  00094	e59b7008	 ldr         r7, [r11, #8]
  00098	e3e04000	 mvn         r4, #0
  0009c		 |$LN24@Add@2|
; Line 111
  0009c	e1a00007	 mov         r0, r7
  000a0	e1a0a005	 mov         r10, r5
  000a4	e50b5030	 str         r5, [r11, #-0x30]
  000a8		 |$M84550|
  000a8	eb000000	 bl          wcslen
  000ac	e2803001	 add         r3, r0, #1
  000b0	e1a08083	 mov         r8, r3, lsl #1
; Line 112
  000b4	e3a03000	 mov         r3, #0
  000b8	e50b303c	 str         r3, [r11, #-0x3C]
  000bc	e50b802c	 str         r8, [r11, #-0x2C]
; Line 113
  000c0	e3780106	 cmn         r8, #6, 2		; -2147483647 (0x80000001)
  000c4	91a04088	 movls       r4, r8, lsl #1
  000c8	e1a00004	 mov         r0, r4
  000cc		 |$M84551|
  000cc	eb000000	 bl          |??2@YAPAXI@Z|
  000d0	e1a04000	 mov         r4, r0
  000d4	e50b403c	 str         r4, [r11, #-0x3C]
  000d8	ea000008	 b           |$LN26@Add@2|
  000dc		 |$LN27@Add@2|
  000dc	e59b3000	 ldr         r3, [r11]
  000e0	e59b9004	 ldr         r9, [r11, #4]
  000e4	e51b6034	 ldr         r6, [r11, #-0x34]
  000e8	e50b3038	 str         r3, [r11, #-0x38]
  000ec	e51b5040	 ldr         r5, [r11, #-0x40]
  000f0	e59b7008	 ldr         r7, [r11, #8]
  000f4	e51ba030	 ldr         r10, [r11, #-0x30]
  000f8	e51b802c	 ldr         r8, [r11, #-0x2C]
  000fc	e51b403c	 ldr         r4, [r11, #-0x3C]
  00100		 |$LN26@Add@2|
; Line 115
  00100	e50b402c	 str         r4, [r11, #-0x2C]
; Line 117
  00104	e3550000	 cmp         r5, #0
  00108	0a000016	 beq         |$LN16@Add@2|
  0010c	e3540000	 cmp         r4, #0
  00110	0a000014	 beq         |$LN16@Add@2|
; Line 121
  00114	e1a03006	 mov         r3, r6
  00118	e1a02009	 mov         r2, r9
  0011c	e1a01006	 mov         r1, r6
  00120	e1a00005	 mov         r0, r5
  00124	eb000000	 bl          memcpy_s
  00128		 |$M84552|
  00128	eb000000	 bl          |?AtlCrtErrorCheck@ATL@@YAHH@Z|
; Line 122
  0012c	e1a03008	 mov         r3, r8
  00130	e1a02007	 mov         r2, r7
  00134	e1a01008	 mov         r1, r8
  00138	e1a00004	 mov         r0, r4
  0013c	eb000000	 bl          memcpy_s
  00140	eb000000	 bl          |?AtlCrtErrorCheck@ATL@@YAHH@Z|
; Line 123
  00144	e51b0038	 ldr         r0, [r11, #-0x38]
  00148	e24b203c	 sub         r2, r11, #0x3C
  0014c	e24b1040	 sub         r1, r11, #0x40
  00150	eb000000	 bl          |?Add@?$CSimpleMap@PA_WPA_WVCExpansionVectorEqualHelper@ATL@@@ATL@@QAAHABQA_W0@Z|
  00154	e3500000	 cmp         r0, #0
; Line 128
  00158	13a0a000	 movne       r10, #0
; Line 129
  0015c	13a04000	 movne       r4, #0
; Line 131
  00160	13a05001	 movne       r5, #1
  00164		 |$M84553|
  00164	1a000000	 bne         |$LN17@Add@2|
  00168		 |$LN16@Add@2|
  00168		 |$M84554|
  00168	e3a05000	 mov         r5, #0
  0016c		 |$LN17@Add@2|
  0016c	e1a00004	 mov         r0, r4
  00170	eb000000	 bl          |??3@YAXPAX@Z|
  00174	e1a0000a	 mov         r0, r10
  00178	eb000000	 bl          |??3@YAXPAX@Z|
  0017c	ea000000	 b           |$LN10@Add@2|
  00180		 |$LN8@Add@2|
; Line 100
  00180	e3a05000	 mov         r5, #0
  00184		 |$LN10@Add@2|
; Line 132
  00184	e1a00005	 mov         r0, r5
  00188	e24bd028	 sub         sp, r11, #0x28
  0018c	e89daff0	 ldmia       sp, {r4 - r11, sp, pc}
  00190		 |$M84559|
  00190	00000000	 DCD         |__CxxFrameHandler3|
  00194	00000000	 DCD         |__ehfuncinfo$?Add@CExpansionVector@ATL@@QAAHPB_W0@Z|
  00198		 |__catch$84447|
  00198		 |$M84562|
; Line 107
  00198	e59f0044	 ldr         r0, [pc, #0x44]
  0019c	e1a0f00e	 mov         pc, lr
  001a0		 |$M84563|
  001a0	00000000	 DCD         |__CxxFrameHandler3|
  001a4	00000000	 DCD         |__ehfuncinfo$?Add@CExpansionVector@ATL@@QAAHPB_W0@Z|
  001a8		 |__catch$84449|
  001a8		 |$M84565|
; Line 113
  001a8	e59f0030	 ldr         r0, [pc, #0x30]
  001ac	e1a0f00e	 mov         pc, lr
  001b0		 |$M84566|
  001b0		 |__unwind$84450|
; Line 132
  001b0	e52de004	 str         lr, [sp, #-4]!
  001b4	e24bb00c	 sub         r11, r11, #0xC
  001b8		 |$M84568|
  001b8	e24b0030	 sub         r0, r11, #0x30
  001bc	eb000000	 bl          |??1?$CAutoVectorPtr@_W@ATL@@QAA@XZ|
  001c0	e28bb00c	 add         r11, r11, #0xC
  001c4	e8bd8000	 ldmia       sp!, {pc}
  001c8		 |$M84569|
  001c8		 |__unwind$84451|
  001c8	e52de004	 str         lr, [sp, #-4]!
  001cc	e24bb00c	 sub         r11, r11, #0xC
  001d0		 |$M84571|
  001d0	e24b002c	 sub         r0, r11, #0x2C
  001d4	eb000000	 bl          |??1?$CAutoVectorPtr@_W@ATL@@QAA@XZ|
  001d8	e28bb00c	 add         r11, r11, #0xC
  001dc	e8bd8000	 ldmia       sp!, {pc}
  001e0		 |$LN86@Add@2|
  001e0		 |$LN87@Add@2|
  001e0	00000000	 DCD         |$LN27@Add@2|
  001e4		 |$LN88@Add@2|
  001e4	00000000	 DCD         |$LN25@Add@2|
  001e8		 |$M84572|

			 ENDP  ; |?Add@CExpansionVector@ATL@@QAAHPB_W0@Z|, ATL::CExpansionVector::Add

; File c:\program files (x86)\microsoft visual studio 9.0\vc\ce\atlmfc\include\atlalloc.h

  00000			 AREA	 |.pdata|, PDATA
|$T84639| DCD	|$LN34@AddReplace|
	DCD	0xc0001d04

  00000			 AREA	 |.pdata|, PDATA
|$T84642| DCD	|__unwind$84588|
	DCD	0x40000501

  00000			 AREA	 |.rdata|, DATA, READONLY
|__unwindtable$?AddReplacement@CRegObject@ATL@@UAAJPB_W0@Z| DCD 0xffffffff
	DCD	|__unwind$84588|
|__ehfuncinfo$?AddReplacement@CRegObject@ATL@@UAAJPB_W0@Z| DCD 0x19930522
	DCD	0x1
	DCD	|__unwindtable$?AddReplacement@CRegObject@ATL@@UAAJPB_W0@Z|
	DCD	0x0
	DCD	0x0
	DCD	0x1
	DCD	|$T84635|
	DCD	0x0
	DCD	0x1
|$T84635| DCD	|$M84634|
	DCD	0x0
; Function compile flags: /Ogspy

  00000			 AREA	 |.text|, CODE, ARM

  00000	00000000	 DCD         |__CxxFrameHandler3|
  00004	00000000	 DCD         |__ehfuncinfo$?AddReplacement@CRegObject@ATL@@UAAJPB_W0@Z|

  00008		 |?AddReplacement@CRegObject@ATL@@UAAJPB_W0@Z| PROC ; ATL::CRegObject::AddReplacement
; File c:\program files (x86)\microsoft visual studio 9.0\vc\ce\atlmfc\include\statreg.h
; Line 348
  00008		 |$LN34@AddReplace|
  00008	e1a0c00d	 mov         r12, sp
  0000c	e92d5870	 stmdb       sp!, {r4 - r6, r11, r12, lr}
  00010	e28db018	 add         r11, sp, #0x18
  00014	e24dd004	 sub         sp, sp, #4
  00018		 |$M84636|
  00018	e1a04002	 mov         r4, r2
  0001c	e1b06001	 movs        r6, r1
  00020	e1a05000	 mov         r5, r0
; Line 349
  00024	0a000011	 beq         |$LN1@AddReplace|
  00028	e3540000	 cmp         r4, #0
  0002c	0a00000f	 beq         |$LN1@AddReplace|
; Line 351
  00030	e2850010	 add         r0, r5, #0x10
  00034	eb000000	 bl          EnterCriticalSection
; Line 352
  00038	e3a03000	 mov         r3, #0
  0003c	e50b301c	 str         r3, [r11, #-0x1C]
; Line 361
  00040	e1a02004	 mov         r2, r4
  00044	e1a01006	 mov         r1, r6
  00048	e2850004	 add         r0, r5, #4
  0004c		 |$M84634|
  0004c	eb000000	 bl          |?Add@CExpansionVector@ATL@@QAAHPB_W0@Z|
  00050	e1a04000	 mov         r4, r0
; Line 362
  00054	e2850010	 add         r0, r5, #0x10
  00058	eb000000	 bl          LeaveCriticalSection
; Line 363
  0005c	e3540000	 cmp         r4, #0
  00060	03a0313a	 moveq       r3, #0x3A, 2
  00064	13a00000	 movne       r0, #0
  00068	03830807	 orreq       r0, r3, #7, 16	; 458752 (0x70000)
  0006c	ea000000	 b           |$LN3@AddReplace|
  00070		 |$LN1@AddReplace|
; Line 350
  00070	e59f0014	 ldr         r0, [pc, #0x14]	; -2147024809 (0x80070057)
  00074		 |$LN3@AddReplace|
; Line 364
  00074	e24bd018	 sub         sp, r11, #0x18
  00078	e89da870	 ldmia       sp, {r4 - r6, r11, sp, pc}
  0007c		 |$M84637|
  0007c		 |__unwind$84588|
  0007c	e52de004	 str         lr, [sp, #-4]!
  00080		 |$M84640|
  00080	e24b001c	 sub         r0, r11, #0x1C
  00084	eb000000	 bl          |??1?$CAtlSafeAllocBufferManager@VCCRTAllocator@ATL@@@_ATL_SAFE_ALLOCA_IMPL@ATL@@QAA@XZ|
  00088	e8bd8000	 ldmia       sp!, {pc}
  0008c		 |$LN37@AddReplace|
  0008c		 |$LN38@AddReplace|
  0008c	80070057	 DCD         0x80070057
  00090		 |$M84641|

			 ENDP  ; |?AddReplacement@CRegObject@ATL@@UAAJPB_W0@Z|, ATL::CRegObject::AddReplacement

	EXPORT	|szToken$GSCopy$| [ DATA ]
	EXPORT	|szValueName$GSCopy$| [ DATA ]
	EXPORT	|rkParent$GSCopy$| [ DATA ]
	EXPORT	|this$GSCopy$| [ DATA ]
	EXPORT	|__$ArrayPad$| [ DATA ]
	EXPORT	|?AddValue@CRegParser@ATL@@IAAJAAVCRegKey@2@PB_WPA_W@Z| ; ATL::CRegParser::AddValue
	IMPORT	|VarUI4FromStr|
; File c:\program files (x86)\microsoft visual studio 9.0\vc\ce\atlmfc\include\atlalloc.h

  00000			 AREA	 |.pdata|, PDATA
|$T84811| DCD	|$LN121@AddValue|
	DCD	0xc0012605

  00000			 AREA	 |.pdata|, PDATA
|$T84814| DCD	|__catch$84652|
	DCD	0xc0000200

  00000			 AREA	 |.pdata|, PDATA
|$T84817| DCD	|__catch$84654|
	DCD	0xc0000200

  00000			 AREA	 |.pdata|, PDATA
|$T84820| DCD	|__unwind$84655|
	DCD	0x40000802

  00000			 AREA	 |.pdata|, PDATA
|$T84823| DCD	|__unwind$84657|
	DCD	0x40000c02

  00000			 AREA	 |.rdata|, DATA, READONLY
|__unwindtable$?AddValue@CRegParser@ATL@@IAAJAAVCRegKey@2@PB_WPA_W@Z| DCD 0xffffffff
	DCD	|__unwind$84655|
	DCD	0x0
	DCD	0x0
	DCD	0xffffffff
	DCD	0x0
	DCD	0xffffffff
	DCD	|__unwind$84657|
	DCD	0x3
	DCD	0x0
	DCD	0xffffffff
	DCD	0x0
|__catchsym$?AddValue@CRegParser@ATL@@IAAJAAVCRegKey@2@PB_WPA_W@Z$7| DCD 0x40
	DCD	0x0
	DCD	0x0
	DCD	0x1
	DCD	|__catch$84652|
|__catchsym$?AddValue@CRegParser@ATL@@IAAJAAVCRegKey@2@PB_WPA_W@Z$8| DCD 0x40
	DCD	0x0
	DCD	0x0
	DCD	0x1
	DCD	|__catch$84654|
|__tryblocktable$?AddValue@CRegParser@ATL@@IAAJAAVCRegKey@2@PB_WPA_W@Z| DCD 0x1
	DCD	0x1
	DCD	0x0
	DCD	0x1
	DCD	|__catchsym$?AddValue@CRegParser@ATL@@IAAJAAVCRegKey@2@PB_WPA_W@Z$7|
	DCD	0x4
	DCD	0x4
	DCD	0x1
	DCD	0x1
	DCD	|__catchsym$?AddValue@CRegParser@ATL@@IAAJAAVCRegKey@2@PB_WPA_W@Z$8|
|__ehfuncinfo$?AddValue@CRegParser@ATL@@IAAJAAVCRegKey@2@PB_WPA_W@Z| DCD 0x19930522
	DCD	0x6
	DCD	|__unwindtable$?AddValue@CRegParser@ATL@@IAAJAAVCRegKey@2@PB_WPA_W@Z|
	DCD	0x2
	DCD	|__tryblocktable$?AddValue@CRegParser@ATL@@IAAJAAVCRegKey@2@PB_WPA_W@Z|
	DCD	0xc
	DCD	|$T84805|
	DCD	0x0
	DCD	0x1
	DCD	0xffffffd4
|$T84805| DCD	|$M84793|
	DCD	0x1
	DCD	|$M84794|
	DCD	0x0
	DCD	|$M84795|
	DCD	0x1
	DCD	|$M84796|
	DCD	0x0
	DCD	|$M84797|
	DCD	0x1
	DCD	|$M84798|
	DCD	0xffffffff
	DCD	|$M84799|
	DCD	0x4
	DCD	|$M84800|
	DCD	0xffffffff
	DCD	|$M84801|
	DCD	0x3
	DCD	|$M84802|
	DCD	0xffffffff
	DCD	|$M84803|
	DCD	0x3
	DCD	|$M84804|
	DCD	0xffffffff
; Function compile flags: /Ogspy

  00000			 AREA	 |.text|, CODE, ARM

  00000	00000000	 DCD         |__GSHandlerCheck_EH|
  00004	00000000	 DCD         |__ehfuncinfo$?AddValue@CRegParser@ATL@@IAAJAAVCRegKey@2@PB_WPA_W@Z|

  00008		 |?AddValue@CRegParser@ATL@@IAAJAAVCRegKey@2@PB_WPA_W@Z| PROC ; ATL::CRegParser::AddValue
; File c:\program files (x86)\microsoft visual studio 9.0\vc\ce\atlmfc\include\statreg.h
; Line 870
  00008		 |$LN121@AddValue|
  00008	e1a0c00d	 mov         r12, sp
  0000c	e92d5ff0	 stmdb       sp!, {r4 - r12, lr}
  00010	e28db028	 add         r11, sp, #0x28
  00014	e59fc4f0	 ldr         r12, [pc, #0x4F0]
  00018	e08dd00c	 add         sp, sp, r12
  0001c		 |$M84808|
  0001c	e1a06003	 mov         r6, r3
  00020	e24bca02	 sub         r12, r11, #2, 20	; 8192 (0x2000)
  00024	e50c6250	 str         r6, [r12, #-0x250]
  00028	e1a08002	 mov         r8, r2
  0002c	e1a07001	 mov         r7, r1
  00030	e1a09000	 mov         r9, r0
  00034	e59f34cc	 ldr         r3, [pc, #0x4CC]
  00038	e5933000	 ldr         r3, [r3]
  0003c	e50b302c	 str         r3, [r11, #-0x2C]
; Line 874
  00040	e3a03000	 mov         r3, #0
; Line 878
  00044	e3e01a02	 mvn         r1, #2, 20
  00048	e221102b	 eor         r1, r1, #0x2B
  0004c	e08b1001	 add         r1, r11, r1
  00050	e24bcc22	 sub         r12, r11, #0x22, 24 ; 8704 (0x2200)
  00054	e14c34bc	 strh        r3, [r12, #-0x4C]
  00058	e50c9038	 str         r9, [r12, #-0x38]
  0005c	e50c703c	 str         r7, [r12, #-0x3C]
  00060	e50c8040	 str         r8, [r12, #-0x40]
  00064	e50c6048	 str         r6, [r12, #-0x48]
  00068	eb000000	 bl          |?NextToken@CRegParser@ATL@@IAAJPA_W@Z|
  0006c	e1b04000	 movs        r4, r0
  00070	5a000002	 bpl         |$LN24@AddValue|
  00074		 |$LN104@AddValue|
; Line 879
  00074	e51b002c	 ldr         r0, [r11, #-0x2C]
  00078		 |$LN105@AddValue|
  00078	eb000000	 bl          __security_check_cookie
  0007c	ea000104	 b           |$LN25@AddValue|
  00080		 |$LN24@AddValue|
; Line 880
  00080	e3e01c22	 mvn         r1, #0x22, 24
  00084	e221104b	 eor         r1, r1, #0x4B
  00088	e08b1001	 add         r1, r11, r1
  0008c	e3e00a02	 mvn         r0, #2, 20
  00090	e220002b	 eor         r0, r0, #0x2B
  00094	e08b0000	 add         r0, r11, r0
  00098	eb000000	 bl          |?VTFromRegType@CRegParser@ATL@@KAHPB_WAAG@Z|
  0009c	e3500000	 cmp         r0, #0
  000a0	1a000004	 bne         |$LN23@AddValue|
; Line 883
  000a4	e51b002c	 ldr         r0, [r11, #-0x2C]
  000a8	eb000000	 bl          __security_check_cookie
  000ac	e3a03126	 mov         r3, #0x26, 2
  000b0	e3834802	 orr         r4, r3, #2, 16	; 131072 (0x20000)
  000b4	ea0000f6	 b           |$LN25@AddValue|
  000b8		 |$LN23@AddValue|
; Line 887
  000b8	e1a00009	 mov         r0, r9
  000bc	eb000000	 bl          |?SkipWhiteSpace@CRegParser@ATL@@IAAXXZ|
; Line 888
  000c0	e3e01a02	 mvn         r1, #2, 20
  000c4	e221102b	 eor         r1, r1, #0x2B
  000c8	e08b1001	 add         r1, r11, r1
  000cc	e1a00009	 mov         r0, r9
  000d0	eb000000	 bl          |?NextToken@CRegParser@ATL@@IAAJPA_W@Z|
  000d4	e1b04000	 movs        r4, r0
; Line 889
  000d8	4affffe5	 bmi         |$LN104@AddValue|
; Line 891
  000dc	e24b2c22	 sub         r2, r11, #0x22, 24	; 8704 (0x2200)
  000e0	e15224bc	 ldrh        r2, [r2, #-0x4C]
  000e4	e3520008	 cmp         r2, #8
  000e8	0a0000d8	 beq         |$LN19@AddValue|
  000ec	e3520011	 cmp         r2, #0x11
  000f0	0a00006b	 beq         |$LN9@AddValue|
  000f4	e3520013	 cmp         r2, #0x13
  000f8	0a00004f	 beq         |$LN10@AddValue|
  000fc	e3a03901	 mov         r3, #1, 18
  00100	e3833008	 orr         r3, r3, #8
  00104	e1520003	 cmp         r2, r3
  00108	1a0000d9	 bne         |$LN2@AddValue|
; Line 902
  0010c	e3e00a02	 mvn         r0, #2, 20
  00110	e220002b	 eor         r0, r0, #0x2B
  00114	e08b0000	 add         r0, r11, r0
  00118	eb000000	 bl          wcslen
; Line 903
  0011c	e3a03000	 mov         r3, #0
  00120	e24bca02	 sub         r12, r11, #2, 20	; 8192 (0x2000)
  00124	e50c3130	 str         r3, [r12, #-0x130]
; Line 905
  00128	e2801002	 add         r1, r0, #2
  0012c	e3e00c21	 mvn         r0, #0x21, 24
  00130	e220002f	 eor         r0, r0, #0x2F
  00134	e08b0000	 add         r0, r11, r0
  00138		 |$M84793|
  00138	eb000000	 bl          |?Allocate@?$CTempBuffer@_W$0BAA@VCCRTAllocator@ATL@@@ATL@@QAAPA_WI@Z|
  0013c	ea000009	 b           |$LN34@AddValue|
  00140		 |$LN35@AddValue|
  00140	e24b3a02	 sub         r3, r11, #2, 20	; 8192 (0x2000)
  00144	e5133248	 ldr         r3, [r3, #-0x248]
  00148	e24b9a02	 sub         r9, r11, #2, 20	; 8192 (0x2000)
  0014c	e5199238	 ldr         r9, [r9, #-0x238]
  00150	e24b7a02	 sub         r7, r11, #2, 20	; 8192 (0x2000)
  00154	e517723c	 ldr         r7, [r7, #-0x23C]
  00158	e24b8a02	 sub         r8, r11, #2, 20	; 8192 (0x2000)
  0015c	e5188240	 ldr         r8, [r8, #-0x240]
  00160	e24bca02	 sub         r12, r11, #2, 20	; 8192 (0x2000)
  00164	e50c3250	 str         r3, [r12, #-0x250]
  00168		 |$LN34@AddValue|
; Line 906
  00168	e24b4a02	 sub         r4, r11, #2, 20	; 8192 (0x2000)
  0016c	e5144130	 ldr         r4, [r4, #-0x130]
  00170	e3540000	 cmp         r4, #0
  00174	0a000023	 beq         |$LN16@AddValue|
; Line 911
  00178	e24b3a02	 sub         r3, r11, #2, 20	; 8192 (0x2000)
  0017c	e15332bc	 ldrh        r3, [r3, #-0x2C]
  00180	e3e05a02	 mvn         r5, #2, 20
  00184	e225502b	 eor         r5, r5, #0x2B
  00188	e08b5005	 add         r5, r11, r5
  0018c	e3a06000	 mov         r6, #0
  00190		 |$LN103@AddValue|
  00190	e3530000	 cmp         r3, #0
  00194	0a000010	 beq         |$LN14@AddValue|
; Line 913
  00198	e1a00005	 mov         r0, r5
  0019c	eb000000	 bl          CharNextW
; Line 914
  001a0	e1d520b0	 ldrh        r2, [r5]
  001a4	e352005c	 cmp         r2, #0x5C
  001a8	1a000007	 bne         |$LN13@AddValue|
  001ac	e1d030b0	 ldrh        r3, [r0]
  001b0	e3530030	 cmp         r3, #0x30
  001b4	1a000004	 bne         |$LN13@AddValue|
; Line 917
  001b8	e0c460b2	 strh        r6, [r4], #2
  001bc	eb000000	 bl          CharNextW
  001c0	e1a05000	 mov         r5, r0
; Line 933
  001c4	e1d530b0	 ldrh        r3, [r5]
  001c8		 |$M84794|
  001c8	eafffff0	 b           |$LN103@AddValue|
  001cc		 |$LN13@AddValue|
  001cc		 |$M84795|
  001cc	e2855002	 add         r5, r5, #2
  001d0	e0c420b2	 strh        r2, [r4], #2
  001d4	e1d530b0	 ldrh        r3, [r5]
  001d8		 |$M84796|
  001d8	eaffffec	 b           |$LN103@AddValue|
  001dc		 |$LN14@AddValue|
  001dc		 |$M84797|
; Line 938
  001dc	e0c460b2	 strh        r6, [r4], #2
; Line 941
  001e0	e1a01008	 mov         r1, r8
  001e4	e1a00007	 mov         r0, r7
  001e8	e1c460b0	 strh        r6, [r4]
  001ec	e24b2a02	 sub         r2, r11, #2, 20	; 8192 (0x2000)
  001f0	e5122130	 ldr         r2, [r2, #-0x130]
  001f4	eb000000	 bl          |?SetMultiStringValue@CRegKey@ATL@@QAAJPB_W0@Z|
; Line 943
  001f8	e24b4a02	 sub         r4, r11, #2, 20	; 8192 (0x2000)
  001fc	e5144130	 ldr         r4, [r4, #-0x130]
  00200	e1a05000	 mov         r5, r0
  00204	ea000000	 b           |$LN11@AddValue|
  00208		 |$LN16@AddValue|
; Line 945
  00208	e3a0500e	 mov         r5, #0xE
  0020c		 |$LN11@AddValue|
; Line 947
  0020c	e3e03c21	 mvn         r3, #0x21, 24
  00210	e223302b	 eor         r3, r3, #0x2B
  00214	e08b3003	 add         r3, r11, r3
  00218	e1540003	 cmp         r4, r3
  0021c	0a000081	 beq         |$LN102@AddValue|
  00220	e3e00c21	 mvn         r0, #0x21, 24
  00224	e220002f	 eor         r0, r0, #0x2F
  00228	e08b0000	 add         r0, r11, r0
  0022c	eb000000	 bl          |?FreeHeap@?$CTempBuffer@_W$0BAA@VCCRTAllocator@ATL@@@ATL@@AAAXXZ|
; Line 948
  00230	e24b6a02	 sub         r6, r11, #2, 20	; 8192 (0x2000)
  00234	e5166250	 ldr         r6, [r6, #-0x250]
  00238	ea00007c	 b           |$LN20@AddValue|
  0023c		 |$LN10@AddValue|
; Line 959
  0023c	e3e03e89	 mvn         r3, #0x89, 28
  00240	e1a03103	 mov         r3, r3, lsl #2
  00244	e08b3003	 add         r3, r11, r3
  00248	e3a02000	 mov         r2, #0
  0024c	e3a01000	 mov         r1, #0
  00250	e3e00a02	 mvn         r0, #2, 20
  00254	e220002b	 eor         r0, r0, #0x2B
  00258	e08b0000	 add         r0, r11, r0
  0025c	eb000000	 bl          VarUI4FromStr
; Line 961
  00260	e24b3a02	 sub         r3, r11, #2, 20	; 8192 (0x2000)
  00264	e5133244	 ldr         r3, [r3, #-0x244]
  00268	e5970000	 ldr         r0, [r7]
  0026c	e3a04004	 mov         r4, #4
  00270	e24bca02	 sub         r12, r11, #2, 20	; 8192 (0x2000)
  00274	e50c3248	 str         r3, [r12, #-0x248]
  00278	e3e0ec22	 mvn         lr, #0x22, 24
  0027c	e22ee047	 eor         lr, lr, #0x47
  00280	e08be00e	 add         lr, r11, lr
  00284	e3a03004	 mov         r3, #4
  00288	e3a02000	 mov         r2, #0
  0028c	e1a01008	 mov         r1, r8
  00290	e58d4004	 str         r4, [sp, #4]
  00294	e58de000	 str         lr, [sp]
  00298	eb000000	 bl          RegSetValueExW
  0029c	e1a05000	 mov         r5, r0
; Line 963
  002a0	ea000062	 b           |$LN20@AddValue|
  002a4		 |$LN9@AddValue|
; Line 967
  002a4	e3e00a02	 mvn         r0, #2, 20
  002a8	e220002b	 eor         r0, r0, #0x2B
  002ac	e08b0000	 add         r0, r11, r0
  002b0		 |$M84798|
  002b0	eb000000	 bl          wcslen
  002b4	e1a04000	 mov         r4, r0
  002b8	e24bca02	 sub         r12, r11, #2, 20	; 8192 (0x2000)
  002bc	e50c4244	 str         r4, [r12, #-0x244]
; Line 968
  002c0	e3140001	 tst         r4, #1
  002c4	0a000004	 beq         |$LN8@AddValue|
; Line 971
  002c8	e51b002c	 ldr         r0, [r11, #-0x2C]
  002cc		 |$LN106@AddValue|
  002cc	eb000000	 bl          __security_check_cookie
  002d0	e3a03116	 mov         r3, #0x16, 2
  002d4	e3834901	 orr         r4, r3, #1, 18	; 16384 (0x4000)
  002d8	ea00006d	 b           |$LN25@AddValue|
  002dc		 |$LN8@AddValue|
; Line 973
  002dc	e0843fa4	 add         r3, r4, r4, lsr #31
  002e0	e1a050c3	 mov         r5, r3, asr #1
; Line 974
  002e4	e3a03000	 mov         r3, #0
  002e8	e24bca02	 sub         r12, r11, #2, 20	; 8192 (0x2000)
  002ec	e50c3234	 str         r3, [r12, #-0x234]
  002f0	e50c524c	 str         r5, [r12, #-0x24C]
; Line 975
  002f4	e1a01005	 mov         r1, r5
  002f8	e3e00c22	 mvn         r0, #0x22, 24
  002fc	e2200033	 eor         r0, r0, #0x33
  00300	e08b0000	 add         r0, r11, r0
  00304		 |$M84799|
  00304	eb000000	 bl          |?Allocate@?$CTempBuffer@E$0BAA@VCCRTAllocator@ATL@@@ATL@@QAAPAEI@Z|
  00308	ea00000d	 b           |$LN36@AddValue|
  0030c		 |$LN37@AddValue|
  0030c	e24b3a02	 sub         r3, r11, #2, 20	; 8192 (0x2000)
  00310	e5133248	 ldr         r3, [r3, #-0x248]
  00314	e24b4a02	 sub         r4, r11, #2, 20	; 8192 (0x2000)
  00318	e5144244	 ldr         r4, [r4, #-0x244]
  0031c	e24b5a02	 sub         r5, r11, #2, 20	; 8192 (0x2000)
  00320	e515524c	 ldr         r5, [r5, #-0x24C]
  00324	e24b9a02	 sub         r9, r11, #2, 20	; 8192 (0x2000)
  00328	e5199238	 ldr         r9, [r9, #-0x238]
  0032c	e24b7a02	 sub         r7, r11, #2, 20	; 8192 (0x2000)
  00330	e517723c	 ldr         r7, [r7, #-0x23C]
  00334	e24b8a02	 sub         r8, r11, #2, 20	; 8192 (0x2000)
  00338	e5188240	 ldr         r8, [r8, #-0x240]
  0033c	e24bca02	 sub         r12, r11, #2, 20	; 8192 (0x2000)
  00340	e50c3250	 str         r3, [r12, #-0x250]
  00344		 |$LN36@AddValue|
; Line 976
  00344	e24b0a02	 sub         r0, r11, #2, 20	; 8192 (0x2000)
  00348	e5100234	 ldr         r0, [r0, #-0x234]
  0034c	e3500000	 cmp         r0, #0
  00350	1a000009	 bne         |$LN6@AddValue|
; Line 977
  00354	e3e03c22	 mvn         r3, #0x22, 24
  00358	e223302f	 eor         r3, r3, #0x2F
  0035c	e08b3003	 add         r3, r11, r3
  00360	e3530000	 cmp         r3, #0
  00364	13e00c22	 mvnne       r0, #0x22, 24
  00368	12200033	 eorne       r0, r0, #0x33
  0036c	108b0000	 addne       r0, r11, r0
  00370	1b000000	 blne        |?FreeHeap@?$CTempBuffer@E$0BAA@VCCRTAllocator@ATL@@@ATL@@AAAXXZ|
  00374	e51b002c	 ldr         r0, [r11, #-0x2C]
  00378		 |$M84800|
  00378	eaffffd3	 b           |$LN106@AddValue|
  0037c		 |$LN6@AddValue|
; Line 978
  0037c	e1a02005	 mov         r2, r5
  00380	e3a01000	 mov         r1, #0
  00384		 |$M84801|
  00384	eb000000	 bl          memset
; Line 979
  00388	e3a06000	 mov         r6, #0
  0038c	e3540000	 cmp         r4, #0
  00390	da000010	 ble         |$LN3@AddValue|
; Line 978
  00394	e3e0aa02	 mvn         r10, #2, 20
  00398	e22aa02b	 eor         r10, r10, #0x2B
  0039c	e08ba00a	 add         r10, r11, r10
  003a0		 |$LL5@AddValue|
; Line 980
  003a0	e0da00b2	 ldrh        r0, [r10], #2
  003a4	eb000000	 bl          |?ChToByte@CRegParser@ATL@@KAE_W@Z|
  003a8	e24bea02	 sub         lr, r11, #2, 20	; 8192 (0x2000)
  003ac	e51ee234	 ldr         lr, [lr, #-0x234]
  003b0	e0863fa6	 add         r3, r6, r6, lsr #31
  003b4	e2062001	 and         r2, r6, #1
  003b8	e7fe10c3	 ldrb        r1, [lr, +r3, asr #1]!
  003bc	e1a03102	 mov         r3, r2, lsl #2
  003c0	e2633004	 rsb         r3, r3, #4
  003c4	e2866001	 add         r6, r6, #1
  003c8	e1813310	 orr         r3, r1, r0, lsl r3
  003cc	e1560004	 cmp         r6, r4
  003d0	e5ce3000	 strb        r3, [lr]
  003d4	bafffff1	 blt         |$LL5@AddValue|
  003d8		 |$LN3@AddValue|
; Line 981
  003d8	e24b2a02	 sub         r2, r11, #2, 20	; 8192 (0x2000)
  003dc	e5122234	 ldr         r2, [r2, #-0x234]
  003e0	e5970000	 ldr         r0, [r7]
  003e4	e3a03003	 mov         r3, #3
  003e8	e58d2000	 str         r2, [sp]
  003ec	e3a02000	 mov         r2, #0
  003f0	e1a01008	 mov         r1, r8
  003f4	e58d5004	 str         r5, [sp, #4]
  003f8	eb000000	 bl          RegSetValueExW
  003fc	e1a05000	 mov         r5, r0
; Line 982
  00400	e24b2a02	 sub         r2, r11, #2, 20	; 8192 (0x2000)
  00404	e5122234	 ldr         r2, [r2, #-0x234]
  00408	e3e03c22	 mvn         r3, #0x22, 24
  0040c	e223302f	 eor         r3, r3, #0x2F
  00410	e08b3003	 add         r3, r11, r3
  00414	e1520003	 cmp         r2, r3
  00418	13e00c22	 mvnne       r0, #0x22, 24
  0041c	12200033	 eorne       r0, r0, #0x33
  00420	108b0000	 addne       r0, r11, r0
  00424	1b000000	 blne        |?FreeHeap@?$CTempBuffer@E$0BAA@VCCRTAllocator@ATL@@@ATL@@AAAXXZ|
  00428		 |$LN102@AddValue|
; Line 870
  00428	e24b6a02	 sub         r6, r11, #2, 20	; 8192 (0x2000)
  0042c	e5166250	 ldr         r6, [r6, #-0x250]
; Line 895
  00430		 |$LN20@AddValue|
; Line 986
  00430	e3550000	 cmp         r5, #0
  00434	0a00000e	 beq         |$LN2@AddValue|
; Line 989
  00438	e1a00005	 mov         r0, r5
  0043c	eb000000	 bl          |?AtlHresultFromWin32@ATL@@YAJK@Z|
  00440	e1a04000	 mov         r4, r0
  00444	e51b002c	 ldr         r0, [r11, #-0x2C]
  00448		 |$M84802|
  00448	eb000000	 bl          __security_check_cookie
  0044c	ea000010	 b           |$LN25@AddValue|
  00450		 |$LN19@AddValue|
  00450		 |$M84803|
; Line 895
  00450	e3a03001	 mov         r3, #1
  00454	e3e02a02	 mvn         r2, #2, 20
  00458	e222202b	 eor         r2, r2, #0x2B
  0045c	e08b2002	 add         r2, r11, r2
  00460	e1a01008	 mov         r1, r8
  00464	e1a00007	 mov         r0, r7
  00468	eb000000	 bl          |?SetStringValue@CRegKey@ATL@@QAAJPB_W0K@Z|
  0046c	e1a05000	 mov         r5, r0
  00470	eaffffee	 b           |$LN20@AddValue|
  00474		 |$LN2@AddValue|
  00474		 |$M84804|
; Line 992
  00474	e1a01006	 mov         r1, r6
  00478	e1a00009	 mov         r0, r9
  0047c	eb000000	 bl          |?NextToken@CRegParser@ATL@@IAAJPA_W@Z|
  00480	e1b04000	 movs        r4, r0
; Line 993
  00484	e51b002c	 ldr         r0, [r11, #-0x2C]
  00488	4afffefa	 bmi         |$LN105@AddValue|
; Line 995
  0048c	eb000000	 bl          __security_check_cookie
  00490	e3a04000	 mov         r4, #0
  00494		 |$LN25@AddValue|
; Line 996
  00494	e1a00004	 mov         r0, r4
  00498	e24bd028	 sub         sp, r11, #0x28
  0049c	e89daff0	 ldmia       sp, {r4 - r11, sp, pc}
  004a0		 |$M84809|
  004a0	00000000	 DCD         |__CxxFrameHandler3|
  004a4	00000000	 DCD         |__ehfuncinfo$?AddValue@CRegParser@ATL@@IAAJAAVCRegKey@2@PB_WPA_W@Z|
  004a8		 |__catch$84652|
  004a8		 |$M84812|
; Line 905
  004a8	e59f0054	 ldr         r0, [pc, #0x54]
  004ac	e1a0f00e	 mov         pc, lr
  004b0		 |$M84813|
  004b0	00000000	 DCD         |__CxxFrameHandler3|
  004b4	00000000	 DCD         |__ehfuncinfo$?AddValue@CRegParser@ATL@@IAAJAAVCRegKey@2@PB_WPA_W@Z|
  004b8		 |__catch$84654|
  004b8		 |$M84815|
; Line 975
  004b8	e59f0040	 ldr         r0, [pc, #0x40]
  004bc	e1a0f00e	 mov         pc, lr
  004c0		 |$M84816|
  004c0		 |__unwind$84655|
; Line 996
  004c0	e52de004	 str         lr, [sp, #-4]!
  004c4	e24dd008	 sub         sp, sp, #8
  004c8		 |$M84818|
  004c8	e3e00c21	 mvn         r0, #0x21, 24
  004cc	e220002f	 eor         r0, r0, #0x2F
  004d0	e08b0000	 add         r0, r11, r0
  004d4	eb000000	 bl          |??1?$CTempBuffer@_W$0BAA@VCCRTAllocator@ATL@@@ATL@@QAA@XZ|
  004d8	e28dd008	 add         sp, sp, #8
  004dc	e8bd8000	 ldmia       sp!, {pc}
  004e0		 |$M84819|
  004e0		 |__unwind$84657|
  004e0	e52de004	 str         lr, [sp, #-4]!
  004e4	e24dd008	 sub         sp, sp, #8
  004e8		 |$M84821|
  004e8	e3e00c22	 mvn         r0, #0x22, 24
  004ec	e2200033	 eor         r0, r0, #0x33
  004f0	e08b0000	 add         r0, r11, r0
  004f4	eb000000	 bl          |??1?$CTempBuffer@E$0BAA@VCCRTAllocator@ATL@@@ATL@@QAA@XZ|
  004f8	e28dd008	 add         sp, sp, #8
  004fc	e8bd8000	 ldmia       sp!, {pc}
  00500		 |$LN130@AddValue|
  00500		 |$LN131@AddValue|
  00500	00000000	 DCD         |$LN37@AddValue|
  00504		 |$LN132@AddValue|
  00504	00000000	 DCD         |$LN35@AddValue|
  00508		 |$LN133@AddValue|
  00508	00000000	 DCD         |__security_cookie|
  0050c		 |$LN134@AddValue|
  0050c	ffffddd0	 DCD         0xffffddd0
  00510		 |$M84822|

			 ENDP  ; |?AddValue@CRegParser@ATL@@IAAJAAVCRegKey@2@PB_WPA_W@Z|, ATL::CRegParser::AddValue

	EXPORT	|__$ArrayPad$| [ DATA ]
	EXPORT	|?RegisterSubkeys@CRegParser@ATL@@IAAJPA_WPAUHKEY__@@HH@Z| ; ATL::CRegParser::RegisterSubkeys
; File c:\program files (x86)\microsoft visual studio 9.0\vc\ce\atlmfc\include\atlbase.h

  00000			 AREA	 |.pdata|, PDATA
|$T85268| DCD	|$LN279@RegisterSu|
	DCD	0xc0019204

  00000			 AREA	 |.pdata|, PDATA
|$T85271| DCD	|__unwind$84847|
	DCD	0x40000802

  00000			 AREA	 |.pdata|, PDATA
|$T85274| DCD	|__unwind$84849|
	DCD	0x40000b02

  00000			 AREA	 |.rdata|, DATA, READONLY
|__unwindtable$?RegisterSubkeys@CRegParser@ATL@@IAAJPA_WPAUHKEY__@@HH@Z| DCD 0xffffffff
	DCD	|__unwind$84847|
	DCD	0x0
	DCD	|__unwind$84849|
|__ehfuncinfo$?RegisterSubkeys@CRegParser@ATL@@IAAJPA_WPAUHKEY__@@HH@Z| DCD 0x19930522
	DCD	0x2
	DCD	|__unwindtable$?RegisterSubkeys@CRegParser@ATL@@IAAJPA_WPAUHKEY__@@HH@Z|
	DCD	0x0
	DCD	0x0
	DCD	0x7
	DCD	|$T85264|
	DCD	0x0
	DCD	0x1
	DCD	0xffffffd4
|$T85264| DCD	|$M85257|
	DCD	0x1
	DCD	|$M85258|
	DCD	0xffffffff
	DCD	|$M85259|
	DCD	0x1
	DCD	|$M85260|
	DCD	0x0
	DCD	|$M85261|
	DCD	0xffffffff
	DCD	|$M85262|
	DCD	0x0
	DCD	|$M85263|
	DCD	0xffffffff
; Function compile flags: /Ogspy

  00000			 AREA	 |.text|, CODE, ARM

  00000	00000000	 DCD         |__GSHandlerCheck_EH|
  00004	00000000	 DCD         |__ehfuncinfo$?RegisterSubkeys@CRegParser@ATL@@IAAJPA_WPAUHKEY__@@HH@Z|

  00008		 |?RegisterSubkeys@CRegParser@ATL@@IAAJPA_WPAUHKEY__@@HH@Z| PROC ; ATL::CRegParser::RegisterSubkeys
; File c:\program files (x86)\microsoft visual studio 9.0\vc\ce\atlmfc\include\statreg.h
; Line 1300
  00008		 |$LN279@RegisterSu|
  00008	e1a0c00d	 mov         r12, sp
  0000c	e92d5ff0	 stmdb       sp!, {r4 - r12, lr}
  00010	e28db028	 add         r11, sp, #0x28
  00014	e24ddd11	 sub         sp, sp, #0x11, 26	; 1088 (0x440)
  00018		 |$M85265|
  00018	e50b3450	 str         r3, [r11, #-0x450]
  0001c	e50b2454	 str         r2, [r11, #-0x454]
  00020	e1a06001	 mov         r6, r1
  00024	e1a08000	 mov         r8, r0
  00028	e59f1668	 ldr         r1, [pc, #0x668]
  0002c	e5911000	 ldr         r1, [r1]
  00030	e50b102c	 str         r1, [r11, #-0x2C]
; Line 1301
  00034	e3a05000	 mov         r5, #0
  00038	e50b5458	 str         r5, [r11, #-0x458]
; Line 1305
  0003c	e59ba000	 ldr         r10, [r11]
; Line 1309
  00040	e1a01006	 mov         r1, r6
  00044	e50ba444	 str         r10, [r11, #-0x444]
  00048	eb000000	 bl          |?NextToken@CRegParser@ATL@@IAAJPA_W@Z|
  0004c	e1b04000	 movs        r4, r0
  00050	5a000000	 bpl         |$LN236@RegisterSu|
; Line 1310
  00054	ea000084	 b           |$LN229@RegisterSu|
  00058		 |$LN236@RegisterSu|
; Line 1313
  00058	e1d630b0	 ldrh        r3, [r6]
  0005c	e353007d	 cmp         r3, #0x7D
  00060	0a00007d	 beq         |$LN215@RegisterSu|
  00064		 |$LL57@RegisterSu|
; Line 1318
  00064	e59f1628	 ldr         r1, [pc, #0x628]
  00068	e1a00006	 mov         r0, r6
  0006c	e3a09001	 mov         r9, #1
  00070	eb000000	 bl          lstrcmpiW
; Line 1320
  00074	e59f1614	 ldr         r1, [pc, #0x614]
  00078	e3500000	 cmp         r0, #0
  0007c	03a07001	 moveq       r7, #1
  00080	e1a00006	 mov         r0, r6
  00084	13a07000	 movne       r7, #0
  00088	eb000000	 bl          lstrcmpiW
  0008c	e3500000	 cmp         r0, #0
  00090	0a000001	 beq         |$LN54@RegisterSu|
  00094	e3570000	 cmp         r7, #0
  00098	0a000025	 beq         |$LN113@RegisterSu|
  0009c		 |$LN54@RegisterSu|
; Line 1322
  0009c	e1a01006	 mov         r1, r6
  000a0	e1a00008	 mov         r0, r8
  000a4	eb000000	 bl          |?NextToken@CRegParser@ATL@@IAAJPA_W@Z|
  000a8	e1b04000	 movs        r4, r0
  000ac	4a00006a	 bmi         |$LN215@RegisterSu|
; Line 1325
  000b0	e51b3450	 ldr         r3, [r11, #-0x450]
  000b4	e3530000	 cmp         r3, #0
  000b8	0a00001d	 beq         |$LN113@RegisterSu|
; Line 1329
  000bc	e3a0105c	 mov         r1, #0x5C
  000c0	e1a00006	 mov         r0, r6
  000c4	eb000000	 bl          |?StrChrW@CRegParser@ATL@@KAPA_WPA_W_W@Z|
  000c8	e3500000	 cmp         r0, #0
  000cc	1a000136	 bne         |$LN238@RegisterSu|
; Line 1332
  000d0	e1a01006	 mov         r1, r6
  000d4	e1a00008	 mov         r0, r8
  000d8	eb000000	 bl          |?CanForceRemoveKey@CRegParser@ATL@@IAAHPB_W@Z|
  000dc	e3500000	 cmp         r0, #0
; Line 1336
  000e0	151b3454	 ldrne       r3, [r11, #-0x454]
  000e4	11a01006	 movne       r1, r6
  000e8	13e00088	 mvnne       r0, #0x88
  000ec	11a00180	 movne       r0, r0, lsl #3
  000f0	108b0000	 addne       r0, r11, r0
  000f4	150b3448	 strne       r3, [r11, #-0x448]
  000f8	1b000000	 blne        |?RecurseDeleteKey@CRegKey@ATL@@QAAJPB_W@Z|
; Line 1339
  000fc	e3570000	 cmp         r7, #0
  00100	0a00000b	 beq         |$LN113@RegisterSu|
; Line 1341
  00104	e1a01006	 mov         r1, r6
  00108	e1a00008	 mov         r0, r8
  0010c	eb000000	 bl          |?NextToken@CRegParser@ATL@@IAAJPA_W@Z|
  00110	e1b04000	 movs        r4, r0
  00114	4a000050	 bmi         |$LN215@RegisterSu|
; Line 1343
  00118	e1a01006	 mov         r1, r6
  0011c	e1a00008	 mov         r0, r8
  00120	eb000000	 bl          |?SkipAssignment@CRegParser@ATL@@IAAJPA_W@Z|
  00124	e1b04000	 movs        r4, r0
  00128	4a00004b	 bmi         |$LN215@RegisterSu|
; Line 1345
  0012c	e51b7450	 ldr         r7, [r11, #-0x450]
  00130	ea00008f	 b           |$EndCheck$44768|
; Line 1347
  00134		 |$LN113@RegisterSu|
; Line 1351
  00134	e59f1550	 ldr         r1, [pc, #0x550]
  00138	e1a00006	 mov         r0, r6
  0013c	eb000000	 bl          lstrcmpiW
  00140	e3500000	 cmp         r0, #0
  00144	1a000005	 bne         |$LN44@RegisterSu|
; Line 1354
  00148	e1a01006	 mov         r1, r6
  0014c	e1a00008	 mov         r0, r8
  00150	e3a09000	 mov         r9, #0
  00154	eb000000	 bl          |?NextToken@CRegParser@ATL@@IAAJPA_W@Z|
  00158	e1b04000	 movs        r4, r0
  0015c	4a00003e	 bmi         |$LN215@RegisterSu|
  00160		 |$LN44@RegisterSu|
; Line 1358
  00160	e59f1520	 ldr         r1, [pc, #0x520]
  00164	e1a00006	 mov         r0, r6
  00168	eb000000	 bl          lstrcmpiW
  0016c	e3500000	 cmp         r0, #0
  00170	1a000042	 bne         |$LN36@RegisterSu|
; Line 1368
  00174	e24b1f8d	 sub         r1, r11, #0x8D, 30	; 564 (0x234)
  00178	e1a00008	 mov         r0, r8
  0017c	eb000000	 bl          |?NextToken@CRegParser@ATL@@IAAJPA_W@Z|
  00180	e1b04000	 movs        r4, r0
  00184	4a000034	 bmi         |$LN215@RegisterSu|
; Line 1370
  00188	e1a01006	 mov         r1, r6
  0018c	e1a00008	 mov         r0, r8
  00190	eb000000	 bl          |?NextToken@CRegParser@ATL@@IAAJPA_W@Z|
  00194	e1b04000	 movs        r4, r0
  00198	4a00002f	 bmi         |$LN215@RegisterSu|
; Line 1376
  0019c	e1d630b0	 ldrh        r3, [r6]
  001a0	e353003d	 cmp         r3, #0x3D
  001a4	1a000118	 bne         |$LN244@RegisterSu|
; Line 1379
  001a8	e51b7450	 ldr         r7, [r11, #-0x450]
  001ac	e3570000	 cmp         r7, #0
  001b0	0a000009	 beq         |$LN39@RegisterSu|
; Line 1384
  001b4	e51be454	 ldr         lr, [r11, #-0x454]
  001b8	e1a03006	 mov         r3, r6
  001bc	e24b2f8d	 sub         r2, r11, #0x8D, 30	; 564 (0x234)
  001c0	e24b1d11	 sub         r1, r11, #0x11, 26	; 1088 (0x440)
  001c4	e1a00008	 mov         r0, r8
  001c8	e50be440	 str         lr, [r11, #-0x440]
  001cc		 |$M85257|
  001cc	eb000000	 bl          |?AddValue@CRegParser@ATL@@IAAJAAVCRegKey@2@PB_WPA_W@Z|
  001d0	e1b04000	 movs        r4, r0
; Line 1387
  001d4	4a0000fc	 bmi         |$LN245@RegisterSu|
; Line 1390
  001d8	ea000065	 b           |$EndCheck$44768|
  001dc		 |$LN39@RegisterSu|
; Line 1394
  001dc	e35a0000	 cmp         r10, #0
  001e0	1a000018	 bne         |$LN166@RegisterSu|
  001e4	e3590000	 cmp         r9, #0
  001e8	0a000016	 beq         |$LN166@RegisterSu|
; Line 1399
  001ec	e51b1454	 ldr         r1, [r11, #-0x454]
  001f0	e3a03802	 mov         r3, #2, 16
  001f4	e3a0e000	 mov         lr, #0
  001f8	e3833006	 orr         r3, r3, #6
  001fc	e3a02000	 mov         r2, #0
  00200	e3e00b01	 mvn         r0, #1, 22
  00204	e220004b	 eor         r0, r0, #0x4B
  00208	e08b0000	 add         r0, r11, r0
  0020c	e50be44c	 str         lr, [r11, #-0x44C]
  00210	eb000000	 bl          |?Open@CRegKey@ATL@@QAAJPAUHKEY__@@PB_WK@Z|
  00214	e3500000	 cmp         r0, #0
; Line 1400
  00218	1a0000f3	 bne         |$LN34@RegisterSu|
; Line 1402
  0021c	e51b744c	 ldr         r7, [r11, #-0x44C]
  00220	e24b1f8d	 sub         r1, r11, #0x8D, 30	; 564 (0x234)
  00224	e1a00007	 mov         r0, r7
  00228	eb000000	 bl          RegDeleteValueW
  0022c	e3500000	 cmp         r0, #0
; Line 1403
  00230	0a000001	 beq         |$LN33@RegisterSu|
  00234	e3500002	 cmp         r0, #2
  00238	1a0000e4	 bne         |$LN246@RegisterSu|
  0023c		 |$LN33@RegisterSu|
; Line 1415
  0023c	e3570000	 cmp         r7, #0
  00240	11a00007	 movne       r0, r7
  00244	1b000000	 blne        RegCloseKey
  00248		 |$LN166@RegisterSu|
; Line 1416
  00248	e1a01006	 mov         r1, r6
  0024c	e1a00008	 mov         r0, r8
  00250	eb000000	 bl          |?SkipAssignment@CRegParser@ATL@@IAAJPA_W@Z|
  00254	e1b04000	 movs        r4, r0
  00258	5a0000cf	 bpl         |$LN1@RegisterSu|
; Line 1545
  0025c		 |$LN215@RegisterSu|
  0025c		 |$LN265@RegisterSu|
  0025c		 |$M85258|
; Line 1568
  0025c	e3550000	 cmp         r5, #0
  00260	0a000001	 beq         |$LN229@RegisterSu|
  00264	e1a00005	 mov         r0, r5
  00268		 |$LN266@RegisterSu|
  00268	eb000000	 bl          RegCloseKey
  0026c		 |$LN229@RegisterSu|
  0026c	e51b002c	 ldr         r0, [r11, #-0x2C]
  00270	eb000000	 bl          __security_check_cookie
  00274		 |$LN59@RegisterSu|
; Line 1569
  00274	e1a00004	 mov         r0, r4
  00278	e24bd028	 sub         sp, r11, #0x28
  0027c	e89daff0	 ldmia       sp, {r4 - r11, sp, pc}
  00280		 |$LN36@RegisterSu|
  00280		 |$M85259|
; Line 1422
  00280	e3a0105c	 mov         r1, #0x5C
  00284	e1a00006	 mov         r0, r6
  00288	eb000000	 bl          |?StrChrW@CRegParser@ATL@@KAPA_WPA_W_W@Z|
  0028c	e3500000	 cmp         r0, #0
  00290	1a0000ed	 bne         |$LN248@RegisterSu|
; Line 1425
  00294	e51b7450	 ldr         r7, [r11, #-0x450]
  00298	e3570000	 cmp         r7, #0
  0029c	0a00004a	 beq         |$LN29@RegisterSu|
; Line 1427
  002a0	e51b4454	 ldr         r4, [r11, #-0x454]
  002a4	e3a09802	 mov         r9, #2, 16
  002a8	e389501f	 orr         r5, r9, #0x1F
  002ac	e1a03005	 mov         r3, r5
  002b0	e1a01004	 mov         r1, r4
  002b4	e1a02006	 mov         r2, r6
  002b8	e3e0008a	 mvn         r0, #0x8A
  002bc	e1a00180	 mov         r0, r0, lsl #3
  002c0	e08b0000	 add         r0, r11, r0
  002c4	eb000000	 bl          |?Open@CRegKey@ATL@@QAAJPAUHKEY__@@PB_WK@Z|
  002c8	e3500000	 cmp         r0, #0
; Line 1428
  002cc	0a000016	 beq         |$LN26@RegisterSu|
; Line 1431
  002d0	e3893019	 orr         r3, r9, #0x19
  002d4	e1a02006	 mov         r2, r6
  002d8	e1a01004	 mov         r1, r4
  002dc	e3e0008a	 mvn         r0, #0x8A
  002e0	e1a00180	 mov         r0, r0, lsl #3
  002e4	e08b0000	 add         r0, r11, r0
  002e8	eb000000	 bl          |?Open@CRegKey@ATL@@QAAJPAUHKEY__@@PB_WK@Z|
  002ec	e3500000	 cmp         r0, #0
; Line 1432
  002f0	0a00000d	 beq         |$LN26@RegisterSu|
; Line 1436
  002f4	e3a0e000	 mov         lr, #0
  002f8	e3a03000	 mov         r3, #0
  002fc	e1a02006	 mov         r2, r6
  00300	e1a01004	 mov         r1, r4
  00304	e3e0008a	 mvn         r0, #0x8A
  00308	e1a00180	 mov         r0, r0, lsl #3
  0030c	e08b0000	 add         r0, r11, r0
  00310	e58de00c	 str         lr, [sp, #0xC]
  00314	e58de008	 str         lr, [sp, #8]
  00318	e58de000	 str         lr, [sp]
  0031c	e58d5004	 str         r5, [sp, #4]
  00320	eb000000	 bl          |?Create@CRegKey@ATL@@QAAJPAUHKEY__@@PB_WPA_WKKPAU_SECURITY_ATTRIBUTES@@PAK@Z|
  00324	e3500000	 cmp         r0, #0
; Line 1437
  00328	1a0000bc	 bne         |$LN249@RegisterSu|
  0032c		 |$LN26@RegisterSu|
; Line 1442
  0032c	e1a01006	 mov         r1, r6
  00330	e1a00008	 mov         r0, r8
  00334	eb000000	 bl          |?NextToken@CRegParser@ATL@@IAAJPA_W@Z|
  00338	e1b04000	 movs        r4, r0
  0033c	4a0000bd	 bmi         |$LN262@RegisterSu|
; Line 1446
  00340	e1d630b0	 ldrh        r3, [r6]
  00344	e353003d	 cmp         r3, #0x3D
  00348	1a000008	 bne         |$LN261@RegisterSu|
; Line 1448
  0034c	e1a03006	 mov         r3, r6
  00350	e3a02000	 mov         r2, #0
  00354	e3e0108a	 mvn         r1, #0x8A
  00358	e1a01181	 mov         r1, r1, lsl #3
  0035c	e08b1001	 add         r1, r11, r1
  00360	e1a00008	 mov         r0, r8
  00364		 |$M85260|
  00364	eb000000	 bl          |?AddValue@CRegParser@ATL@@IAAJAAVCRegKey@2@PB_WPA_W@Z|
  00368	e1b04000	 movs        r4, r0
  0036c	4a0000b1	 bmi         |$LN262@RegisterSu|
  00370		 |$LN261@RegisterSu|
; Line 1452
  00370	e51b5458	 ldr         r5, [r11, #-0x458]
  00374		 |$EndCheck$44768|
; Line 1558
  00374	e1d630b0	 ldrh        r3, [r6]
  00378	e353007b	 cmp         r3, #0x7B
  0037c	1a000086	 bne         |$LN1@RegisterSu|
  00380	e1a00006	 mov         r0, r6
  00384	eb000000	 bl          wcslen
  00388	e3500001	 cmp         r0, #1
  0038c	1a000082	 bne         |$LN1@RegisterSu|
; Line 1560
  00390	e3a0e000	 mov         lr, #0
  00394	e1a03007	 mov         r3, r7
  00398	e1a02005	 mov         r2, r5
  0039c	e1a01006	 mov         r1, r6
  003a0	e1a00008	 mov         r0, r8
  003a4	e58de000	 str         lr, [sp]
  003a8	eb000000	 bl          |?RegisterSubkeys@CRegParser@ATL@@IAAJPA_WPAUHKEY__@@HH@Z|
  003ac	e1b04000	 movs        r4, r0
  003b0	4affffa9	 bmi         |$LN215@RegisterSu|
; Line 1562
  003b4	e1a01006	 mov         r1, r6
  003b8	e1a00008	 mov         r0, r8
  003bc	eb000000	 bl          |?NextToken@CRegParser@ATL@@IAAJPA_W@Z|
  003c0	e1b04000	 movs        r4, r0
  003c4	4affffa4	 bmi         |$LN215@RegisterSu|
  003c8	ea000073	 b           |$LN1@RegisterSu|
  003cc		 |$LN29@RegisterSu|
; Line 1454
  003cc	e35a0000	 cmp         r10, #0
  003d0	1a00000a	 bne         |$LN21@RegisterSu|
; Line 1456
  003d4	e51b1454	 ldr         r1, [r11, #-0x454]
  003d8	e3a03802	 mov         r3, #2, 16
  003dc	e3833019	 orr         r3, r3, #0x19
  003e0	e1a02006	 mov         r2, r6
  003e4	e3e0008a	 mvn         r0, #0x8A
  003e8	e1a00180	 mov         r0, r0, lsl #3
  003ec	e08b0000	 add         r0, r11, r0
  003f0	eb000000	 bl          |?Open@CRegKey@ATL@@QAAJPAUHKEY__@@PB_WK@Z|
; Line 1459
  003f4	e51b5458	 ldr         r5, [r11, #-0x458]
  003f8	e1a07000	 mov         r7, r0
  003fc	ea000000	 b           |$LN20@RegisterSu|
  00400		 |$LN21@RegisterSu|
; Line 1460
  00400	e3a07002	 mov         r7, #2
  00404		 |$LN20@RegisterSu|
; Line 1464
  00404	e3570000	 cmp         r7, #0
; Line 1476
  00408	e3e03000	 mvn         r3, #0
  0040c	e1a02006	 mov         r2, r6
  00410	e3a01f41	 mov         r1, #0x41, 30
  00414	e3e00b01	 mvn         r0, #1, 22
  00418	e220003b	 eor         r0, r0, #0x3B
  0041c	e08b0000	 add         r0, r11, r0
  00420	13a0a001	 movne       r10, #1
  00424	eb000000	 bl          wcsncpy_s
  00428	eb000000	 bl          |?AtlCrtErrorCheck@ATL@@YAHH@Z|
; Line 1478
  0042c	e1a01006	 mov         r1, r6
  00430	e1a00008	 mov         r0, r8
  00434	eb000000	 bl          |?NextToken@CRegParser@ATL@@IAAJPA_W@Z|
  00438	e1b04000	 movs        r4, r0
  0043c	4affff86	 bmi         |$LN215@RegisterSu|
; Line 1480
  00440	e1a01006	 mov         r1, r6
  00444	e1a00008	 mov         r0, r8
  00448	eb000000	 bl          |?SkipAssignment@CRegParser@ATL@@IAAJPA_W@Z|
  0044c	e1b04000	 movs        r4, r0
  00450	4affff81	 bmi         |$LN215@RegisterSu|
; Line 1483
  00454	e1d630b0	 ldrh        r3, [r6]
  00458	e353007b	 cmp         r3, #0x7B
  0045c	1a000012	 bne         |$LN14@RegisterSu|
  00460	e1a00006	 mov         r0, r6
  00464	eb000000	 bl          wcslen
  00468	e3500001	 cmp         r0, #1
  0046c	1a00000e	 bne         |$LN14@RegisterSu|
; Line 1485
  00470	e3a03000	 mov         r3, #0
  00474	e1a02005	 mov         r2, r5
  00478	e1a01006	 mov         r1, r6
  0047c	e1a00008	 mov         r0, r8
  00480	e58da000	 str         r10, [sp]
  00484	eb000000	 bl          |?RegisterSubkeys@CRegParser@ATL@@IAAJPA_WPAUHKEY__@@HH@Z|
  00488	e1b04000	 movs        r4, r0
; Line 1487
  0048c	5a000001	 bpl         |$LN15@RegisterSu|
  00490	e35a0000	 cmp         r10, #0
  00494	0affff70	 beq         |$LN215@RegisterSu|
  00498		 |$LN15@RegisterSu|
; Line 1490
  00498	e1a01006	 mov         r1, r6
  0049c	e1a00008	 mov         r0, r8
  004a0	eb000000	 bl          |?NextToken@CRegParser@ATL@@IAAJPA_W@Z|
  004a4	e1b04000	 movs        r4, r0
  004a8	4affff6b	 bmi         |$LN215@RegisterSu|
  004ac		 |$LN14@RegisterSu|
; Line 1498
  004ac	e51b3444	 ldr         r3, [r11, #-0x444]
; Line 1500
  004b0	e3570002	 cmp         r7, #2
  004b4	e1a0a003	 mov         r10, r3
  004b8	0a000037	 beq         |$LN1@RegisterSu|
; Line 1504
  004bc	e3570000	 cmp         r7, #0
  004c0	0a000005	 beq         |$LN10@RegisterSu|
; Line 1507
  004c4	e3530000	 cmp         r3, #0
  004c8	1a000033	 bne         |$LN1@RegisterSu|
  004cc		 |$M85261|
; Line 1511
  004cc	e1a00007	 mov         r0, r7
  004d0		 |$LN257@RegisterSu|
  004d0	eb000000	 bl          |?AtlHresultFromWin32@ATL@@YAJK@Z|
  004d4	e1a04000	 mov         r4, r0
; Line 1512
  004d8	eaffff5f	 b           |$LN215@RegisterSu|
  004dc		 |$LN10@RegisterSu|
  004dc		 |$M85262|
; Line 1517
  004dc	e3530000	 cmp         r3, #0
  004e0	0a000016	 beq         |$LN9@RegisterSu|
  004e4	e1a01005	 mov         r1, r5
  004e8	e1a00008	 mov         r0, r8
  004ec	eb000000	 bl          |?HasSubKeys@CRegParser@ATL@@IAAHPAUHKEY__@@@Z|
  004f0	e3500000	 cmp         r0, #0
  004f4	0a000011	 beq         |$LN9@RegisterSu|
; Line 1520
  004f8	e3e01b01	 mvn         r1, #1, 22
  004fc	e221103b	 eor         r1, r1, #0x3B
  00500	e08b1001	 add         r1, r11, r1
  00504	e1a00008	 mov         r0, r8
  00508	eb000000	 bl          |?CanForceRemoveKey@CRegParser@ATL@@IAAHPB_W@Z|
  0050c	e3500000	 cmp         r0, #0
  00510	0a000021	 beq         |$LN1@RegisterSu|
  00514	e3590000	 cmp         r9, #0
  00518	0a00001f	 beq         |$LN1@RegisterSu|
; Line 1524
  0051c	e3e01b01	 mvn         r1, #1, 22
  00520	e221103b	 eor         r1, r1, #0x3B
  00524	e08b1001	 add         r1, r11, r1
  00528	e3e0008a	 mvn         r0, #0x8A
  0052c	e1a00180	 mov         r0, r0, lsl #3
  00530	e08b0000	 add         r0, r11, r0
  00534	eb000000	 bl          |?RecurseDeleteKey@CRegKey@ATL@@QAAJPB_W@Z|
; Line 1526
  00538	e51b5458	 ldr         r5, [r11, #-0x458]
  0053c	ea000016	 b           |$LN1@RegisterSu|
  00540		 |$LN9@RegisterSu|
; Line 1529
  00540	e1a01005	 mov         r1, r5
  00544	e1a00008	 mov         r0, r8
  00548	eb000000	 bl          |?HasSubKeys@CRegParser@ATL@@IAAHPAUHKEY__@@@Z|
  0054c	e1a07000	 mov         r7, r0
; Line 1530
  00550	e3550000	 cmp         r5, #0
  00554	0a000005	 beq         |$LN260@RegisterSu|
  00558	e1a00005	 mov         r0, r5
  0055c	eb000000	 bl          RegCloseKey
  00560	e3a05000	 mov         r5, #0
  00564	e50b5458	 str         r5, [r11, #-0x458]
  00568	e3500000	 cmp         r0, #0
; Line 1531
  0056c	1a000033	 bne         |$LN256@RegisterSu|
  00570		 |$LN260@RegisterSu|
; Line 1534
  00570	e3590000	 cmp         r9, #0
  00574	0a000008	 beq         |$LN1@RegisterSu|
  00578	e3570000	 cmp         r7, #0
  0057c	1a000006	 bne         |$LN1@RegisterSu|
; Line 1539
  00580	e51b0454	 ldr         r0, [r11, #-0x454]
  00584	e3e01b01	 mvn         r1, #1, 22
  00588	e221103b	 eor         r1, r1, #0x3B
  0058c	e08b1001	 add         r1, r11, r1
  00590	eb000000	 bl          RegDeleteKeyW
  00594	e3500000	 cmp         r0, #0
; Line 1541
  00598	1affffcc	 bne         |$LN257@RegisterSu|
  0059c		 |$LN1@RegisterSu|
; Line 1313
  0059c	e1d630b0	 ldrh        r3, [r6]
  005a0	e353007d	 cmp         r3, #0x7D
  005a4	1afffeae	 bne         |$LL57@RegisterSu|
  005a8	eaffff2b	 b           |$LN215@RegisterSu|
  005ac		 |$LN238@RegisterSu|
; Line 1330
  005ac	e3550000	 cmp         r5, #0
  005b0	11a00005	 movne       r0, r5
  005b4	1b000000	 blne        RegCloseKey
  005b8	e51b002c	 ldr         r0, [r11, #-0x2C]
  005bc		 |$LN268@RegisterSu|
  005bc		 |$M85263|
  005bc	eb000000	 bl          __security_check_cookie
  005c0	e3a03126	 mov         r3, #0x26, 2
  005c4	e3834802	 orr         r4, r3, #2, 16	; 131072 (0x20000)
  005c8	eaffff29	 b           |$LN59@RegisterSu|
  005cc		 |$LN245@RegisterSu|
; Line 1388
  005cc	eaffff22	 b           |$LN265@RegisterSu|
  005d0		 |$LN246@RegisterSu|
; Line 1406
  005d0	eb000000	 bl          |?AtlHresultFromWin32@ATL@@YAJK@Z|
  005d4	e1a04000	 mov         r4, r0
; Line 1407
  005d8	e3570000	 cmp         r7, #0
  005dc	0affff1e	 beq         |$LN215@RegisterSu|
  005e0	e1a00007	 mov         r0, r7
  005e4	eb000000	 bl          RegCloseKey
  005e8	eaffff1b	 b           |$LN215@RegisterSu|
  005ec		 |$LN34@RegisterSu|
; Line 1412
  005ec	eb000000	 bl          |?AtlHresultFromWin32@ATL@@YAJK@Z|
; Line 1413
  005f0	e51b344c	 ldr         r3, [r11, #-0x44C]
  005f4	e1a04000	 mov         r4, r0
  005f8	e3530000	 cmp         r3, #0
  005fc	0affff16	 beq         |$LN215@RegisterSu|
  00600	e1a00003	 mov         r0, r3
  00604	eb000000	 bl          RegCloseKey
  00608	eaffff13	 b           |$LN215@RegisterSu|
  0060c		 |$LN244@RegisterSu|
  0060c		 |$LN269@RegisterSu|
; Line 1377
  0060c	e3550000	 cmp         r5, #0
  00610	11a00005	 movne       r0, r5
  00614	1b000000	 blne        RegCloseKey
  00618	e51b002c	 ldr         r0, [r11, #-0x2C]
  0061c	eaffffe6	 b           |$LN268@RegisterSu|
  00620		 |$LN249@RegisterSu|
; Line 1438
  00620	eb000000	 bl          |?AtlHresultFromWin32@ATL@@YAJK@Z|
  00624	e1a04000	 mov         r4, r0
  00628	e51b0458	 ldr         r0, [r11, #-0x458]
  0062c	e3500000	 cmp         r0, #0
  00630	0affff0d	 beq         |$LN229@RegisterSu|
  00634	eaffff0b	 b           |$LN266@RegisterSu|
  00638		 |$LN262@RegisterSu|
; Line 1544
  00638	e51b5458	 ldr         r5, [r11, #-0x458]
  0063c	eaffff06	 b           |$LN215@RegisterSu|
  00640		 |$LN256@RegisterSu|
; Line 1532
  00640	eb000000	 bl          |?AtlHresultFromWin32@ATL@@YAJK@Z|
  00644	e1a04000	 mov         r4, r0
  00648	eaffff07	 b           |$LN229@RegisterSu|
  0064c		 |$LN248@RegisterSu|
; Line 1423
  0064c	eaffffee	 b           |$LN269@RegisterSu|
  00650		 |$M85266|
  00650		 |__unwind$84847|
; Line 1569
  00650	e52de004	 str         lr, [sp, #-4]!
  00654	e24dd010	 sub         sp, sp, #0x10
  00658		 |$M85269|
  00658	e3e0008a	 mvn         r0, #0x8A
  0065c	e1a00180	 mov         r0, r0, lsl #3
  00660	e08b0000	 add         r0, r11, r0
  00664	eb000000	 bl          |??1CRegKey@ATL@@QAA@XZ|
  00668	e28dd010	 add         sp, sp, #0x10
  0066c	e8bd8000	 ldmia       sp!, {pc}
  00670		 |$M85270|
  00670		 |__unwind$84849|
  00670	e52de004	 str         lr, [sp, #-4]!
  00674	e24dd010	 sub         sp, sp, #0x10
  00678		 |$M85272|
  00678	e24b0d11	 sub         r0, r11, #0x11, 26	; 1088 (0x440)
  0067c	eb000000	 bl          |??1CRegKey@ATL@@QAA@XZ|
  00680	e28dd010	 add         sp, sp, #0x10
  00684	e8bd8000	 ldmia       sp!, {pc}
  00688		 |$LN284@RegisterSu|
  00688		 |$LN285@RegisterSu|
  00688	00000000	 DCD         |??_C@_17LLMMEOJD@?$AAV?$AAa?$AAl?$AA?$AA@|
  0068c		 |$LN286@RegisterSu|
  0068c	00000000	 DCD         |??_C@_1BC@GCKHIPE@?$AAN?$AAo?$AAR?$AAe?$AAm?$AAo?$AAv?$AAe?$AA?$AA@|
  00690		 |$LN287@RegisterSu|
  00690	00000000	 DCD         |??_C@_1BI@JFAIJMHL@?$AAF?$AAo?$AAr?$AAc?$AAe?$AAR?$AAe?$AAm?$AAo?$AAv?$AAe?$AA?$AA@|
  00694		 |$LN288@RegisterSu|
  00694	00000000	 DCD         |??_C@_1O@JDLOHAN@?$AAD?$AAe?$AAl?$AAe?$AAt?$AAe?$AA?$AA@|
  00698		 |$LN289@RegisterSu|
  00698	00000000	 DCD         |__security_cookie|
  0069c		 |$M85273|

			 ENDP  ; |?RegisterSubkeys@CRegParser@ATL@@IAAJPA_WPAUHKEY__@@HH@Z|, ATL::CRegParser::RegisterSubkeys

	EXPORT	|??0CRegObject@ATL@@QAA@XZ|		; ATL::CRegObject::CRegObject

  00000			 AREA	 |.pdata|, PDATA
|$T85330| DCD	|$LN21@CRegObject@2|
	DCD	0x40001101
; Function compile flags: /Ogspy

  00000			 AREA	 |.text|, CODE, ARM

  00000		 |??0CRegObject@ATL@@QAA@XZ| PROC	; ATL::CRegObject::CRegObject
  00000		 |$LN21@CRegObject@2|
  00000	e92d4030	 stmdb       sp!, {r4, r5, lr}
  00004		 |$M85327|
  00004	e1a04000	 mov         r4, r0
  00008	e59f3030	 ldr         r3, [pc, #0x30]
  0000c	e1a01004	 mov         r1, r4
  00010	e3a05000	 mov         r5, #0
  00014	e4813004	 str         r3, [r1], #4
  00018	e3a02014	 mov         r2, #0x14
  0001c	e2840010	 add         r0, r4, #0x10
  00020	e5815000	 str         r5, [r1]
  00024	e5815004	 str         r5, [r1, #4]
  00028	e5815008	 str         r5, [r1, #8]
  0002c	e3a01000	 mov         r1, #0
  00030	eb000000	 bl          memset
  00034	e5c45024	 strb        r5, [r4, #0x24]
  00038	e1a00004	 mov         r0, r4
  0003c	e8bd8030	 ldmia       sp!, {r4, r5, pc}
  00040		 |$LN22@CRegObject@2|
  00040		 |$LN23@CRegObject@2|
  00040	00000000	 DCD         |??_7CRegObject@ATL@@6B@|
  00044		 |$M85328|

			 ENDP  ; |??0CRegObject@ATL@@QAA@XZ|, ATL::CRegObject::CRegObject

	EXPORT	|?PrepareWrite@?$CSimpleStringT@_W$0A@@ATL@@AAAPA_WH@Z| ; ATL::CSimpleStringT<wchar_t,0>::PrepareWrite
; File c:\program files (x86)\microsoft visual studio 9.0\vc\ce\atlmfc\include\atlsimpstr.h

  00000			 AREA	 |.pdata|, PDATA
|$T85347| DCD	|$LN8@PrepareWri@2|
	DCD	0x40000c01
; Function compile flags: /Ogspy

  00000			 AREA	 |.text|, CODE, ARM

  00000		 |?PrepareWrite@?$CSimpleStringT@_W$0A@@ATL@@AAAPA_WH@Z| PROC ; ATL::CSimpleStringT<wchar_t,0>::PrepareWrite
; Line 795
  00000		 |$LN8@PrepareWri@2|
  00000	e92d4010	 stmdb       sp!, {r4, lr}
  00004		 |$M85344|
  00004	e1a04000	 mov         r4, r0
; Line 796
  00008	e5943000	 ldr         r3, [r4]
  0000c	e2433010	 sub         r3, r3, #0x10
; Line 798
  00010	e5932008	 ldr         r2, [r3, #8]
  00014	e593300c	 ldr         r3, [r3, #0xC]
  00018	e0422001	 sub         r2, r2, r1
  0001c	e2633001	 rsb         r3, r3, #1
; Line 799
  00020	e1923003	 orrs        r3, r2, r3
; Line 801
  00024	4b000000	 blmi        |?PrepareWrite2@?$CSimpleStringT@_W$0A@@ATL@@AAAXH@Z|
; Line 804
  00028	e5940000	 ldr         r0, [r4]
; Line 805
  0002c	e8bd8010	 ldmia       sp!, {r4, pc}
  00030		 |$M85345|

			 ENDP  ; |?PrepareWrite@?$CSimpleStringT@_W$0A@@ATL@@AAAPA_WH@Z|, ATL::CSimpleStringT<wchar_t,0>::PrepareWrite

; File c:\program files (x86)\microsoft visual studio 9.0\vc\ce\atlmfc\include\atlcom.h

  00000			 AREA	 |.pdata|, PDATA
|$T85497| DCD	|$LN63@CreateInst@3|
	DCD	0xc0004705

  00000			 AREA	 |.pdata|, PDATA
|$T85500| DCD	|__catch$85360|
	DCD	0xc0000400

  00000			 AREA	 |.rdata|, DATA, READONLY
|__unwindtable$?CreateInstance@?$CComCreator@V?$CComObjectCached@VCComClassFactory@ATL@@@ATL@@@ATL@@SAJPAXABU_GUID@@PAPAX@Z| DCD 0xffffffff
	DCD	0x0
	DCD	0xffffffff
	DCD	0x0
|__catchsym$?CreateInstance@?$CComCreator@V?$CComObjectCached@VCComClassFactory@ATL@@@ATL@@@ATL@@SAJPAXABU_GUID@@PAPAX@Z$3| DCD 0x40
	DCD	0x0
	DCD	0x0
	DCD	0x1
	DCD	|__catch$85360|
|__tryblocktable$?CreateInstance@?$CComCreator@V?$CComObjectCached@VCComClassFactory@ATL@@@ATL@@@ATL@@SAJPAXABU_GUID@@PAPAX@Z| DCD 0x0
	DCD	0x0
	DCD	0x0
	DCD	0x1
	DCD	|__catchsym$?CreateInstance@?$CComCreator@V?$CComObjectCached@VCComClassFactory@ATL@@@ATL@@@ATL@@SAJPAXABU_GUID@@PAPAX@Z$3|
|__ehfuncinfo$?CreateInstance@?$CComCreator@V?$CComObjectCached@VCComClassFactory@ATL@@@ATL@@@ATL@@SAJPAXABU_GUID@@PAPAX@Z| DCD 0x19930522
	DCD	0x2
	DCD	|__unwindtable$?CreateInstance@?$CComCreator@V?$CComObjectCached@VCComClassFactory@ATL@@@ATL@@@ATL@@SAJPAXABU_GUID@@PAPAX@Z|
	DCD	0x1
	DCD	|__tryblocktable$?CreateInstance@?$CComCreator@V?$CComObjectCached@VCComClassFactory@ATL@@@ATL@@@ATL@@SAJPAXABU_GUID@@PAPAX@Z|
	DCD	0x4
	DCD	|$T85492|
	DCD	0x0
	DCD	0x1
|$T85492| DCD	|$M85488|
	DCD	0x0
	DCD	|$M85489|
	DCD	0xffffffff
	DCD	|$M85490|
	DCD	0x0
	DCD	|$M85491|
	DCD	0xffffffff
; Function compile flags: /Ogspy

  00000			 AREA	 |.text|, CODE, ARM

  00000	00000000	 DCD         |__CxxFrameHandler3|
  00004	00000000	 DCD         |__ehfuncinfo$?CreateInstance@?$CComCreator@V?$CComObjectCached@VCComClassFactory@ATL@@@ATL@@@ATL@@SAJPAXABU_GUID@@PAPAX@Z|

  00008		 |?CreateInstance@?$CComCreator@V?$CComObjectCached@VCComClassFactory@ATL@@@ATL@@@ATL@@SAJPAXABU_GUID@@PAPAX@Z| PROC ; ATL::CComCreator<ATL::CComObjectCached<ATL::CComClassFactory> >::CreateInstance
; Line 1870
  00008		 |$LN63@CreateInst@3|
  00008	e1a0c00d	 mov         r12, sp
  0000c	e92d0007	 stmdb       sp!, {r0 - r2}
  00010	e92d5ff0	 stmdb       sp!, {r4 - r12, lr}
  00014	e28db028	 add         r11, sp, #0x28
  00018	e24dd008	 sub         sp, sp, #8
  0001c		 |$M85494|
  0001c	e1b07002	 movs        r7, r2
  00020	e1a09001	 mov         r9, r1
  00024	e1a08000	 mov         r8, r0
  00028	e58b7008	 str         r7, [r11, #8]
  0002c	e58b9004	 str         r9, [r11, #4]
  00030	e58b8000	 str         r8, [r11]
; Line 1872
  00034	03a0310e	 moveq       r3, #0xE, 2
; Line 1873
  00038	03835901	 orreq       r5, r3, #1, 18	; 16384 (0x4000)
  0003c		 |$M85488|
  0003c	0a000035	 beq         |$LN12@CreateInst@3|
  00040		 |$M85489|
  00040	e3a0313a	 mov         r3, #0x3A, 2
; Line 1876
  00044	e3835807	 orr         r5, r3, #7, 16	; 458752 (0x70000)
; Line 1877
  00048	e3a03000	 mov         r3, #0
  0004c	e3a0a000	 mov         r10, #0
  00050	e50b302c	 str         r3, [r11, #-0x2C]
  00054	e50b5030	 str         r5, [r11, #-0x30]
  00058	e587a000	 str         r10, [r7]
; Line 1881
  0005c	e3a00024	 mov         r0, #0x24
  00060		 |$M85490|
  00060	eb000000	 bl          |??2@YAPAXI@Z|
  00064	e1b06000	 movs        r6, r0
  00068	0a000009	 beq         |$LN10@CreateInst@3|
  0006c	e1a04006	 mov         r4, r6
  00070	e5a4a004	 str         r10, [r4, #4]!
  00074	e3a02014	 mov         r2, #0x14
  00078	e3a01000	 mov         r1, #0
  0007c	e2840004	 add         r0, r4, #4
  00080	eb000000	 bl          memset
  00084	e59f30ac	 ldr         r3, [pc, #0xAC]
  00088	e5c4a018	 strb        r10, [r4, #0x18]
  0008c	e5863000	 str         r3, [r6]
  00090	ea000000	 b           |$LN11@CreateInst@3|
  00094		 |$LN10@CreateInst@3|
  00094	e3a06000	 mov         r6, #0
  00098		 |$LN11@CreateInst@3|
  00098	ea000004	 b           |$LN17@CreateInst@3|
  0009c		 |$LN18@CreateInst@3|
  0009c	e59b7008	 ldr         r7, [r11, #8]
  000a0	e59b9004	 ldr         r9, [r11, #4]
  000a4	e59b8000	 ldr         r8, [r11]
  000a8	e51b5030	 ldr         r5, [r11, #-0x30]
  000ac	e51b602c	 ldr         r6, [r11, #-0x2C]
  000b0		 |$LN17@CreateInst@3|
; Line 1883
  000b0	e3560000	 cmp         r6, #0
  000b4	0a000017	 beq         |$LN12@CreateInst@3|
; Line 1887
  000b8	e2860008	 add         r0, r6, #8
  000bc	e5868020	 str         r8, [r6, #0x20]
  000c0	eb000000	 bl          |?Init@CComCriticalSection@ATL@@QAAJXZ|
  000c4	e1b05000	 movs        r5, r0
  000c8	53a03001	 movpl       r3, #1
  000cc	55c6301c	 strplb      r3, [r6, #0x1C]
; Line 1888
  000d0	e3550000	 cmp         r5, #0
  000d4	4a000001	 bmi         |$LN56@CreateInst@3|
; Line 1891
  000d8	e3a05000	 mov         r5, #0
; Line 1893
  000dc	e3550000	 cmp         r5, #0
  000e0		 |$LN56@CreateInst@3|
  000e0	1a000007	 bne         |$LN55@CreateInst@3|
; Line 1894
  000e4	e5963000	 ldr         r3, [r6]
  000e8	e1a02007	 mov         r2, r7
  000ec	e1a01009	 mov         r1, r9
  000f0	e1a00006	 mov         r0, r6
  000f4		 |$M85491|
  000f4	e1a0e00f	 mov         lr, pc
  000f8	e593f000	 ldr         pc, [r3]
  000fc	e1b05000	 movs        r5, r0
; Line 1895
  00100	0a000004	 beq         |$LN12@CreateInst@3|
  00104		 |$LN55@CreateInst@3|
; Line 1896
  00104	e5963000	 ldr         r3, [r6]
  00108	e3a01001	 mov         r1, #1
  0010c	e1a00006	 mov         r0, r6
  00110	e1a0e00f	 mov         lr, pc
  00114	e593f014	 ldr         pc, [r3, #0x14]
  00118		 |$LN12@CreateInst@3|
; Line 1899
  00118	e1a00005	 mov         r0, r5
  0011c	e24bd028	 sub         sp, r11, #0x28
  00120	e89daff0	 ldmia       sp, {r4 - r11, sp, pc}
  00124		 |$M85495|
  00124	00000000	 DCD         |__CxxFrameHandler3|
  00128	00000000	 DCD         |__ehfuncinfo$?CreateInstance@?$CComCreator@V?$CComObjectCached@VCComClassFactory@ATL@@@ATL@@@ATL@@SAJPAXABU_GUID@@PAPAX@Z|
  0012c		 |__catch$85360|
  0012c		 |$M85498|
; Line 1881
  0012c	e59f0000	 ldr         r0, [pc]
  00130	e1a0f00e	 mov         pc, lr
  00134		 |$LN66@CreateInst@3|
  00134		 |$LN67@CreateInst@3|
  00134	00000000	 DCD         |$LN18@CreateInst@3|
  00138		 |$LN68@CreateInst@3|
  00138	00000000	 DCD         |??_7?$CComObjectCached@VCComClassFactory@ATL@@@ATL@@6B@|
  0013c		 |$M85499|

			 ENDP  ; |?CreateInstance@?$CComCreator@V?$CComObjectCached@VCComClassFactory@ATL@@@ATL@@@ATL@@SAJPAXABU_GUID@@PAPAX@Z|, ATL::CComCreator<ATL::CComObjectCached<ATL::CComClassFactory> >::CreateInstance

	EXPORT	|?CreateInstance@?$CComCreator@V?$CComAggObject@VCMangoClass@@@ATL@@@ATL@@SAJPAXABU_GUID@@PAPAX@Z| ; ATL::CComCreator<ATL::CComAggObject<CMangoClass> >::CreateInstance

  00000			 AREA	 |.pdata|, PDATA
|$T85614| DCD	|$LN58@CreateInst@4|
	DCD	0xc0004105

  00000			 AREA	 |.pdata|, PDATA
|$T85617| DCD	|__catch$85518|
	DCD	0xc0000200

  00000			 AREA	 |.pdata|, PDATA
|$T85620| DCD	|__unwind$85519|
	DCD	0x40000702

  00000			 AREA	 |.rdata|, DATA, READONLY
|__unwindtable$?CreateInstance@?$CComCreator@V?$CComAggObject@VCMangoClass@@@ATL@@@ATL@@SAJPAXABU_GUID@@PAPAX@Z| DCD 0xffffffff
	DCD	0x0
	DCD	0x0
	DCD	|__unwind$85519|
	DCD	0xffffffff
	DCD	0x0
|__catchsym$?CreateInstance@?$CComCreator@V?$CComAggObject@VCMangoClass@@@ATL@@@ATL@@SAJPAXABU_GUID@@PAPAX@Z$3| DCD 0x40
	DCD	0x0
	DCD	0x0
	DCD	0x1
	DCD	|__catch$85518|
|__tryblocktable$?CreateInstance@?$CComCreator@V?$CComAggObject@VCMangoClass@@@ATL@@@ATL@@SAJPAXABU_GUID@@PAPAX@Z| DCD 0x0
	DCD	0x1
	DCD	0x0
	DCD	0x1
	DCD	|__catchsym$?CreateInstance@?$CComCreator@V?$CComAggObject@VCMangoClass@@@ATL@@@ATL@@SAJPAXABU_GUID@@PAPAX@Z$3|
|__ehfuncinfo$?CreateInstance@?$CComCreator@V?$CComAggObject@VCMangoClass@@@ATL@@@ATL@@SAJPAXABU_GUID@@PAPAX@Z| DCD 0x19930522
	DCD	0x3
	DCD	|__unwindtable$?CreateInstance@?$CComCreator@V?$CComAggObject@VCMangoClass@@@ATL@@@ATL@@SAJPAXABU_GUID@@PAPAX@Z|
	DCD	0x1
	DCD	|__tryblocktable$?CreateInstance@?$CComCreator@V?$CComAggObject@VCMangoClass@@@ATL@@@ATL@@SAJPAXABU_GUID@@PAPAX@Z|
	DCD	0x5
	DCD	|$T85609|
	DCD	0x0
	DCD	0x1
|$T85609| DCD	|$M85604|
	DCD	0x0
	DCD	|$M85605|
	DCD	0xffffffff
	DCD	|$M85606|
	DCD	0x0
	DCD	|$M85607|
	DCD	0x1
	DCD	|$M85608|
	DCD	0xffffffff
; Function compile flags: /Ogspy

  00000			 AREA	 |.text|, CODE, ARM

  00000	00000000	 DCD         |__CxxFrameHandler3|
  00004	00000000	 DCD         |__ehfuncinfo$?CreateInstance@?$CComCreator@V?$CComAggObject@VCMangoClass@@@ATL@@@ATL@@SAJPAXABU_GUID@@PAPAX@Z|

  00008		 |?CreateInstance@?$CComCreator@V?$CComAggObject@VCMangoClass@@@ATL@@@ATL@@SAJPAXABU_GUID@@PAPAX@Z| PROC ; ATL::CComCreator<ATL::CComAggObject<CMangoClass> >::CreateInstance
; Line 1870
  00008		 |$LN58@CreateInst@4|
  00008	e1a0c00d	 mov         r12, sp
  0000c	e92d0007	 stmdb       sp!, {r0 - r2}
  00010	e92d58f0	 stmdb       sp!, {r4 - r7, r11, r12, lr}
  00014	e28db01c	 add         r11, sp, #0x1C
  00018	e24dd00c	 sub         sp, sp, #0xC
  0001c		 |$M85611|
  0001c	e1b06002	 movs        r6, r2
  00020	e1a07001	 mov         r7, r1
  00024	e58b6008	 str         r6, [r11, #8]
  00028	e58b7004	 str         r7, [r11, #4]
  0002c	e1a05000	 mov         r5, r0
; Line 1872
  00030	03a0310e	 moveq       r3, #0xE, 2
; Line 1873
  00034	03834901	 orreq       r4, r3, #1, 18	; 16384 (0x4000)
  00038		 |$M85604|
  00038	0a000030	 beq         |$LN12@CreateInst@4|
  0003c		 |$M85605|
  0003c	e3a0313a	 mov         r3, #0x3A, 2
; Line 1876
  00040	e3834807	 orr         r4, r3, #7, 16	; 458752 (0x70000)
  00044	e3a03000	 mov         r3, #0
; Line 1877
  00048	e3a02000	 mov         r2, #0
  0004c	e5863000	 str         r3, [r6]
  00050	e50b4028	 str         r4, [r11, #-0x28]
  00054	e50b2024	 str         r2, [r11, #-0x24]
; Line 1881
  00058	e3a0002c	 mov         r0, #0x2C
  0005c		 |$M85606|
  0005c	eb000000	 bl          |??2@YAPAXI@Z|
  00060	e3500000	 cmp         r0, #0
  00064	e50b0020	 str         r0, [r11, #-0x20]
  00068	0a000003	 beq         |$LN10@CreateInst@4|
  0006c	e1a01005	 mov         r1, r5
  00070		 |$M85607|
  00070	eb000000	 bl          |??0?$CComAggObject@VCMangoClass@@@ATL@@QAA@PAX@Z|
  00074	e1a05000	 mov         r5, r0
  00078	ea000000	 b           |$LN11@CreateInst@4|
  0007c		 |$LN10@CreateInst@4|
  0007c	e3a05000	 mov         r5, #0
  00080		 |$LN11@CreateInst@4|
  00080	ea000003	 b           |$LN17@CreateInst@4|
  00084		 |$LN18@CreateInst@4|
  00084	e59b6008	 ldr         r6, [r11, #8]
  00088	e59b7004	 ldr         r7, [r11, #4]
  0008c	e51b4028	 ldr         r4, [r11, #-0x28]
  00090	e51b5024	 ldr         r5, [r11, #-0x24]
  00094		 |$LN17@CreateInst@4|
; Line 1883
  00094	e3550000	 cmp         r5, #0
  00098	0a000018	 beq         |$LN12@CreateInst@4|
; Line 1887
  0009c	e2850014	 add         r0, r5, #0x14
  000a0	eb000000	 bl          |?Init@CComCriticalSection@ATL@@QAAJXZ|
  000a4	e1b04000	 movs        r4, r0
  000a8	53a03001	 movpl       r3, #1
  000ac	55c53028	 strplb      r3, [r5, #0x28]
  000b0	e3540000	 cmp         r4, #0
  000b4	4a000003	 bmi         |$LN50@CreateInst@4|
  000b8	e3a04000	 mov         r4, #0
; Line 1888
  000bc	e3540000	 cmp         r4, #0
; Line 1891
  000c0	53a04000	 movpl       r4, #0
; Line 1893
  000c4	e3540000	 cmp         r4, #0
  000c8		 |$LN50@CreateInst@4|
  000c8	1a000007	 bne         |$LN48@CreateInst@4|
; Line 1894
  000cc	e5953000	 ldr         r3, [r5]
  000d0	e1a02006	 mov         r2, r6
  000d4	e1a01007	 mov         r1, r7
  000d8	e1a00005	 mov         r0, r5
  000dc		 |$M85608|
  000dc	e1a0e00f	 mov         lr, pc
  000e0	e593f000	 ldr         pc, [r3]
  000e4	e1b04000	 movs        r4, r0
; Line 1895
  000e8	0a000004	 beq         |$LN12@CreateInst@4|
  000ec		 |$LN48@CreateInst@4|
; Line 1896
  000ec	e5953000	 ldr         r3, [r5]
  000f0	e3a01001	 mov         r1, #1
  000f4	e1a00005	 mov         r0, r5
  000f8	e1a0e00f	 mov         lr, pc
  000fc	e593f00c	 ldr         pc, [r3, #0xC]
  00100		 |$LN12@CreateInst@4|
; Line 1899
  00100	e1a00004	 mov         r0, r4
  00104	e24bd01c	 sub         sp, r11, #0x1C
  00108	e89da8f0	 ldmia       sp, {r4 - r7, r11, sp, pc}
  0010c		 |$M85612|
  0010c	00000000	 DCD         |__CxxFrameHandler3|
  00110	00000000	 DCD         |__ehfuncinfo$?CreateInstance@?$CComCreator@V?$CComAggObject@VCMangoClass@@@ATL@@@ATL@@SAJPAXABU_GUID@@PAPAX@Z|
  00114		 |__catch$85518|
  00114		 |$M85615|
; Line 1881
  00114	e59f0018	 ldr         r0, [pc, #0x18]
  00118	e1a0f00e	 mov         pc, lr
  0011c		 |$M85616|
  0011c		 |__unwind$85519|
; Line 1899
  0011c	e52de004	 str         lr, [sp, #-4]!
  00120	e24bb00c	 sub         r11, r11, #0xC
  00124		 |$M85618|
  00124	e51b0020	 ldr         r0, [r11, #-0x20]
  00128	eb000000	 bl          |??3@YAXPAX@Z|
  0012c	e28bb00c	 add         r11, r11, #0xC
  00130	e8bd8000	 ldmia       sp!, {pc}
  00134		 |$LN63@CreateInst@4|
  00134		 |$LN64@CreateInst@4|
  00134	00000000	 DCD         |$LN18@CreateInst@4|
  00138		 |$M85619|

			 ENDP  ; |?CreateInstance@?$CComCreator@V?$CComAggObject@VCMangoClass@@@ATL@@@ATL@@SAJPAXABU_GUID@@PAPAX@Z|, ATL::CComCreator<ATL::CComAggObject<CMangoClass> >::CreateInstance

	EXPORT	|__$ArrayPad$| [ DATA ]
	EXPORT	|?RegisterBuffer@CRegParser@ATL@@QAAJPA_WH@Z| ; ATL::CRegParser::RegisterBuffer
; File c:\program files (x86)\microsoft visual studio 9.0\vc\ce\atlmfc\include\statreg.h

  00000			 AREA	 |.pdata|, PDATA
|$T85661| DCD	|$LN30@RegisterBu|
	DCD	0xc0005303

  00000			 AREA	 |.xdata|, DATA
|$T85657| DCD	0xffffffdc
; Function compile flags: /Ogspy

  00000			 AREA	 |.text|, CODE, ARM

  00000	00000000	 DCD         |__GSHandlerCheck|
  00004	00000000	 DCD         |$T85657|

  00008		 |?RegisterBuffer@CRegParser@ATL@@QAAJPA_WH@Z| PROC ; ATL::CRegParser::RegisterBuffer
; Line 1239
  00008		 |$LN30@RegisterBu|
  00008	e92d47f0	 stmdb       sp!, {r4 - r10, lr}
  0000c	e59fc13c	 ldr         r12, [pc, #0x13C]
  00010	e08dd00c	 add         sp, sp, r12
  00014		 |$M85658|
  00014	e1a09002	 mov         r9, r2
  00018	e1a05000	 mov         r5, r0
  0001c	e59f3128	 ldr         r3, [pc, #0x128]
  00020	e5933000	 ldr         r3, [r3]
  00024	e28dca02	 add         r12, sp, #2, 20	; 8192 (0x2000)
  00028	e58c3008	 str         r3, [r12, #8]
; Line 1243
  0002c	e3a03000	 mov         r3, #0
; Line 1244
  00030	e28d2004	 add         r2, sp, #4
  00034	e58d3004	 str         r3, [sp, #4]
  00038	eb000000	 bl          |?PreProcessBuffer@CRegParser@ATL@@QAAJPA_WPAPA_W@Z|
  0003c	e1b04000	 movs        r4, r0
; Line 1246
  00040	4a000039	 bmi         |$LN27@RegisterBu|
; Line 1250
  00044	e59d6004	 ldr         r6, [sp, #4]
  00048	e5856000	 str         r6, [r5]
; Line 1254
  0004c	e1d630b0	 ldrh        r3, [r6]
  00050	e3530000	 cmp         r3, #0
  00054	0a000032	 beq         |$LN24@RegisterBu|
  00058	e3a0a000	 mov         r10, #0
  0005c		 |$LL10@RegisterBu|
; Line 1256
  0005c	e28d1008	 add         r1, sp, #8
  00060	e1a00005	 mov         r0, r5
  00064	eb000000	 bl          |?NextToken@CRegParser@ATL@@IAAJPA_W@Z|
  00068	e1b04000	 movs        r4, r0
  0006c	4a00002c	 bmi         |$LN24@RegisterBu|
; Line 1259
  00070	e28d0008	 add         r0, sp, #8
  00074	eb000000	 bl          |?HKeyFromString@CRegParser@ATL@@KAPAUHKEY__@@PA_W@Z|
  00078	e1b07000	 movs        r7, r0
  0007c	0a000026	 beq         |$LN20@RegisterBu|
; Line 1266
  00080	e28d1008	 add         r1, sp, #8
  00084	e1a00005	 mov         r0, r5
  00088	eb000000	 bl          |?NextToken@CRegParser@ATL@@IAAJPA_W@Z|
  0008c	e1b04000	 movs        r4, r0
  00090	4a000023	 bmi         |$LN24@RegisterBu|
; Line 1269
  00094	e1dd30b8	 ldrh        r3, [sp, #8]
  00098	e353007b	 cmp         r3, #0x7B
  0009c	1a00001e	 bne         |$LN20@RegisterBu|
; Line 1275
  000a0	e3590000	 cmp         r9, #0
; Line 1278
  000a4	e1a02007	 mov         r2, r7
  000a8	e28d1008	 add         r1, sp, #8
  000ac	e1a00005	 mov         r0, r5
  000b0	0a00000d	 beq         |$LN4@RegisterBu|
  000b4	e5958000	 ldr         r8, [r5]
  000b8	e1a03009	 mov         r3, r9
  000bc	e58da000	 str         r10, [sp]
  000c0	eb000000	 bl          |?RegisterSubkeys@CRegParser@ATL@@IAAJPA_WPAUHKEY__@@HH@Z|
  000c4	e1b04000	 movs        r4, r0
; Line 1279
  000c8	5a00000c	 bpl         |$LN1@RegisterBu|
; Line 1283
  000cc	e3a03000	 mov         r3, #0
  000d0	e1a02007	 mov         r2, r7
  000d4	e28d1008	 add         r1, sp, #8
  000d8	e1a00005	 mov         r0, r5
  000dc	e5858000	 str         r8, [r5]
  000e0	e58da000	 str         r10, [sp]
  000e4	eb000000	 bl          |?RegisterSubkeys@CRegParser@ATL@@IAAJPA_WPAUHKEY__@@HH@Z|
  000e8	ea00000d	 b           |$LN24@RegisterBu|
  000ec		 |$LN4@RegisterBu|
; Line 1289
  000ec	e3a03000	 mov         r3, #0
  000f0	e58da000	 str         r10, [sp]
  000f4	eb000000	 bl          |?RegisterSubkeys@CRegParser@ATL@@IAAJPA_WPAUHKEY__@@HH@Z|
  000f8	e1b04000	 movs        r4, r0
  000fc	4a000008	 bmi         |$LN24@RegisterBu|
  00100		 |$LN1@RegisterBu|
; Line 1293
  00100	e1a00005	 mov         r0, r5
  00104	eb000000	 bl          |?SkipWhiteSpace@CRegParser@ATL@@IAAXXZ|
  00108	e5953000	 ldr         r3, [r5]
  0010c	e1d330b0	 ldrh        r3, [r3]
  00110	e3530000	 cmp         r3, #0
  00114	1affffd0	 bne         |$LL10@RegisterBu|
  00118	ea000001	 b           |$LN24@RegisterBu|
  0011c		 |$LN20@RegisterBu|
; Line 1273
  0011c	e3a03126	 mov         r3, #0x26, 2
  00120	e3834802	 orr         r4, r3, #2, 16	; 131072 (0x20000)
; Line 1283
  00124		 |$LN24@RegisterBu|
; Line 1295
  00124	e1a00006	 mov         r0, r6
  00128	eb000000	 bl          CoTaskMemFree
  0012c		 |$LN27@RegisterBu|
; Line 1296
  0012c	e28d0a02	 add         r0, sp, #2, 20	; 8192 (0x2000)
  00130	e5900008	 ldr         r0, [r0, #8]
  00134	eb000000	 bl          __security_check_cookie
; Line 1297
  00138	e1a00004	 mov         r0, r4
  0013c	e3a0ca02	 mov         r12, #2, 20
  00140	e38cc00c	 orr         r12, r12, #0xC
  00144	e08dd00c	 add         sp, sp, r12
  00148	e8bd87f0	 ldmia       sp!, {r4 - r10, pc}
  0014c		 |$LN31@RegisterBu|
  0014c		 |$LN32@RegisterBu|
  0014c	00000000	 DCD         |__security_cookie|
  00150		 |$LN33@RegisterBu|
  00150	ffffdff4	 DCD         0xffffdff4
  00154		 |$M85659|

			 ENDP  ; |?RegisterBuffer@CRegParser@ATL@@QAAJPA_WH@Z|, ATL::CRegParser::RegisterBuffer

	EXPORT	|?GetBuffer@?$CSimpleStringT@_W$0A@@ATL@@QAAPA_WH@Z| ; ATL::CSimpleStringT<wchar_t,0>::GetBuffer
; File c:\program files (x86)\microsoft visual studio 9.0\vc\ce\atlmfc\include\atlsimpstr.h

  00000			 AREA	 |.pdata|, PDATA
|$T85690| DCD	|$LN10@GetBuffer|
	DCD	0x40000c01
; Function compile flags: /Ogspy

  00000			 AREA	 |.text|, CODE, ARM

  00000		 |?GetBuffer@?$CSimpleStringT@_W$0A@@ATL@@QAAPA_WH@Z| PROC ; ATL::CSimpleStringT<wchar_t,0>::GetBuffer
; Line 519
  00000		 |$LN10@GetBuffer|
  00000	e92d4010	 stmdb       sp!, {r4, lr}
  00004		 |$M85687|
  00004	e1a04000	 mov         r4, r0
; Line 520
  00008	e5943000	 ldr         r3, [r4]
  0000c	e2433010	 sub         r3, r3, #0x10
  00010	e5932008	 ldr         r2, [r3, #8]
  00014	e593300c	 ldr         r3, [r3, #0xC]
  00018	e0422001	 sub         r2, r2, r1
  0001c	e2633001	 rsb         r3, r3, #1
  00020	e1923003	 orrs        r3, r2, r3
  00024	4b000000	 blmi        |?PrepareWrite2@?$CSimpleStringT@_W$0A@@ATL@@AAAXH@Z|
  00028	e5940000	 ldr         r0, [r4]
; Line 521
  0002c	e8bd8010	 ldmia       sp!, {r4, pc}
  00030		 |$M85688|

			 ENDP  ; |?GetBuffer@?$CSimpleStringT@_W$0A@@ATL@@QAAPA_WH@Z|, ATL::CSimpleStringT<wchar_t,0>::GetBuffer

; File c:\program files (x86)\microsoft visual studio 9.0\vc\ce\atlmfc\include\atlcom.h

  00000			 AREA	 |.pdata|, PDATA
|$T85704| DCD	|$LN7@CreateInst@5|
	DCD	0x40000400
; Function compile flags: /Ogspy

  00000			 AREA	 |.text|, CODE, ARM

  00000		 |?CreateInstance@?$CComCreator2@V?$CComCreator@V?$CComObject@VCMangoClass@@@ATL@@@ATL@@V?$CComCreator@V?$CComAggObject@VCMangoClass@@@ATL@@@2@@ATL@@SAJPAXABU_GUID@@PAPAX@Z| PROC ; ATL::CComCreator2<ATL::CComCreator<ATL::CComObject<CMangoClass> >,ATL::CComCreator<ATL::CComAggObject<CMangoClass> > >::CreateInstance
; Line 1957
  00000		 |$LN7@CreateInst@5|
  00000		 |$M85701|
  00000	e3500000	 cmp         r0, #0
; Line 1962
  00004	03a00000	 moveq       r0, #0
  00008	0a000000	 beq         |?CreateInstance@?$CComCreator@V?$CComObject@VCMangoClass@@@ATL@@@ATL@@SAJPAXABU_GUID@@PAPAX@Z|
  0000c	ea000000	 b           |?CreateInstance@?$CComCreator@V?$CComAggObject@VCMangoClass@@@ATL@@@ATL@@SAJPAXABU_GUID@@PAPAX@Z|
  00010		 |$M85702|

			 ENDP  ; |?CreateInstance@?$CComCreator2@V?$CComCreator@V?$CComObject@VCMangoClass@@@ATL@@@ATL@@V?$CComCreator@V?$CComAggObject@VCMangoClass@@@ATL@@@2@@ATL@@SAJPAXABU_GUID@@PAPAX@Z|, ATL::CComCreator2<ATL::CComCreator<ATL::CComObject<CMangoClass> >,ATL::CComCreator<ATL::CComAggObject<CMangoClass> > >::CreateInstance

	EXPORT	|?SetString@?$CSimpleStringT@_W$0A@@ATL@@QAAXPB_WH@Z| ; ATL::CSimpleStringT<wchar_t,0>::SetString
; File c:\program files (x86)\microsoft visual studio 9.0\vc\ce\atlmfc\include\atlsimpstr.h

  00000			 AREA	 |.pdata|, PDATA
|$T85786| DCD	|$LN39@SetString|
	DCD	0x40002701
; Function compile flags: /Ogspy

  00000			 AREA	 |.text|, CODE, ARM

  00000		 |?SetString@?$CSimpleStringT@_W$0A@@ATL@@QAAXPB_WH@Z| PROC ; ATL::CSimpleStringT<wchar_t,0>::SetString
; Line 615
  00000		 |$LN39@SetString|
  00000	e92d41f0	 stmdb       sp!, {r4 - r8, lr}
  00004		 |$M85783|
  00004	e1b05002	 movs        r5, r2
  00008	e1a06001	 mov         r6, r1
  0000c	e1a04000	 mov         r4, r0
; Line 616
  00010	08bd41f0	 ldmeqia     sp!, {r4 - r8, lr}
; Line 618
  00014	0a000000	 beq         |?Empty@?$CSimpleStringT@_W$0A@@ATL@@QAAXXZ|
; Line 628
  00018	e3560000	 cmp         r6, #0
  0001c	1a000001	 bne         |$LN3@SetString|
; Line 629
  00020	e59f0070	 ldr         r0, [pc, #0x70]	; -2147024809 (0x80070057)
  00024	eb000000	 bl          |?AtlThrowImpl@ATL@@YAXJ@Z|
  00028		 |$LN40@SetString|
  00028		 |$LN3@SetString|
; Line 631
  00028	e5940000	 ldr         r0, [r4]
  0002c	e2403010	 sub         r3, r0, #0x10
; Line 636
  00030	e5932008	 ldr         r2, [r3, #8]
  00034	e593300c	 ldr         r3, [r3, #0xC]
  00038	e0461000	 sub         r1, r6, r0
  0003c	e0422005	 sub         r2, r2, r5
  00040	e2633001	 rsb         r3, r3, #1
  00044	e510800c	 ldr         r8, [r0, #-0xC]
  00048	e1923003	 orrs        r3, r2, r3
  0004c	e1a070c1	 mov         r7, r1, asr #1
  00050	41a01005	 movmi       r1, r5
  00054	41a00004	 movmi       r0, r4
  00058	4b000000	 blmi        |?PrepareWrite2@?$CSimpleStringT@_W$0A@@ATL@@AAAXH@Z|
  0005c	e5940000	 ldr         r0, [r4]
; Line 637
  00060	e1570008	 cmp         r7, r8
; Line 640
  00064	e1a03085	 mov         r3, r5, lsl #1
  00068	e5101008	 ldr         r1, [r0, #-8]
  0006c	e1a01081	 mov         r1, r1, lsl #1
  00070	8a000002	 bhi         |$LN2@SetString|
  00074	e0802087	 add         r2, r0, r7, lsl #1
  00078	eb000000	 bl          memmove_s
; Line 642
  0007c	ea000001	 b           |$LN31@SetString|
  00080		 |$LN2@SetString|
; Line 644
  00080	e1a02006	 mov         r2, r6
  00084	eb000000	 bl          memcpy_s
  00088		 |$LN31@SetString|
; Line 646
  00088	e1a01005	 mov         r1, r5
  0008c	e1a00004	 mov         r0, r4
  00090	e8bd41f0	 ldmia       sp!, {r4 - r8, lr}
  00094	ea000000	 b           |?SetLength@?$CSimpleStringT@_W$0A@@ATL@@AAAXH@Z|
  00098		 |$LN41@SetString|
  00098		 |$LN42@SetString|
  00098	80070057	 DCD         0x80070057
  0009c		 |$LN36@SetString|
  0009c		 |$M85784|

			 ENDP  ; |?SetString@?$CSimpleStringT@_W$0A@@ATL@@QAAXPB_WH@Z|, ATL::CSimpleStringT<wchar_t,0>::SetString

	EXPORT	|?SetString@?$CSimpleStringT@_W$0A@@ATL@@QAAXPB_W@Z| ; ATL::CSimpleStringT<wchar_t,0>::SetString

  00000			 AREA	 |.pdata|, PDATA
|$T85804| DCD	|$LN8@SetString@2|
	DCD	0x40000b01
; Function compile flags: /Ogspy

  00000			 AREA	 |.text|, CODE, ARM

  00000		 |?SetString@?$CSimpleStringT@_W$0A@@ATL@@QAAXPB_W@Z| PROC ; ATL::CSimpleStringT<wchar_t,0>::SetString
; Line 611
  00000		 |$LN8@SetString@2|
  00000	e92d4030	 stmdb       sp!, {r4, r5, lr}
  00004		 |$M85801|
  00004	e1b04001	 movs        r4, r1
  00008	e1a05000	 mov         r5, r0
; Line 612
  0000c	03a00000	 moveq       r0, #0
  00010	11a00004	 movne       r0, r4
  00014	1b000000	 blne        wcslen
  00018	e1a02000	 mov         r2, r0
  0001c	e1a00005	 mov         r0, r5
  00020	e1a01004	 mov         r1, r4
  00024	e8bd4030	 ldmia       sp!, {r4, r5, lr}
  00028	ea000000	 b           |?SetString@?$CSimpleStringT@_W$0A@@ATL@@QAAXPB_WH@Z|
  0002c		 |$M85802|

			 ENDP  ; |?SetString@?$CSimpleStringT@_W$0A@@ATL@@QAAXPB_W@Z|, ATL::CSimpleStringT<wchar_t,0>::SetString

	EXPORT	|?LoadStringW@?$CStringT@_WV?$StrTraitATL@_WV?$ChTraitsOS@_W@ATL@@@ATL@@@ATL@@QAAHPAUHINSTANCE__@@I@Z| ; ATL::CStringT<wchar_t,ATL::StrTraitATL<wchar_t,ATL::ChTraitsOS<wchar_t> > >::LoadStringW

  00000			 AREA	 |.pdata|, PDATA
|$T85849| DCD	|$LN17@LoadString|
	DCD	0x40001e01
; Function compile flags: /Ogspy

  00000			 AREA	 |.text|, CODE, ARM

  00000		 |?LoadStringW@?$CStringT@_WV?$StrTraitATL@_WV?$ChTraitsOS@_W@ATL@@@ATL@@@ATL@@QAAHPAUHINSTANCE__@@I@Z| PROC ; ATL::CStringT<wchar_t,ATL::StrTraitATL<wchar_t,ATL::ChTraitsOS<wchar_t> > >::LoadStringW
; File c:\program files (x86)\microsoft visual studio 9.0\vc\ce\atlmfc\include\cstringt.h
; Line 2030
  00000		 |$LN17@LoadString|
  00000	e92d4070	 stmdb       sp!, {r4 - r6, lr}
  00004		 |$M85846|
  00004	e1a03001	 mov         r3, r1
  00008	e1a04000	 mov         r4, r0
; Line 2031
  0000c	e1a01002	 mov         r1, r2
  00010	e1a00003	 mov         r0, r3
  00014	eb000000	 bl          |?AtlGetStringResourceImage@ATL@@YAPBUATLSTRINGRESOURCEIMAGE@1@PAUHINSTANCE__@@I@Z|
  00018	e1b06000	 movs        r6, r0
; Line 2034
  0001c	03a00000	 moveq       r0, #0
; Line 2043
  00020	08bd8070	 ldmeqia     sp!, {r4 - r6, pc}
; Line 2038
  00024	e5943000	 ldr         r3, [r4]
  00028	e1d650b0	 ldrh        r5, [r6]
  0002c	e2433010	 sub         r3, r3, #0x10
  00030	e5932008	 ldr         r2, [r3, #8]
  00034	e593300c	 ldr         r3, [r3, #0xC]
  00038	e0422005	 sub         r2, r2, r5
  0003c	e2633001	 rsb         r3, r3, #1
  00040	e1923003	 orrs        r3, r2, r3
  00044	41a01005	 movmi       r1, r5
  00048	41a00004	 movmi       r0, r4
  0004c	4b000000	 blmi        |?PrepareWrite2@?$CSimpleStringT@_W$0A@@ATL@@AAAXH@Z|
; Line 2039
  00050	e0d630b2	 ldrh        r3, [r6], #2
  00054	e5940000	 ldr         r0, [r4]
  00058	e1a01005	 mov         r1, r5
  0005c	e1a02006	 mov         r2, r6
  00060	eb000000	 bl          |?ConvertToBaseType@?$ChTraitsOS@_W@ATL@@SAXPA_WHPB_WH@Z|
; Line 2040
  00064	e1a01005	 mov         r1, r5
  00068	e1a00004	 mov         r0, r4
  0006c	eb000000	 bl          |?SetLength@?$CSimpleStringT@_W$0A@@ATL@@AAAXH@Z|
; Line 2042
  00070	e3a00001	 mov         r0, #1
; Line 2043
  00074	e8bd8070	 ldmia       sp!, {r4 - r6, pc}
  00078		 |$M85847|

			 ENDP  ; |?LoadStringW@?$CStringT@_WV?$StrTraitATL@_WV?$ChTraitsOS@_W@ATL@@@ATL@@@ATL@@QAAHPAUHINSTANCE__@@I@Z|, ATL::CStringT<wchar_t,ATL::StrTraitATL<wchar_t,ATL::ChTraitsOS<wchar_t> > >::LoadStringW

	EXPORT	|?AppendFormatV@?$CStringT@_WV?$StrTraitATL@_WV?$ChTraitsOS@_W@ATL@@@ATL@@@ATL@@QAAXPB_WPAD@Z| ; ATL::CStringT<wchar_t,ATL::StrTraitATL<wchar_t,ATL::ChTraitsOS<wchar_t> > >::AppendFormatV
; File c:\program files (x86)\microsoft visual studio 9.0\vc\ce\atlmfc\include\atlsimpstr.h

  00000			 AREA	 |.pdata|, PDATA
|$T85900| DCD	|$LN18@AppendForm|
	DCD	0x40001f01
; Function compile flags: /Ogspy

  00000			 AREA	 |.text|, CODE, ARM

  00000		 |?AppendFormatV@?$CStringT@_WV?$StrTraitATL@_WV?$ChTraitsOS@_W@ATL@@@ATL@@@ATL@@QAAXPB_WPAD@Z| PROC ; ATL::CStringT<wchar_t,ATL::StrTraitATL<wchar_t,ATL::ChTraitsOS<wchar_t> > >::AppendFormatV
; File c:\program files (x86)\microsoft visual studio 9.0\vc\ce\atlmfc\include\cstringt.h
; Line 1897
  00000		 |$LN18@AppendForm|
  00000	e92d43f0	 stmdb       sp!, {r4 - r9, lr}
  00004		 |$M85897|
  00004	e1a06002	 mov         r6, r2
  00008	e1a07001	 mov         r7, r1
  0000c	e1a04000	 mov         r4, r0
; Line 1900
  00010	e5943000	 ldr         r3, [r4]
; Line 1901
  00014	e1a01006	 mov         r1, r6
  00018	e1a00007	 mov         r0, r7
  0001c	e513800c	 ldr         r8, [r3, #-0xC]
  00020	eb000000	 bl          |?GetFormattedLength@?$ChTraitsOS@_W@ATL@@SAHPB_WPAD@Z|
; Line 1902
  00024	e5943000	 ldr         r3, [r4]
  00028	e1a09000	 mov         r9, r0
  0002c	e0895008	 add         r5, r9, r8
  00030	e2433010	 sub         r3, r3, #0x10
  00034	e593e008	 ldr         lr, [r3, #8]
  00038	e593300c	 ldr         r3, [r3, #0xC]
  0003c	e04ee005	 sub         lr, lr, r5
  00040	e2633001	 rsb         r3, r3, #1
  00044	e19e3003	 orrs        r3, lr, r3
  00048	41a01005	 movmi       r1, r5
  0004c	41a00004	 movmi       r0, r4
  00050	4b000000	 blmi        |?PrepareWrite2@?$CSimpleStringT@_W$0A@@ATL@@AAAXH@Z|
; Line 1904
  00054	e594e000	 ldr         lr, [r4]
  00058	e1a03006	 mov         r3, r6
  0005c	e1a02007	 mov         r2, r7
  00060	e08e0088	 add         r0, lr, r8, lsl #1
  00064	e2891001	 add         r1, r9, #1
  00068	eb000000	 bl          |?Format@?$ChTraitsOS@_W@ATL@@SAHPA_WIPB_WPAD@Z|
; Line 1905
  0006c	e1a01005	 mov         r1, r5
  00070	e1a00004	 mov         r0, r4
  00074	e8bd43f0	 ldmia       sp!, {r4 - r9, lr}
  00078	ea000000	 b           |?SetLength@?$CSimpleStringT@_W$0A@@ATL@@AAAXH@Z|
  0007c		 |$M85898|

			 ENDP  ; |?AppendFormatV@?$CStringT@_WV?$StrTraitATL@_WV?$ChTraitsOS@_W@ATL@@@ATL@@@ATL@@QAAXPB_WPAD@Z|, ATL::CStringT<wchar_t,ATL::StrTraitATL<wchar_t,ATL::ChTraitsOS<wchar_t> > >::AppendFormatV

	EXPORT	|?FormatV@?$CStringT@_WV?$StrTraitATL@_WV?$ChTraitsOS@_W@ATL@@@ATL@@@ATL@@QAAXPB_WPAD@Z| ; ATL::CStringT<wchar_t,ATL::StrTraitATL<wchar_t,ATL::ChTraitsOS<wchar_t> > >::FormatV
; File c:\program files (x86)\microsoft visual studio 9.0\vc\ce\atlmfc\include\atlsimpstr.h

  00000			 AREA	 |.pdata|, PDATA
|$T85941| DCD	|$LN17@FormatV|
	DCD	0x40001f01
; Function compile flags: /Ogspy

  00000			 AREA	 |.text|, CODE, ARM

  00000		 |?FormatV@?$CStringT@_WV?$StrTraitATL@_WV?$ChTraitsOS@_W@ATL@@@ATL@@@ATL@@QAAXPB_WPAD@Z| PROC ; ATL::CStringT<wchar_t,ATL::StrTraitATL<wchar_t,ATL::ChTraitsOS<wchar_t> > >::FormatV
; File c:\program files (x86)\microsoft visual studio 9.0\vc\ce\atlmfc\include\cstringt.h
; Line 1909
  00000		 |$LN17@FormatV|
  00000	e92d40f0	 stmdb       sp!, {r4 - r7, lr}
  00004		 |$M85938|
  00004	e1a06002	 mov         r6, r2
  00008	e1b07001	 movs        r7, r1
  0000c	e1a04000	 mov         r4, r0
; Line 1911
  00010	1a000001	 bne         |$LN1@FormatV|
; Line 1912
  00014	e59f005c	 ldr         r0, [pc, #0x5C]	; -2147024809 (0x80070057)
  00018	eb000000	 bl          |?AtlThrowImpl@ATL@@YAXJ@Z|
  0001c		 |$LN18@FormatV|
  0001c		 |$LN1@FormatV|
; Line 1914
  0001c	e1a01006	 mov         r1, r6
  00020	e1a00007	 mov         r0, r7
  00024	eb000000	 bl          |?GetFormattedLength@?$ChTraitsOS@_W@ATL@@SAHPB_WPAD@Z|
; Line 1915
  00028	e5943000	 ldr         r3, [r4]
  0002c	e1a05000	 mov         r5, r0
  00030	e2433010	 sub         r3, r3, #0x10
  00034	e5932008	 ldr         r2, [r3, #8]
  00038	e593300c	 ldr         r3, [r3, #0xC]
  0003c	e0422005	 sub         r2, r2, r5
  00040	e2633001	 rsb         r3, r3, #1
  00044	e1923003	 orrs        r3, r2, r3
  00048	41a01005	 movmi       r1, r5
  0004c	41a00004	 movmi       r0, r4
  00050	4b000000	 blmi        |?PrepareWrite2@?$CSimpleStringT@_W$0A@@ATL@@AAAXH@Z|
; Line 1916
  00054	e5940000	 ldr         r0, [r4]
  00058	e1a03006	 mov         r3, r6
  0005c	e1a02007	 mov         r2, r7
  00060	e2851001	 add         r1, r5, #1
  00064	eb000000	 bl          |?Format@?$ChTraitsOS@_W@ATL@@SAHPA_WIPB_WPAD@Z|
; Line 1917
  00068	e1a01005	 mov         r1, r5
  0006c	e1a00004	 mov         r0, r4
  00070	e8bd40f0	 ldmia       sp!, {r4 - r7, lr}
  00074	ea000000	 b           |?SetLength@?$CSimpleStringT@_W$0A@@ATL@@AAAXH@Z|
  00078		 |$LN19@FormatV|
  00078		 |$LN20@FormatV|
  00078	80070057	 DCD         0x80070057
  0007c		 |$LN14@FormatV|
  0007c		 |$M85939|

			 ENDP  ; |?FormatV@?$CStringT@_WV?$StrTraitATL@_WV?$ChTraitsOS@_W@ATL@@@ATL@@@ATL@@QAAXPB_WPAD@Z|, ATL::CStringT<wchar_t,ATL::StrTraitATL<wchar_t,ATL::ChTraitsOS<wchar_t> > >::FormatV

	EXPORT	|__$ArrayPad$| [ DATA ]
	EXPORT	|?RegisterFromResource@CRegObject@ATL@@IAAJPB_W00H@Z| ; ATL::CRegObject::RegisterFromResource
	IMPORT	|MultiByteToWideChar|
	IMPORT	|LoadLibraryExW|
; File c:\program files (x86)\microsoft visual studio 9.0\vc\ce\atlmfc\include\atlalloc.h

  00000			 AREA	 |.pdata|, PDATA
|$T86054| DCD	|$LN72@RegisterFr|
	DCD	0xc0006f05

  00000			 AREA	 |.pdata|, PDATA
|$T86057| DCD	|__catch$85951|
	DCD	0xc0000200

  00000			 AREA	 |.pdata|, PDATA
|$T86060| DCD	|__unwind$85952|
	DCD	0x40000802

  00000			 AREA	 |.pdata|, PDATA
|$T86063| DCD	|__unwind$85953|
	DCD	0x40000b02

  00000			 AREA	 |.rdata|, DATA, READONLY
|__unwindtable$?RegisterFromResource@CRegObject@ATL@@IAAJPB_W00H@Z| DCD 0xffffffff
	DCD	|__unwind$85952|
	DCD	0x0
	DCD	|__unwind$85953|
	DCD	0x1
	DCD	0x0
	DCD	0xffffffff
	DCD	0x0
|__catchsym$?RegisterFromResource@CRegObject@ATL@@IAAJPB_W00H@Z$9| DCD 0x40
	DCD	0x0
	DCD	0x0
	DCD	0x1
	DCD	|__catch$85951|
|__tryblocktable$?RegisterFromResource@CRegObject@ATL@@IAAJPB_W00H@Z| DCD 0x2
	DCD	0x2
	DCD	0x0
	DCD	0x1
	DCD	|__catchsym$?RegisterFromResource@CRegObject@ATL@@IAAJPB_W00H@Z$9|
|__ehfuncinfo$?RegisterFromResource@CRegObject@ATL@@IAAJPB_W00H@Z| DCD 0x19930522
	DCD	0x4
	DCD	|__unwindtable$?RegisterFromResource@CRegObject@ATL@@IAAJPB_W00H@Z|
	DCD	0x1
	DCD	|__tryblocktable$?RegisterFromResource@CRegObject@ATL@@IAAJPB_W00H@Z|
	DCD	0x5
	DCD	|$T86049|
	DCD	0x0
	DCD	0x1
	DCD	0xffffffe0
|$T86049| DCD	|$M86044|
	DCD	0x2
	DCD	|$M86045|
	DCD	0x0
	DCD	|$M86046|
	DCD	0x2
	DCD	|$M86047|
	DCD	0x1
	DCD	|$M86048|
	DCD	0xffffffff
; Function compile flags: /Ogspy

  00000			 AREA	 |.text|, CODE, ARM

  00000	00000000	 DCD         |__GSHandlerCheck_EH|
  00004	00000000	 DCD         |__ehfuncinfo$?RegisterFromResource@CRegObject@ATL@@IAAJPB_W00H@Z|

  00008		 |?RegisterFromResource@CRegObject@ATL@@IAAJPB_W00H@Z| PROC ; ATL::CRegObject::RegisterFromResource
; File c:\program files (x86)\microsoft visual studio 9.0\vc\ce\atlmfc\include\statreg.h
; Line 368
  00008		 |$LN72@RegisterFr|
  00008	e1a0c00d	 mov         r12, sp
  0000c	e92d58f0	 stmdb       sp!, {r4 - r7, r11, r12, lr}
  00010	e28db01c	 add         r11, sp, #0x1C
  00014	e59fc200	 ldr         r12, [pc, #0x200]
  00018	e08dd00c	 add         sp, sp, r12
  0001c		 |$M86051|
  0001c	e1a06003	 mov         r6, r3
  00020	e1a07002	 mov         r7, r2
  00024	e1a04000	 mov         r4, r0
  00028	e59fe1e8	 ldr         lr, [pc, #0x1E8]
  0002c	e59ee000	 ldr         lr, [lr]
  00030	e50be020	 str         lr, [r11, #-0x20]
; Line 369
  00034	e3a03000	 mov         r3, #0
  00038	e50b3428	 str         r3, [r11, #-0x428]
  0003c	e1a00001	 mov         r0, r1
; Line 372
  00040	e3a03000	 mov         r3, #0
; Line 378
  00044	e3a02000	 mov         r2, #0
  00048	e50b3430	 str         r3, [r11, #-0x430]
  0004c	e50b2424	 str         r2, [r11, #-0x424]
  00050	e50b442c	 str         r4, [r11, #-0x42C]
; Line 388
  00054	e3a02002	 mov         r2, #2
  00058	e3a01000	 mov         r1, #0
  0005c	eb000000	 bl          LoadLibraryExW
  00060	e1b05000	 movs        r5, r0
  00064	e50b5438	 str         r5, [r11, #-0x438]
; Line 390
  00068	1a000002	 bne         |$LN13@RegisterFr|
; Line 393
  0006c	eb000000	 bl          |?AtlHresultFromLastError@ATL@@YAJXZ|
  00070	e1a04000	 mov         r4, r0
; Line 394
  00074	ea000046	 b           |$LN1@RegisterFr|
  00078		 |$LN13@RegisterFr|
; Line 397
  00078	e1a02006	 mov         r2, r6
  0007c	e1a01007	 mov         r1, r7
  00080	e1a00005	 mov         r0, r5
  00084	eb000000	 bl          FindResourceW
  00088	e1b04000	 movs        r4, r0
; Line 399
  0008c	1a000002	 bne         |$LN11@RegisterFr|
  00090		 |$LN64@RegisterFr|
; Line 405
  00090	eb000000	 bl          |?AtlHresultFromLastError@ATL@@YAJXZ|
  00094	e1a04000	 mov         r4, r0
; Line 406
  00098	ea00003b	 b           |$ReturnHR$44102|
  0009c		 |$LN11@RegisterFr|
; Line 408
  0009c	e1a01004	 mov         r1, r4
  000a0	e1a00005	 mov         r0, r5
  000a4	eb000000	 bl          LoadResource
  000a8	e1b06000	 movs        r6, r0
  000ac	e50b6434	 str         r6, [r11, #-0x434]
; Line 414
  000b0	0afffff6	 beq         |$LN64@RegisterFr|
; Line 417
  000b4	e1a01004	 mov         r1, r4
  000b8	e1a00005	 mov         r0, r5
  000bc	eb000000	 bl          SizeofResource
  000c0	e1a04000	 mov         r4, r0
; Line 421
  000c4	e2841001	 add         r1, r4, #1
  000c8	e1510004	 cmp         r1, r4
  000cc	e50b443c	 str         r4, [r11, #-0x43C]
  000d0	2a00000b	 bcs         |$LN7@RegisterFr|
; Line 422
  000d4	e51b2424	 ldr         r2, [r11, #-0x424]
  000d8	e24b3e42	 sub         r3, r11, #0x42, 28	; 1056 (0x420)
  000dc	e1520003	 cmp         r2, r3
  000e0	13e00f42	 mvnne       r0, #0x42, 30
  000e4	11a00100	 movne       r0, r0, lsl #2
  000e8	108b0000	 addne       r0, r11, r0
  000ec	1b000000	 blne        |?FreeHeap@?$CTempBuffer@_W$0EAA@VCCRTAllocator@ATL@@@ATL@@AAAXXZ|
  000f0	e51b0020	 ldr         r0, [r11, #-0x20]
  000f4	eb000000	 bl          __security_check_cookie
  000f8	e3a0313a	 mov         r3, #0x3A, 2
  000fc	e3834807	 orr         r4, r3, #7, 16	; 458752 (0x70000)
  00100	ea00002c	 b           |$LN14@RegisterFr|
  00104		 |$LN7@RegisterFr|
; Line 423
  00104	e3e00f42	 mvn         r0, #0x42, 30
  00108	e1a00100	 mov         r0, r0, lsl #2
  0010c	e08b0000	 add         r0, r11, r0
  00110		 |$M86044|
  00110	eb000000	 bl          |?Allocate@?$CTempBuffer@_W$0EAA@VCCRTAllocator@ATL@@@ATL@@QAAPA_WI@Z|
  00114	ea000002	 b           |$LN20@RegisterFr|
  00118		 |$LN21@RegisterFr|
  00118	e51b5438	 ldr         r5, [r11, #-0x438]
  0011c	e51b6434	 ldr         r6, [r11, #-0x434]
  00120	e51b443c	 ldr         r4, [r11, #-0x43C]
  00124		 |$LN20@RegisterFr|
; Line 424
  00124	e51be424	 ldr         lr, [r11, #-0x424]
  00128	e35e0000	 cmp         lr, #0
  0012c	03a0313a	 moveq       r3, #0x3A, 2
; Line 426
  00130	03834807	 orreq       r4, r3, #7, 16	; 458752 (0x70000)
  00134		 |$M86045|
  00134	0a000014	 beq         |$ReturnHR$44102|
  00138		 |$M86046|
; Line 431
  00138	e1a03004	 mov         r3, r4
  0013c	e1a02006	 mov         r2, r6
  00140	e3a01000	 mov         r1, #0
  00144	e3a00000	 mov         r0, #0
  00148	e58d4004	 str         r4, [sp, #4]
  0014c	e58de000	 str         lr, [sp]
  00150	eb000000	 bl          MultiByteToWideChar
  00154	e3500000	 cmp         r0, #0
; Line 432
  00158	1a000002	 bne         |$LN3@RegisterFr|
; Line 434
  0015c	eb000000	 bl          |?AtlHresultFromLastError@ATL@@YAJXZ|
  00160	e1a04000	 mov         r4, r0
; Line 435
  00164	ea000008	 b           |$ReturnHR$44102|
  00168		 |$LN3@RegisterFr|
; Line 438
  00168	e51b3424	 ldr         r3, [r11, #-0x424]
  0016c	e3a01000	 mov         r1, #0
; Line 447
  00170	e59b2000	 ldr         r2, [r11]
  00174	e0833080	 add         r3, r3, r0, lsl #1
  00178	e1c310b0	 strh        r1, [r3]
  0017c	e51b1424	 ldr         r1, [r11, #-0x424]
  00180	e24b0e43	 sub         r0, r11, #0x43, 28	; 1072 (0x430)
  00184		 |$M86047|
  00184	eb000000	 bl          |?RegisterBuffer@CRegParser@ATL@@QAAJPA_WH@Z|
  00188	e1a04000	 mov         r4, r0
  0018c		 |$ReturnHR$44102|
; Line 452
  0018c	e1a00005	 mov         r0, r5
  00190	eb000000	 bl          FreeLibrary
  00194		 |$LN1@RegisterFr|
; Line 453
  00194	e51b2424	 ldr         r2, [r11, #-0x424]
  00198	e24b3e42	 sub         r3, r11, #0x42, 28	; 1056 (0x420)
  0019c	e1520003	 cmp         r2, r3
  001a0	13e00f42	 mvnne       r0, #0x42, 30
  001a4	11a00100	 movne       r0, r0, lsl #2
  001a8	108b0000	 addne       r0, r11, r0
  001ac	1b000000	 blne        |?FreeHeap@?$CTempBuffer@_W$0EAA@VCCRTAllocator@ATL@@@ATL@@AAAXXZ|
  001b0	e51b0020	 ldr         r0, [r11, #-0x20]
  001b4		 |$M86048|
  001b4	eb000000	 bl          __security_check_cookie
  001b8		 |$LN14@RegisterFr|
; Line 454
  001b8	e1a00004	 mov         r0, r4
  001bc	e24bd01c	 sub         sp, r11, #0x1C
  001c0	e89da8f0	 ldmia       sp, {r4 - r7, r11, sp, pc}
  001c4		 |$M86052|
  001c4	00000000	 DCD         |__CxxFrameHandler3|
  001c8	00000000	 DCD         |__ehfuncinfo$?RegisterFromResource@CRegObject@ATL@@IAAJPB_W00H@Z|
  001cc		 |__catch$85951|
  001cc		 |$M86055|
; Line 423
  001cc	e59f0040	 ldr         r0, [pc, #0x40]
  001d0	e1a0f00e	 mov         pc, lr
  001d4		 |$M86056|
  001d4		 |__unwind$85952|
; Line 454
  001d4	e52de004	 str         lr, [sp, #-4]!
  001d8	e24dd008	 sub         sp, sp, #8
  001dc		 |$M86058|
  001dc	e3e00084	 mvn         r0, #0x84
  001e0	e1a00180	 mov         r0, r0, lsl #3
  001e4	e08b0000	 add         r0, r11, r0
  001e8	eb000000	 bl          |??1?$CAtlSafeAllocBufferManager@VCCRTAllocator@ATL@@@_ATL_SAFE_ALLOCA_IMPL@ATL@@QAA@XZ|
  001ec	e28dd008	 add         sp, sp, #8
  001f0	e8bd8000	 ldmia       sp!, {pc}
  001f4		 |$M86059|
  001f4		 |__unwind$85953|
  001f4	e52de004	 str         lr, [sp, #-4]!
  001f8	e24dd008	 sub         sp, sp, #8
  001fc		 |$M86061|
  001fc	e3e00f42	 mvn         r0, #0x42, 30
  00200	e1a00100	 mov         r0, r0, lsl #2
  00204	e08b0000	 add         r0, r11, r0
  00208	eb000000	 bl          |??1?$CTempBuffer@_W$0EAA@VCCRTAllocator@ATL@@@ATL@@QAA@XZ|
  0020c	e28dd008	 add         sp, sp, #8
  00210	e8bd8000	 ldmia       sp!, {pc}
  00214		 |$LN79@RegisterFr|
  00214		 |$LN80@RegisterFr|
  00214	00000000	 DCD         |$LN21@RegisterFr|
  00218		 |$LN81@RegisterFr|
  00218	00000000	 DCD         |__security_cookie|
  0021c		 |$LN82@RegisterFr|
  0021c	fffffbd8	 DCD         0xfffffbd8
  00220		 |$M86062|

			 ENDP  ; |?RegisterFromResource@CRegObject@ATL@@IAAJPB_W00H@Z|, ATL::CRegObject::RegisterFromResource

	EXPORT	|?ResourceRegister@CRegObject@ATL@@QAAJPB_WI0@Z| ; ATL::CRegObject::ResourceRegister
; File c:\program files (x86)\microsoft visual studio 9.0\vc\ce\atlmfc\include\atlalloc.h

  00000			 AREA	 |.pdata|, PDATA
|$T86113| DCD	|$LN21@ResourceRe|
	DCD	0xc0000d04

  00000			 AREA	 |.pdata|, PDATA
|$T86116| DCD	|__unwind$86076|
	DCD	0x40000602

  00000			 AREA	 |.rdata|, DATA, READONLY
|__unwindtable$?ResourceRegister@CRegObject@ATL@@QAAJPB_WI0@Z| DCD 0xffffffff
	DCD	|__unwind$86076|
|__ehfuncinfo$?ResourceRegister@CRegObject@ATL@@QAAJPB_WI0@Z| DCD 0x19930522
	DCD	0x1
	DCD	|__unwindtable$?ResourceRegister@CRegObject@ATL@@QAAJPB_WI0@Z|
	DCD	0x0
	DCD	0x0
	DCD	0x1
	DCD	|$T86109|
	DCD	0x0
	DCD	0x1
|$T86109| DCD	|$M86108|
	DCD	0x0
; Function compile flags: /Ogspy

  00000			 AREA	 |.text|, CODE, ARM

  00000	00000000	 DCD         |__CxxFrameHandler3|
  00004	00000000	 DCD         |__ehfuncinfo$?ResourceRegister@CRegObject@ATL@@QAAJPB_WI0@Z|

  00008		 |?ResourceRegister@CRegObject@ATL@@QAAJPB_WI0@Z| PROC ; ATL::CRegObject::ResourceRegister
; File c:\program files (x86)\microsoft visual studio 9.0\vc\ce\atlmfc\include\statreg.h
; Line 457
  00008		 |$LN21@ResourceRe|
  00008	e1a0c00d	 mov         r12, sp
  0000c	e92d5800	 stmdb       sp!, {r11, r12, lr}
  00010	e28db00c	 add         r11, sp, #0xC
  00014	e24dd008	 sub         sp, sp, #8
  00018		 |$M86110|
; Line 458
  00018	e3a0e000	 mov         lr, #0
  0001c	e50be010	 str         lr, [r11, #-0x10]
; Line 468
  00020	e1a02802	 mov         r2, r2, lsl #16
  00024	e3a0e001	 mov         lr, #1
  00028	e1a02822	 mov         r2, r2, lsr #16
  0002c	e58de000	 str         lr, [sp]
  00030		 |$M86108|
  00030	eb000000	 bl          |?RegisterFromResource@CRegObject@ATL@@IAAJPB_W00H@Z|
; Line 469
  00034	e24bd00c	 sub         sp, r11, #0xC
  00038	e89da800	 ldmia       sp, {r11, sp, pc}
  0003c		 |$M86111|
  0003c		 |__unwind$86076|
  0003c	e52de004	 str         lr, [sp, #-4]!
  00040	e24dd004	 sub         sp, sp, #4
  00044		 |$M86114|
  00044	e24b0010	 sub         r0, r11, #0x10
  00048	eb000000	 bl          |??1?$CAtlSafeAllocBufferManager@VCCRTAllocator@ATL@@@_ATL_SAFE_ALLOCA_IMPL@ATL@@QAA@XZ|
  0004c	e28dd004	 add         sp, sp, #4
  00050	e8bd8000	 ldmia       sp!, {pc}
  00054		 |$M86115|

			 ENDP  ; |?ResourceRegister@CRegObject@ATL@@QAAJPB_WI0@Z|, ATL::CRegObject::ResourceRegister

	EXPORT	|?ResourceUnregister@CRegObject@ATL@@QAAJPB_WI0@Z| ; ATL::CRegObject::ResourceUnregister
; File c:\program files (x86)\microsoft visual studio 9.0\vc\ce\atlmfc\include\atlalloc.h

  00000			 AREA	 |.pdata|, PDATA
|$T86160| DCD	|$LN21@ResourceUn|
	DCD	0xc0000d04

  00000			 AREA	 |.pdata|, PDATA
|$T86163| DCD	|__unwind$86123|
	DCD	0x40000602

  00000			 AREA	 |.rdata|, DATA, READONLY
|__unwindtable$?ResourceUnregister@CRegObject@ATL@@QAAJPB_WI0@Z| DCD 0xffffffff
	DCD	|__unwind$86123|
|__ehfuncinfo$?ResourceUnregister@CRegObject@ATL@@QAAJPB_WI0@Z| DCD 0x19930522
	DCD	0x1
	DCD	|__unwindtable$?ResourceUnregister@CRegObject@ATL@@QAAJPB_WI0@Z|
	DCD	0x0
	DCD	0x0
	DCD	0x1
	DCD	|$T86156|
	DCD	0x0
	DCD	0x1
|$T86156| DCD	|$M86155|
	DCD	0x0
; Function compile flags: /Ogspy

  00000			 AREA	 |.text|, CODE, ARM

  00000	00000000	 DCD         |__CxxFrameHandler3|
  00004	00000000	 DCD         |__ehfuncinfo$?ResourceUnregister@CRegObject@ATL@@QAAJPB_WI0@Z|

  00008		 |?ResourceUnregister@CRegObject@ATL@@QAAJPB_WI0@Z| PROC ; ATL::CRegObject::ResourceUnregister
; File c:\program files (x86)\microsoft visual studio 9.0\vc\ce\atlmfc\include\statreg.h
; Line 489
  00008		 |$LN21@ResourceUn|
  00008	e1a0c00d	 mov         r12, sp
  0000c	e92d5800	 stmdb       sp!, {r11, r12, lr}
  00010	e28db00c	 add         r11, sp, #0xC
  00014	e24dd008	 sub         sp, sp, #8
  00018		 |$M86157|
; Line 490
  00018	e3a0e000	 mov         lr, #0
  0001c	e50be010	 str         lr, [r11, #-0x10]
; Line 499
  00020	e1a02802	 mov         r2, r2, lsl #16
  00024	e3a0e000	 mov         lr, #0
  00028	e1a02822	 mov         r2, r2, lsr #16
  0002c	e58de000	 str         lr, [sp]
  00030		 |$M86155|
  00030	eb000000	 bl          |?RegisterFromResource@CRegObject@ATL@@IAAJPB_W00H@Z|
; Line 500
  00034	e24bd00c	 sub         sp, r11, #0xC
  00038	e89da800	 ldmia       sp, {r11, sp, pc}
  0003c		 |$M86158|
  0003c		 |__unwind$86123|
  0003c	e52de004	 str         lr, [sp, #-4]!
  00040	e24dd004	 sub         sp, sp, #4
  00044		 |$M86161|
  00044	e24b0010	 sub         r0, r11, #0x10
  00048	eb000000	 bl          |??1?$CAtlSafeAllocBufferManager@VCCRTAllocator@ATL@@@_ATL_SAFE_ALLOCA_IMPL@ATL@@QAA@XZ|
  0004c	e28dd004	 add         sp, sp, #4
  00050	e8bd8000	 ldmia       sp!, {pc}
  00054		 |$M86162|

			 ENDP  ; |?ResourceUnregister@CRegObject@ATL@@QAAJPB_WI0@Z|, ATL::CRegObject::ResourceUnregister

	EXPORT	|__$ArrayPad$| [ DATA ]
	EXPORT	|?UpdateRegistryFromResourceS@CAtlModule@ATL@@QAAJIHPAU_ATL_REGMAP_ENTRY@2@@Z| ; ATL::CAtlModule::UpdateRegistryFromResourceS
	EXPORT	|??_C@_1BC@KAILKFFG@?$AAR?$AAE?$AAG?$AAI?$AAS?$AAT?$AAR?$AAY?$AA?$AA@| [ DATA ] ; `string'
	EXPORT	|??_C@_1BG@JBACFMF@?$AAM?$AAo?$AAd?$AAu?$AAl?$AAe?$AA_?$AAR?$AAa?$AAw?$AA?$AA@| [ DATA ] ; `string'
	EXPORT	|??_C@_1O@MNLDABAF@?$AAM?$AAo?$AAd?$AAu?$AAl?$AAe?$AA?$AA@| [ DATA ] ; `string'
	IMPORT	|GetModuleHandleW|
	IMPORT	|GetModuleFileNameW|
; File c:\program files (x86)\microsoft visual studio 9.0\vc\ce\atlmfc\include\atlalloc.h

  00000			 AREA	 |.pdata|, PDATA
|$T86382| DCD	|$LN115@UpdateRegi|
	DCD	0xc0008e03

  00000			 AREA	 |.xdata|, DATA
|$T86378| DCD	0xffffffe0

  00000			 AREA	 |.rdata|, DATA, READONLY
|??_C@_1BC@KAILKFFG@?$AAR?$AAE?$AAG?$AAI?$AAS?$AAT?$AAR?$AAY?$AA?$AA@| DCB "R"
	DCB	0x0, "E", 0x0, "G", 0x0, "I", 0x0, "S", 0x0, "T", 0x0, "R"
	DCB	0x0, "Y", 0x0, 0x0, 0x0			; `string'

  00000			 AREA	 |.rdata|, DATA, READONLY
|??_C@_1BG@JBACFMF@?$AAM?$AAo?$AAd?$AAu?$AAl?$AAe?$AA_?$AAR?$AAa?$AAw?$AA?$AA@| DCB "M"
	DCB	0x0, "o", 0x0, "d", 0x0, "u", 0x0, "l", 0x0, "e", 0x0, "_"
	DCB	0x0, "R", 0x0, "a", 0x0, "w", 0x0, 0x0, 0x0 ; `string'

  00000			 AREA	 |.rdata|, DATA, READONLY
|??_C@_1O@MNLDABAF@?$AAM?$AAo?$AAd?$AAu?$AAl?$AAe?$AA?$AA@| DCB "M", 0x0, "o"
	DCB	0x0, "d", 0x0, "u", 0x0, "l", 0x0, "e", 0x0, 0x0, 0x0 ; `string'
; Function compile flags: /Ogspy

  00000			 AREA	 |.text|, CODE, ARM

  00000	00000000	 DCD         |__GSHandlerCheck|
  00004	00000000	 DCD         |$T86378|

  00008		 |?UpdateRegistryFromResourceS@CAtlModule@ATL@@QAAJIHPAU_ATL_REGMAP_ENTRY@2@@Z| PROC ; ATL::CAtlModule::UpdateRegistryFromResourceS
; File c:\program files (x86)\microsoft visual studio 9.0\vc\ce\atlmfc\include\atlbase.h
; Line 6136
  00008		 |$LN115@UpdateRegi|
  00008	e92d43f0	 stmdb       sp!, {r4 - r9, lr}
  0000c	e59fc228	 ldr         r12, [pc, #0x228]
  00010	e08dd00c	 add         sp, sp, r12
  00014		 |$M86379|
  00014	e1a04003	 mov         r4, r3
  00018	e1a07002	 mov         r7, r2
  0001c	e1a06001	 mov         r6, r1
  00020	e1a05000	 mov         r5, r0
  00024	e59fe20c	 ldr         lr, [pc, #0x20C]
  00028	e59ee000	 ldr         lr, [lr]
  0002c	e58dea58	 str         lr, [sp, #0xA58]
; Line 6137
  00030	e59fe1fc	 ldr         lr, [pc, #0x1FC]
  00034	e3a03000	 mov         r3, #0
  00038	e3a08000	 mov         r8, #0
  0003c	e3a09000	 mov         r9, #0
  00040	e3a02014	 mov         r2, #0x14
  00044	e3a01000	 mov         r1, #0
  00048	e28d0010	 add         r0, sp, #0x10
  0004c	e58de000	 str         lr, [sp]
  00050	e58d3004	 str         r3, [sp, #4]
  00054	e58d8008	 str         r8, [sp, #8]
  00058	e58d900c	 str         r9, [sp, #0xC]
  0005c	eb000000	 bl          memset
  00060	e3a03000	 mov         r3, #0
; Line 6138
  00064	e28d0010	 add         r0, sp, #0x10
  00068	e5cd3024	 strb        r3, [sp, #0x24]
  0006c	eb000000	 bl          |?Init@CComCriticalSection@ATL@@QAAJXZ|
  00070	e3500000	 cmp         r0, #0
  00074	4a00005f	 bmi         |$LN104@UpdateRegi|
  00078	e3a03001	 mov         r3, #1
  0007c	e5cd3024	 strb        r3, [sp, #0x24]
; Line 6144
  00080	e3540000	 cmp         r4, #0
  00084	0a000008	 beq         |$LN11@UpdateRegi|
; Line 6146
  00088	e5943000	 ldr         r3, [r4]
  0008c	ea000004	 b           |$LN111@UpdateRegi|
  00090		 |$LL12@UpdateRegi|
; Line 6149
  00090	e5942004	 ldr         r2, [r4, #4]
  00094	e1a01003	 mov         r1, r3
  00098	e28d0000	 add         r0, sp, #0
  0009c	eb000000	 bl          |?AddReplacement@CRegObject@ATL@@UAAJPB_W0@Z|
  000a0	e5b43008	 ldr         r3, [r4, #8]!
  000a4		 |$LN111@UpdateRegi|
  000a4	e3530000	 cmp         r3, #0
  000a8	1afffff8	 bne         |$LL12@UpdateRegi|
  000ac		 |$LN11@UpdateRegi|
; Line 6154
  000ac	e5953000	 ldr         r3, [r5]
  000b0	e28d1000	 add         r1, sp, #0
  000b4	e1a00005	 mov         r0, r5
  000b8	e1a0e00f	 mov         lr, pc
  000bc	e593f010	 ldr         pc, [r3, #0x10]
  000c0	e1b04000	 movs        r4, r0
  000c4	4a00004c	 bmi         |$LN105@UpdateRegi|
; Line 6160
  000c8	e59f3160	 ldr         r3, [pc, #0x160]
; Line 6161
  000cc	e3a02f41	 mov         r2, #0x41, 30
  000d0	e28d1028	 add         r1, sp, #0x28
  000d4	e5934004	 ldr         r4, [r3, #4]
  000d8	e1a00004	 mov         r0, r4
  000dc	eb000000	 bl          GetModuleFileNameW
  000e0	e3500000	 cmp         r0, #0
; Line 6162
  000e4	1a000001	 bne         |$LN9@UpdateRegi|
; Line 6163
  000e8	eb000000	 bl          |?AtlHresultFromLastError@ATL@@YAJXZ|
  000ec	ea000041	 b           |$LN104@UpdateRegi|
  000f0		 |$LN9@UpdateRegi|
; Line 6164
  000f0	e3500f41	 cmp         r0, #0x41, 30	; 260 (0x104)
  000f4	059f4130	 ldreq       r4, [pc, #0x130]
  000f8	0a00003f	 beq         |$LN105@UpdateRegi|
; Line 6175
  000fc	e28d2028	 add         r2, sp, #0x28
  00100	e3a01f82	 mov         r1, #0x82, 30
  00104	e3a00c06	 mov         r0, #6, 24
  00108	e3800048	 orr         r0, r0, #0x48
  0010c	e08d0000	 add         r0, sp, r0
  00110	eb000000	 bl          |?EscapeSingleQuote@CAtlModule@ATL@@SAXPA_WIPB_W@Z|
; Line 6178
  00114	e3540000	 cmp         r4, #0
  00118	0a000006	 beq         |$LN5@UpdateRegi|
  0011c	e3a00000	 mov         r0, #0
  00120	eb000000	 bl          GetModuleHandleW
  00124	e1540000	 cmp         r4, r0
; Line 6197
  00128	13a02c06	 movne       r2, #6, 24
  0012c	13822048	 orrne       r2, r2, #0x48
  00130	108d2002	 addne       r2, sp, r2
  00134	1a000019	 bne         |$LN112@UpdateRegi|
  00138		 |$LN5@UpdateRegi|
  00138	e3a03c02	 mov         r3, #2, 24
  0013c	e3a0e022	 mov         lr, #0x22
  00140	e383100b	 orr         r1, r3, #0xB
  00144	e3a02c06	 mov         r2, #6, 24
  00148	e3822048	 orr         r2, r2, #0x48
  0014c	e08d2002	 add         r2, sp, r2
  00150	e3830032	 orr         r0, r3, #0x32
  00154	e08d0000	 add         r0, sp, r0
  00158	e28dcc02	 add         r12, sp, #2, 24	; 512 (0x200)
  0015c	e1cce3b0	 strh        lr, [r12, #0x30]
  00160	eb000000	 bl          |?ocscpy_s@@YA_NPA_WIPB_W@Z|
  00164	e3500000	 cmp         r0, #0
  00168	03a03116	 moveq       r3, #0x16, 2
  0016c	03834901	 orreq       r4, r3, #1, 18	; 16384 (0x4000)
  00170	0a000021	 beq         |$LN105@UpdateRegi|
  00174	e28d0e23	 add         r0, sp, #0x23, 28	; 560 (0x230)
  00178	eb000000	 bl          wcslen
  0017c	e28d3e23	 add         r3, sp, #0x23, 28	; 560 (0x230)
  00180	e28d2e23	 add         r2, sp, #0x23, 28	; 560 (0x230)
  00184	e0833080	 add         r3, r3, r0, lsl #1
  00188	e0822080	 add         r2, r2, r0, lsl #1
  0018c	e3a0e000	 mov         lr, #0
  00190	e3a00022	 mov         r0, #0x22
  00194	e1c2e0b2	 strh        lr, [r2, #2]
  00198	e1c300b0	 strh        r0, [r3]
  0019c	e28d2e23	 add         r2, sp, #0x23, 28	; 560 (0x230)
  001a0		 |$LN112@UpdateRegi|
  001a0	e59f1080	 ldr         r1, [pc, #0x80]
  001a4	e28d0000	 add         r0, sp, #0
  001a8	eb000000	 bl          |?AddReplacement@CRegObject@ATL@@UAAJPB_W0@Z|
; Line 6200
  001ac	e3500000	 cmp         r0, #0
  001b0	4a000010	 bmi         |$LN104@UpdateRegi|
; Line 6203
  001b4	e59f1068	 ldr         r1, [pc, #0x68]
  001b8	e3a02c06	 mov         r2, #6, 24
  001bc	e3822048	 orr         r2, r2, #0x48
  001c0	e08d2002	 add         r2, sp, r2
  001c4	e28d0000	 add         r0, sp, #0
  001c8	eb000000	 bl          |?AddReplacement@CRegObject@ATL@@UAAJPB_W0@Z|
  001cc	e3500000	 cmp         r0, #0
  001d0	4a000008	 bmi         |$LN104@UpdateRegi|
; Line 6209
  001d4	e59f3044	 ldr         r3, [pc, #0x44]
  001d8	e3570000	 cmp         r7, #0
  001dc	e1a02006	 mov         r2, r6
  001e0	e28d1028	 add         r1, sp, #0x28
  001e4	e28d0000	 add         r0, sp, #0
  001e8	0a000001	 beq         |$LN17@UpdateRegi|
  001ec	eb000000	 bl          |?ResourceRegister@CRegObject@ATL@@QAAJPB_WI0@Z|
  001f0	ea000000	 b           |$LN104@UpdateRegi|
  001f4		 |$LN17@UpdateRegi|
  001f4	eb000000	 bl          |?ResourceUnregister@CRegObject@ATL@@QAAJPB_WI0@Z|
  001f8		 |$LN104@UpdateRegi|
; Line 6139
  001f8	e1a04000	 mov         r4, r0
  001fc		 |$LN105@UpdateRegi|
; Line 6141
  001fc	e28d0000	 add         r0, sp, #0
  00200	eb000000	 bl          |??1CRegObject@ATL@@UAA@XZ|
  00204	e59d0a58	 ldr         r0, [sp, #0xA58]
  00208	eb000000	 bl          __security_check_cookie
; Line 6211
  0020c	e1a00004	 mov         r0, r4
  00210	e3a0cc0a	 mov         r12, #0xA, 24
  00214	e38cc05c	 orr         r12, r12, #0x5C
  00218	e08dd00c	 add         sp, sp, r12
  0021c	e8bd83f0	 ldmia       sp!, {r4 - r9, pc}
  00220		 |$LN116@UpdateRegi|
  00220		 |$LN117@UpdateRegi|
  00220	00000000	 DCD         |??_C@_1BC@KAILKFFG@?$AAR?$AAE?$AAG?$AAI?$AAS?$AAT?$AAR?$AAY?$AA?$AA@|
  00224		 |$LN118@UpdateRegi|
  00224	00000000	 DCD         |??_C@_1BG@JBACFMF@?$AAM?$AAo?$AAd?$AAu?$AAl?$AAe?$AA_?$AAR?$AAa?$AAw?$AA?$AA@|
  00228		 |$LN119@UpdateRegi|
  00228	00000000	 DCD         |??_C@_1O@MNLDABAF@?$AAM?$AAo?$AAd?$AAu?$AAl?$AAe?$AA?$AA@|
  0022c		 |$LN120@UpdateRegi|
  0022c	8007007a	 DCD         0x8007007a
  00230		 |$LN121@UpdateRegi|
  00230	00000000	 DCD         |?_AtlBaseModule@ATL@@3VCAtlBaseModule@1@A|
  00234		 |$LN122@UpdateRegi|
  00234	00000000	 DCD         |??_7CRegObject@ATL@@6B@|
  00238		 |$LN123@UpdateRegi|
  00238	00000000	 DCD         |__security_cookie|
  0023c		 |$LN124@UpdateRegi|
  0023c	fffff5a4	 DCD         0xfffff5a4
  00240		 |$M86380|

			 ENDP  ; |?UpdateRegistryFromResourceS@CAtlModule@ATL@@QAAJIHPAU_ATL_REGMAP_ENTRY@2@@Z|, ATL::CAtlModule::UpdateRegistryFromResourceS

	EXPORT	|?GetWindowTextW@CWindow@ATL@@QBAHAAV?$CSimpleStringT@_W$0A@@2@@Z| ; ATL::CWindow::GetWindowTextW
; File c:\program files (x86)\microsoft visual studio 9.0\vc\ce\atlmfc\include\atlsimpstr.h

  00000			 AREA	 |.pdata|, PDATA
|$T86463| DCD	|$LN24@GetWindowT@3|
	DCD	0x40002201
; Function compile flags: /Ogspy

  00000			 AREA	 |.text|, CODE, ARM

  00000		 |?GetWindowTextW@CWindow@ATL@@QBAHAAV?$CSimpleStringT@_W$0A@@2@@Z| PROC ; ATL::CWindow::GetWindowTextW
; File c:\program files (x86)\microsoft visual studio 9.0\vc\ce\atlmfc\include\atlwin.h
; Line 886
  00000		 |$LN24@GetWindowT@3|
  00000	e92d4070	 stmdb       sp!, {r4 - r6, lr}
  00004		 |$M86460|
  00004	e1a04001	 mov         r4, r1
  00008	e1a06000	 mov         r6, r0
; Line 890
  0000c	e5960000	 ldr         r0, [r6]
  00010	eb000000	 bl          GetWindowTextLengthW
; Line 891
  00014	e5943000	 ldr         r3, [r4]
  00018	e2805001	 add         r5, r0, #1
  0001c	e2433010	 sub         r3, r3, #0x10
  00020	e593e008	 ldr         lr, [r3, #8]
  00024	e593300c	 ldr         r3, [r3, #0xC]
  00028	e04ee005	 sub         lr, lr, r5
  0002c	e2633001	 rsb         r3, r3, #1
  00030	e19e3003	 orrs        r3, lr, r3
  00034	41a01005	 movmi       r1, r5
  00038	41a00004	 movmi       r0, r4
  0003c	4b000000	 blmi        |?PrepareWrite2@?$CSimpleStringT@_W$0A@@ATL@@AAAXH@Z|
  00040	e5941000	 ldr         r1, [r4]
; Line 892
  00044	e5960000	 ldr         r0, [r6]
  00048	e1a02005	 mov         r2, r5
  0004c	eb000000	 bl          GetWindowTextW
  00050	e1a05000	 mov         r5, r0
; Line 893
  00054	e3750001	 cmn         r5, #1
  00058	1a000005	 bne         |$LN20@GetWindowT@3|
  0005c	e5943000	 ldr         r3, [r4]
  00060	e5131008	 ldr         r1, [r3, #-8]
  00064	e3530000	 cmp         r3, #0
  00068	03a00000	 moveq       r0, #0
  0006c	11a00003	 movne       r0, r3
  00070	1b000000	 blne        wcsnlen
  00074		 |$LN20@GetWindowT@3|
  00074	e1a01000	 mov         r1, r0
  00078	e1a00004	 mov         r0, r4
  0007c	eb000000	 bl          |?SetLength@?$CSimpleStringT@_W$0A@@ATL@@AAAXH@Z|
; Line 896
  00080	e1a00005	 mov         r0, r5
  00084	e8bd8070	 ldmia       sp!, {r4 - r6, pc}
  00088		 |$M86461|

			 ENDP  ; |?GetWindowTextW@CWindow@ATL@@QBAHAAV?$CSimpleStringT@_W$0A@@2@@Z|, ATL::CWindow::GetWindowTextW

; File c:\users\steven\desktop\csharp - dllimport\csharp - dllimport\vs2008\dllimportmango\mangoclass.h

  00000			 AREA	 |.pdata|, PDATA
|$T86473| DCD	|$LN5@UpdateRegi@2|
	DCD	0x40000700
; Function compile flags: /Ogspy

  00000			 AREA	 |.text|, CODE, ARM

  00000		 |?UpdateRegistry@CMangoClass@@SAJH@Z| PROC ; CMangoClass::UpdateRegistry
; Line 35
  00000		 |$LN5@UpdateRegi@2|
  00000		 |$M86470|
  00000	e1a02000	 mov         r2, r0
  00004	e59f000c	 ldr         r0, [pc, #0xC]
  00008	e3a03000	 mov         r3, #0
  0000c	e3a01066	 mov         r1, #0x66
  00010	e5900000	 ldr         r0, [r0]
  00014	ea000000	 b           |?UpdateRegistryFromResourceS@CAtlModule@ATL@@QAAJIHPAU_ATL_REGMAP_ENTRY@2@@Z|
  00018		 |$LN6@UpdateRegi@2|
  00018		 |$LN7@UpdateRegi@2|
  00018	00000000	 DCD         |?_pAtlModule@ATL@@3PAVCAtlModule@1@A|
  0001c		 |$M86471|

			 ENDP  ; |?UpdateRegistry@CMangoClass@@SAJH@Z|, CMangoClass::UpdateRegistry

; File c:\program files (x86)\microsoft visual studio 9.0\vc\ce\atlmfc\include\atlsimpstr.h

  00000			 AREA	 |.pdata|, PDATA
|$T86618| DCD	|$LN56@TextForHWN|
	DCD	0xc0002504

  00000			 AREA	 |.pdata|, PDATA
|$T86621| DCD	|__unwind$86480|
	DCD	0x40000501

  00000			 AREA	 |.rdata|, DATA, READONLY
|__unwindtable$?TextForHWNDEnumWindows@CMangoClass@@UAAJHPAPA_W@Z| DCD 0xffffffff
	DCD	|__unwind$86480|
|__ehfuncinfo$?TextForHWNDEnumWindows@CMangoClass@@UAAJHPAPA_W@Z| DCD 0x19930522
	DCD	0x1
	DCD	|__unwindtable$?TextForHWNDEnumWindows@CMangoClass@@UAAJHPAPA_W@Z|
	DCD	0x0
	DCD	0x0
	DCD	0x4
	DCD	|$T86614|
	DCD	0x0
	DCD	0x1
|$T86614| DCD	|$M86610|
	DCD	0x0
	DCD	|$M86611|
	DCD	0xffffffff
	DCD	|$M86612|
	DCD	0x0
	DCD	|$M86613|
	DCD	0xffffffff
; Function compile flags: /Ogspy

  00000			 AREA	 |.text|, CODE, ARM

  00000	00000000	 DCD         |__CxxFrameHandler3|
  00004	00000000	 DCD         |__ehfuncinfo$?TextForHWNDEnumWindows@CMangoClass@@UAAJHPAPA_W@Z|

  00008		 |?TextForHWNDEnumWindows@CMangoClass@@UAAJHPAPA_W@Z| PROC ; CMangoClass::TextForHWNDEnumWindows
; File c:\users\steven\desktop\csharp - dllimport\csharp - dllimport\vs2008\dllimportmango\mangoclass.cpp
; Line 1423
  00008		 |$LN56@TextForHWN|
  00008	e1a0c00d	 mov         r12, sp
  0000c	e92d5830	 stmdb       sp!, {r4, r5, r11, r12, lr}
  00010	e28db014	 add         r11, sp, #0x14
  00014	e24dd008	 sub         sp, sp, #8
  00018		 |$M86615|
  00018	e1a05002	 mov         r5, r2
  0001c	e3510000	 cmp         r1, #0
; Line 1424
  00020	e50b1018	 str         r1, [r11, #-0x18]
; Line 1428
  00024	03a00000	 moveq       r0, #0
  00028		 |$M86610|
  00028	0a000019	 beq         |$LN1@TextForHWN|
  0002c		 |$M86611|
; Line 1432
  0002c	e59f0078	 ldr         r0, [pc, #0x78]
  00030	e5903000	 ldr         r3, [r0]
  00034	e1a0e00f	 mov         lr, pc
  00038	e593f00c	 ldr         pc, [r3, #0xC]
  0003c	e2803010	 add         r3, r0, #0x10
  00040	e50b301c	 str         r3, [r11, #-0x1C]
; Line 1433
  00044	e24b101c	 sub         r1, r11, #0x1C
  00048	e24b0018	 sub         r0, r11, #0x18
  0004c		 |$M86612|
  0004c	eb000000	 bl          |?GetWindowTextW@CWindow@ATL@@QBAHAAV?$CSimpleStringT@_W$0A@@2@@Z|
; Line 1435
  00050	e51b001c	 ldr         r0, [r11, #-0x1C]
  00054	e2404010	 sub         r4, r0, #0x10
  00058	e5941004	 ldr         r1, [r4, #4]
  0005c	eb000000	 bl          SysAllocStringLen
  00060	e3500000	 cmp         r0, #0
  00064	1a000000	 bne         |$LN28@TextForHWN|
  00068	eb000000	 bl          |?ThrowMemoryException@?$CSimpleStringT@_W$0A@@ATL@@KAXXZ|
  0006c		 |$LN59@TextForHWN|
  0006c		 |$LN28@TextForHWN|
  0006c	e5850000	 str         r0, [r5]
; Line 1437
  00070	e284000c	 add         r0, r4, #0xC
  00074	eb000000	 bl          InterlockedDecrement
  00078	e3500000	 cmp         r0, #0
  0007c	d5940000	 ldrle       r0, [r4]
  00080	d1a01004	 movle       r1, r4
  00084	d5903000	 ldrle       r3, [r0]
  00088		 |$M86613|
  00088	d1a0e00f	 movle       lr, pc
  0008c	d593f004	 ldrle       pc, [r3, #4]
  00090	e3a00001	 mov         r0, #1
  00094		 |$LN1@TextForHWN|
; Line 1439
  00094	e24bd014	 sub         sp, r11, #0x14
  00098	e89da830	 ldmia       sp, {r4, r5, r11, sp, pc}
  0009c		 |$LN49@TextForHWN|
  0009c		 |$M86616|
  0009c		 |__unwind$86480|
  0009c	e52de004	 str         lr, [sp, #-4]!
  000a0		 |$M86619|
  000a0	e24b001c	 sub         r0, r11, #0x1C
  000a4	eb000000	 bl          |??1?$CStringT@_WV?$StrTraitATL@_WV?$ChTraitsOS@_W@ATL@@@ATL@@@ATL@@QAA@XZ|
  000a8	e8bd8000	 ldmia       sp!, {pc}
  000ac		 |$LN60@TextForHWN|
  000ac		 |$LN61@TextForHWN|
  000ac	00000000	 DCD         |?g_strmgr@ATL@@3VCAtlStringMgr@1@A|
  000b0		 |$M86620|

			 ENDP  ; |?TextForHWNDEnumWindows@CMangoClass@@UAAJHPAPA_W@Z|, CMangoClass::TextForHWNDEnumWindows

	EXPORT	|??4?$CSimpleStringT@_W$0A@@ATL@@QAAAAV01@ABV01@@Z| ; ATL::CSimpleStringT<wchar_t,0>::operator=
; File c:\program files (x86)\microsoft visual studio 9.0\vc\ce\atlmfc\include\atlsimpstr.h

  00000			 AREA	 |.pdata|, PDATA
|$T86678| DCD	|$LN30@operator@9|
	DCD	0x40002701
; Function compile flags: /Ogspy

  00000			 AREA	 |.text|, CODE, ARM

  00000		 |??4?$CSimpleStringT@_W$0A@@ATL@@QAAAAV01@ABV01@@Z| PROC ; ATL::CSimpleStringT<wchar_t,0>::operator=
; Line 288
  00000		 |$LN30@operator@9|
  00000	e92d4070	 stmdb       sp!, {r4 - r6, lr}
  00004		 |$M86675|
  00004	e1a04000	 mov         r4, r0
; Line 289
  00008	e5910000	 ldr         r0, [r1]
; Line 290
  0000c	e5943000	 ldr         r3, [r4]
  00010	e2401010	 sub         r1, r0, #0x10
  00014	e2435010	 sub         r5, r3, #0x10
; Line 291
  00018	e1510005	 cmp         r1, r5
  0001c	0a00001c	 beq         |$LN24@operator@9|
; Line 293
  00020	e595300c	 ldr         r3, [r5, #0xC]
  00024	e3530000	 cmp         r3, #0
  00028	b3a03001	 movlt       r3, #1
  0002c	a3a03000	 movge       r3, #0
  00030	e21330ff	 ands        r3, r3, #0xFF
; Line 306
  00034	1a000012	 bne         |$LN2@operator@9|
  00038	e5912000	 ldr         r2, [r1]
  0003c	e5953000	 ldr         r3, [r5]
  00040	e1520003	 cmp         r2, r3
  00044	1a00000e	 bne         |$LN2@operator@9|
  00048	e1a00001	 mov         r0, r1
  0004c	eb000000	 bl          |?CloneData@?$CSimpleStringT@_W$0A@@ATL@@CAPAUCStringData@2@PAU32@@Z|
  00050	e1a06000	 mov         r6, r0
  00054	e285000c	 add         r0, r5, #0xC
  00058	eb000000	 bl          InterlockedDecrement
  0005c	e3500000	 cmp         r0, #0
  00060	d5950000	 ldrle       r0, [r5]
  00064	d1a01005	 movle       r1, r5
  00068	d5903000	 ldrle       r3, [r0]
  0006c	d1a0e00f	 movle       lr, pc
  00070	d593f004	 ldrle       pc, [r3, #4]
  00074	e2863010	 add         r3, r6, #0x10
  00078	e5843000	 str         r3, [r4]
  0007c	e1a00004	 mov         r0, r4
  00080	e8bd8070	 ldmia       sp!, {r4 - r6, pc}
  00084		 |$LN2@operator@9|
; Line 295
  00084	e5912004	 ldr         r2, [r1, #4]
  00088	e1a01000	 mov         r1, r0
  0008c	e1a00004	 mov         r0, r4
  00090	eb000000	 bl          |?SetString@?$CSimpleStringT@_W$0A@@ATL@@QAAXPB_WH@Z|
; Line 301
  00094		 |$LN24@operator@9|
; Line 306
  00094	e1a00004	 mov         r0, r4
  00098	e8bd8070	 ldmia       sp!, {r4 - r6, pc}
  0009c		 |$M86676|

			 ENDP  ; |??4?$CSimpleStringT@_W$0A@@ATL@@QAAAAV01@ABV01@@Z|, ATL::CSimpleStringT<wchar_t,0>::operator=

	EXPORT	|??4?$CSimpleStringT@_W$0A@@ATL@@QAAAAV01@PB_W@Z| ; ATL::CSimpleStringT<wchar_t,0>::operator=

  00000			 AREA	 |.pdata|, PDATA
|$T86701| DCD	|$LN10@operator@10|
	DCD	0x40000c01
; Function compile flags: /Ogspy

  00000			 AREA	 |.text|, CODE, ARM

  00000		 |??4?$CSimpleStringT@_W$0A@@ATL@@QAAAAV01@PB_W@Z| PROC ; ATL::CSimpleStringT<wchar_t,0>::operator=
; Line 330
  00000		 |$LN10@operator@10|
  00000	e92d4030	 stmdb       sp!, {r4, r5, lr}
  00004		 |$M86698|
  00004	e1b04001	 movs        r4, r1
  00008	e1a05000	 mov         r5, r0
; Line 331
  0000c	03a00000	 moveq       r0, #0
  00010	11a00004	 movne       r0, r4
  00014	1b000000	 blne        wcslen
  00018	e1a02000	 mov         r2, r0
  0001c	e1a00005	 mov         r0, r5
  00020	e1a01004	 mov         r1, r4
  00024	eb000000	 bl          |?SetString@?$CSimpleStringT@_W$0A@@ATL@@QAAXPB_WH@Z|
; Line 334
  00028	e1a00005	 mov         r0, r5
  0002c	e8bd8030	 ldmia       sp!, {r4, r5, pc}
  00030		 |$M86699|

			 ENDP  ; |??4?$CSimpleStringT@_W$0A@@ATL@@QAAAAV01@PB_W@Z|, ATL::CSimpleStringT<wchar_t,0>::operator=

	EXPORT	|?LoadStringW@?$CStringT@_WV?$StrTraitATL@_WV?$ChTraitsOS@_W@ATL@@@ATL@@@ATL@@QAAHI@Z| ; ATL::CStringT<wchar_t,ATL::StrTraitATL<wchar_t,ATL::ChTraitsOS<wchar_t> > >::LoadStringW
; File c:\program files (x86)\microsoft visual studio 9.0\vc\ce\atlmfc\include\atlstr.h

  00000			 AREA	 |.pdata|, PDATA
|$T86716| DCD	|$LN8@LoadString@2|
	DCD	0x40000e01
; Function compile flags: /Ogspy

  00000			 AREA	 |.text|, CODE, ARM

  00000		 |?LoadStringW@?$CStringT@_WV?$StrTraitATL@_WV?$ChTraitsOS@_W@ATL@@@ATL@@@ATL@@QAAHI@Z| PROC ; ATL::CStringT<wchar_t,ATL::StrTraitATL<wchar_t,ATL::ChTraitsOS<wchar_t> > >::LoadStringW
; File c:\program files (x86)\microsoft visual studio 9.0\vc\ce\atlmfc\include\cstringt.h
; Line 2018
  00000		 |$LN8@LoadString@2|
  00000	e92d4030	 stmdb       sp!, {r4, r5, lr}
  00004		 |$M86713|
  00004	e1a04001	 mov         r4, r1
  00008	e1a05000	 mov         r5, r0
; Line 2019
  0000c	e3a01000	 mov         r1, #0
  00010	e1a00004	 mov         r0, r4
  00014	eb000000	 bl          |?AtlFindStringResourceInstance@ATL@@YAPAUHINSTANCE__@@IG@Z|
  00018	e3500000	 cmp         r0, #0
; Line 2022
  0001c	03a00000	 moveq       r0, #0
; Line 2026
  00020	08bd8030	 ldmeqia     sp!, {r4, r5, pc}
; Line 2025
  00024	e1a02004	 mov         r2, r4
  00028	e1a01000	 mov         r1, r0
  0002c	e1a00005	 mov         r0, r5
; Line 2026
  00030	e8bd4030	 ldmia       sp!, {r4, r5, lr}
; Line 2025
  00034	ea000000	 b           |?LoadStringW@?$CStringT@_WV?$StrTraitATL@_WV?$ChTraitsOS@_W@ATL@@@ATL@@@ATL@@QAAHPAUHINSTANCE__@@I@Z|
  00038		 |$M86714|

			 ENDP  ; |?LoadStringW@?$CStringT@_WV?$StrTraitATL@_WV?$ChTraitsOS@_W@ATL@@@ATL@@@ATL@@QAAHI@Z|, ATL::CStringT<wchar_t,ATL::StrTraitATL<wchar_t,ATL::ChTraitsOS<wchar_t> > >::LoadStringW

	EXPORT	|?Format@?$CStringT@_WV?$StrTraitATL@_WV?$ChTraitsOS@_W@ATL@@@ATL@@@ATL@@QAAXPB_WZZ| ; ATL::CStringT<wchar_t,ATL::StrTraitATL<wchar_t,ATL::ChTraitsOS<wchar_t> > >::Format

  00000			 AREA	 |.pdata|, PDATA
|$T86725| DCD	|$LN5@Format@2|
	DCD	0x40000703
; Function compile flags: /Ogspy

  00000			 AREA	 |.text|, CODE, ARM

  00000		 |?Format@?$CStringT@_WV?$StrTraitATL@_WV?$ChTraitsOS@_W@ATL@@@ATL@@@ATL@@QAAXPB_WZZ| PROC ; ATL::CStringT<wchar_t,ATL::StrTraitATL<wchar_t,ATL::ChTraitsOS<wchar_t> > >::Format
; Line 2310
  00000		 |$LN5@Format@2|
  00000	e1a0c00d	 mov         r12, sp
  00004	e92d000f	 stmdb       sp!, {r0 - r3}
  00008	e92d5000	 stmdb       sp!, {r12, lr}
  0000c		 |$M86722|
  0000c	e58d100c	 str         r1, [sp, #0xC]
; Line 2315
  00010	e28d2010	 add         r2, sp, #0x10
  00014	eb000000	 bl          |?FormatV@?$CStringT@_WV?$StrTraitATL@_WV?$ChTraitsOS@_W@ATL@@@ATL@@@ATL@@QAAXPB_WPAD@Z|
; Line 2317
  00018	e89da000	 ldmia       sp, {sp, pc}
  0001c		 |$M86723|

			 ENDP  ; |?Format@?$CStringT@_WV?$StrTraitATL@_WV?$ChTraitsOS@_W@ATL@@@ATL@@@ATL@@QAAXPB_WZZ|, ATL::CStringT<wchar_t,ATL::StrTraitATL<wchar_t,ATL::ChTraitsOS<wchar_t> > >::Format

	EXPORT	|?AppendFormat@?$CStringT@_WV?$StrTraitATL@_WV?$ChTraitsOS@_W@ATL@@@ATL@@@ATL@@QAAXPB_WZZ| ; ATL::CStringT<wchar_t,ATL::StrTraitATL<wchar_t,ATL::ChTraitsOS<wchar_t> > >::AppendFormat

  00000			 AREA	 |.pdata|, PDATA
|$T86734| DCD	|$LN5@AppendForm@2|
	DCD	0x40000703
; Function compile flags: /Ogspy

  00000			 AREA	 |.text|, CODE, ARM

  00000		 |?AppendFormat@?$CStringT@_WV?$StrTraitATL@_WV?$ChTraitsOS@_W@ATL@@@ATL@@@ATL@@QAAXPB_WZZ| PROC ; ATL::CStringT<wchar_t,ATL::StrTraitATL<wchar_t,ATL::ChTraitsOS<wchar_t> > >::AppendFormat
; Line 2351
  00000		 |$LN5@AppendForm@2|
  00000	e1a0c00d	 mov         r12, sp
  00004	e92d000f	 stmdb       sp!, {r0 - r3}
  00008	e92d5000	 stmdb       sp!, {r12, lr}
  0000c		 |$M86731|
  0000c	e58d100c	 str         r1, [sp, #0xC]
; Line 2357
  00010	e28d2010	 add         r2, sp, #0x10
  00014	eb000000	 bl          |?AppendFormatV@?$CStringT@_WV?$StrTraitATL@_WV?$ChTraitsOS@_W@ATL@@@ATL@@@ATL@@QAAXPB_WPAD@Z|
; Line 2360
  00018	e89da000	 ldmia       sp, {sp, pc}
  0001c		 |$M86732|

			 ENDP  ; |?AppendFormat@?$CStringT@_WV?$StrTraitATL@_WV?$ChTraitsOS@_W@ATL@@@ATL@@@ATL@@QAAXPB_WZZ|, ATL::CStringT<wchar_t,ATL::StrTraitATL<wchar_t,ATL::ChTraitsOS<wchar_t> > >::AppendFormat

	EXPORT	|?justWindows@@YAHPAUHWND__@@J@Z|	; justWindows
	EXPORT	|??_C@_17NHJDOBIM@?$AA?$CF?$AAd?$AA?6?$AA?$AA@| [ DATA ] ; `string'
	IMPORT	|IsWindow|
; File c:\users\steven\desktop\csharp - dllimport\csharp - dllimport\vs2008\dllimportmango\mangoclass.cpp

  00000			 AREA	 |.pdata|, PDATA
|$T86744| DCD	|$LN6@justWindow|
	DCD	0x40000c01

  00000			 AREA	 |.rdata|, DATA, READONLY
|??_C@_17NHJDOBIM@?$AA?$CF?$AAd?$AA?6?$AA?$AA@| DCB "%", 0x0, "d", 0x0, 0xa
	DCB	0x0, 0x0, 0x0				; `string'
; Function compile flags: /Ogspy

  00000			 AREA	 |.text|, CODE, ARM

  00000		 |?justWindows@@YAHPAUHWND__@@J@Z| PROC	; justWindows
; Line 1385
  00000		 |$LN6@justWindow|
  00000	e92d4010	 stmdb       sp!, {r4, lr}
  00004		 |$M86741|
  00004	e1a04000	 mov         r4, r0
; Line 1386
  00008	eb000000	 bl          IsWindow
  0000c	e3500000	 cmp         r0, #0
; Line 1388
  00010	159f1014	 ldrne       r1, [pc, #0x14]
  00014	159f000c	 ldrne       r0, [pc, #0xC]
  00018	11a02004	 movne       r2, r4
  0001c	1b000000	 blne        |?AppendFormat@?$CStringT@_WV?$StrTraitATL@_WV?$ChTraitsOS@_W@ATL@@@ATL@@@ATL@@QAAXPB_WZZ|
; Line 1390
  00020	e3a00001	 mov         r0, #1
; Line 1391
  00024	e8bd8010	 ldmia       sp!, {r4, pc}
  00028		 |$LN7@justWindow|
  00028		 |$LN8@justWindow|
  00028	00000000	 DCD         |?wndows@@3V?$CStringT@_WV?$StrTraitATL@_WV?$ChTraitsOS@_W@ATL@@@ATL@@@ATL@@A|
  0002c		 |$LN9@justWindow|
  0002c	00000000	 DCD         |??_C@_17NHJDOBIM@?$AA?$CF?$AAd?$AA?6?$AA?$AA@|
  00030		 |$M86742|

			 ENDP  ; |?justWindows@@YAHPAUHWND__@@J@Z|, justWindows

	IMPORT	|EnumWindows|
; File c:\program files (x86)\microsoft visual studio 9.0\vc\ce\atlmfc\include\atlstr.h

  00000			 AREA	 |.pdata|, PDATA
|$T86796| DCD	|$LN19@EnumWindow|
	DCD	0x40001501
; Function compile flags: /Ogspy

  00000			 AREA	 |.text|, CODE, ARM

  00000		 |?EnumWindows7@CMangoClass@@UAAJ_NPAPA_W@Z| PROC ; CMangoClass::EnumWindows7
; File c:\users\steven\desktop\csharp - dllimport\csharp - dllimport\vs2008\dllimportmango\mangoclass.cpp
; Line 1404
  00000		 |$LN19@EnumWindow|
  00000	e92d4030	 stmdb       sp!, {r4, r5, lr}
  00004		 |$M86793|
  00004	e1a05002	 mov         r5, r2
; Line 1406
  00008	e59f4040	 ldr         r4, [pc, #0x40]
  0000c	e1a00004	 mov         r0, r4
  00010	eb000000	 bl          |?Empty@?$CSimpleStringT@_W$0A@@ATL@@QAAXXZ|
; Line 1415
  00014	e59f0030	 ldr         r0, [pc, #0x30]
  00018	e3a01000	 mov         r1, #0
  0001c	eb000000	 bl          EnumWindows
; Line 1417
  00020	e5943000	 ldr         r3, [r4]
  00024	e1a04000	 mov         r4, r0
  00028	e513100c	 ldr         r1, [r3, #-0xC]
  0002c	e1a00003	 mov         r0, r3
  00030	eb000000	 bl          SysAllocStringLen
  00034	e3500000	 cmp         r0, #0
  00038	1a000000	 bne         |$LN3@EnumWindow|
  0003c	eb000000	 bl          |?ThrowMemoryException@?$CSimpleStringT@_W$0A@@ATL@@KAXXZ|
  00040		 |$LN20@EnumWindow|
  00040		 |$LN3@EnumWindow|
  00040	e5850000	 str         r0, [r5]
; Line 1420
  00044	e1a00004	 mov         r0, r4
  00048	e8bd8030	 ldmia       sp!, {r4, r5, pc}
  0004c		 |$LN21@EnumWindow|
  0004c		 |$LN22@EnumWindow|
  0004c	00000000	 DCD         |?justWindows@@YAHPAUHWND__@@J@Z|
  00050		 |$LN23@EnumWindow|
  00050	00000000	 DCD         |?wndows@@3V?$CStringT@_WV?$StrTraitATL@_WV?$ChTraitsOS@_W@ATL@@@ATL@@@ATL@@A|
  00054		 |$LN16@EnumWindow|
  00054		 |$M86794|

			 ENDP  ; |?EnumWindows7@CMangoClass@@UAAJ_NPAPA_W@Z|, CMangoClass::EnumWindows7

	EXPORT	|??_C@_1EI@FAGHLKKK@?$AA?$CF?$AAd?$AA?6?$AA?$CF?$AAd?$AA?6?$AA?$CF?$AAd?$AA?6?$AA?$CF?$AAd?$AA?6?$AA?$CF?$AAd?$AA?6?$AA?$CF?$AAd?$AA?6?$AA?$CF?$AAd?$AA?6?$AA?$CF?$AAd?$AA?6?$AA?$CF?$AAd?$AA?6?$AA?$CF?$AAd?$AA?6?$AA?$CF?$AAd@| [ DATA ] ; `string'
	IMPORT	|GetSystemPowerStatusEx|
; File c:\program files (x86)\microsoft visual studio 9.0\vc\ce\atlmfc\include\atlsimpstr.h

  00000			 AREA	 |.pdata|, PDATA
|$T86936| DCD	|$LN48@GetSystemP|
	DCD	0xc0004404

  00000			 AREA	 |.pdata|, PDATA
|$T86939| DCD	|__unwind$86805|
	DCD	0x40000802

  00000			 AREA	 |.rdata|, DATA, READONLY
|__unwindtable$?GetSystemPowerStatusEx7@CMangoClass@@UAAJPAPA_W_N@Z| DCD 0xffffffff
	DCD	|__unwind$86805|
|__ehfuncinfo$?GetSystemPowerStatusEx7@CMangoClass@@UAAJPAPA_W_N@Z| DCD 0x19930522
	DCD	0x1
	DCD	|__unwindtable$?GetSystemPowerStatusEx7@CMangoClass@@UAAJPAPA_W_N@Z|
	DCD	0x0
	DCD	0x0
	DCD	0x2
	DCD	|$T86932|
	DCD	0x0
	DCD	0x1
|$T86932| DCD	|$M86930|
	DCD	0x0
	DCD	|$M86931|
	DCD	0xffffffff

  00000			 AREA	 |.rdata|, DATA, READONLY
|??_C@_1EI@FAGHLKKK@?$AA?$CF?$AAd?$AA?6?$AA?$CF?$AAd?$AA?6?$AA?$CF?$AAd?$AA?6?$AA?$CF?$AAd?$AA?6?$AA?$CF?$AAd?$AA?6?$AA?$CF?$AAd?$AA?6?$AA?$CF?$AAd?$AA?6?$AA?$CF?$AAd?$AA?6?$AA?$CF?$AAd?$AA?6?$AA?$CF?$AAd?$AA?6?$AA?$CF?$AAd@| DCB "%"
	DCB	0x0, "d", 0x0, 0xa, 0x0, "%", 0x0, "d", 0x0, 0xa, 0x0, "%"
	DCB	0x0, "d", 0x0, 0xa, 0x0, "%", 0x0, "d", 0x0, 0xa, 0x0, "%"
	DCB	0x0, "d", 0x0, 0xa, 0x0, "%", 0x0, "d", 0x0, 0xa, 0x0, "%"
	DCB	0x0, "d", 0x0, 0xa, 0x0, "%", 0x0, "d", 0x0, 0xa, 0x0, "%"
	DCB	0x0, "d", 0x0, 0xa, 0x0, "%", 0x0, "d", 0x0, 0xa, 0x0, "%"
	DCB	0x0, "d", 0x0, 0xa, 0x0, "%", 0x0, "d", 0x0, 0x0, 0x0 ; `string'
; Function compile flags: /Ogspy

  00000			 AREA	 |.text|, CODE, ARM

  00000	00000000	 DCD         |__CxxFrameHandler3|
  00004	00000000	 DCD         |__ehfuncinfo$?GetSystemPowerStatusEx7@CMangoClass@@UAAJPAPA_W_N@Z|

  00008		 |?GetSystemPowerStatusEx7@CMangoClass@@UAAJPAPA_W_N@Z| PROC ; CMangoClass::GetSystemPowerStatusEx7
; File c:\users\steven\desktop\csharp - dllimport\csharp - dllimport\vs2008\dllimportmango\mangoclass.cpp
; Line 1522
  00008		 |$LN48@GetSystemP|
  00008	e1a0c00d	 mov         r12, sp
  0000c	e92d5ff0	 stmdb       sp!, {r4 - r12, lr}
  00010	e28db028	 add         r11, sp, #0x28
  00014	e24dd04c	 sub         sp, sp, #0x4C
  00018		 |$M86933|
  00018	e1a04002	 mov         r4, r2
  0001c	e50b1048	 str         r1, [r11, #-0x48]
; Line 1523
  00020	e3a03000	 mov         r3, #0
  00024	e3a02017	 mov         r2, #0x17
  00028	e3a01000	 mov         r1, #0
  0002c	e24b003f	 sub         r0, r11, #0x3F
  00030	e54b3040	 strb        r3, [r11, #-0x40]
  00034	eb000000	 bl          memset
; Line 1524
  00038	e1a01004	 mov         r1, r4
  0003c	e24b0040	 sub         r0, r11, #0x40
  00040	eb000000	 bl          GetSystemPowerStatusEx
; Line 1526
  00044	e59f20e8	 ldr         r2, [pc, #0xE8]
  00048	e50b0044	 str         r0, [r11, #-0x44]
  0004c	e5923000	 ldr         r3, [r2]
  00050	e1a00002	 mov         r0, r2
  00054	e1a0e00f	 mov         lr, pc
  00058	e593f00c	 ldr         pc, [r3, #0xC]
  0005c	e2803010	 add         r3, r0, #0x10
  00060	e50b304c	 str         r3, [r11, #-0x4C]
; Line 1541
  00064	e55b0032	 ldrb        r0, [r11, #-0x32]
  00068	e55be031	 ldrb        lr, [r11, #-0x31]
  0006c	e55b4034	 ldrb        r4, [r11, #-0x34]
  00070	e58d0004	 str         r0, [sp, #4]
  00074	e51b002c	 ldr         r0, [r11, #-0x2C]
  00078	e55b503d	 ldrb        r5, [r11, #-0x3D]
  0007c	e51b603c	 ldr         r6, [r11, #-0x3C]
  00080	e55b703e	 ldrb        r7, [r11, #-0x3E]
  00084	e51b8038	 ldr         r8, [r11, #-0x38]
  00088	e55b903f	 ldrb        r9, [r11, #-0x3F]
  0008c	e51ba030	 ldr         r10, [r11, #-0x30]
  00090	e55b3033	 ldrb        r3, [r11, #-0x33]
  00094	e55b2040	 ldrb        r2, [r11, #-0x40]
  00098	e59f1090	 ldr         r1, [pc, #0x90]
  0009c	e58d0000	 str         r0, [sp]
  000a0	e24b004c	 sub         r0, r11, #0x4C
  000a4	e58de024	 str         lr, [sp, #0x24]
  000a8	e58d4020	 str         r4, [sp, #0x20]
  000ac	e58d501c	 str         r5, [sp, #0x1C]
  000b0	e58d6018	 str         r6, [sp, #0x18]
  000b4	e58d7014	 str         r7, [sp, #0x14]
  000b8	e58d8010	 str         r8, [sp, #0x10]
  000bc	e58d900c	 str         r9, [sp, #0xC]
  000c0	e58da008	 str         r10, [sp, #8]
  000c4		 |$M86930|
  000c4	eb000000	 bl          |?AppendFormat@?$CStringT@_WV?$StrTraitATL@_WV?$ChTraitsOS@_W@ATL@@@ATL@@@ATL@@QAAXPB_WZZ|
; Line 1543
  000c8	e51b004c	 ldr         r0, [r11, #-0x4C]
  000cc	e2404010	 sub         r4, r0, #0x10
  000d0	e5941004	 ldr         r1, [r4, #4]
  000d4	eb000000	 bl          SysAllocStringLen
  000d8	e3500000	 cmp         r0, #0
  000dc	1a000000	 bne         |$LN22@GetSystemP|
  000e0	eb000000	 bl          |?ThrowMemoryException@?$CSimpleStringT@_W$0A@@ATL@@KAXXZ|
  000e4		 |$LN51@GetSystemP|
  000e4		 |$LN22@GetSystemP|
  000e4	e51b3048	 ldr         r3, [r11, #-0x48]
  000e8	e5830000	 str         r0, [r3]
; Line 1552
  000ec	e284000c	 add         r0, r4, #0xC
  000f0	eb000000	 bl          InterlockedDecrement
  000f4	e3500000	 cmp         r0, #0
  000f8	d5940000	 ldrle       r0, [r4]
  000fc	d1a01004	 movle       r1, r4
  00100	d5903000	 ldrle       r3, [r0]
  00104		 |$M86931|
  00104	d1a0e00f	 movle       lr, pc
  00108	d593f004	 ldrle       pc, [r3, #4]
; Line 1553
  0010c	e51b0044	 ldr         r0, [r11, #-0x44]
  00110	e24bd028	 sub         sp, r11, #0x28
  00114	e89daff0	 ldmia       sp, {r4 - r11, sp, pc}
  00118		 |$LN43@GetSystemP|
  00118		 |$M86934|
  00118		 |__unwind$86805|
  00118	e52de004	 str         lr, [sp, #-4]!
  0011c	e24dd028	 sub         sp, sp, #0x28
  00120		 |$M86937|
  00120	e24b004c	 sub         r0, r11, #0x4C
  00124	eb000000	 bl          |??1?$CStringT@_WV?$StrTraitATL@_WV?$ChTraitsOS@_W@ATL@@@ATL@@@ATL@@QAA@XZ|
  00128	e28dd028	 add         sp, sp, #0x28
  0012c	e8bd8000	 ldmia       sp!, {pc}
  00130		 |$LN52@GetSystemP|
  00130		 |$LN53@GetSystemP|
  00130	00000000	 DCD         |??_C@_1EI@FAGHLKKK@?$AA?$CF?$AAd?$AA?6?$AA?$CF?$AAd?$AA?6?$AA?$CF?$AAd?$AA?6?$AA?$CF?$AAd?$AA?6?$AA?$CF?$AAd?$AA?6?$AA?$CF?$AAd?$AA?6?$AA?$CF?$AAd?$AA?6?$AA?$CF?$AAd?$AA?6?$AA?$CF?$AAd?$AA?6?$AA?$CF?$AAd?$AA?6?$AA?$CF?$AAd@|
  00134		 |$LN54@GetSystemP|
  00134	00000000	 DCD         |?g_strmgr@ATL@@3VCAtlStringMgr@1@A|
  00138		 |$M86938|

			 ENDP  ; |?GetSystemPowerStatusEx7@CMangoClass@@UAAJPAPA_W_N@Z|, CMangoClass::GetSystemPowerStatusEx7

	EXPORT	|??_C@_1DA@PCOFNLNE@?$AAG?$AAe?$AAt?$AAS?$AAy?$AAs?$AAt?$AAe?$AAm?$AAP?$AAo?$AAw?$AAe?$AAr?$AAS?$AAt?$AAa?$AAt?$AAu?$AAs?$AAE?$AAx?$AA2?$AA?$AA@| [ DATA ] ; `string'
	EXPORT	|??_C@_1HI@BEPNGHGE@?$AA?$CF?$AAd?$AA?6?$AA?$CF?$AAd?$AA?6?$AA?$CF?$AAd?$AA?6?$AA?$CF?$AAd?$AA?6?$AA?$CF?$AAd?$AA?6?$AA?$CF?$AAd?$AA?6?$AA?$CF?$AAd?$AA?6?$AA?$CF?$AAd?$AA?6?$AA?$CF?$AAd?$AA?6?$AA?$CF?$AAd?$AA?6?$AA?$CF?$AAd@| [ DATA ] ; `string'
; File c:\program files (x86)\microsoft visual studio 9.0\vc\ce\atlmfc\include\atlsimpstr.h

  00000			 AREA	 |.pdata|, PDATA
|$T87082| DCD	|$LN48@GetSystemP@2|
	DCD	0xc0005a04

  00000			 AREA	 |.pdata|, PDATA
|$T87085| DCD	|__unwind$86950|
	DCD	0x40000a02

  00000			 AREA	 |.rdata|, DATA, READONLY
|__unwindtable$?GetSystemPowerStatusExAdv7@CMangoClass@@UAAJPAPA_W_N@Z| DCD 0xffffffff
	DCD	|__unwind$86950|
|__ehfuncinfo$?GetSystemPowerStatusExAdv7@CMangoClass@@UAAJPAPA_W_N@Z| DCD 0x19930522
	DCD	0x1
	DCD	|__unwindtable$?GetSystemPowerStatusExAdv7@CMangoClass@@UAAJPAPA_W_N@Z|
	DCD	0x0
	DCD	0x0
	DCD	0x2
	DCD	|$T87078|
	DCD	0x0
	DCD	0x1
|$T87078| DCD	|$M87076|
	DCD	0x0
	DCD	|$M87077|
	DCD	0xffffffff

  00000			 AREA	 |.rdata|, DATA, READONLY
|??_C@_1DA@PCOFNLNE@?$AAG?$AAe?$AAt?$AAS?$AAy?$AAs?$AAt?$AAe?$AAm?$AAP?$AAo?$AAw?$AAe?$AAr?$AAS?$AAt?$AAa?$AAt?$AAu?$AAs?$AAE?$AAx?$AA2?$AA?$AA@| DCB "G"
	DCB	0x0, "e", 0x0, "t", 0x0, "S", 0x0, "y", 0x0, "s", 0x0, "t"
	DCB	0x0, "e", 0x0, "m", 0x0, "P", 0x0, "o", 0x0, "w", 0x0, "e"
	DCB	0x0, "r", 0x0, "S", 0x0, "t", 0x0, "a", 0x0, "t", 0x0, "u"
	DCB	0x0, "s", 0x0, "E", 0x0, "x", 0x0, "2", 0x0, 0x0, 0x0 ; `string'

  00000			 AREA	 |.rdata|, DATA, READONLY
|??_C@_1HI@BEPNGHGE@?$AA?$CF?$AAd?$AA?6?$AA?$CF?$AAd?$AA?6?$AA?$CF?$AAd?$AA?6?$AA?$CF?$AAd?$AA?6?$AA?$CF?$AAd?$AA?6?$AA?$CF?$AAd?$AA?6?$AA?$CF?$AAd?$AA?6?$AA?$CF?$AAd?$AA?6?$AA?$CF?$AAd?$AA?6?$AA?$CF?$AAd?$AA?6?$AA?$CF?$AAd@| DCB "%"
	DCB	0x0, "d", 0x0, 0xa, 0x0, "%", 0x0, "d", 0x0, 0xa, 0x0, "%"
	DCB	0x0, "d", 0x0, 0xa, 0x0, "%", 0x0, "d", 0x0, 0xa, 0x0, "%"
	DCB	0x0, "d", 0x0, 0xa, 0x0, "%", 0x0, "d", 0x0, 0xa, 0x0, "%"
	DCB	0x0, "d", 0x0, 0xa, 0x0, "%", 0x0, "d", 0x0, 0xa, 0x0, "%"
	DCB	0x0, "d", 0x0, 0xa, 0x0, "%", 0x0, "d", 0x0, 0xa, 0x0, "%"
	DCB	0x0, "d", 0x0, 0xa, 0x0, "%", 0x0, "d", 0x0, 0xa, 0x0, "%"
	DCB	0x0, "d", 0x0, 0xa, 0x0, "%", 0x0, "d", 0x0, 0xa, 0x0, "%"
	DCB	0x0, "d", 0x0, 0xa, 0x0, "%", 0x0, "d", 0x0, 0xa, 0x0, "%"
	DCB	0x0, "d", 0x0, 0xa, 0x0, "%", 0x0, "d", 0x0, 0xa, 0x0, "%"
	DCB	0x0, "d", 0x0, 0xa, 0x0, "%", 0x0, "d", 0x0, 0x0, 0x0 ; `string'
; Function compile flags: /Ogspy

  00000			 AREA	 |.text|, CODE, ARM

  00000	00000000	 DCD         |__CxxFrameHandler3|
  00004	00000000	 DCD         |__ehfuncinfo$?GetSystemPowerStatusExAdv7@CMangoClass@@UAAJPAPA_W_N@Z|

  00008		 |?GetSystemPowerStatusExAdv7@CMangoClass@@UAAJPAPA_W_N@Z| PROC ; CMangoClass::GetSystemPowerStatusExAdv7
; File c:\users\steven\desktop\csharp - dllimport\csharp - dllimport\vs2008\dllimportmango\mangoclass.cpp
; Line 1743
  00008		 |$LN48@GetSystemP@2|
  00008	e1a0c00d	 mov         r12, sp
  0000c	e92d5ff0	 stmdb       sp!, {r4 - r12, lr}
  00010	e28db028	 add         r11, sp, #0x28
  00014	e24dd08c	 sub         sp, sp, #0x8C
  00018		 |$M87079|
  00018	e1a04002	 mov         r4, r2
  0001c	e50b1068	 str         r1, [r11, #-0x68]
; Line 1744
  00020	e3a03000	 mov         r3, #0
  00024	e3a02037	 mov         r2, #0x37
  00028	e3a01000	 mov         r1, #0
  0002c	e24b005f	 sub         r0, r11, #0x5F
  00030	e54b3060	 strb        r3, [r11, #-0x60]
  00034	eb000000	 bl          memset
; Line 1745
  00038	e59f1154	 ldr         r1, [pc, #0x154]
  0003c	e59f014c	 ldr         r0, [pc, #0x14C]
  00040	eb000000	 bl          |??$LoadMethod@P6AKPAU_SYSTEM_POWER_STATUS_EX2@@KH@Z@@YAP6AKPAU_SYSTEM_POWER_STATUS_EX2@@KH@ZPB_W1@Z|
  00044	e1a03000	 mov         r3, r0
; Line 1747
  00048	e24b0060	 sub         r0, r11, #0x60
  0004c	e1a02004	 mov         r2, r4
  00050	e3a01038	 mov         r1, #0x38
  00054	e1a0e00f	 mov         lr, pc
  00058	e1a0f003	 mov         pc, r3
; Line 1749
  0005c	e59f2128	 ldr         r2, [pc, #0x128]
  00060	e50b0064	 str         r0, [r11, #-0x64]
  00064	e5923000	 ldr         r3, [r2]
  00068	e1a00002	 mov         r0, r2
  0006c	e1a0e00f	 mov         lr, pc
  00070	e593f00c	 ldr         pc, [r3, #0xC]
  00074	e2803010	 add         r3, r0, #0x10
  00078	e50b306c	 str         r3, [r11, #-0x6C]
; Line 1773
  0007c	e51b0040	 ldr         r0, [r11, #-0x40]
  00080	e55be051	 ldrb        lr, [r11, #-0x51]
  00084	e55b4054	 ldrb        r4, [r11, #-0x54]
  00088	e58d0024	 str         r0, [sp, #0x24]
  0008c	e51b0044	 ldr         r0, [r11, #-0x44]
  00090	e55b505d	 ldrb        r5, [r11, #-0x5D]
  00094	e55b602c	 ldrb        r6, [r11, #-0x2C]
  00098	e58d0020	 str         r0, [sp, #0x20]
  0009c	e51b0048	 ldr         r0, [r11, #-0x48]
  000a0	e51b7030	 ldr         r7, [r11, #-0x30]
  000a4	e51b8034	 ldr         r8, [r11, #-0x34]
  000a8	e58d001c	 str         r0, [sp, #0x1C]
  000ac	e51b005c	 ldr         r0, [r11, #-0x5C]
  000b0	e51b9038	 ldr         r9, [r11, #-0x38]
  000b4	e51ba03c	 ldr         r10, [r11, #-0x3C]
  000b8	e58d0018	 str         r0, [sp, #0x18]
  000bc	e55b005e	 ldrb        r0, [r11, #-0x5E]
  000c0	e55b3053	 ldrb        r3, [r11, #-0x53]
  000c4	e55b2060	 ldrb        r2, [r11, #-0x60]
  000c8	e58d0014	 str         r0, [sp, #0x14]
  000cc	e51b0058	 ldr         r0, [r11, #-0x58]
  000d0	e59f10b0	 ldr         r1, [pc, #0xB0]
  000d4	e58de044	 str         lr, [sp, #0x44]
  000d8	e58d0010	 str         r0, [sp, #0x10]
  000dc	e55b005f	 ldrb        r0, [r11, #-0x5F]
  000e0	e58d4040	 str         r4, [sp, #0x40]
  000e4	e58d503c	 str         r5, [sp, #0x3C]
  000e8	e58d000c	 str         r0, [sp, #0xC]
  000ec	e51b0050	 ldr         r0, [r11, #-0x50]
  000f0	e58d6038	 str         r6, [sp, #0x38]
  000f4	e58d7034	 str         r7, [sp, #0x34]
  000f8	e58d0008	 str         r0, [sp, #8]
  000fc	e55b0052	 ldrb        r0, [r11, #-0x52]
  00100	e58d8030	 str         r8, [sp, #0x30]
  00104	e58d902c	 str         r9, [sp, #0x2C]
  00108	e58d0004	 str         r0, [sp, #4]
  0010c	e51b004c	 ldr         r0, [r11, #-0x4C]
  00110	e58da028	 str         r10, [sp, #0x28]
  00114	e58d0000	 str         r0, [sp]
  00118	e24b006c	 sub         r0, r11, #0x6C
  0011c		 |$M87076|
  0011c	eb000000	 bl          |?AppendFormat@?$CStringT@_WV?$StrTraitATL@_WV?$ChTraitsOS@_W@ATL@@@ATL@@@ATL@@QAAXPB_WZZ|
; Line 1778
  00120	e51b006c	 ldr         r0, [r11, #-0x6C]
  00124	e2404010	 sub         r4, r0, #0x10
  00128	e5941004	 ldr         r1, [r4, #4]
  0012c	eb000000	 bl          SysAllocStringLen
  00130	e3500000	 cmp         r0, #0
  00134	1a000000	 bne         |$LN22@GetSystemP@2|
  00138	eb000000	 bl          |?ThrowMemoryException@?$CSimpleStringT@_W$0A@@ATL@@KAXXZ|
  0013c		 |$LN51@GetSystemP@2|
  0013c		 |$LN22@GetSystemP@2|
  0013c	e51b3068	 ldr         r3, [r11, #-0x68]
  00140	e5830000	 str         r0, [r3]
; Line 1780
  00144	e284000c	 add         r0, r4, #0xC
  00148	eb000000	 bl          InterlockedDecrement
  0014c	e3500000	 cmp         r0, #0
  00150	d5940000	 ldrle       r0, [r4]
  00154	d1a01004	 movle       r1, r4
  00158	d5903000	 ldrle       r3, [r0]
  0015c		 |$M87077|
  0015c	d1a0e00f	 movle       lr, pc
  00160	d593f004	 ldrle       pc, [r3, #4]
; Line 1781
  00164	e51b0064	 ldr         r0, [r11, #-0x64]
  00168	e24bd028	 sub         sp, r11, #0x28
  0016c	e89daff0	 ldmia       sp, {r4 - r11, sp, pc}
  00170		 |$LN43@GetSystemP@2|
  00170		 |$M87080|
  00170		 |__unwind$86950|
  00170	e52de004	 str         lr, [sp, #-4]!
  00174	e24dd048	 sub         sp, sp, #0x48
  00178		 |$M87083|
  00178	e24b006c	 sub         r0, r11, #0x6C
  0017c	eb000000	 bl          |??1?$CStringT@_WV?$StrTraitATL@_WV?$ChTraitsOS@_W@ATL@@@ATL@@@ATL@@QAA@XZ|
  00180	e28dd048	 add         sp, sp, #0x48
  00184	e8bd8000	 ldmia       sp!, {pc}
  00188		 |$LN52@GetSystemP@2|
  00188		 |$LN53@GetSystemP@2|
  00188	00000000	 DCD         |??_C@_1HI@BEPNGHGE@?$AA?$CF?$AAd?$AA?6?$AA?$CF?$AAd?$AA?6?$AA?$CF?$AAd?$AA?6?$AA?$CF?$AAd?$AA?6?$AA?$CF?$AAd?$AA?6?$AA?$CF?$AAd?$AA?6?$AA?$CF?$AAd?$AA?6?$AA?$CF?$AAd?$AA?6?$AA?$CF?$AAd?$AA?6?$AA?$CF?$AAd?$AA?6?$AA?$CF?$AAd@|
  0018c		 |$LN54@GetSystemP@2|
  0018c	00000000	 DCD         |?g_strmgr@ATL@@3VCAtlStringMgr@1@A|
  00190		 |$LN55@GetSystemP@2|
  00190	00000000	 DCD         |??_C@_1BA@HMFMEPIE@?$AAc?$AAo?$AAr?$AAe?$AAd?$AAl?$AAl?$AA?$AA@|
  00194		 |$LN56@GetSystemP@2|
  00194	00000000	 DCD         |??_C@_1DA@PCOFNLNE@?$AAG?$AAe?$AAt?$AAS?$AAy?$AAs?$AAt?$AAe?$AAm?$AAP?$AAo?$AAw?$AAe?$AAr?$AAS?$AAt?$AAa?$AAt?$AAu?$AAs?$AAE?$AAx?$AA2?$AA?$AA@|
  00198		 |$M87084|

			 ENDP  ; |?GetSystemPowerStatusExAdv7@CMangoClass@@UAAJPAPA_W_N@Z|, CMangoClass::GetSystemPowerStatusExAdv7

	EXPORT	|??_C@_1DA@EKGBCLOO@?$AA?$CF?$AAd?$AA?6?$AA?$CF?$AAd?$AA?6?$AA?$CF?$AAd?$AA?6?$AA?$CF?$AAd?$AA?6?$AA?$CF?$AAd?$AA?6?$AA?$CF?$AAd?$AA?6?$AA?$CF?$AAd?$AA?6?$AA?$CF?$AAd?$AA?$AA@| [ DATA ] ; `string'
	IMPORT	|GlobalMemoryStatus|
; File c:\program files (x86)\microsoft visual studio 9.0\vc\ce\atlmfc\include\atlsimpstr.h

  00000			 AREA	 |.pdata|, PDATA
|$T87227| DCD	|$LN48@GlobalMemo|
	DCD	0xc0003104

  00000			 AREA	 |.pdata|, PDATA
|$T87230| DCD	|__unwind$87098|
	DCD	0x40000802

  00000			 AREA	 |.rdata|, DATA, READONLY
|__unwindtable$?GlobalMemoryStatus7@CMangoClass@@UAAJPAPA_W@Z| DCD 0xffffffff
	DCD	|__unwind$87098|
|__ehfuncinfo$?GlobalMemoryStatus7@CMangoClass@@UAAJPAPA_W@Z| DCD 0x19930522
	DCD	0x1
	DCD	|__unwindtable$?GlobalMemoryStatus7@CMangoClass@@UAAJPAPA_W@Z|
	DCD	0x0
	DCD	0x0
	DCD	0x2
	DCD	|$T87223|
	DCD	0x0
	DCD	0x1
|$T87223| DCD	|$M87221|
	DCD	0x0
	DCD	|$M87222|
	DCD	0xffffffff

  00000			 AREA	 |.rdata|, DATA, READONLY
|??_C@_1DA@EKGBCLOO@?$AA?$CF?$AAd?$AA?6?$AA?$CF?$AAd?$AA?6?$AA?$CF?$AAd?$AA?6?$AA?$CF?$AAd?$AA?6?$AA?$CF?$AAd?$AA?6?$AA?$CF?$AAd?$AA?6?$AA?$CF?$AAd?$AA?6?$AA?$CF?$AAd?$AA?$AA@| DCB "%"
	DCB	0x0, "d", 0x0, 0xa, 0x0, "%", 0x0, "d", 0x0, 0xa, 0x0, "%"
	DCB	0x0, "d", 0x0, 0xa, 0x0, "%", 0x0, "d", 0x0, 0xa, 0x0, "%"
	DCB	0x0, "d", 0x0, 0xa, 0x0, "%", 0x0, "d", 0x0, 0xa, 0x0, "%"
	DCB	0x0, "d", 0x0, 0xa, 0x0, "%", 0x0, "d", 0x0, 0x0, 0x0 ; `string'
; Function compile flags: /Ogspy

  00000			 AREA	 |.text|, CODE, ARM

  00000	00000000	 DCD         |__CxxFrameHandler3|
  00004	00000000	 DCD         |__ehfuncinfo$?GlobalMemoryStatus7@CMangoClass@@UAAJPAPA_W@Z|

  00008		 |?GlobalMemoryStatus7@CMangoClass@@UAAJPAPA_W@Z| PROC ; CMangoClass::GlobalMemoryStatus7
; File c:\users\steven\desktop\csharp - dllimport\csharp - dllimport\vs2008\dllimportmango\mangoclass.cpp
; Line 1784
  00008		 |$LN48@GlobalMemo|
  00008	e1a0c00d	 mov         r12, sp
  0000c	e92d59f0	 stmdb       sp!, {r4 - r8, r11, r12, lr}
  00010	e28db020	 add         r11, sp, #0x20
  00014	e24dd03c	 sub         sp, sp, #0x3C
  00018		 |$M87224|
  00018	e1a08001	 mov         r8, r1
; Line 1796
  0001c	e24b0040	 sub         r0, r11, #0x40
  00020	eb000000	 bl          GlobalMemoryStatus
; Line 1798
  00024	e59f00bc	 ldr         r0, [pc, #0xBC]
  00028	e5903000	 ldr         r3, [r0]
  0002c	e1a0e00f	 mov         lr, pc
  00030	e593f00c	 ldr         pc, [r3, #0xC]
  00034	e2803010	 add         r3, r0, #0x10
  00038	e50b3044	 str         r3, [r11, #-0x44]
; Line 1809
  0003c	e51b0024	 ldr         r0, [r11, #-0x24]
  00040	e51be028	 ldr         lr, [r11, #-0x28]
  00044	e51b402c	 ldr         r4, [r11, #-0x2C]
  00048	e51b5030	 ldr         r5, [r11, #-0x30]
  0004c	e51b6034	 ldr         r6, [r11, #-0x34]
  00050	e51b7038	 ldr         r7, [r11, #-0x38]
  00054	e51b303c	 ldr         r3, [r11, #-0x3C]
  00058	e51b2040	 ldr         r2, [r11, #-0x40]
  0005c	e59f1080	 ldr         r1, [pc, #0x80]
  00060	e58d0014	 str         r0, [sp, #0x14]
  00064	e24b0044	 sub         r0, r11, #0x44
  00068	e58de010	 str         lr, [sp, #0x10]
  0006c	e58d400c	 str         r4, [sp, #0xC]
  00070	e58d5008	 str         r5, [sp, #8]
  00074	e58d6004	 str         r6, [sp, #4]
  00078	e58d7000	 str         r7, [sp]
  0007c		 |$M87221|
  0007c	eb000000	 bl          |?AppendFormat@?$CStringT@_WV?$StrTraitATL@_WV?$ChTraitsOS@_W@ATL@@@ATL@@@ATL@@QAAXPB_WZZ|
; Line 1812
  00080	e51b0044	 ldr         r0, [r11, #-0x44]
  00084	e2404010	 sub         r4, r0, #0x10
  00088	e5941004	 ldr         r1, [r4, #4]
  0008c	eb000000	 bl          SysAllocStringLen
  00090	e3500000	 cmp         r0, #0
  00094	1a000000	 bne         |$LN22@GlobalMemo|
  00098	eb000000	 bl          |?ThrowMemoryException@?$CSimpleStringT@_W$0A@@ATL@@KAXXZ|
  0009c		 |$LN51@GlobalMemo|
  0009c		 |$LN22@GlobalMemo|
  0009c	e5880000	 str         r0, [r8]
; Line 1814
  000a0	e284000c	 add         r0, r4, #0xC
  000a4	eb000000	 bl          InterlockedDecrement
  000a8	e3500000	 cmp         r0, #0
  000ac	d5940000	 ldrle       r0, [r4]
  000b0	d1a01004	 movle       r1, r4
  000b4	d5903000	 ldrle       r3, [r0]
  000b8		 |$M87222|
  000b8	d1a0e00f	 movle       lr, pc
  000bc	d593f004	 ldrle       pc, [r3, #4]
  000c0	e3a00001	 mov         r0, #1
; Line 1815
  000c4	e24bd020	 sub         sp, r11, #0x20
  000c8	e89da9f0	 ldmia       sp, {r4 - r8, r11, sp, pc}
  000cc		 |$LN43@GlobalMemo|
  000cc		 |$M87225|
  000cc		 |__unwind$87098|
  000cc	e52de004	 str         lr, [sp, #-4]!
  000d0	e24dd018	 sub         sp, sp, #0x18
  000d4		 |$M87228|
  000d4	e24b0044	 sub         r0, r11, #0x44
  000d8	eb000000	 bl          |??1?$CStringT@_WV?$StrTraitATL@_WV?$ChTraitsOS@_W@ATL@@@ATL@@@ATL@@QAA@XZ|
  000dc	e28dd018	 add         sp, sp, #0x18
  000e0	e8bd8000	 ldmia       sp!, {pc}
  000e4		 |$LN52@GlobalMemo|
  000e4		 |$LN53@GlobalMemo|
  000e4	00000000	 DCD         |??_C@_1DA@EKGBCLOO@?$AA?$CF?$AAd?$AA?6?$AA?$CF?$AAd?$AA?6?$AA?$CF?$AAd?$AA?6?$AA?$CF?$AAd?$AA?6?$AA?$CF?$AAd?$AA?6?$AA?$CF?$AAd?$AA?6?$AA?$CF?$AAd?$AA?6?$AA?$CF?$AAd?$AA?$AA@|
  000e8		 |$LN54@GlobalMemo|
  000e8	00000000	 DCD         |?g_strmgr@ATL@@3VCAtlStringMgr@1@A|
  000ec		 |$M87229|

			 ENDP  ; |?GlobalMemoryStatus7@CMangoClass@@UAAJPAPA_W@Z|, CMangoClass::GlobalMemoryStatus7

	EXPORT	|__$ArrayPad$| [ DATA ]
	EXPORT	|??_C@_1KC@HBKIIOIP@?$AA?$CF?$AAs?$AA?6?$AA?$CF?$AAd?$AA?6?$AA?$CF?$AAd?$AA?6?$AA?$CF?$AAd?$AA?6?$AA?$CF?$AAd?$AA?6?$AA?$CF?$AAd?$AA?6?$AA?$CF?$AAd?$AA?6?$AA?$CF?$AAd?$AA?6?$AA?$CF?$AAd?$AA?6?$AA?$CF?$AAd?$AA?6?$AA?$CF?$AAd@| [ DATA ] ; `string'
	IMPORT	|EnumDisplaySettings|
; File c:\program files (x86)\microsoft visual studio 9.0\vc\ce\atlmfc\include\atlsimpstr.h

  00000			 AREA	 |.pdata|, PDATA
|$T87374| DCD	|$LN48@EnumDispla@2|
	DCD	0xc0006d04

  00000			 AREA	 |.pdata|, PDATA
|$T87377| DCD	|__unwind$87241|
	DCD	0x40000902

  00000			 AREA	 |.rdata|, DATA, READONLY
|__unwindtable$?EnumDisplaySettings7@CMangoClass@@UAAJPA_WKPAPA_W@Z| DCD 0xffffffff
	DCD	|__unwind$87241|
|__ehfuncinfo$?EnumDisplaySettings7@CMangoClass@@UAAJPA_WKPAPA_W@Z| DCD 0x19930522
	DCD	0x1
	DCD	|__unwindtable$?EnumDisplaySettings7@CMangoClass@@UAAJPA_WKPAPA_W@Z|
	DCD	0x0
	DCD	0x0
	DCD	0x2
	DCD	|$T87370|
	DCD	0x0
	DCD	0x1
	DCD	0xffffffd4
|$T87370| DCD	|$M87368|
	DCD	0x0
	DCD	|$M87369|
	DCD	0xffffffff

  00000			 AREA	 |.rdata|, DATA, READONLY
|??_C@_1KC@HBKIIOIP@?$AA?$CF?$AAs?$AA?6?$AA?$CF?$AAd?$AA?6?$AA?$CF?$AAd?$AA?6?$AA?$CF?$AAd?$AA?6?$AA?$CF?$AAd?$AA?6?$AA?$CF?$AAd?$AA?6?$AA?$CF?$AAd?$AA?6?$AA?$CF?$AAd?$AA?6?$AA?$CF?$AAd?$AA?6?$AA?$CF?$AAd?$AA?6?$AA?$CF?$AAd@| DCB "%"
	DCB	0x0, "s", 0x0, 0xa, 0x0, "%", 0x0, "d", 0x0, 0xa, 0x0, "%"
	DCB	0x0, "d", 0x0, 0xa, 0x0, "%", 0x0, "d", 0x0, 0xa, 0x0, "%"
	DCB	0x0, "d", 0x0, 0xa, 0x0, "%", 0x0, "d", 0x0, 0xa, 0x0, "%"
	DCB	0x0, "d", 0x0, 0xa, 0x0, "%", 0x0, "d", 0x0, 0xa, 0x0, "%"
	DCB	0x0, "d", 0x0, 0xa, 0x0, "%", 0x0, "d", 0x0, 0xa, 0x0, "%"
	DCB	0x0, "d", 0x0, 0xa, 0x0, "%", 0x0, "d", 0x0, 0xa, 0x0, "%"
	DCB	0x0, "d", 0x0, 0xa, 0x0, "%", 0x0, "d", 0x0, 0xa, 0x0, "%"
	DCB	0x0, "d", 0x0, 0xa, 0x0, "%", 0x0, "d", 0x0, 0xa, 0x0, "%"
	DCB	0x0, "d", 0x0, 0xa, 0x0, "%", 0x0, "d", 0x0, 0xa, 0x0, "%"
	DCB	0x0, "d", 0x0, 0xa, 0x0, "%", 0x0, "s", 0x0, 0xa, 0x0, "%"
	DCB	0x0, "d", 0x0, 0xa, 0x0, "%", 0x0, "d", 0x0, 0xa, 0x0, "%"
	DCB	0x0, "d", 0x0, 0xa, 0x0, "%", 0x0, "d", 0x0, 0xa, 0x0, "%"
	DCB	0x0, "d", 0x0, 0xa, 0x0, "%", 0x0, "d", 0x0, 0xa, 0x0, "%"
	DCB	0x0, "d", 0x0, 0x0, 0x0			; `string'
; Function compile flags: /Ogspy

  00000			 AREA	 |.text|, CODE, ARM

  00000	00000000	 DCD         |__GSHandlerCheck_EH|
  00004	00000000	 DCD         |__ehfuncinfo$?EnumDisplaySettings7@CMangoClass@@UAAJPA_WKPAPA_W@Z|

  00008		 |?EnumDisplaySettings7@CMangoClass@@UAAJPA_WKPAPA_W@Z| PROC ; CMangoClass::EnumDisplaySettings7
; File c:\users\steven\desktop\csharp - dllimport\csharp - dllimport\vs2008\dllimportmango\mangoclass.cpp
; Line 1831
  00008		 |$LN48@EnumDispla@2|
  00008	e1a0c00d	 mov         r12, sp
  0000c	e92d5ff0	 stmdb       sp!, {r4 - r12, lr}
  00010	e28db028	 add         r11, sp, #0x28
  00014	e24ddf4d	 sub         sp, sp, #0x4D, 30	; 308 (0x134)
  00018		 |$M87371|
  00018	e50b30f4	 str         r3, [r11, #-0xF4]
  0001c	e59f21b8	 ldr         r2, [pc, #0x1B8]
  00020	e5922000	 ldr         r2, [r2]
  00024	e50b202c	 str         r2, [r11, #-0x2C]
; Line 1832
  00028	e3a03000	 mov         r3, #0
  0002c	e3a0203e	 mov         r2, #0x3E
  00030	e3a01000	 mov         r1, #0
  00034	e24b00ea	 sub         r0, r11, #0xEA
  00038	e14b3ebc	 strh        r3, [r11, #-0xEC]
  0003c	eb000000	 bl          memset
  00040	e3a02080	 mov         r2, #0x80
  00044	e3a01000	 mov         r1, #0
  00048	e24b00ac	 sub         r0, r11, #0xAC
  0004c	eb000000	 bl          memset
; Line 1833
  00050	e3a030c0	 mov         r3, #0xC0
; Line 1834
  00054	e24b20ec	 sub         r2, r11, #0xEC
  00058	e3e01000	 mvn         r1, #0
  0005c	e3a00000	 mov         r0, #0
  00060	e14b3ab8	 strh        r3, [r11, #-0xA8]
  00064	eb000000	 bl          EnumDisplaySettings
; Line 1836
  00068	e59f2168	 ldr         r2, [pc, #0x168]
  0006c	e50b00f0	 str         r0, [r11, #-0xF0]
  00070	e5923000	 ldr         r3, [r2]
  00074	e1a00002	 mov         r0, r2
  00078	e1a0e00f	 mov         lr, pc
  0007c	e593f00c	 ldr         pc, [r3, #0xC]
  00080	e2803010	 add         r3, r0, #0x10
  00084	e50b30f8	 str         r3, [r11, #-0xF8]
; Line 1869
  00088	e51b3030	 ldr         r3, [r11, #-0x30]
  0008c	e51b2034	 ldr         r2, [r11, #-0x34]
  00090	e51b1038	 ldr         r1, [r11, #-0x38]
  00094	e58d3060	 str         r3, [sp, #0x60]
  00098	e15b39f2	 ldrsh       r3, [r11, #-0x92]
  0009c	e51be03c	 ldr         lr, [r11, #-0x3C]
  000a0	e51b4040	 ldr         r4, [r11, #-0x40]
  000a4	e58d302c	 str         r3, [sp, #0x2C]
  000a8	e15b39f4	 ldrsh       r3, [r11, #-0x94]
  000ac	e51b5044	 ldr         r5, [r11, #-0x44]
  000b0	e15b64b6	 ldrh        r6, [r11, #-0x46]
  000b4	e58d3028	 str         r3, [sp, #0x28]
  000b8	e15b39f6	 ldrsh       r3, [r11, #-0x96]
  000bc	e15b78f8	 ldrsh       r7, [r11, #-0x88]
  000c0	e15b88fa	 ldrsh       r8, [r11, #-0x8A]
  000c4	e58d3024	 str         r3, [sp, #0x24]
  000c8	e15b39f8	 ldrsh       r3, [r11, #-0x98]
  000cc	e15b98fc	 ldrsh       r9, [r11, #-0x8C]
  000d0	e15ba8fe	 ldrsh       r10, [r11, #-0x8E]
  000d4	e58d3020	 str         r3, [sp, #0x20]
  000d8	e15b39fa	 ldrsh       r3, [r11, #-0x9A]
  000dc	e15b09f0	 ldrsh       r0, [r11, #-0x90]
  000e0	e58d205c	 str         r2, [sp, #0x5C]
  000e4	e58d301c	 str         r3, [sp, #0x1C]
  000e8	e15b39fc	 ldrsh       r3, [r11, #-0x9C]
  000ec	e15b2aba	 ldrh        r2, [r11, #-0xAA]
  000f0	e58d1058	 str         r1, [sp, #0x58]
  000f4	e58d3018	 str         r3, [sp, #0x18]
  000f8	e15b39fe	 ldrsh       r3, [r11, #-0x9E]
  000fc	e58de054	 str         lr, [sp, #0x54]
  00100	e58d4050	 str         r4, [sp, #0x50]
  00104	e58d3014	 str         r3, [sp, #0x14]
  00108	e15b3af0	 ldrsh       r3, [r11, #-0xA0]
  0010c	e58d504c	 str         r5, [sp, #0x4C]
  00110	e58d6048	 str         r6, [sp, #0x48]
  00114	e58d3010	 str         r3, [sp, #0x10]
  00118	e51b30a4	 ldr         r3, [r11, #-0xA4]
  0011c	e58d7040	 str         r7, [sp, #0x40]
  00120	e58d803c	 str         r8, [sp, #0x3C]
  00124	e58d300c	 str         r3, [sp, #0xC]
  00128	e15b3ab6	 ldrh        r3, [r11, #-0xA6]
  0012c	e58d9038	 str         r9, [sp, #0x38]
  00130	e58da034	 str         r10, [sp, #0x34]
  00134	e58d3008	 str         r3, [sp, #8]
  00138	e15b3ab8	 ldrh        r3, [r11, #-0xA8]
  0013c	e58d0030	 str         r0, [sp, #0x30]
  00140	e58d3004	 str         r3, [sp, #4]
  00144	e24b3086	 sub         r3, r11, #0x86
  00148	e58d3044	 str         r3, [sp, #0x44]
  0014c	e15b3abc	 ldrh        r3, [r11, #-0xAC]
  00150	e59f107c	 ldr         r1, [pc, #0x7C]
  00154	e58d2000	 str         r2, [sp]
  00158	e24b20ec	 sub         r2, r11, #0xEC
  0015c	e24b00f8	 sub         r0, r11, #0xF8
  00160		 |$M87368|
  00160	eb000000	 bl          |?AppendFormat@?$CStringT@_WV?$StrTraitATL@_WV?$ChTraitsOS@_W@ATL@@@ATL@@@ATL@@QAAXPB_WZZ|
; Line 1872
  00164	e51b00f8	 ldr         r0, [r11, #-0xF8]
  00168	e2404010	 sub         r4, r0, #0x10
  0016c	e5941004	 ldr         r1, [r4, #4]
  00170	eb000000	 bl          SysAllocStringLen
  00174	e3500000	 cmp         r0, #0
  00178	1a000000	 bne         |$LN22@EnumDispla@2|
  0017c	eb000000	 bl          |?ThrowMemoryException@?$CSimpleStringT@_W$0A@@ATL@@KAXXZ|
  00180		 |$LN51@EnumDispla@2|
  00180		 |$LN22@EnumDispla@2|
  00180	e51b30f4	 ldr         r3, [r11, #-0xF4]
  00184	e5830000	 str         r0, [r3]
; Line 1874
  00188	e284000c	 add         r0, r4, #0xC
  0018c	eb000000	 bl          InterlockedDecrement
  00190	e3500000	 cmp         r0, #0
  00194	d5940000	 ldrle       r0, [r4]
  00198	d1a01004	 movle       r1, r4
  0019c	d5903000	 ldrle       r3, [r0]
  001a0		 |$M87369|
  001a0	d1a0e00f	 movle       lr, pc
  001a4	d593f004	 ldrle       pc, [r3, #4]
  001a8	e51b002c	 ldr         r0, [r11, #-0x2C]
  001ac	eb000000	 bl          __security_check_cookie
; Line 1876
  001b0	e51b00f0	 ldr         r0, [r11, #-0xF0]
  001b4	e24bd028	 sub         sp, r11, #0x28
  001b8	e89daff0	 ldmia       sp, {r4 - r11, sp, pc}
  001bc		 |$LN43@EnumDispla@2|
  001bc		 |$M87372|
  001bc		 |__unwind$87241|
  001bc	e52de004	 str         lr, [sp, #-4]!
  001c0	e24dd064	 sub         sp, sp, #0x64
  001c4		 |$M87375|
  001c4	e24b00f8	 sub         r0, r11, #0xF8
  001c8	eb000000	 bl          |??1?$CStringT@_WV?$StrTraitATL@_WV?$ChTraitsOS@_W@ATL@@@ATL@@@ATL@@QAA@XZ|
  001cc	e28dd064	 add         sp, sp, #0x64
  001d0	e8bd8000	 ldmia       sp!, {pc}
  001d4		 |$LN52@EnumDispla@2|
  001d4		 |$LN53@EnumDispla@2|
  001d4	00000000	 DCD         |??_C@_1KC@HBKIIOIP@?$AA?$CF?$AAs?$AA?6?$AA?$CF?$AAd?$AA?6?$AA?$CF?$AAd?$AA?6?$AA?$CF?$AAd?$AA?6?$AA?$CF?$AAd?$AA?6?$AA?$CF?$AAd?$AA?6?$AA?$CF?$AAd?$AA?6?$AA?$CF?$AAd?$AA?6?$AA?$CF?$AAd?$AA?6?$AA?$CF?$AAd?$AA?6?$AA?$CF?$AAd@|
  001d8		 |$LN54@EnumDispla@2|
  001d8	00000000	 DCD         |?g_strmgr@ATL@@3VCAtlStringMgr@1@A|
  001dc		 |$LN55@EnumDispla@2|
  001dc	00000000	 DCD         |__security_cookie|
  001e0		 |$M87376|

			 ENDP  ; |?EnumDisplaySettings7@CMangoClass@@UAAJPA_WKPAPA_W@Z|, CMangoClass::EnumDisplaySettings7

	EXPORT	|?__TEST_CallMeWithINT@@YAXPAH@Z|	; __TEST_CallMeWithINT
	EXPORT	|??_C@_1BC@MFMHJ@?$AAI?$AAn?$AAt?$AA?5?$AAc?$AAa?$AAl?$AAl?$AA?$AA@| [ DATA ] ; `string'
	EXPORT	|??_C@_15KNBIKKIN@?$AA?$CF?$AAd?$AA?$AA@| [ DATA ] ; `string'
; File c:\program files (x86)\microsoft visual studio 9.0\vc\ce\atlmfc\include\atlsimpstr.h

  00000			 AREA	 |.pdata|, PDATA
|$T87515| DCD	|$LN48@TEST_CallM|
	DCD	0xc0002504

  00000			 AREA	 |.pdata|, PDATA
|$T87518| DCD	|__unwind$87388|
	DCD	0x40000701

  00000			 AREA	 |.rdata|, DATA, READONLY
|__unwindtable$?__TEST_CallMeWithINT@@YAXPAH@Z| DCD 0xffffffff
	DCD	|__unwind$87388|
|__ehfuncinfo$?__TEST_CallMeWithINT@@YAXPAH@Z| DCD 0x19930522
	DCD	0x1
	DCD	|__unwindtable$?__TEST_CallMeWithINT@@YAXPAH@Z|
	DCD	0x0
	DCD	0x0
	DCD	0x2
	DCD	|$T87511|
	DCD	0x0
	DCD	0x1
|$T87511| DCD	|$M87509|
	DCD	0x0
	DCD	|$M87510|
	DCD	0xffffffff

  00000			 AREA	 |.rdata|, DATA, READONLY
|??_C@_1BC@MFMHJ@?$AAI?$AAn?$AAt?$AA?5?$AAc?$AAa?$AAl?$AAl?$AA?$AA@| DCB "I"
	DCB	0x0, "n", 0x0, "t", 0x0, " ", 0x0, "c", 0x0, "a", 0x0, "l"
	DCB	0x0, "l", 0x0, 0x0, 0x0			; `string'

  00000			 AREA	 |.rdata|, DATA, READONLY
|??_C@_15KNBIKKIN@?$AA?$CF?$AAd?$AA?$AA@| DCB "%", 0x0, "d", 0x0, 0x0, 0x0 ; `string'
; Function compile flags: /Ogspy

  00000			 AREA	 |.text|, CODE, ARM

  00000	00000000	 DCD         |__CxxFrameHandler3|
  00004	00000000	 DCD         |__ehfuncinfo$?__TEST_CallMeWithINT@@YAXPAH@Z|

  00008		 |?__TEST_CallMeWithINT@@YAXPAH@Z| PROC	; __TEST_CallMeWithINT
; File c:\users\steven\desktop\csharp - dllimport\csharp - dllimport\vs2008\dllimportmango\mangoclass.cpp
; Line 2021
  00008		 |$LN48@TEST_CallM|
  00008	e1a0c00d	 mov         r12, sp
  0000c	e92d5810	 stmdb       sp!, {r4, r11, r12, lr}
  00010	e28db010	 add         r11, sp, #0x10
  00014	e24dd004	 sub         sp, sp, #4
  00018		 |$M87512|
  00018	e1a04000	 mov         r4, r0
; Line 2022
  0001c	e59f0090	 ldr         r0, [pc, #0x90]
  00020	e5903000	 ldr         r3, [r0]
  00024	e1a0e00f	 mov         lr, pc
  00028	e593f00c	 ldr         pc, [r3, #0xC]
  0002c	e2803010	 add         r3, r0, #0x10
  00030	e50b3014	 str         r3, [r11, #-0x14]
; Line 2023
  00034	e5942000	 ldr         r2, [r4]
  00038	e59f1070	 ldr         r1, [pc, #0x70]
  0003c	e24b0014	 sub         r0, r11, #0x14
  00040		 |$M87509|
  00040	eb000000	 bl          |?AppendFormat@?$CStringT@_WV?$StrTraitATL@_WV?$ChTraitsOS@_W@ATL@@@ATL@@@ATL@@QAAXPB_WZZ|
; Line 2024
  00044	e51b0014	 ldr         r0, [r11, #-0x14]
  00048	e2404010	 sub         r4, r0, #0x10
  0004c	e5941004	 ldr         r1, [r4, #4]
  00050	eb000000	 bl          SysAllocStringLen
  00054	e3500000	 cmp         r0, #0
  00058	1a000000	 bne         |$LN22@TEST_CallM|
  0005c	eb000000	 bl          |?ThrowMemoryException@?$CSimpleStringT@_W$0A@@ATL@@KAXXZ|
  00060		 |$LN51@TEST_CallM|
  00060		 |$LN22@TEST_CallM|
  00060	e59f2044	 ldr         r2, [pc, #0x44]
  00064	e1a01000	 mov         r1, r0
  00068	e3a03000	 mov         r3, #0
  0006c	e3a00000	 mov         r0, #0
  00070	eb000000	 bl          MessageBoxW
; Line 2025
  00074	e284000c	 add         r0, r4, #0xC
  00078	eb000000	 bl          InterlockedDecrement
  0007c	e3500000	 cmp         r0, #0
  00080	d5940000	 ldrle       r0, [r4]
  00084	d1a01004	 movle       r1, r4
  00088	d5903000	 ldrle       r3, [r0]
  0008c		 |$M87510|
  0008c	d1a0e00f	 movle       lr, pc
  00090	d593f004	 ldrle       pc, [r3, #4]
  00094	e24bd010	 sub         sp, r11, #0x10
  00098	e89da810	 ldmia       sp, {r4, r11, sp, pc}
  0009c		 |$LN43@TEST_CallM|
  0009c		 |$M87513|
  0009c		 |__unwind$87388|
  0009c	e52de004	 str         lr, [sp, #-4]!
  000a0		 |$M87516|
  000a0	e24b0014	 sub         r0, r11, #0x14
  000a4	eb000000	 bl          |??1?$CStringT@_WV?$StrTraitATL@_WV?$ChTraitsOS@_W@ATL@@@ATL@@@ATL@@QAA@XZ|
  000a8	e8bd8000	 ldmia       sp!, {pc}
  000ac		 |$LN52@TEST_CallM|
  000ac		 |$LN53@TEST_CallM|
  000ac	00000000	 DCD         |??_C@_1BC@MFMHJ@?$AAI?$AAn?$AAt?$AA?5?$AAc?$AAa?$AAl?$AAl?$AA?$AA@|
  000b0		 |$LN54@TEST_CallM|
  000b0	00000000	 DCD         |??_C@_15KNBIKKIN@?$AA?$CF?$AAd?$AA?$AA@|
  000b4		 |$LN55@TEST_CallM|
  000b4	00000000	 DCD         |?g_strmgr@ATL@@3VCAtlStringMgr@1@A|
  000b8		 |$M87517|

			 ENDP  ; |?__TEST_CallMeWithINT@@YAXPAH@Z|, __TEST_CallMeWithINT


  00000			 AREA	 |.pdata|, PDATA
|$T87534| DCD	|$LN5@TestFunc2|
	DCD	0x40000300
; Function compile flags: /Ogspy

  00000			 AREA	 |.text|, CODE, ARM

  00000		 |?TestFunc2@CMangoClass@@UAAJXZ| PROC	; CMangoClass::TestFunc2
; Line 2091
  00000		 |$LN5@TestFunc2|
  00000		 |$M87531|
; Line 2092
  00000	e59f0000	 ldr         r0, [pc]
; Line 2093
  00004	e1a0f00e	 mov         pc, lr
  00008		 |$LN6@TestFunc2|
  00008		 |$LN7@TestFunc2|
  00008	00000000	 DCD         |?__TEST_CallMeWithINT@@YAXPAH@Z|
  0000c		 |$M87532|

			 ENDP  ; |?TestFunc2@CMangoClass@@UAAJXZ|, CMangoClass::TestFunc2

	EXPORT	|?EXP_test2@@YAXH@Z|			; EXP_test2
	EXPORT	|??_C@_1FA@BMEGNDOJ@?$AAH?$AAe?$AAl?$AAl?$AAo?$AA?5?$AAf?$AAr?$AAo?$AAm?$AA?5?$AA?$CC?$AAE?$AAX?$AAP?$AA_?$AAt?$AAe?$AAs?$AAt?$AA2?$AA?$CC?$AA?5?$AA?$CI?$AAp?$AAa?$AAr?$AAa?$AAm?$AAs?$AA?5?$AA?$FL@| [ DATA ] ; `string'
; File c:\program files (x86)\microsoft visual studio 9.0\vc\ce\atlmfc\include\atlsimpstr.h

  00000			 AREA	 |.pdata|, PDATA
|$T87667| DCD	|$LN48@EXP_test2|
	DCD	0xc0002504

  00000			 AREA	 |.pdata|, PDATA
|$T87670| DCD	|__unwind$87540|
	DCD	0x40000701

  00000			 AREA	 |.rdata|, DATA, READONLY
|__unwindtable$?EXP_test2@@YAXH@Z| DCD 0xffffffff
	DCD	|__unwind$87540|
|__ehfuncinfo$?EXP_test2@@YAXH@Z| DCD 0x19930522
	DCD	0x1
	DCD	|__unwindtable$?EXP_test2@@YAXH@Z|
	DCD	0x0
	DCD	0x0
	DCD	0x2
	DCD	|$T87663|
	DCD	0x0
	DCD	0x1
|$T87663| DCD	|$M87661|
	DCD	0x0
	DCD	|$M87662|
	DCD	0xffffffff

  00000			 AREA	 |.rdata|, DATA, READONLY
|??_C@_1FA@BMEGNDOJ@?$AAH?$AAe?$AAl?$AAl?$AAo?$AA?5?$AAf?$AAr?$AAo?$AAm?$AA?5?$AA?$CC?$AAE?$AAX?$AAP?$AA_?$AAt?$AAe?$AAs?$AAt?$AA2?$AA?$CC?$AA?5?$AA?$CI?$AAp?$AAa?$AAr?$AAa?$AAm?$AAs?$AA?5?$AA?$FL@| DCB "H"
	DCB	0x0, "e", 0x0, "l", 0x0, "l", 0x0, "o", 0x0, " ", 0x0, "f"
	DCB	0x0, "r", 0x0, "o", 0x0, "m", 0x0, " ", 0x0, """", 0x0, "E"
	DCB	0x0, "X", 0x0, "P", 0x0, "_", 0x0, "t", 0x0, "e", 0x0, "s"
	DCB	0x0, "t", 0x0, "2", 0x0, """", 0x0, " ", 0x0, "(", 0x0, "p"
	DCB	0x0, "a", 0x0, "r", 0x0, "a", 0x0, "m", 0x0, "s", 0x0, " "
	DCB	0x0, "[", 0x0, "i", 0x0, "n", 0x0, "t", 0x0, " ", 0x0, "i"
	DCB	0x0, "]", 0x0, ")", 0x0, 0x0, 0x0	; `string'
; Function compile flags: /Ogspy

  00000			 AREA	 |.text|, CODE, ARM

  00000	00000000	 DCD         |__CxxFrameHandler3|
  00004	00000000	 DCD         |__ehfuncinfo$?EXP_test2@@YAXH@Z|

  00008		 |?EXP_test2@@YAXH@Z| PROC		; EXP_test2
; File c:\users\steven\desktop\csharp - dllimport\csharp - dllimport\vs2008\dllimportmango\mangoclass.cpp
; Line 2107
  00008		 |$LN48@EXP_test2|
  00008	e1a0c00d	 mov         r12, sp
  0000c	e92d5810	 stmdb       sp!, {r4, r11, r12, lr}
  00010	e28db010	 add         r11, sp, #0x10
  00014	e24dd004	 sub         sp, sp, #4
  00018		 |$M87664|
  00018	e1a04000	 mov         r4, r0
; Line 2108
  0001c	e59f0090	 ldr         r0, [pc, #0x90]
  00020	e5903000	 ldr         r3, [r0]
  00024	e1a0e00f	 mov         lr, pc
  00028	e593f00c	 ldr         pc, [r3, #0xC]
  0002c	e2803010	 add         r3, r0, #0x10
  00030	e50b3014	 str         r3, [r11, #-0x14]
; Line 2109
  00034	e59f1074	 ldr         r1, [pc, #0x74]
  00038	e1a02004	 mov         r2, r4
  0003c	e24b0014	 sub         r0, r11, #0x14
  00040		 |$M87661|
  00040	eb000000	 bl          |?AppendFormat@?$CStringT@_WV?$StrTraitATL@_WV?$ChTraitsOS@_W@ATL@@@ATL@@@ATL@@QAAXPB_WZZ|
; Line 2110
  00044	e51b0014	 ldr         r0, [r11, #-0x14]
  00048	e2404010	 sub         r4, r0, #0x10
  0004c	e5941004	 ldr         r1, [r4, #4]
  00050	eb000000	 bl          SysAllocStringLen
  00054	e3500000	 cmp         r0, #0
  00058	1a000000	 bne         |$LN22@EXP_test2|
  0005c	eb000000	 bl          |?ThrowMemoryException@?$CSimpleStringT@_W$0A@@ATL@@KAXXZ|
  00060		 |$LN51@EXP_test2|
  00060		 |$LN22@EXP_test2|
  00060	e59f1044	 ldr         r1, [pc, #0x44]
  00064	e1a02000	 mov         r2, r0
  00068	e3a03000	 mov         r3, #0
  0006c	e3a00000	 mov         r0, #0
  00070	eb000000	 bl          MessageBoxW
; Line 2111
  00074	e284000c	 add         r0, r4, #0xC
  00078	eb000000	 bl          InterlockedDecrement
  0007c	e3500000	 cmp         r0, #0
  00080	d5940000	 ldrle       r0, [r4]
  00084	d1a01004	 movle       r1, r4
  00088	d5903000	 ldrle       r3, [r0]
  0008c		 |$M87662|
  0008c	d1a0e00f	 movle       lr, pc
  00090	d593f004	 ldrle       pc, [r3, #4]
  00094	e24bd010	 sub         sp, r11, #0x10
  00098	e89da810	 ldmia       sp, {r4, r11, sp, pc}
  0009c		 |$LN43@EXP_test2|
  0009c		 |$M87665|
  0009c		 |__unwind$87540|
  0009c	e52de004	 str         lr, [sp, #-4]!
  000a0		 |$M87668|
  000a0	e24b0014	 sub         r0, r11, #0x14
  000a4	eb000000	 bl          |??1?$CStringT@_WV?$StrTraitATL@_WV?$ChTraitsOS@_W@ATL@@@ATL@@@ATL@@QAA@XZ|
  000a8	e8bd8000	 ldmia       sp!, {pc}
  000ac		 |$LN52@EXP_test2|
  000ac		 |$LN53@EXP_test2|
  000ac	00000000	 DCD         |??_C@_1FA@BMEGNDOJ@?$AAH?$AAe?$AAl?$AAl?$AAo?$AA?5?$AAf?$AAr?$AAo?$AAm?$AA?5?$AA?$CC?$AAE?$AAX?$AAP?$AA_?$AAt?$AAe?$AAs?$AAt?$AA2?$AA?$CC?$AA?5?$AA?$CI?$AAp?$AAa?$AAr?$AAa?$AAm?$AAs?$AA?5?$AA?$FL@|
  000b0		 |$LN54@EXP_test2|
  000b0	00000000	 DCD         |??_C@_15KNBIKKIN@?$AA?$CF?$AAd?$AA?$AA@|
  000b4		 |$LN55@EXP_test2|
  000b4	00000000	 DCD         |?g_strmgr@ATL@@3VCAtlStringMgr@1@A|
  000b8		 |$M87669|

			 ENDP  ; |?EXP_test2@@YAXH@Z|, EXP_test2

	EXPORT	|?EXP_test4@@YAXPAPA_W@Z|		; EXP_test4
	EXPORT	|??_C@_1GK@OBHHOBIB@?$AAH?$AAe?$AAl?$AAl?$AAo?$AA?5?$AAf?$AAr?$AAo?$AAm?$AA?5?$AA?$CC?$AAE?$AAX?$AAP?$AA_?$AAt?$AAe?$AAs?$AAt?$AA4?$AA?$CC?$AA?4?$AA?5?$AAI?$AA?5?$AAs?$AAa?$AAy?$AA?5?$AAv?$AAa@| [ DATA ] ; `string'
	EXPORT	|??_C@_15GANGMFKL@?$AA?$CF?$AAs?$AA?$AA@| [ DATA ] ; `string'
; File c:\program files (x86)\microsoft visual studio 9.0\vc\ce\atlmfc\include\atlsimpstr.h

  00000			 AREA	 |.pdata|, PDATA
|$T87808| DCD	|$LN48@EXP_test4|
	DCD	0xc0002504

  00000			 AREA	 |.pdata|, PDATA
|$T87811| DCD	|__unwind$87681|
	DCD	0x40000701

  00000			 AREA	 |.rdata|, DATA, READONLY
|__unwindtable$?EXP_test4@@YAXPAPA_W@Z| DCD 0xffffffff
	DCD	|__unwind$87681|
|__ehfuncinfo$?EXP_test4@@YAXPAPA_W@Z| DCD 0x19930522
	DCD	0x1
	DCD	|__unwindtable$?EXP_test4@@YAXPAPA_W@Z|
	DCD	0x0
	DCD	0x0
	DCD	0x2
	DCD	|$T87804|
	DCD	0x0
	DCD	0x1
|$T87804| DCD	|$M87802|
	DCD	0x0
	DCD	|$M87803|
	DCD	0xffffffff

  00000			 AREA	 |.rdata|, DATA, READONLY
|??_C@_1GK@OBHHOBIB@?$AAH?$AAe?$AAl?$AAl?$AAo?$AA?5?$AAf?$AAr?$AAo?$AAm?$AA?5?$AA?$CC?$AAE?$AAX?$AAP?$AA_?$AAt?$AAe?$AAs?$AAt?$AA4?$AA?$CC?$AA?4?$AA?5?$AAI?$AA?5?$AAs?$AAa?$AAy?$AA?5?$AAv?$AAa@| DCB "H"
	DCB	0x0, "e", 0x0, "l", 0x0, "l", 0x0, "o", 0x0, " ", 0x0, "f"
	DCB	0x0, "r", 0x0, "o", 0x0, "m", 0x0, " ", 0x0, """", 0x0, "E"
	DCB	0x0, "X", 0x0, "P", 0x0, "_", 0x0, "t", 0x0, "e", 0x0, "s"
	DCB	0x0, "t", 0x0, "4", 0x0, """", 0x0, ".", 0x0, " ", 0x0, "I"
	DCB	0x0, " ", 0x0, "s", 0x0, "a", 0x0, "y", 0x0, " ", 0x0, "v"
	DCB	0x0, "a", 0x0, "l", 0x0, "u", 0x0, "e", 0x0, " ", 0x0, "o"
	DCB	0x0, "f", 0x0, " ", 0x0, """", 0x0, "B", 0x0, "S", 0x0, "T"
	DCB	0x0, "R", 0x0, " ", 0x0, "*", 0x0, " ", 0x0, "t", 0x0, "e"
	DCB	0x0, "x", 0x0, "t", 0x0, """", 0x0, 0x0, 0x0 ; `string'

  00000			 AREA	 |.rdata|, DATA, READONLY
|??_C@_15GANGMFKL@?$AA?$CF?$AAs?$AA?$AA@| DCB "%", 0x0, "s", 0x0, 0x0, 0x0 ; `string'
; Function compile flags: /Ogspy

  00000			 AREA	 |.text|, CODE, ARM

  00000	00000000	 DCD         |__CxxFrameHandler3|
  00004	00000000	 DCD         |__ehfuncinfo$?EXP_test4@@YAXPAPA_W@Z|

  00008		 |?EXP_test4@@YAXPAPA_W@Z| PROC		; EXP_test4
; File c:\users\steven\desktop\csharp - dllimport\csharp - dllimport\vs2008\dllimportmango\mangoclass.cpp
; Line 2118
  00008		 |$LN48@EXP_test4|
  00008	e1a0c00d	 mov         r12, sp
  0000c	e92d5810	 stmdb       sp!, {r4, r11, r12, lr}
  00010	e28db010	 add         r11, sp, #0x10
  00014	e24dd004	 sub         sp, sp, #4
  00018		 |$M87805|
  00018	e1a04000	 mov         r4, r0
; Line 2119
  0001c	e59f0090	 ldr         r0, [pc, #0x90]
  00020	e5903000	 ldr         r3, [r0]
  00024	e1a0e00f	 mov         lr, pc
  00028	e593f00c	 ldr         pc, [r3, #0xC]
  0002c	e2803010	 add         r3, r0, #0x10
  00030	e50b3014	 str         r3, [r11, #-0x14]
; Line 2120
  00034	e59f1074	 ldr         r1, [pc, #0x74]
  00038	e1a02004	 mov         r2, r4
  0003c	e24b0014	 sub         r0, r11, #0x14
  00040		 |$M87802|
  00040	eb000000	 bl          |?AppendFormat@?$CStringT@_WV?$StrTraitATL@_WV?$ChTraitsOS@_W@ATL@@@ATL@@@ATL@@QAAXPB_WZZ|
; Line 2121
  00044	e51b0014	 ldr         r0, [r11, #-0x14]
  00048	e2404010	 sub         r4, r0, #0x10
  0004c	e5941004	 ldr         r1, [r4, #4]
  00050	eb000000	 bl          SysAllocStringLen
  00054	e3500000	 cmp         r0, #0
  00058	1a000000	 bne         |$LN22@EXP_test4|
  0005c	eb000000	 bl          |?ThrowMemoryException@?$CSimpleStringT@_W$0A@@ATL@@KAXXZ|
  00060		 |$LN51@EXP_test4|
  00060		 |$LN22@EXP_test4|
  00060	e59f1044	 ldr         r1, [pc, #0x44]
  00064	e1a02000	 mov         r2, r0
  00068	e3a03000	 mov         r3, #0
  0006c	e3a00000	 mov         r0, #0
  00070	eb000000	 bl          MessageBoxW
; Line 2122
  00074	e284000c	 add         r0, r4, #0xC
  00078	eb000000	 bl          InterlockedDecrement
  0007c	e3500000	 cmp         r0, #0
  00080	d5940000	 ldrle       r0, [r4]
  00084	d1a01004	 movle       r1, r4
  00088	d5903000	 ldrle       r3, [r0]
  0008c		 |$M87803|
  0008c	d1a0e00f	 movle       lr, pc
  00090	d593f004	 ldrle       pc, [r3, #4]
  00094	e24bd010	 sub         sp, r11, #0x10
  00098	e89da810	 ldmia       sp, {r4, r11, sp, pc}
  0009c		 |$LN43@EXP_test4|
  0009c		 |$M87806|
  0009c		 |__unwind$87681|
  0009c	e52de004	 str         lr, [sp, #-4]!
  000a0		 |$M87809|
  000a0	e24b0014	 sub         r0, r11, #0x14
  000a4	eb000000	 bl          |??1?$CStringT@_WV?$StrTraitATL@_WV?$ChTraitsOS@_W@ATL@@@ATL@@@ATL@@QAA@XZ|
  000a8	e8bd8000	 ldmia       sp!, {pc}
  000ac		 |$LN52@EXP_test4|
  000ac		 |$LN53@EXP_test4|
  000ac	00000000	 DCD         |??_C@_1GK@OBHHOBIB@?$AAH?$AAe?$AAl?$AAl?$AAo?$AA?5?$AAf?$AAr?$AAo?$AAm?$AA?5?$AA?$CC?$AAE?$AAX?$AAP?$AA_?$AAt?$AAe?$AAs?$AAt?$AA4?$AA?$CC?$AA?4?$AA?5?$AAI?$AA?5?$AAs?$AAa?$AAy?$AA?5?$AAv?$AAa@|
  000b0		 |$LN54@EXP_test4|
  000b0	00000000	 DCD         |??_C@_15GANGMFKL@?$AA?$CF?$AAs?$AA?$AA@|
  000b4		 |$LN55@EXP_test4|
  000b4	00000000	 DCD         |?g_strmgr@ATL@@3VCAtlStringMgr@1@A|
  000b8		 |$M87810|

			 ENDP  ; |?EXP_test4@@YAXPAPA_W@Z|, EXP_test4

	EXPORT	|?a@@YAXHHHHHHHHHHHHHH@Z|		; a
; File c:\program files (x86)\microsoft visual studio 9.0\vc\ce\atlmfc\include\atlsimpstr.h

  00000			 AREA	 |.pdata|, PDATA
|$T87952| DCD	|$LN48@a|
	DCD	0xc0004204

  00000			 AREA	 |.pdata|, PDATA
|$T87955| DCD	|__unwind$87822|
	DCD	0x40000902

  00000			 AREA	 |.rdata|, DATA, READONLY
|__unwindtable$?a@@YAXHHHHHHHHHHHHHH@Z| DCD 0xffffffff
	DCD	|__unwind$87822|
|__ehfuncinfo$?a@@YAXHHHHHHHHHHHHHH@Z| DCD 0x19930522
	DCD	0x1
	DCD	|__unwindtable$?a@@YAXHHHHHHHHHHHHHH@Z|
	DCD	0x0
	DCD	0x0
	DCD	0x2
	DCD	|$T87948|
	DCD	0x0
	DCD	0x1
|$T87948| DCD	|$M87946|
	DCD	0x0
	DCD	|$M87947|
	DCD	0xffffffff
; Function compile flags: /Ogspy

  00000			 AREA	 |.text|, CODE, ARM

  00000	00000000	 DCD         |__CxxFrameHandler3|
  00004	00000000	 DCD         |__ehfuncinfo$?a@@YAXHHHHHHHHHHHHHH@Z|

  00008		 |?a@@YAXHHHHHHHHHHHHHH@Z| PROC		; a
; File c:\users\steven\desktop\csharp - dllimport\csharp - dllimport\vs2008\dllimportmango\mangoclass.cpp
; Line 2128
  00008		 |$LN48@a|
  00008	e1a0c00d	 mov         r12, sp
  0000c	e92d5ff0	 stmdb       sp!, {r4 - r12, lr}
  00010	e28db028	 add         r11, sp, #0x28
  00014	e24dd044	 sub         sp, sp, #0x44
  00018		 |$M87949|
  00018	e50b3030	 str         r3, [r11, #-0x30]
  0001c	e50b202c	 str         r2, [r11, #-0x2C]
  00020	e50b1038	 str         r1, [r11, #-0x38]
  00024	e50b0034	 str         r0, [r11, #-0x34]
; Line 2129
  00028	e59f0100	 ldr         r0, [pc, #0x100]
  0002c	e5904000	 ldr         r4, [r0]
  00030	e1a0e00f	 mov         lr, pc
  00034	e594f00c	 ldr         pc, [r4, #0xC]
  00038	e280e010	 add         lr, r0, #0x10
  0003c	e50be03c	 str         lr, [r11, #-0x3C]
; Line 2130
  00040	e59be024	 ldr         lr, [r11, #0x24]
  00044	e59b3004	 ldr         r3, [r11, #4]
  00048	e59b2000	 ldr         r2, [r11]
  0004c	e58de02c	 str         lr, [sp, #0x2C]
  00050	e51be030	 ldr         lr, [r11, #-0x30]
  00054	e59b4020	 ldr         r4, [r11, #0x20]
  00058	e59b501c	 ldr         r5, [r11, #0x1C]
  0005c	e59b6018	 ldr         r6, [r11, #0x18]
  00060	e59b7014	 ldr         r7, [r11, #0x14]
  00064	e59b8010	 ldr         r8, [r11, #0x10]
  00068	e59b900c	 ldr         r9, [r11, #0xC]
  0006c	e59ba008	 ldr         r10, [r11, #8]
  00070	e58de004	 str         lr, [sp, #4]
  00074	e51be02c	 ldr         lr, [r11, #-0x2C]
  00078	e59f10ac	 ldr         r1, [pc, #0xAC]
  0007c	e58d300c	 str         r3, [sp, #0xC]
  00080	e51b3038	 ldr         r3, [r11, #-0x38]
  00084	e58d2008	 str         r2, [sp, #8]
  00088	e51b2034	 ldr         r2, [r11, #-0x34]
  0008c	e24b003c	 sub         r0, r11, #0x3C
  00090	e58de000	 str         lr, [sp]
  00094	e58d4028	 str         r4, [sp, #0x28]
  00098	e58d5024	 str         r5, [sp, #0x24]
  0009c	e58d6020	 str         r6, [sp, #0x20]
  000a0	e58d701c	 str         r7, [sp, #0x1C]
  000a4	e58d8018	 str         r8, [sp, #0x18]
  000a8	e58d9014	 str         r9, [sp, #0x14]
  000ac	e58da010	 str         r10, [sp, #0x10]
  000b0		 |$M87946|
  000b0	eb000000	 bl          |?AppendFormat@?$CStringT@_WV?$StrTraitATL@_WV?$ChTraitsOS@_W@ATL@@@ATL@@@ATL@@QAAXPB_WZZ|
; Line 2131
  000b4	e51b003c	 ldr         r0, [r11, #-0x3C]
  000b8	e2404010	 sub         r4, r0, #0x10
  000bc	e5941004	 ldr         r1, [r4, #4]
  000c0	eb000000	 bl          SysAllocStringLen
  000c4	e3500000	 cmp         r0, #0
  000c8	1a000000	 bne         |$LN22@a|
  000cc	eb000000	 bl          |?ThrowMemoryException@?$CSimpleStringT@_W$0A@@ATL@@KAXXZ|
  000d0		 |$LN51@a|
  000d0		 |$LN22@a|
  000d0	e59f2050	 ldr         r2, [pc, #0x50]
  000d4	e1a01000	 mov         r1, r0
  000d8	e3a03000	 mov         r3, #0
  000dc	e5922000	 ldr         r2, [r2]
  000e0	e3a00000	 mov         r0, #0
  000e4	eb000000	 bl          MessageBoxW
; Line 2133
  000e8	e284000c	 add         r0, r4, #0xC
  000ec	eb000000	 bl          InterlockedDecrement
  000f0	e3500000	 cmp         r0, #0
  000f4	d5940000	 ldrle       r0, [r4]
  000f8	d1a01004	 movle       r1, r4
  000fc	d5903000	 ldrle       r3, [r0]
  00100		 |$M87947|
  00100	d1a0e00f	 movle       lr, pc
  00104	d593f004	 ldrle       pc, [r3, #4]
  00108	e24bd028	 sub         sp, r11, #0x28
  0010c	e89daff0	 ldmia       sp, {r4 - r11, sp, pc}
  00110		 |$LN43@a|
  00110		 |$M87950|
  00110		 |__unwind$87822|
  00110	e52de004	 str         lr, [sp, #-4]!
  00114	e24dd030	 sub         sp, sp, #0x30
  00118		 |$M87953|
  00118	e24b003c	 sub         r0, r11, #0x3C
  0011c	eb000000	 bl          |??1?$CStringT@_WV?$StrTraitATL@_WV?$ChTraitsOS@_W@ATL@@@ATL@@@ATL@@QAA@XZ|
  00120	e28dd030	 add         sp, sp, #0x30
  00124	e8bd8000	 ldmia       sp!, {pc}
  00128		 |$LN52@a|
  00128		 |$LN53@a|
  00128	00000000	 DCD         |?CSharpBase_Capt@@3PB_WB|
  0012c		 |$LN54@a|
  0012c	00000000	 DCD         |??_C@_15GANGMFKL@?$AA?$CF?$AAs?$AA?$AA@|
  00130		 |$LN55@a|
  00130	00000000	 DCD         |?g_strmgr@ATL@@3VCAtlStringMgr@1@A|
  00134		 |$M87954|

			 ENDP  ; |?a@@YAXHHHHHHHHHHHHHH@Z|, a

	EXPORT	|?a@@YAXHHHHHH@Z|			; a
; File c:\program files (x86)\microsoft visual studio 9.0\vc\ce\atlmfc\include\atlsimpstr.h

  00000			 AREA	 |.pdata|, PDATA
|$T88096| DCD	|$LN48@a@2|
	DCD	0xc0003004

  00000			 AREA	 |.pdata|, PDATA
|$T88099| DCD	|__unwind$87966|
	DCD	0x40000902

  00000			 AREA	 |.rdata|, DATA, READONLY
|__unwindtable$?a@@YAXHHHHHH@Z| DCD 0xffffffff
	DCD	|__unwind$87966|
|__ehfuncinfo$?a@@YAXHHHHHH@Z| DCD 0x19930522
	DCD	0x1
	DCD	|__unwindtable$?a@@YAXHHHHHH@Z|
	DCD	0x0
	DCD	0x0
	DCD	0x2
	DCD	|$T88092|
	DCD	0x0
	DCD	0x1
|$T88092| DCD	|$M88090|
	DCD	0x0
	DCD	|$M88091|
	DCD	0xffffffff
; Function compile flags: /Ogspy

  00000			 AREA	 |.text|, CODE, ARM

  00000	00000000	 DCD         |__CxxFrameHandler3|
  00004	00000000	 DCD         |__ehfuncinfo$?a@@YAXHHHHHH@Z|

  00008		 |?a@@YAXHHHHHH@Z| PROC			; a
; File c:\users\steven\desktop\csharp - dllimport\csharp - dllimport\vs2008\dllimportmango\mangoclass.cpp
; Line 2135
  00008		 |$LN48@a@2|
  00008	e1a0c00d	 mov         r12, sp
  0000c	e92d59f0	 stmdb       sp!, {r4 - r8, r11, r12, lr}
  00010	e28db020	 add         r11, sp, #0x20
  00014	e24dd014	 sub         sp, sp, #0x14
  00018		 |$M88093|
  00018	e1a07003	 mov         r7, r3
  0001c	e1a08002	 mov         r8, r2
  00020	e1a05001	 mov         r5, r1
  00024	e1a06000	 mov         r6, r0
; Line 2136
  00028	e59f00b8	 ldr         r0, [pc, #0xB8]
  0002c	e5904000	 ldr         r4, [r0]
  00030	e1a0e00f	 mov         lr, pc
  00034	e594f00c	 ldr         pc, [r4, #0xC]
  00038	e280e010	 add         lr, r0, #0x10
  0003c	e50be024	 str         lr, [r11, #-0x24]
; Line 2137
  00040	e59be004	 ldr         lr, [r11, #4]
  00044	e59b4000	 ldr         r4, [r11]
  00048	e59f1094	 ldr         r1, [pc, #0x94]
  0004c	e1a03005	 mov         r3, r5
  00050	e1a02006	 mov         r2, r6
  00054	e24b0024	 sub         r0, r11, #0x24
  00058	e58de00c	 str         lr, [sp, #0xC]
  0005c	e58d4008	 str         r4, [sp, #8]
  00060	e58d7004	 str         r7, [sp, #4]
  00064	e58d8000	 str         r8, [sp]
  00068		 |$M88090|
  00068	eb000000	 bl          |?AppendFormat@?$CStringT@_WV?$StrTraitATL@_WV?$ChTraitsOS@_W@ATL@@@ATL@@@ATL@@QAAXPB_WZZ|
; Line 2138
  0006c	e51b0024	 ldr         r0, [r11, #-0x24]
  00070	e2404010	 sub         r4, r0, #0x10
  00074	e5941004	 ldr         r1, [r4, #4]
  00078	eb000000	 bl          SysAllocStringLen
  0007c	e3500000	 cmp         r0, #0
  00080	1a000000	 bne         |$LN22@a@2|
  00084	eb000000	 bl          |?ThrowMemoryException@?$CSimpleStringT@_W$0A@@ATL@@KAXXZ|
  00088		 |$LN51@a@2|
  00088		 |$LN22@a@2|
  00088	e59f2050	 ldr         r2, [pc, #0x50]
  0008c	e1a01000	 mov         r1, r0
  00090	e3a03000	 mov         r3, #0
  00094	e5922000	 ldr         r2, [r2]
  00098	e3a00000	 mov         r0, #0
  0009c	eb000000	 bl          MessageBoxW
; Line 2140
  000a0	e284000c	 add         r0, r4, #0xC
  000a4	eb000000	 bl          InterlockedDecrement
  000a8	e3500000	 cmp         r0, #0
  000ac	d5940000	 ldrle       r0, [r4]
  000b0	d1a01004	 movle       r1, r4
  000b4	d5903000	 ldrle       r3, [r0]
  000b8		 |$M88091|
  000b8	d1a0e00f	 movle       lr, pc
  000bc	d593f004	 ldrle       pc, [r3, #4]
  000c0	e24bd020	 sub         sp, r11, #0x20
  000c4	e89da9f0	 ldmia       sp, {r4 - r8, r11, sp, pc}
  000c8		 |$LN43@a@2|
  000c8		 |$M88094|
  000c8		 |__unwind$87966|
  000c8	e52de004	 str         lr, [sp, #-4]!
  000cc	e24dd010	 sub         sp, sp, #0x10
  000d0		 |$M88097|
  000d0	e24b0024	 sub         r0, r11, #0x24
  000d4	eb000000	 bl          |??1?$CStringT@_WV?$StrTraitATL@_WV?$ChTraitsOS@_W@ATL@@@ATL@@@ATL@@QAA@XZ|
  000d8	e28dd010	 add         sp, sp, #0x10
  000dc	e8bd8000	 ldmia       sp!, {pc}
  000e0		 |$LN52@a@2|
  000e0		 |$LN53@a@2|
  000e0	00000000	 DCD         |?CSharpBase_Capt@@3PB_WB|
  000e4		 |$LN54@a@2|
  000e4	00000000	 DCD         |??_C@_15GANGMFKL@?$AA?$CF?$AAs?$AA?$AA@|
  000e8		 |$LN55@a@2|
  000e8	00000000	 DCD         |?g_strmgr@ATL@@3VCAtlStringMgr@1@A|
  000ec		 |$M88098|

			 ENDP  ; |?a@@YAXHHHHHH@Z|, a

	EXPORT	|?CSharpBase@@YAXXZ|			; CSharpBase

  00000			 AREA	 |.pdata|, PDATA
|$T88113| DCD	|$LN5@CSharpBase|
	DCD	0x40000d02
; Function compile flags: /Ogspy

  00000			 AREA	 |.text|, CODE, ARM

  00000		 |?CSharpBase@@YAXXZ| PROC		; CSharpBase
; Line 2142
  00000		 |$LN5@CSharpBase|
  00000	e52de004	 str         lr, [sp, #-4]!
  00004	e24dd008	 sub         sp, sp, #8
  00008		 |$M88110|
; Line 2143
  00008	e3a03006	 mov         r3, #6
  0000c	e3a02005	 mov         r2, #5
  00010	e58d3004	 str         r3, [sp, #4]
  00014	e58d2000	 str         r2, [sp]
  00018	e3a03004	 mov         r3, #4
  0001c	e3a02003	 mov         r2, #3
  00020	e3a01002	 mov         r1, #2
  00024	e3a00001	 mov         r0, #1
  00028	eb000000	 bl          |?a@@YAXHHHHHH@Z|
; Line 2146
  0002c	e28dd008	 add         sp, sp, #8
  00030	e49df004	 ldr         pc, [sp], #4
  00034		 |$M88111|

			 ENDP  ; |?CSharpBase@@YAXXZ|, CSharpBase

	EXPORT	|createfile|
	IMPORT	|CreateFileW|
; File c:\program files (x86)\microsoft visual studio 9.0\vc\ce\atlmfc\include\atlsimpstr.h

  00000			 AREA	 |.pdata|, PDATA
|$T88241| DCD	|$LN45@createfile|
	DCD	0x40002b02
; Function compile flags: /Ogspy

  00000			 AREA	 |.text|, CODE, ARM

  00000		 |createfile| PROC
; File c:\users\steven\desktop\csharp - dllimport\csharp - dllimport\vs2008\dllimportmango\mangoclass.cpp
; Line 2167
  00000		 |$LN45@createfile|
  00000	e92d4030	 stmdb       sp!, {r4, r5, lr}
  00004	e24dd010	 sub         sp, sp, #0x10
  00008		 |$M88238|
  00008	e1a04000	 mov         r4, r0
; Line 2168
  0000c	e59f0094	 ldr         r0, [pc, #0x94]
  00010	e5903000	 ldr         r3, [r0]
  00014	e1a0e00f	 mov         lr, pc
  00018	e593f00c	 ldr         pc, [r3, #0xC]
; Line 2169
  0001c	e59f1080	 ldr         r1, [pc, #0x80]
  00020	e2803010	 add         r3, r0, #0x10
  00024	e28d000c	 add         r0, sp, #0xC
  00028	e1a02004	 mov         r2, r4
  0002c	e58d300c	 str         r3, [sp, #0xC]
  00030	eb000000	 bl          |?AppendFormat@?$CStringT@_WV?$StrTraitATL@_WV?$ChTraitsOS@_W@ATL@@@ATL@@@ATL@@QAAXPB_WZZ|
; Line 2182
  00034	e59d000c	 ldr         r0, [sp, #0xC]
  00038	e2404010	 sub         r4, r0, #0x10
  0003c	e5941004	 ldr         r1, [r4, #4]
  00040	eb000000	 bl          SysAllocStringLen
  00044	e3500000	 cmp         r0, #0
  00048	1a000000	 bne         |$LN21@createfile|
  0004c	eb000000	 bl          |?ThrowMemoryException@?$CSimpleStringT@_W$0A@@ATL@@KAXXZ|
  00050		 |$LN46@createfile|
  00050		 |$LN21@createfile|
  00050	e3a03003	 mov         r3, #3
  00054	e58d3000	 str         r3, [sp]
  00058	e3a0e000	 mov         lr, #0
  0005c	e3a03000	 mov         r3, #0
  00060	e3a02000	 mov         r2, #0
  00064	e3a01103	 mov         r1, #3, 2
  00068	e58de008	 str         lr, [sp, #8]
  0006c	e58de004	 str         lr, [sp, #4]
  00070	eb000000	 bl          CreateFileW
  00074	e1a05000	 mov         r5, r0
; Line 2183
  00078	e284000c	 add         r0, r4, #0xC
  0007c	eb000000	 bl          InterlockedDecrement
  00080	e3500000	 cmp         r0, #0
  00084	d5940000	 ldrle       r0, [r4]
  00088	d1a01004	 movle       r1, r4
  0008c	d5903000	 ldrle       r3, [r0]
  00090	d1a0e00f	 movle       lr, pc
  00094	d593f004	 ldrle       pc, [r3, #4]
; Line 2184
  00098	e1a00005	 mov         r0, r5
  0009c	e28dd010	 add         sp, sp, #0x10
  000a0	e8bd8030	 ldmia       sp!, {r4, r5, pc}
  000a4		 |$LN47@createfile|
  000a4		 |$LN48@createfile|
  000a4	00000000	 DCD         |??_C@_15GANGMFKL@?$AA?$CF?$AAs?$AA?$AA@|
  000a8		 |$LN49@createfile|
  000a8	00000000	 DCD         |?g_strmgr@ATL@@3VCAtlStringMgr@1@A|
  000ac		 |$LN42@createfile|
  000ac		 |$M88239|

			 ENDP  ; |createfile|

	EXPORT	|??4?$CStringT@_WV?$StrTraitATL@_WV?$ChTraitsOS@_W@ATL@@@ATL@@@ATL@@QAAAAV01@ABV01@@Z| ; ATL::CStringT<wchar_t,ATL::StrTraitATL<wchar_t,ATL::ChTraitsOS<wchar_t> > >::operator=
; File c:\program files (x86)\microsoft visual studio 9.0\vc\ce\atlmfc\include\cstringt.h

  00000			 AREA	 |.pdata|, PDATA
|$T88256| DCD	|$LN5@operator@11|
	DCD	0x40000501
; Function compile flags: /Ogspy

  00000			 AREA	 |.text|, CODE, ARM

  00000		 |??4?$CStringT@_WV?$StrTraitATL@_WV?$ChTraitsOS@_W@ATL@@@ATL@@@ATL@@QAAAAV01@ABV01@@Z| PROC ; ATL::CStringT<wchar_t,ATL::StrTraitATL<wchar_t,ATL::ChTraitsOS<wchar_t> > >::operator=
; Line 1033
  00000		 |$LN5@operator@11|
  00000	e92d4010	 stmdb       sp!, {r4, lr}
  00004		 |$M88253|
  00004	e1a04000	 mov         r4, r0
; Line 1034
  00008	eb000000	 bl          |??4?$CSimpleStringT@_W$0A@@ATL@@QAAAAV01@ABV01@@Z|
; Line 1037
  0000c	e1a00004	 mov         r0, r4
  00010	e8bd8010	 ldmia       sp!, {r4, pc}
  00014		 |$M88254|

			 ENDP  ; |??4?$CStringT@_WV?$StrTraitATL@_WV?$ChTraitsOS@_W@ATL@@@ATL@@@ATL@@QAAAAV01@ABV01@@Z|, ATL::CStringT<wchar_t,ATL::StrTraitATL<wchar_t,ATL::ChTraitsOS<wchar_t> > >::operator=

	EXPORT	|??4?$CStringT@_WV?$StrTraitATL@_WV?$ChTraitsOS@_W@ATL@@@ATL@@@ATL@@QAAAAV01@PB_W@Z| ; ATL::CStringT<wchar_t,ATL::StrTraitATL<wchar_t,ATL::ChTraitsOS<wchar_t> > >::operator=
; File c:\program files (x86)\microsoft visual studio 9.0\vc\ce\atlmfc\include\atlsimpstr.h

  00000			 AREA	 |.pdata|, PDATA
|$T88287| DCD	|$LN12@operator@12|
	DCD	0x40000c01
; Function compile flags: /Ogspy

  00000			 AREA	 |.text|, CODE, ARM

  00000		 |??4?$CStringT@_WV?$StrTraitATL@_WV?$ChTraitsOS@_W@ATL@@@ATL@@@ATL@@QAAAAV01@PB_W@Z| PROC ; ATL::CStringT<wchar_t,ATL::StrTraitATL<wchar_t,ATL::ChTraitsOS<wchar_t> > >::operator=
; File c:\program files (x86)\microsoft visual studio 9.0\vc\ce\atlmfc\include\cstringt.h
; Line 1048
  00000		 |$LN12@operator@12|
  00000	e92d4030	 stmdb       sp!, {r4, r5, lr}
  00004		 |$M88284|
  00004	e1b04001	 movs        r4, r1
  00008	e1a05000	 mov         r5, r0
; Line 1049
  0000c	03a00000	 moveq       r0, #0
  00010	11a00004	 movne       r0, r4
  00014	1b000000	 blne        wcslen
  00018	e1a02000	 mov         r2, r0
  0001c	e1a00005	 mov         r0, r5
  00020	e1a01004	 mov         r1, r4
  00024	eb000000	 bl          |?SetString@?$CSimpleStringT@_W$0A@@ATL@@QAAXPB_WH@Z|
; Line 1052
  00028	e1a00005	 mov         r0, r5
  0002c	e8bd8030	 ldmia       sp!, {r4, r5, pc}
  00030		 |$M88285|

			 ENDP  ; |??4?$CStringT@_WV?$StrTraitATL@_WV?$ChTraitsOS@_W@ATL@@@ATL@@@ATL@@QAAAAV01@PB_W@Z|, ATL::CStringT<wchar_t,ATL::StrTraitATL<wchar_t,ATL::ChTraitsOS<wchar_t> > >::operator=

	EXPORT	|?CheckImplicitLoad@?$CStringT@_WV?$StrTraitATL@_WV?$ChTraitsOS@_W@ATL@@@ATL@@@ATL@@AAA_NPBX@Z| ; ATL::CStringT<wchar_t,ATL::StrTraitATL<wchar_t,ATL::ChTraitsOS<wchar_t> > >::CheckImplicitLoad
; File c:\program files (x86)\microsoft visual studio 9.0\vc\ce\atlmfc\include\atlstr.h

  00000			 AREA	 |.pdata|, PDATA
|$T88312| DCD	|$LN12@CheckImpli|
	DCD	0x40001501
; Function compile flags: /Ogspy

  00000			 AREA	 |.text|, CODE, ARM

  00000		 |?CheckImplicitLoad@?$CStringT@_WV?$StrTraitATL@_WV?$ChTraitsOS@_W@ATL@@@ATL@@@ATL@@AAA_NPBX@Z| PROC ; ATL::CStringT<wchar_t,ATL::StrTraitATL<wchar_t,ATL::ChTraitsOS<wchar_t> > >::CheckImplicitLoad
; File c:\program files (x86)\microsoft visual studio 9.0\vc\ce\atlmfc\include\cstringt.h
; Line 2283
  00000		 |$LN12@CheckImpli|
  00000	e92d4030	 stmdb       sp!, {r4, r5, lr}
  00004		 |$M88309|
  00004	e1b04001	 movs        r4, r1
  00008	e1a05000	 mov         r5, r0
; Line 2284
  0000c	e3a00000	 mov         r0, #0
; Line 2286
  00010	0a00000e	 beq         |$LN2@CheckImpli|
  00014	e3e03cff	 mvn         r3, #0xFF, 24
  00018	e22330ff	 eor         r3, r3, #0xFF
  0001c	e1140003	 tst         r4, r3
  00020	1a00000a	 bne         |$LN2@CheckImpli|
; Line 2289
  00024	e1a00804	 mov         r0, r4, lsl #16
  00028	e1a00820	 mov         r0, r0, lsr #16
  0002c	e3a01000	 mov         r1, #0
  00030	eb000000	 bl          |?AtlFindStringResourceInstance@ATL@@YAPAUHINSTANCE__@@IG@Z|
  00034	e3500000	 cmp         r0, #0
  00038	11a02804	 movne       r2, r4, lsl #16
  0003c	11a01000	 movne       r1, r0
  00040	11a02822	 movne       r2, r2, lsr #16
  00044	11a00005	 movne       r0, r5
  00048	1b000000	 blne        |?LoadStringW@?$CStringT@_WV?$StrTraitATL@_WV?$ChTraitsOS@_W@ATL@@@ATL@@@ATL@@QAAHPAUHINSTANCE__@@I@Z|
; Line 2293
  0004c	e3a00001	 mov         r0, #1
  00050		 |$LN2@CheckImpli|
; Line 2297
  00050	e8bd8030	 ldmia       sp!, {r4, r5, pc}
  00054		 |$M88310|

			 ENDP  ; |?CheckImplicitLoad@?$CStringT@_WV?$StrTraitATL@_WV?$ChTraitsOS@_W@ATL@@@ATL@@@ATL@@AAA_NPBX@Z|, ATL::CStringT<wchar_t,ATL::StrTraitATL<wchar_t,ATL::ChTraitsOS<wchar_t> > >::CheckImplicitLoad

	EXPORT	|?GetBitmapBixel@@YAXPAUHBITMAP__@@HHPAV?$CStringT@_WV?$StrTraitATL@_WV?$ChTraitsOS@_W@ATL@@@ATL@@@ATL@@@Z| ; GetBitmapBixel
	EXPORT	|??_C@_1DO@EJODIBDK@?$AAh?$AAM?$AAe?$AAm?$AAD?$AAC?$AA?5?$AA?$DN?$AA?5?$AAN?$AAU?$AAL?$AAL?$AA?5?$AA?$EA?$AA?5?$AAG?$AAe?$AAt?$AAB?$AAi?$AAt?$AAm?$AAa?$AAp?$AAB?$AAi?$AAx?$AAe?$AAl?$AA?$AA@| [ DATA ] ; `string'
	EXPORT	|??_C@_1DI@POFGNMHF@?$AAh?$AAD?$AAC?$AA?5?$AA?$DN?$AA?5?$AAN?$AAU?$AAL?$AAL?$AA?5?$AA?$EA?$AA?5?$AAG?$AAe?$AAt?$AAB?$AAi?$AAt?$AAm?$AAa?$AAp?$AAB?$AAi?$AAx?$AAe?$AAl?$AA?$AA@| [ DATA ] ; `string'
	IMPORT	|GetPixel|
; File c:\program files (x86)\microsoft visual studio 9.0\vc\ce\atlmfc\include\atlsimpstr.h

  00000			 AREA	 |.pdata|, PDATA
|$T88420| DCD	|$LN49@GetBitmapB|
	DCD	0xc0004f04

  00000			 AREA	 |.pdata|, PDATA
|$T88423| DCD	|__unwind$88317|
	DCD	0x40000901

  00000			 AREA	 |.rdata|, DATA, READONLY
|__unwindtable$?GetBitmapBixel@@YAXPAUHBITMAP__@@HHPAV?$CStringT@_WV?$StrTraitATL@_WV?$ChTraitsOS@_W@ATL@@@ATL@@@ATL@@@Z| DCD 0xffffffff
	DCD	|__unwind$88317|
|__ehfuncinfo$?GetBitmapBixel@@YAXPAUHBITMAP__@@HHPAV?$CStringT@_WV?$StrTraitATL@_WV?$ChTraitsOS@_W@ATL@@@ATL@@@ATL@@@Z| DCD 0x19930522
	DCD	0x1
	DCD	|__unwindtable$?GetBitmapBixel@@YAXPAUHBITMAP__@@HHPAV?$CStringT@_WV?$StrTraitATL@_WV?$ChTraitsOS@_W@ATL@@@ATL@@@ATL@@@Z|
	DCD	0x0
	DCD	0x0
	DCD	0x2
	DCD	|$T88416|
	DCD	0x0
	DCD	0x1
|$T88416| DCD	|$M88414|
	DCD	0x0
	DCD	|$M88415|
	DCD	0xffffffff

  00000			 AREA	 |.rdata|, DATA, READONLY
|??_C@_1DO@EJODIBDK@?$AAh?$AAM?$AAe?$AAm?$AAD?$AAC?$AA?5?$AA?$DN?$AA?5?$AAN?$AAU?$AAL?$AAL?$AA?5?$AA?$EA?$AA?5?$AAG?$AAe?$AAt?$AAB?$AAi?$AAt?$AAm?$AAa?$AAp?$AAB?$AAi?$AAx?$AAe?$AAl?$AA?$AA@| DCB "h"
	DCB	0x0, "M", 0x0, "e", 0x0, "m", 0x0, "D", 0x0, "C", 0x0, " "
	DCB	0x0, "=", 0x0, " ", 0x0, "N", 0x0, "U", 0x0, "L", 0x0, "L"
	DCB	0x0, " ", 0x0, "@", 0x0, " ", 0x0, "G", 0x0, "e", 0x0, "t"
	DCB	0x0, "B", 0x0, "i", 0x0, "t", 0x0, "m", 0x0, "a", 0x0, "p"
	DCB	0x0, "B", 0x0, "i", 0x0, "x", 0x0, "e", 0x0, "l", 0x0, 0x0
	DCB	0x0					; `string'

  00000			 AREA	 |.rdata|, DATA, READONLY
|??_C@_1DI@POFGNMHF@?$AAh?$AAD?$AAC?$AA?5?$AA?$DN?$AA?5?$AAN?$AAU?$AAL?$AAL?$AA?5?$AA?$EA?$AA?5?$AAG?$AAe?$AAt?$AAB?$AAi?$AAt?$AAm?$AAa?$AAp?$AAB?$AAi?$AAx?$AAe?$AAl?$AA?$AA@| DCB "h"
	DCB	0x0, "D", 0x0, "C", 0x0, " ", 0x0, "=", 0x0, " ", 0x0, "N"
	DCB	0x0, "U", 0x0, "L", 0x0, "L", 0x0, " ", 0x0, "@", 0x0, " "
	DCB	0x0, "G", 0x0, "e", 0x0, "t", 0x0, "B", 0x0, "i", 0x0, "t"
	DCB	0x0, "m", 0x0, "a", 0x0, "p", 0x0, "B", 0x0, "i", 0x0, "x"
	DCB	0x0, "e", 0x0, "l", 0x0, 0x0, 0x0	; `string'
; Function compile flags: /Ogspy

  00000			 AREA	 |.text|, CODE, ARM

  00000	00000000	 DCD         |__CxxFrameHandler3|
  00004	00000000	 DCD         |__ehfuncinfo$?GetBitmapBixel@@YAXPAUHBITMAP__@@HHPAV?$CStringT@_WV?$StrTraitATL@_WV?$ChTraitsOS@_W@ATL@@@ATL@@@ATL@@@Z|

  00008		 |?GetBitmapBixel@@YAXPAUHBITMAP__@@HHPAV?$CStringT@_WV?$StrTraitATL@_WV?$ChTraitsOS@_W@ATL@@@ATL@@@ATL@@@Z| PROC ; GetBitmapBixel
; File c:\users\steven\desktop\csharp - dllimport\csharp - dllimport\vs2008\dllimportmango\mangoclass.cpp
; Line 729
  00008		 |$LN49@GetBitmapB|
  00008	e1a0c00d	 mov         r12, sp
  0000c	e92d5ff0	 stmdb       sp!, {r4 - r12, lr}
  00010	e28db028	 add         r11, sp, #0x28
  00014	e24dd00c	 sub         sp, sp, #0xC
  00018		 |$M88417|
  00018	e50b3030	 str         r3, [r11, #-0x30]
  0001c	e1a04000	 mov         r4, r0
; Line 730
  00020	e3a00000	 mov         r0, #0
  00024	eb000000	 bl          GetDC
  00028	e1b09000	 movs        r9, r0
; Line 733
  0002c	059f1130	 ldreq       r1, [pc, #0x130]
  00030	059f2124	 ldreq       r2, [pc, #0x124]
  00034	03a03000	 moveq       r3, #0
  00038	03a00000	 moveq       r0, #0
  0003c	0b000000	 bleq        MessageBoxW
; Line 736
  00040	e1a00009	 mov         r0, r9
  00044	eb000000	 bl          CreateCompatibleDC
  00048	e1b08000	 movs        r8, r0
; Line 739
  0004c	059f110c	 ldreq       r1, [pc, #0x10C]
  00050	059f2104	 ldreq       r2, [pc, #0x104]
  00054	03a03000	 moveq       r3, #0
  00058	03a00000	 moveq       r0, #0
  0005c	0b000000	 bleq        MessageBoxW
; Line 741
  00060	e1a01004	 mov         r1, r4
  00064	e1a00008	 mov         r0, r8
  00068	eb000000	 bl          SelectObject
  0006c	e3a0295e	 mov         r2, #0x5E, 18
  00070	e50b002c	 str         r0, [r11, #-0x2C]
; Line 748
  00074	e2420efe	 sub         r0, r2, #0xFE, 28	; 4064 (0xfe0)
  00078	eb000000	 bl          |??_U@YAPAXI@Z|
  0007c	e1a0a000	 mov         r10, r0
  00080	e1a0600a	 mov         r6, r10
; Line 750
  00084	e3a04000	 mov         r4, #0
  00088		 |$LL6@GetBitmapB|
; Line 752
  00088	e1a07006	 mov         r7, r6
  0008c	e2866d32	 add         r6, r6, #0x32, 26	; 3200 (0xc80)
  00090	e3a05000	 mov         r5, #0
  00094		 |$LL3@GetBitmapB|
; Line 754
  00094	e1a02005	 mov         r2, r5
  00098	e1a01004	 mov         r1, r4
  0009c	e1a00008	 mov         r0, r8
  000a0	eb000000	 bl          GetPixel
  000a4	e2855001	 add         r5, r5, #1
  000a8	e3550e32	 cmp         r5, #0x32, 28	; 800 (0x320)
  000ac	e4870004	 str         r0, [r7], #4
  000b0	bafffff7	 blt         |$LL3@GetBitmapB|
  000b4	e2844001	 add         r4, r4, #1
  000b8	e3540e1e	 cmp         r4, #0x1E, 28	; 480 (0x1e0)
  000bc	bafffff1	 blt         |$LL6@GetBitmapB|
; Line 758
  000c0	e59f0090	 ldr         r0, [pc, #0x90]
  000c4	e5903000	 ldr         r3, [r0]
  000c8	e1a0e00f	 mov         lr, pc
  000cc	e593f00c	 ldr         pc, [r3, #0xC]
  000d0	e2803010	 add         r3, r0, #0x10
  000d4	e50b3034	 str         r3, [r11, #-0x34]
; Line 759
  000d8	e59f1074	 ldr         r1, [pc, #0x74]
  000dc	e1a0200a	 mov         r2, r10
  000e0	e24b0034	 sub         r0, r11, #0x34
  000e4		 |$M88414|
  000e4	eb000000	 bl          |?AppendFormat@?$CStringT@_WV?$StrTraitATL@_WV?$ChTraitsOS@_W@ATL@@@ATL@@@ATL@@QAAXPB_WZZ|
; Line 760
  000e8	e51b0030	 ldr         r0, [r11, #-0x30]
  000ec	e24b1034	 sub         r1, r11, #0x34
  000f0	eb000000	 bl          |??4?$CSimpleStringT@_W$0A@@ATL@@QAAAAV01@ABV01@@Z|
; Line 763
  000f4	e51b102c	 ldr         r1, [r11, #-0x2C]
  000f8	e1a00008	 mov         r0, r8
  000fc	eb000000	 bl          SelectObject
; Line 764
  00100	e1a00008	 mov         r0, r8
  00104	eb000000	 bl          DeleteDC
; Line 765
  00108	e1a01009	 mov         r1, r9
  0010c	e3a00000	 mov         r0, #0
  00110	eb000000	 bl          ReleaseDC
; Line 766
  00114	e51b3034	 ldr         r3, [r11, #-0x34]
  00118	e2434010	 sub         r4, r3, #0x10
  0011c	e284000c	 add         r0, r4, #0xC
  00120	eb000000	 bl          InterlockedDecrement
  00124	e3500000	 cmp         r0, #0
  00128	d5940000	 ldrle       r0, [r4]
  0012c	d1a01004	 movle       r1, r4
  00130	d5903000	 ldrle       r3, [r0]
  00134		 |$M88415|
  00134	d1a0e00f	 movle       lr, pc
  00138	d593f004	 ldrle       pc, [r3, #4]
  0013c	e24bd028	 sub         sp, r11, #0x28
  00140	e89daff0	 ldmia       sp, {r4 - r11, sp, pc}
  00144		 |$M88418|
  00144		 |__unwind$88317|
  00144	e52de004	 str         lr, [sp, #-4]!
  00148		 |$M88421|
  00148	e24b0034	 sub         r0, r11, #0x34
  0014c	eb000000	 bl          |??1?$CStringT@_WV?$StrTraitATL@_WV?$ChTraitsOS@_W@ATL@@@ATL@@@ATL@@QAA@XZ|
  00150	e8bd8000	 ldmia       sp!, {pc}
  00154		 |$LN52@GetBitmapB|
  00154		 |$LN53@GetBitmapB|
  00154	00000000	 DCD         |??_C@_15KNBIKKIN@?$AA?$CF?$AAd?$AA?$AA@|
  00158		 |$LN54@GetBitmapB|
  00158	00000000	 DCD         |?g_strmgr@ATL@@3VCAtlStringMgr@1@A|
  0015c		 |$LN55@GetBitmapB|
  0015c	00000000	 DCD         |??_C@_11LOCGONAA@?$AA?$AA@|
  00160		 |$LN56@GetBitmapB|
  00160	00000000	 DCD         |??_C@_1DO@EJODIBDK@?$AAh?$AAM?$AAe?$AAm?$AAD?$AAC?$AA?5?$AA?$DN?$AA?5?$AAN?$AAU?$AAL?$AAL?$AA?5?$AA?$EA?$AA?5?$AAG?$AAe?$AAt?$AAB?$AAi?$AAt?$AAm?$AAa?$AAp?$AAB?$AAi?$AAx?$AAe?$AAl?$AA?$AA@|
  00164		 |$LN57@GetBitmapB|
  00164	00000000	 DCD         |??_C@_1DI@POFGNMHF@?$AAh?$AAD?$AAC?$AA?5?$AA?$DN?$AA?5?$AAN?$AAU?$AAL?$AAL?$AA?5?$AA?$EA?$AA?5?$AAG?$AAe?$AAt?$AAB?$AAi?$AAt?$AAm?$AAa?$AAp?$AAB?$AAi?$AAx?$AAe?$AAl?$AA?$AA@|
  00168		 |$M88422|

			 ENDP  ; |?GetBitmapBixel@@YAXPAUHBITMAP__@@HHPAV?$CStringT@_WV?$StrTraitATL@_WV?$ChTraitsOS@_W@ATL@@@ATL@@@ATL@@@Z|, GetBitmapBixel

	EXPORT	|??0?$CStringT@_WV?$StrTraitATL@_WV?$ChTraitsOS@_W@ATL@@@ATL@@@ATL@@QAA@PB_W@Z| ; ATL::CStringT<wchar_t,ATL::StrTraitATL<wchar_t,ATL::ChTraitsOS<wchar_t> > >::CStringT<wchar_t,ATL::StrTraitATL<wchar_t,ATL::ChTraitsOS<wchar_t> > >
; File c:\program files (x86)\microsoft visual studio 9.0\vc\ce\atlmfc\include\atlsimpstr.h

  00000			 AREA	 |.pdata|, PDATA
|$T88508| DCD	|$LN32@CStringT@3|
	DCD	0xc0001d04

  00000			 AREA	 |.pdata|, PDATA
|$T88511| DCD	|__unwind$88435|
	DCD	0x40000702

  00000			 AREA	 |.rdata|, DATA, READONLY
|__unwindtable$??0?$CStringT@_WV?$StrTraitATL@_WV?$ChTraitsOS@_W@ATL@@@ATL@@@ATL@@QAA@PB_W@Z| DCD 0xffffffff
	DCD	|__unwind$88435|
|__ehfuncinfo$??0?$CStringT@_WV?$StrTraitATL@_WV?$ChTraitsOS@_W@ATL@@@ATL@@@ATL@@QAA@PB_W@Z| DCD 0x19930522
	DCD	0x1
	DCD	|__unwindtable$??0?$CStringT@_WV?$StrTraitATL@_WV?$ChTraitsOS@_W@ATL@@@ATL@@@ATL@@QAA@PB_W@Z|
	DCD	0x0
	DCD	0x0
	DCD	0x1
	DCD	|$T88504|
	DCD	0x0
	DCD	0x1
|$T88504| DCD	|$M88503|
	DCD	0x0
; Function compile flags: /Ogspy

  00000			 AREA	 |.text|, CODE, ARM

  00000	00000000	 DCD         |__CxxFrameHandler3|
  00004	00000000	 DCD         |__ehfuncinfo$??0?$CStringT@_WV?$StrTraitATL@_WV?$ChTraitsOS@_W@ATL@@@ATL@@@ATL@@QAA@PB_W@Z|

  00008		 |??0?$CStringT@_WV?$StrTraitATL@_WV?$ChTraitsOS@_W@ATL@@@ATL@@@ATL@@QAA@PB_W@Z| PROC ; ATL::CStringT<wchar_t,ATL::StrTraitATL<wchar_t,ATL::ChTraitsOS<wchar_t> > >::CStringT<wchar_t,ATL::StrTraitATL<wchar_t,ATL::ChTraitsOS<wchar_t> > >
; File c:\program files (x86)\microsoft visual studio 9.0\vc\ce\atlmfc\include\cstringt.h
; Line 822
  00008		 |$LN32@CStringT@3|
  00008	e1a0c00d	 mov         r12, sp
  0000c	e92d000f	 stmdb       sp!, {r0 - r3}
  00010	e92d5830	 stmdb       sp!, {r4, r5, r11, r12, lr}
  00014	e28db014	 add         r11, sp, #0x14
  00018		 |$M88505|
  00018	e1a05000	 mov         r5, r0
  0001c	e58b5000	 str         r5, [r11]
  00020	e1a04001	 mov         r4, r1
  00024	e59f0068	 ldr         r0, [pc, #0x68]
  00028	e5903000	 ldr         r3, [r0]
  0002c	e1a0e00f	 mov         lr, pc
  00030	e593f00c	 ldr         pc, [r3, #0xC]
  00034	e2803010	 add         r3, r0, #0x10
  00038	e5853000	 str         r3, [r5]
; Line 823
  0003c	e1a01004	 mov         r1, r4
  00040	e1a00005	 mov         r0, r5
  00044		 |$M88503|
  00044	eb000000	 bl          |?CheckImplicitLoad@?$CStringT@_WV?$StrTraitATL@_WV?$ChTraitsOS@_W@ATL@@@ATL@@@ATL@@AAA_NPBX@Z|
  00048	e3500000	 cmp         r0, #0
  0004c	1a000007	 bne         |$LN24@CStringT@3|
; Line 826
  00050	e3540000	 cmp         r4, #0
  00054	03a00000	 moveq       r0, #0
  00058	11a00004	 movne       r0, r4
  0005c	1b000000	 blne        wcslen
  00060	e1a02000	 mov         r2, r0
  00064	e1a00005	 mov         r0, r5
  00068	e1a01004	 mov         r1, r4
  0006c	eb000000	 bl          |?SetString@?$CSimpleStringT@_W$0A@@ATL@@QAAXPB_WH@Z|
  00070		 |$LN24@CStringT@3|
; Line 828
  00070	e1a00005	 mov         r0, r5
  00074	e24bd014	 sub         sp, r11, #0x14
  00078	e89da830	 ldmia       sp, {r4, r5, r11, sp, pc}
  0007c		 |$M88506|
  0007c		 |__unwind$88435|
  0007c	e52de004	 str         lr, [sp, #-4]!
  00080	e24bb010	 sub         r11, r11, #0x10
  00084		 |$M88509|
  00084	e59b0000	 ldr         r0, [r11]
  00088	eb000000	 bl          |??1?$CSimpleStringT@_W$0A@@ATL@@QAA@XZ|
  0008c	e28bb010	 add         r11, r11, #0x10
  00090	e8bd8000	 ldmia       sp!, {pc}
  00094		 |$LN35@CStringT@3|
  00094		 |$LN36@CStringT@3|
  00094	00000000	 DCD         |?g_strmgr@ATL@@3VCAtlStringMgr@1@A|
  00098		 |$M88510|

			 ENDP  ; |??0?$CStringT@_WV?$StrTraitATL@_WV?$ChTraitsOS@_W@ATL@@@ATL@@@ATL@@QAA@PB_W@Z|, ATL::CStringT<wchar_t,ATL::StrTraitATL<wchar_t,ATL::ChTraitsOS<wchar_t> > >::CStringT<wchar_t,ATL::StrTraitATL<wchar_t,ATL::ChTraitsOS<wchar_t> > >

	EXPORT	|__$ArrayPad$| [ DATA ]
	EXPORT	|??_C@_1DO@CPHHBHPN@?$AA?$CF?$AAd?$AA?9?$AA?$CF?$AAd?$AA?9?$AA?$CF?$AAd?$AA?9?$AA?$CF?$AAd?$AA?9?$AA?$CF?$AAd?$AA?9?$AA?$CF?$AAd?$AA?9?$AA?$CF?$AAd?$AA?9?$AA?$CF?$AAd?$AA?9?$AA?$CF?$AAd?$AA?9?$AA?$CF?$AAs?$AA?6?$AA?$AA@| [ DATA ] ; `string'
	IMPORT	|Process32Next|
	IMPORT	|Process32First|
	IMPORT	|CreateToolhelp32Snapshot|
; File c:\program files (x86)\microsoft visual studio 9.0\vc\ce\atlmfc\include\atlsimpstr.h

  00000			 AREA	 |.pdata|, PDATA
|$T88604| DCD	|$LN36@MessageBox@2|
	DCD	0xc0005004

  00000			 AREA	 |.pdata|, PDATA
|$T88607| DCD	|__unwind$88520|
	DCD	0x40000902

  00000			 AREA	 |.rdata|, DATA, READONLY
|__unwindtable$?MessageBoxRunningProc@CMangoClass@@UAAJPAPA_W@Z| DCD 0xffffffff
	DCD	|__unwind$88520|
|__ehfuncinfo$?MessageBoxRunningProc@CMangoClass@@UAAJPAPA_W@Z| DCD 0x19930522
	DCD	0x1
	DCD	|__unwindtable$?MessageBoxRunningProc@CMangoClass@@UAAJPAPA_W@Z|
	DCD	0x0
	DCD	0x0
	DCD	0x2
	DCD	|$T88600|
	DCD	0x0
	DCD	0x1
	DCD	0xffffffd4
|$T88600| DCD	|$M88598|
	DCD	0x0
	DCD	|$M88599|
	DCD	0xffffffff

  00000			 AREA	 |.rdata|, DATA, READONLY
|??_C@_1DO@CPHHBHPN@?$AA?$CF?$AAd?$AA?9?$AA?$CF?$AAd?$AA?9?$AA?$CF?$AAd?$AA?9?$AA?$CF?$AAd?$AA?9?$AA?$CF?$AAd?$AA?9?$AA?$CF?$AAd?$AA?9?$AA?$CF?$AAd?$AA?9?$AA?$CF?$AAd?$AA?9?$AA?$CF?$AAd?$AA?9?$AA?$CF?$AAs?$AA?6?$AA?$AA@| DCB "%"
	DCB	0x0, "d", 0x0, "-", 0x0, "%", 0x0, "d", 0x0, "-", 0x0, "%"
	DCB	0x0, "d", 0x0, "-", 0x0, "%", 0x0, "d", 0x0, "-", 0x0, "%"
	DCB	0x0, "d", 0x0, "-", 0x0, "%", 0x0, "d", 0x0, "-", 0x0, "%"
	DCB	0x0, "d", 0x0, "-", 0x0, "%", 0x0, "d", 0x0, "-", 0x0, "%"
	DCB	0x0, "d", 0x0, "-", 0x0, "%", 0x0, "s", 0x0, 0xa, 0x0, 0x0
	DCB	0x0					; `string'
; Function compile flags: /Ogspy

  00000			 AREA	 |.text|, CODE, ARM

  00000	00000000	 DCD         |__GSHandlerCheck_EH|
  00004	00000000	 DCD         |__ehfuncinfo$?MessageBoxRunningProc@CMangoClass@@UAAJPAPA_W@Z|

  00008		 |?MessageBoxRunningProc@CMangoClass@@UAAJPAPA_W@Z| PROC ; CMangoClass::MessageBoxRunningProc
; File c:\users\steven\desktop\csharp - dllimport\csharp - dllimport\vs2008\dllimportmango\mangoclass.cpp
; Line 646
  00008		 |$LN36@MessageBox@2|
  00008	e1a0c00d	 mov         r12, sp
  0000c	e92d5ff0	 stmdb       sp!, {r4 - r12, lr}
  00010	e28db028	 add         r11, sp, #0x28
  00014	e24ddf97	 sub         sp, sp, #0x97, 30	; 604 (0x25c)
  00018		 |$M88601|
  00018	e1a0a001	 mov         r10, r1
  0001c	e59f3144	 ldr         r3, [pc, #0x144]
  00020	e5933000	 ldr         r3, [r3]
  00024	e50b302c	 str         r3, [r11, #-0x2C]
; Line 648
  00028	e3a01000	 mov         r1, #0
  0002c	e3a0000f	 mov         r0, #0xF
  00030	eb000000	 bl          CreateToolhelp32Snapshot
  00034	e1a08000	 mov         r8, r0
; Line 651
  00038	e24b0f97	 sub         r0, r11, #0x97, 30	; 604 (0x25c)
  0003c	e3a02e23	 mov         r2, #0x23, 28
  00040	e3a01000	 mov         r1, #0
  00044	eb000000	 bl          memset
; Line 652
  00048	e3a03f8d	 mov         r3, #0x8D, 30
; Line 656
  0004c	e24b1e26	 sub         r1, r11, #0x26, 28	; 608 (0x260)
  00050	e1a00008	 mov         r0, r8
  00054	e50b3260	 str         r3, [r11, #-0x260]
  00058	eb000000	 bl          Process32First
  0005c	e3500000	 cmp         r0, #0
; Line 659
  00060	1a000003	 bne         |$LN4@MessageBox@2|
; Line 661
  00064	e51b002c	 ldr         r0, [r11, #-0x2C]
  00068	eb000000	 bl          __security_check_cookie
  0006c	e3a00001	 mov         r0, #1
  00070	ea000032	 b           |$LN5@MessageBox@2|
  00074		 |$LN4@MessageBox@2|
; Line 665
  00074	e59f10e8	 ldr         r1, [pc, #0xE8]
  00078	e24b0f99	 sub         r0, r11, #0x99, 30	; 612 (0x264)
  0007c	eb000000	 bl          |??0?$CStringT@_WV?$StrTraitATL@_WV?$ChTraitsOS@_W@ATL@@@ATL@@@ATL@@QAA@PB_W@Z|
  00080	e24b9f8f	 sub         r9, r11, #0x8F, 30	; 572 (0x23c)
  00084		 |$LL3@MessageBox@2|
; Line 683
  00084	e51b1240	 ldr         r1, [r11, #-0x240]
  00088	e51b0244	 ldr         r0, [r11, #-0x244]
  0008c	e51be248	 ldr         lr, [r11, #-0x248]
  00090	e51b424c	 ldr         r4, [r11, #-0x24C]
  00094	e51b5250	 ldr         r5, [r11, #-0x250]
  00098	e51b6254	 ldr         r6, [r11, #-0x254]
  0009c	e51b7258	 ldr         r7, [r11, #-0x258]
  000a0	e51b325c	 ldr         r3, [r11, #-0x25C]
  000a4	e51b2260	 ldr         r2, [r11, #-0x260]
  000a8	e58d1018	 str         r1, [sp, #0x18]
  000ac	e59f10ac	 ldr         r1, [pc, #0xAC]
  000b0	e58d0014	 str         r0, [sp, #0x14]
  000b4	e24b0f99	 sub         r0, r11, #0x99, 30	; 612 (0x264)
  000b8	e58de010	 str         lr, [sp, #0x10]
  000bc	e58d400c	 str         r4, [sp, #0xC]
  000c0	e58d5008	 str         r5, [sp, #8]
  000c4	e58d6004	 str         r6, [sp, #4]
  000c8	e58d7000	 str         r7, [sp]
  000cc	e58d901c	 str         r9, [sp, #0x1C]
  000d0		 |$M88598|
  000d0	eb000000	 bl          |?AppendFormat@?$CStringT@_WV?$StrTraitATL@_WV?$ChTraitsOS@_W@ATL@@@ATL@@@ATL@@QAAXPB_WZZ|
; Line 703
  000d4	e24b1e26	 sub         r1, r11, #0x26, 28	; 608 (0x260)
  000d8	e1a00008	 mov         r0, r8
  000dc	eb000000	 bl          Process32Next
  000e0	e3500000	 cmp         r0, #0
  000e4	1affffe6	 bne         |$LL3@MessageBox@2|
; Line 709
  000e8	e1a00008	 mov         r0, r8
  000ec	eb000000	 bl          CloseHandle
; Line 711
  000f0	e51b0264	 ldr         r0, [r11, #-0x264]
  000f4	e510100c	 ldr         r1, [r0, #-0xC]
  000f8	eb000000	 bl          SysAllocStringLen
  000fc	e3500000	 cmp         r0, #0
  00100	1a000000	 bne         |$LN8@MessageBox@2|
  00104	eb000000	 bl          |?ThrowMemoryException@?$CSimpleStringT@_W$0A@@ATL@@KAXXZ|
  00108		 |$LN39@MessageBox@2|
  00108		 |$LN8@MessageBox@2|
  00108	e58a0000	 str         r0, [r10]
; Line 714
  0010c	e51b3264	 ldr         r3, [r11, #-0x264]
  00110	e2434010	 sub         r4, r3, #0x10
  00114	e284000c	 add         r0, r4, #0xC
  00118	eb000000	 bl          InterlockedDecrement
  0011c	e3500000	 cmp         r0, #0
  00120	d5940000	 ldrle       r0, [r4]
  00124	d1a01004	 movle       r1, r4
  00128	d5903000	 ldrle       r3, [r0]
  0012c		 |$M88599|
  0012c	d1a0e00f	 movle       lr, pc
  00130	d593f004	 ldrle       pc, [r3, #4]
  00134	e51b002c	 ldr         r0, [r11, #-0x2C]
  00138	eb000000	 bl          __security_check_cookie
  0013c	e3a00000	 mov         r0, #0
  00140		 |$LN5@MessageBox@2|
; Line 715
  00140	e24bd028	 sub         sp, r11, #0x28
  00144	e89daff0	 ldmia       sp, {r4 - r11, sp, pc}
  00148		 |$LN31@MessageBox@2|
  00148		 |$M88602|
  00148		 |__unwind$88520|
  00148	e52de004	 str         lr, [sp, #-4]!
  0014c	e24dd020	 sub         sp, sp, #0x20
  00150		 |$M88605|
  00150	e24b0f99	 sub         r0, r11, #0x99, 30	; 612 (0x264)
  00154	eb000000	 bl          |??1?$CStringT@_WV?$StrTraitATL@_WV?$ChTraitsOS@_W@ATL@@@ATL@@@ATL@@QAA@XZ|
  00158	e28dd020	 add         sp, sp, #0x20
  0015c	e8bd8000	 ldmia       sp!, {pc}
  00160		 |$LN40@MessageBox@2|
  00160		 |$LN41@MessageBox@2|
  00160	00000000	 DCD         |??_C@_1DO@CPHHBHPN@?$AA?$CF?$AAd?$AA?9?$AA?$CF?$AAd?$AA?9?$AA?$CF?$AAd?$AA?9?$AA?$CF?$AAd?$AA?9?$AA?$CF?$AAd?$AA?9?$AA?$CF?$AAd?$AA?9?$AA?$CF?$AAd?$AA?9?$AA?$CF?$AAd?$AA?9?$AA?$CF?$AAd?$AA?9?$AA?$CF?$AAs?$AA?6?$AA?$AA@|
  00164		 |$LN42@MessageBox@2|
  00164	00000000	 DCD         |??_C@_11LOCGONAA@?$AA?$AA@|
  00168		 |$LN43@MessageBox@2|
  00168	00000000	 DCD         |__security_cookie|
  0016c		 |$M88606|

			 ENDP  ; |?MessageBoxRunningProc@CMangoClass@@UAAJPAPA_W@Z|, CMangoClass::MessageBoxRunningProc

	EXPORT	|??_C@_1CG@COGHJPEO@?$AAr?$AAe?$AAc?$AA?5?$AA?$DN?$AA?5?$AAN?$AAU?$AAL?$AAL?$AA?5?$AA?$EA?$AA?5?$AAC?$AAr?$AAn?$AAc?$AAh?$AA?$AA@| [ DATA ] ; `string'
	EXPORT	|??_C@_1CM@KNDMFHPJ@?$AAh?$AAS?$AAc?$AAr?$AAD?$AAC?$AA?5?$AA?$DN?$AA?5?$AAN?$AAU?$AAL?$AAL?$AA?5?$AA?$EA?$AA?5?$AAC?$AAr?$AAn?$AAc?$AAh?$AA?$AA@| [ DATA ] ; `string'
	IMPORT	|SetRect|
; File c:\program files (x86)\microsoft visual studio 9.0\vc\ce\atlmfc\include\atlsimpstr.h

  00000			 AREA	 |.pdata|, PDATA
|$T88702| DCD	|$LN33@Crnch|
	DCD	0xc0004304

  00000			 AREA	 |.pdata|, PDATA
|$T88705| DCD	|__unwind$88619|
	DCD	0x40000a02

  00000			 AREA	 |.rdata|, DATA, READONLY
|__unwindtable$?Crnch@CMangoClass@@UAAJPAPA_W@Z| DCD 0xffffffff
	DCD	|__unwind$88619|
|__ehfuncinfo$?Crnch@CMangoClass@@UAAJPAPA_W@Z| DCD 0x19930522
	DCD	0x1
	DCD	|__unwindtable$?Crnch@CMangoClass@@UAAJPAPA_W@Z|
	DCD	0x0
	DCD	0x0
	DCD	0x2
	DCD	|$T88698|
	DCD	0x0
	DCD	0x1
|$T88698| DCD	|$M88696|
	DCD	0x0
	DCD	|$M88697|
	DCD	0xffffffff

  00000			 AREA	 |.rdata|, DATA, READONLY
|??_C@_1CG@COGHJPEO@?$AAr?$AAe?$AAc?$AA?5?$AA?$DN?$AA?5?$AAN?$AAU?$AAL?$AAL?$AA?5?$AA?$EA?$AA?5?$AAC?$AAr?$AAn?$AAc?$AAh?$AA?$AA@| DCB "r"
	DCB	0x0, "e", 0x0, "c", 0x0, " ", 0x0, "=", 0x0, " ", 0x0, "N"
	DCB	0x0, "U", 0x0, "L", 0x0, "L", 0x0, " ", 0x0, "@", 0x0, " "
	DCB	0x0, "C", 0x0, "r", 0x0, "n", 0x0, "c", 0x0, "h", 0x0, 0x0
	DCB	0x0					; `string'

  00000			 AREA	 |.rdata|, DATA, READONLY
|??_C@_1CM@KNDMFHPJ@?$AAh?$AAS?$AAc?$AAr?$AAD?$AAC?$AA?5?$AA?$DN?$AA?5?$AAN?$AAU?$AAL?$AAL?$AA?5?$AA?$EA?$AA?5?$AAC?$AAr?$AAn?$AAc?$AAh?$AA?$AA@| DCB "h"
	DCB	0x0, "S", 0x0, "c", 0x0, "r", 0x0, "D", 0x0, "C", 0x0, " "
	DCB	0x0, "=", 0x0, " ", 0x0, "N", 0x0, "U", 0x0, "L", 0x0, "L"
	DCB	0x0, " ", 0x0, "@", 0x0, " ", 0x0, "C", 0x0, "r", 0x0, "n"
	DCB	0x0, "c", 0x0, "h", 0x0, 0x0, 0x0	; `string'
; Function compile flags: /Ogspy

  00000			 AREA	 |.text|, CODE, ARM

  00000	00000000	 DCD         |__CxxFrameHandler3|
  00004	00000000	 DCD         |__ehfuncinfo$?Crnch@CMangoClass@@UAAJPAPA_W@Z|

  00008		 |?Crnch@CMangoClass@@UAAJPAPA_W@Z| PROC ; CMangoClass::Crnch
; File c:\users\steven\desktop\csharp - dllimport\csharp - dllimport\vs2008\dllimportmango\mangoclass.cpp
; Line 860
  00008		 |$LN33@Crnch|
  00008	e1a0c00d	 mov         r12, sp
  0000c	e92d5870	 stmdb       sp!, {r4 - r6, r11, r12, lr}
  00010	e28db018	 add         r11, sp, #0x18
  00014	e24dd018	 sub         sp, sp, #0x18
  00018		 |$M88699|
  00018	e1a05001	 mov         r5, r1
; Line 861
  0001c	e59f0114	 ldr         r0, [pc, #0x114]
  00020	e3a03000	 mov         r3, #0
  00024	e3a02000	 mov         r2, #0
  00028	e3a01000	 mov         r1, #0
  0002c	eb000000	 bl          CreateDCW
  00030	e1b06000	 movs        r6, r0
; Line 864
  00034	059f10f8	 ldreq       r1, [pc, #0xF8]
  00038	059f20ec	 ldreq       r2, [pc, #0xEC]
  0003c	03a03000	 moveq       r3, #0
  00040	03a00000	 moveq       r0, #0
  00044	0b000000	 bleq        MessageBoxW
; Line 866
  00048	e3a01008	 mov         r1, #8
  0004c	e1a00006	 mov         r0, r6
  00050	eb000000	 bl          GetDeviceCaps
  00054	e1a04000	 mov         r4, r0
; Line 867
  00058	e1a00006	 mov         r0, r6
  0005c	e3a0100a	 mov         r1, #0xA
  00060	eb000000	 bl          GetDeviceCaps
  00064	e1a03000	 mov         r3, r0
; Line 870
  00068	e58d3000	 str         r3, [sp]
  0006c	e1a03004	 mov         r3, r4
  00070	e24b0028	 sub         r0, r11, #0x28
  00074	e3a02000	 mov         r2, #0
  00078	e3a01000	 mov         r1, #0
  0007c	eb000000	 bl          SetRect
  00080	e3500000	 cmp         r0, #0
; Line 872
  00084	059f10a4	 ldreq       r1, [pc, #0xA4]
  00088	059f209c	 ldreq       r2, [pc, #0x9C]
  0008c	03a03000	 moveq       r3, #0
  00090	03a00000	 moveq       r0, #0
  00094	0b000000	 bleq        MessageBoxW
; Line 874
  00098	e24b0028	 sub         r0, r11, #0x28
  0009c	eb000000	 bl          |?CopyScreenToBitmap@@YAPAUHBITMAP__@@PAUtagRECT@@@Z|
  000a0	e1a04000	 mov         r4, r0
; Line 876
  000a4	e24b002c	 sub         r0, r11, #0x2C
  000a8	e3a01000	 mov         r1, #0
  000ac	eb000000	 bl          |??0?$CStringT@_WV?$StrTraitATL@_WV?$ChTraitsOS@_W@ATL@@@ATL@@@ATL@@QAA@PB_W@Z|
; Line 882
  000b0	e24b302c	 sub         r3, r11, #0x2C
  000b4	e3a02000	 mov         r2, #0
  000b8	e3a01000	 mov         r1, #0
  000bc	e1a00004	 mov         r0, r4
  000c0		 |$M88696|
  000c0	eb000000	 bl          |?GetBitmapBixel@@YAXPAUHBITMAP__@@HHPAV?$CStringT@_WV?$StrTraitATL@_WV?$ChTraitsOS@_W@ATL@@@ATL@@@ATL@@@Z|
; Line 889
  000c4	e51b002c	 ldr         r0, [r11, #-0x2C]
  000c8	e510100c	 ldr         r1, [r0, #-0xC]
  000cc	eb000000	 bl          SysAllocStringLen
  000d0	e3500000	 cmp         r0, #0
  000d4	1a000000	 bne         |$LN6@Crnch|
  000d8	eb000000	 bl          |?ThrowMemoryException@?$CSimpleStringT@_W$0A@@ATL@@KAXXZ|
  000dc		 |$LN36@Crnch|
  000dc		 |$LN6@Crnch|
  000dc	e5850000	 str         r0, [r5]
; Line 892
  000e0	e51b302c	 ldr         r3, [r11, #-0x2C]
  000e4	e2434010	 sub         r4, r3, #0x10
  000e8	e284000c	 add         r0, r4, #0xC
  000ec	eb000000	 bl          InterlockedDecrement
  000f0	e3500000	 cmp         r0, #0
  000f4	d5940000	 ldrle       r0, [r4]
  000f8	d1a01004	 movle       r1, r4
  000fc	d5903000	 ldrle       r3, [r0]
  00100		 |$M88697|
  00100	d1a0e00f	 movle       lr, pc
  00104	d593f004	 ldrle       pc, [r3, #4]
  00108	e3a00000	 mov         r0, #0
; Line 899
  0010c	e24bd018	 sub         sp, r11, #0x18
  00110	e89da870	 ldmia       sp, {r4 - r6, r11, sp, pc}
  00114		 |$LN28@Crnch|
  00114		 |$M88700|
  00114		 |__unwind$88619|
  00114	e52de004	 str         lr, [sp, #-4]!
  00118	e24dd004	 sub         sp, sp, #4
  0011c		 |$M88703|
  0011c	e24b002c	 sub         r0, r11, #0x2C
  00120	eb000000	 bl          |??1?$CStringT@_WV?$StrTraitATL@_WV?$ChTraitsOS@_W@ATL@@@ATL@@@ATL@@QAA@XZ|
  00124	e28dd004	 add         sp, sp, #4
  00128	e8bd8000	 ldmia       sp!, {pc}
  0012c		 |$LN37@Crnch|
  0012c		 |$LN38@Crnch|
  0012c	00000000	 DCD         |??_C@_11LOCGONAA@?$AA?$AA@|
  00130		 |$LN39@Crnch|
  00130	00000000	 DCD         |??_C@_1CG@COGHJPEO@?$AAr?$AAe?$AAc?$AA?5?$AA?$DN?$AA?5?$AAN?$AAU?$AAL?$AAL?$AA?5?$AA?$EA?$AA?5?$AAC?$AAr?$AAn?$AAc?$AAh?$AA?$AA@|
  00134		 |$LN40@Crnch|
  00134	00000000	 DCD         |??_C@_1CM@KNDMFHPJ@?$AAh?$AAS?$AAc?$AAr?$AAD?$AAC?$AA?5?$AA?$DN?$AA?5?$AAN?$AAU?$AAL?$AAL?$AA?5?$AA?$EA?$AA?5?$AAC?$AAr?$AAn?$AAc?$AAh?$AA?$AA@|
  00138		 |$LN41@Crnch|
  00138	00000000	 DCD         |??_C@_1BA@PICGEGJB@?$AAD?$AAI?$AAS?$AAP?$AAL?$AAA?$AAY?$AA?$AA@|
  0013c		 |$M88704|

			 ENDP  ; |?Crnch@CMangoClass@@UAAJPAPA_W@Z|, CMangoClass::Crnch

	EXPORT	|__$ArrayPad$| [ DATA ]
; File c:\program files (x86)\microsoft visual studio 9.0\vc\ce\atlmfc\include\atlsimpstr.h

  00000			 AREA	 |.pdata|, PDATA
|$T88790| DCD	|$LN30@ddirFiles7|
	DCD	0xc0000d04

  00000			 AREA	 |.rdata|, DATA, READONLY
|__unwindtable$?ddirFiles7@CMangoClass@@UAAJPA_WPAPA_W@Z| DCD 0xffffffff
	DCD	0x0
|__ehfuncinfo$?ddirFiles7@CMangoClass@@UAAJPA_WPAPA_W@Z| DCD 0x19930522
	DCD	0x1
	DCD	|__unwindtable$?ddirFiles7@CMangoClass@@UAAJPA_WPAPA_W@Z|
	DCD	0x0
	DCD	0x0
	DCD	0x0
	DCD	0x0
	DCD	0x0
	DCD	0x1
	DCD	0xfffffff0
; Function compile flags: /Ogspy

  00000			 AREA	 |.text|, CODE, ARM

  00000	00000000	 DCD         |__GSHandlerCheck_EH|
  00004	00000000	 DCD         |__ehfuncinfo$?ddirFiles7@CMangoClass@@UAAJPA_WPAPA_W@Z|

  00008		 |?ddirFiles7@CMangoClass@@UAAJPA_WPAPA_W@Z| PROC ; CMangoClass::ddirFiles7
; File c:\users\steven\desktop\csharp - dllimport\csharp - dllimport\vs2008\dllimportmango\mangoclass.cpp
; Line 1276
  00008		 |$LN30@ddirFiles7|
  00008	e1a0c00d	 mov         r12, sp
  0000c	e92d5800	 stmdb       sp!, {r11, r12, lr}
  00010	e28db00c	 add         r11, sp, #0xC
  00014	e24dd004	 sub         sp, sp, #4
  00018		 |$M88787|
  00018	e59f3018	 ldr         r3, [pc, #0x18]
  0001c	e5933000	 ldr         r3, [r3]
  00020	e50b3010	 str         r3, [r11, #-0x10]
; Line 1277
  00024	e51b0010	 ldr         r0, [r11, #-0x10]
  00028	eb000000	 bl          __security_check_cookie
  0002c	e3a00003	 mov         r0, #3
; Line 1320
  00030	e24bd00c	 sub         sp, r11, #0xC
  00034	e89da800	 ldmia       sp, {r11, sp, pc}
  00038		 |$LN31@ddirFiles7|
  00038		 |$LN32@ddirFiles7|
  00038	00000000	 DCD         |__security_cookie|
  0003c		 |$M88788|

			 ENDP  ; |?ddirFiles7@CMangoClass@@UAAJPA_WPAPA_W@Z|, CMangoClass::ddirFiles7

	EXPORT	|__$ArrayPad$| [ DATA ]
	IMPORT	|SetWindowTextW|
; File c:\program files (x86)\microsoft visual studio 9.0\vc\ce\atlmfc\include\atlsimpstr.h

  00000			 AREA	 |.pdata|, PDATA
|$T88888| DCD	|$LN33@WindowText|
	DCD	0xc0002f04

  00000			 AREA	 |.pdata|, PDATA
|$T88891| DCD	|__unwind$88798|
	DCD	0x40000501

  00000			 AREA	 |.rdata|, DATA, READONLY
|__unwindtable$?WindowTextOfHWND@CMangoClass@@UAAJHPAPA_W_N@Z| DCD 0xffffffff
	DCD	|__unwind$88798|
|__ehfuncinfo$?WindowTextOfHWND@CMangoClass@@UAAJHPAPA_W_N@Z| DCD 0x19930522
	DCD	0x1
	DCD	|__unwindtable$?WindowTextOfHWND@CMangoClass@@UAAJHPAPA_W_N@Z|
	DCD	0x0
	DCD	0x0
	DCD	0x2
	DCD	|$T88884|
	DCD	0x0
	DCD	0x1
	DCD	0xffffffe8
|$T88884| DCD	|$M88882|
	DCD	0x0
	DCD	|$M88883|
	DCD	0xffffffff
; Function compile flags: /Ogspy

  00000			 AREA	 |.text|, CODE, ARM

  00000	00000000	 DCD         |__GSHandlerCheck_EH|
  00004	00000000	 DCD         |__ehfuncinfo$?WindowTextOfHWND@CMangoClass@@UAAJHPAPA_W_N@Z|

  00008		 |?WindowTextOfHWND@CMangoClass@@UAAJHPAPA_W_N@Z| PROC ; CMangoClass::WindowTextOfHWND
; File c:\users\steven\desktop\csharp - dllimport\csharp - dllimport\vs2008\dllimportmango\mangoclass.cpp
; Line 1358
  00008		 |$LN33@WindowText|
  00008	e1a0c00d	 mov         r12, sp
  0000c	e92d5830	 stmdb       sp!, {r4, r5, r11, r12, lr}
  00010	e28db014	 add         r11, sp, #0x14
  00014	e24dde21	 sub         sp, sp, #0x21, 28	; 528 (0x210)
  00018		 |$M88885|
  00018	e3530000	 cmp         r3, #0
  0001c	e1a04002	 mov         r4, r2
  00020	e1a05001	 mov         r5, r1
  00024	e59f30a8	 ldr         r3, [pc, #0xA8]
  00028	e5933000	 ldr         r3, [r3]
  0002c	e50b3018	 str         r3, [r11, #-0x18]
; Line 1361
  00030	e1a00005	 mov         r0, r5
  00034	0a000003	 beq         |$LN2@WindowText|
  00038	e5941000	 ldr         r1, [r4]
  0003c	eb000000	 bl          SetWindowTextW
  00040	e1a05000	 mov         r5, r0
  00044	ea000019	 b           |$LN24@WindowText|
  00048		 |$LN2@WindowText|
; Line 1366
  00048	eb000000	 bl          GetWindowTextLengthW
  0004c	e2802001	 add         r2, r0, #1
  00050	e1a00005	 mov         r0, r5
  00054	e24b1e22	 sub         r1, r11, #0x22, 28	; 544 (0x220)
  00058	eb000000	 bl          GetWindowTextW
  0005c	e1a05000	 mov         r5, r0
; Line 1367
  00060	e24b0f89	 sub         r0, r11, #0x89, 30	; 548 (0x224)
  00064	e24b1e22	 sub         r1, r11, #0x22, 28	; 544 (0x220)
  00068	eb000000	 bl          |??0?$CStringT@_WV?$StrTraitATL@_WV?$ChTraitsOS@_W@ATL@@@ATL@@@ATL@@QAA@PB_W@Z|
  0006c	e5900000	 ldr         r0, [r0]
  00070	e510100c	 ldr         r1, [r0, #-0xC]
  00074	eb000000	 bl          SysAllocStringLen
  00078	e3500000	 cmp         r0, #0
  0007c	1a000000	 bne         |$LN6@WindowText|
  00080		 |$M88882|
  00080	eb000000	 bl          |?ThrowMemoryException@?$CSimpleStringT@_W$0A@@ATL@@KAXXZ|
  00084		 |$LN36@WindowText|
  00084		 |$LN6@WindowText|
  00084	e5840000	 str         r0, [r4]
  00088	e51b3224	 ldr         r3, [r11, #-0x224]
  0008c	e2434010	 sub         r4, r3, #0x10
  00090	e284000c	 add         r0, r4, #0xC
  00094	eb000000	 bl          InterlockedDecrement
  00098	e3500000	 cmp         r0, #0
  0009c	d5940000	 ldrle       r0, [r4]
  000a0	d1a01004	 movle       r1, r4
  000a4	d5903000	 ldrle       r3, [r0]
  000a8		 |$M88883|
  000a8	d1a0e00f	 movle       lr, pc
  000ac	d593f004	 ldrle       pc, [r3, #4]
  000b0		 |$LN24@WindowText|
; Line 1368
  000b0	e51b0018	 ldr         r0, [r11, #-0x18]
  000b4	eb000000	 bl          __security_check_cookie
; Line 1370
  000b8	e1a00005	 mov         r0, r5
  000bc	e24bd014	 sub         sp, r11, #0x14
  000c0	e89da830	 ldmia       sp, {r4, r5, r11, sp, pc}
  000c4		 |$LN28@WindowText|
  000c4		 |$M88886|
  000c4		 |__unwind$88798|
  000c4	e52de004	 str         lr, [sp, #-4]!
  000c8		 |$M88889|
  000c8	e24b0f89	 sub         r0, r11, #0x89, 30	; 548 (0x224)
  000cc	eb000000	 bl          |??1?$CStringT@_WV?$StrTraitATL@_WV?$ChTraitsOS@_W@ATL@@@ATL@@@ATL@@QAA@XZ|
  000d0	e8bd8000	 ldmia       sp!, {pc}
  000d4		 |$LN37@WindowText|
  000d4		 |$LN38@WindowText|
  000d4	00000000	 DCD         |__security_cookie|
  000d8		 |$M88890|

			 ENDP  ; |?WindowTextOfHWND@CMangoClass@@UAAJHPAPA_W_N@Z|, CMangoClass::WindowTextOfHWND

	IMPORT	|GetClassNameW|
; File c:\program files (x86)\microsoft visual studio 9.0\vc\ce\atlmfc\include\atlsimpstr.h

  00000			 AREA	 |.pdata|, PDATA
|$T88982| DCD	|$LN31@GetClassNa|
	DCD	0xc0002404

  00000			 AREA	 |.pdata|, PDATA
|$T88985| DCD	|__unwind$88901|
	DCD	0x40000401

  00000			 AREA	 |.rdata|, DATA, READONLY
|__unwindtable$?GetClassNameForHWNDEnumWindows@CMangoClass@@UAAJHPAPA_W@Z| DCD 0xffffffff
	DCD	|__unwind$88901|
|__ehfuncinfo$?GetClassNameForHWNDEnumWindows@CMangoClass@@UAAJHPAPA_W@Z| DCD 0x19930522
	DCD	0x1
	DCD	|__unwindtable$?GetClassNameForHWNDEnumWindows@CMangoClass@@UAAJHPAPA_W@Z|
	DCD	0x0
	DCD	0x0
	DCD	0x2
	DCD	|$T88978|
	DCD	0x0
	DCD	0x1
|$T88978| DCD	|$M88976|
	DCD	0x0
	DCD	|$M88977|
	DCD	0xffffffff
; Function compile flags: /Ogspy

  00000			 AREA	 |.text|, CODE, ARM

  00000	00000000	 DCD         |__CxxFrameHandler3|
  00004	00000000	 DCD         |__ehfuncinfo$?GetClassNameForHWNDEnumWindows@CMangoClass@@UAAJHPAPA_W@Z|

  00008		 |?GetClassNameForHWNDEnumWindows@CMangoClass@@UAAJHPAPA_W@Z| PROC ; CMangoClass::GetClassNameForHWNDEnumWindows
; File c:\users\steven\desktop\csharp - dllimport\csharp - dllimport\vs2008\dllimportmango\mangoclass.cpp
; Line 1442
  00008		 |$LN31@GetClassNa|
  00008	e1a0c00d	 mov         r12, sp
  0000c	e92d5870	 stmdb       sp!, {r4 - r6, r11, r12, lr}
  00010	e28db018	 add         r11, sp, #0x18
  00014	e24dd004	 sub         sp, sp, #4
  00018		 |$M88979|
  00018	e1a06002	 mov         r6, r2
  0001c	e1a05001	 mov         r5, r1
; Line 1444
  00020	e3a00c01	 mov         r0, #1, 24
  00024	eb000000	 bl          malloc
  00028	e1a04000	 mov         r4, r0
; Line 1446
  0002c	e1a01004	 mov         r1, r4
  00030	e3a02c01	 mov         r2, #1, 24
  00034	e1a00005	 mov         r0, r5
  00038	eb000000	 bl          GetClassNameW
; Line 1448
  0003c	e1a01004	 mov         r1, r4
  00040	e24b001c	 sub         r0, r11, #0x1C
  00044	eb000000	 bl          |??0?$CStringT@_WV?$StrTraitATL@_WV?$ChTraitsOS@_W@ATL@@@ATL@@@ATL@@QAA@PB_W@Z|
; Line 1449
  00048	e51b001c	 ldr         r0, [r11, #-0x1C]
  0004c	e510100c	 ldr         r1, [r0, #-0xC]
  00050	eb000000	 bl          SysAllocStringLen
  00054	e3500000	 cmp         r0, #0
  00058	1a000000	 bne         |$LN4@GetClassNa|
  0005c		 |$M88976|
  0005c	eb000000	 bl          |?ThrowMemoryException@?$CSimpleStringT@_W$0A@@ATL@@KAXXZ|
  00060		 |$LN34@GetClassNa|
  00060		 |$LN4@GetClassNa|
  00060	e5860000	 str         r0, [r6]
; Line 1451
  00064	e51b301c	 ldr         r3, [r11, #-0x1C]
  00068	e2434010	 sub         r4, r3, #0x10
  0006c	e284000c	 add         r0, r4, #0xC
  00070	eb000000	 bl          InterlockedDecrement
  00074	e3500000	 cmp         r0, #0
  00078	d5940000	 ldrle       r0, [r4]
  0007c	d1a01004	 movle       r1, r4
  00080	d5903000	 ldrle       r3, [r0]
  00084		 |$M88977|
  00084	d1a0e00f	 movle       lr, pc
  00088	d593f004	 ldrle       pc, [r3, #4]
  0008c	e3a00001	 mov         r0, #1
; Line 1452
  00090	e24bd018	 sub         sp, r11, #0x18
  00094	e89da870	 ldmia       sp, {r4 - r6, r11, sp, pc}
  00098		 |$LN26@GetClassNa|
  00098		 |$M88980|
  00098		 |__unwind$88901|
  00098	e52de004	 str         lr, [sp, #-4]!
  0009c		 |$M88983|
  0009c	e24b001c	 sub         r0, r11, #0x1C
  000a0	eb000000	 bl          |??1?$CStringT@_WV?$StrTraitATL@_WV?$ChTraitsOS@_W@ATL@@@ATL@@@ATL@@QAA@XZ|
  000a4	e8bd8000	 ldmia       sp!, {pc}
  000a8		 |$M88984|

			 ENDP  ; |?GetClassNameForHWNDEnumWindows@CMangoClass@@UAAJHPAPA_W@Z|, CMangoClass::GetClassNameForHWNDEnumWindows

	EXPORT	|??_C@_1BC@EABCKCKE@?$AA?$CF?$AAd?$AA?3?$AA?5?$AA?$CF?$AAw?$AAs?$AA?6?$AA?$AA@| [ DATA ] ; `string'
	IMPORT	|CommandLineToArgvW|
	IMPORT	|GetCommandLineW|
; File c:\program files (x86)\microsoft visual studio 9.0\vc\ce\atlmfc\include\atlsimpstr.h

  00000			 AREA	 |.pdata|, PDATA
|$T89161| DCD	|$LN67@GetCommand|
	DCD	0xc0004504

  00000			 AREA	 |.pdata|, PDATA
|$T89164| DCD	|__unwind$88993|
	DCD	0x40000401

  00000			 AREA	 |.pdata|, PDATA
|$T89167| DCD	|__unwind$88994|
	DCD	0x40000701

  00000			 AREA	 |.rdata|, DATA, READONLY
|__unwindtable$?GetCommandLine7@CMangoClass@@UAAJPAPA_W@Z| DCD 0xffffffff
	DCD	|__unwind$88993|
	DCD	0x0
	DCD	|__unwind$88994|
|__ehfuncinfo$?GetCommandLine7@CMangoClass@@UAAJPAPA_W@Z| DCD 0x19930522
	DCD	0x2
	DCD	|__unwindtable$?GetCommandLine7@CMangoClass@@UAAJPAPA_W@Z|
	DCD	0x0
	DCD	0x0
	DCD	0x4
	DCD	|$T89157|
	DCD	0x0
	DCD	0x1
|$T89157| DCD	|$M89153|
	DCD	0x0
	DCD	|$M89154|
	DCD	0x1
	DCD	|$M89155|
	DCD	0x0
	DCD	|$M89156|
	DCD	0xffffffff

  00000			 AREA	 |.rdata|, DATA, READONLY
|??_C@_1BC@EABCKCKE@?$AA?$CF?$AAd?$AA?3?$AA?5?$AA?$CF?$AAw?$AAs?$AA?6?$AA?$AA@| DCB "%"
	DCB	0x0, "d", 0x0, ":", 0x0, " ", 0x0, "%", 0x0, "w", 0x0, "s"
	DCB	0x0, 0xa, 0x0, 0x0, 0x0			; `string'
; Function compile flags: /Ogspy

  00000			 AREA	 |.text|, CODE, ARM

  00000	00000000	 DCD         |__CxxFrameHandler3|
  00004	00000000	 DCD         |__ehfuncinfo$?GetCommandLine7@CMangoClass@@UAAJPAPA_W@Z|

  00008		 |?GetCommandLine7@CMangoClass@@UAAJPAPA_W@Z| PROC ; CMangoClass::GetCommandLine7
; File c:\users\steven\desktop\csharp - dllimport\csharp - dllimport\vs2008\dllimportmango\mangoclass.cpp
; Line 1879
  00008		 |$LN67@GetCommand|
  00008	e1a0c00d	 mov         r12, sp
  0000c	e92d58f0	 stmdb       sp!, {r4 - r7, r11, r12, lr}
  00010	e28db01c	 add         r11, sp, #0x1C
  00014	e24dd00c	 sub         sp, sp, #0xC
  00018		 |$M89158|
  00018	e1a06001	 mov         r6, r1
; Line 1884
  0001c	eb000000	 bl          GetCommandLineW
  00020	e24b1024	 sub         r1, r11, #0x24
  00024	eb000000	 bl          CommandLineToArgvW
; Line 1885
  00028	e59f2114	 ldr         r2, [pc, #0x114]
  0002c	e1a07000	 mov         r7, r0
  00030	e5923000	 ldr         r3, [r2]
  00034	e1a00002	 mov         r0, r2
  00038	e1a0e00f	 mov         lr, pc
  0003c	e593f00c	 ldr         pc, [r3, #0xC]
  00040	e2805010	 add         r5, r0, #0x10
  00044	e50b5028	 str         r5, [r11, #-0x28]
; Line 1886
  00048	e51b3024	 ldr         r3, [r11, #-0x24]
  0004c	e3a04000	 mov         r4, #0
  00050	e3530000	 cmp         r3, #0
  00054	da00000e	 ble         |$LN1@GetCommand|
  00058		 |$LL3@GetCommand|
; Line 1888
  00058	e4973004	 ldr         r3, [r7], #4
  0005c	e59f10dc	 ldr         r1, [pc, #0xDC]
  00060	e1a02004	 mov         r2, r4
  00064	e24b0028	 sub         r0, r11, #0x28
  00068		 |$M89153|
  00068	eb000000	 bl          |?Format@?$CStringT@_WV?$StrTraitATL@_WV?$ChTraitsOS@_W@ATL@@@ATL@@@ATL@@QAAXPB_WZZ|
; Line 1889
  0006c	e51b5028	 ldr         r5, [r11, #-0x28]
  00070	e59f20c4	 ldr         r2, [pc, #0xC4]
  00074	e3a03000	 mov         r3, #0
  00078	e1a01005	 mov         r1, r5
  0007c	e3a00000	 mov         r0, #0
  00080	eb000000	 bl          MessageBoxW
  00084	e51b3024	 ldr         r3, [r11, #-0x24]
  00088	e2844001	 add         r4, r4, #1
  0008c	e1540003	 cmp         r4, r3
  00090	bafffff0	 blt         |$LL3@GetCommand|
  00094		 |$LN1@GetCommand|
; Line 1892
  00094	eb000000	 bl          GetCommandLineW
; Line 1893
  00098	eb000000	 bl          GetCommandLineW
  0009c	e1a01000	 mov         r1, r0
  000a0	e24b0020	 sub         r0, r11, #0x20
  000a4	eb000000	 bl          |??0?$CStringT@_WV?$StrTraitATL@_WV?$ChTraitsOS@_W@ATL@@@ATL@@@ATL@@QAA@PB_W@Z|
; Line 1895
  000a8	e51b0020	 ldr         r0, [r11, #-0x20]
  000ac	e510100c	 ldr         r1, [r0, #-0xC]
  000b0	eb000000	 bl          SysAllocStringLen
  000b4	e3500000	 cmp         r0, #0
  000b8	1a000000	 bne         |$LN28@GetCommand|
  000bc		 |$M89154|
  000bc	eb000000	 bl          |?ThrowMemoryException@?$CSimpleStringT@_W$0A@@ATL@@KAXXZ|
  000c0		 |$LN72@GetCommand|
  000c0		 |$LN28@GetCommand|
  000c0	e5860000	 str         r0, [r6]
; Line 1897
  000c4	e51b3020	 ldr         r3, [r11, #-0x20]
  000c8	e2434010	 sub         r4, r3, #0x10
  000cc	e284000c	 add         r0, r4, #0xC
  000d0	eb000000	 bl          InterlockedDecrement
  000d4	e3500000	 cmp         r0, #0
  000d8	d5940000	 ldrle       r0, [r4]
  000dc	d1a01004	 movle       r1, r4
  000e0	d5903000	 ldrle       r3, [r0]
  000e4		 |$M89155|
  000e4	d1a0e00f	 movle       lr, pc
  000e8	d593f004	 ldrle       pc, [r3, #4]
  000ec	e2454010	 sub         r4, r5, #0x10
  000f0	e284000c	 add         r0, r4, #0xC
  000f4	eb000000	 bl          InterlockedDecrement
  000f8	e3500000	 cmp         r0, #0
  000fc	d5940000	 ldrle       r0, [r4]
  00100	d1a01004	 movle       r1, r4
  00104	d5903000	 ldrle       r3, [r0]
  00108		 |$M89156|
  00108	d1a0e00f	 movle       lr, pc
  0010c	d593f004	 ldrle       pc, [r3, #4]
  00110	e3a00000	 mov         r0, #0
; Line 1898
  00114	e24bd01c	 sub         sp, r11, #0x1C
  00118	e89da8f0	 ldmia       sp, {r4 - r7, r11, sp, pc}
  0011c		 |$LN60@GetCommand|
  0011c		 |$M89159|
  0011c		 |__unwind$88993|
  0011c	e52de004	 str         lr, [sp, #-4]!
  00120		 |$M89162|
  00120	e24b0028	 sub         r0, r11, #0x28
  00124	eb000000	 bl          |??1?$CStringT@_WV?$StrTraitATL@_WV?$ChTraitsOS@_W@ATL@@@ATL@@@ATL@@QAA@XZ|
  00128	e8bd8000	 ldmia       sp!, {pc}
  0012c		 |$M89163|
  0012c		 |__unwind$88994|
  0012c	e52de004	 str         lr, [sp, #-4]!
  00130		 |$M89165|
  00130	e24b0020	 sub         r0, r11, #0x20
  00134	eb000000	 bl          |??1?$CStringT@_WV?$StrTraitATL@_WV?$ChTraitsOS@_W@ATL@@@ATL@@@ATL@@QAA@XZ|
  00138	e8bd8000	 ldmia       sp!, {pc}
  0013c		 |$LN73@GetCommand|
  0013c		 |$LN74@GetCommand|
  0013c	00000000	 DCD         |??_C@_11LOCGONAA@?$AA?$AA@|
  00140		 |$LN75@GetCommand|
  00140	00000000	 DCD         |??_C@_1BC@EABCKCKE@?$AA?$CF?$AAd?$AA?3?$AA?5?$AA?$CF?$AAw?$AAs?$AA?6?$AA?$AA@|
  00144		 |$LN76@GetCommand|
  00144	00000000	 DCD         |?g_strmgr@ATL@@3VCAtlStringMgr@1@A|
  00148		 |$M89166|

			 ENDP  ; |?GetCommandLine7@CMangoClass@@UAAJPAPA_W@Z|, CMangoClass::GetCommandLine7

	IMPORT	|atexit|
; File c:\program files (x86)\microsoft visual studio 9.0\vc\ce\atlmfc\include\atlsimpstr.h

  00000			 AREA	 |.pdata|, PDATA
|$T89233| DCD	|$LN23@dynamic|
	DCD	0x40000f01
; Function compile flags: /Ogspy

  00000			 AREA	 |.text$yc|, CODE, ARM

  00000		 |??__Ewndows@@YAXXZ| PROC		; `dynamic initializer for 'wndows''
; File c:\users\steven\desktop\csharp - dllimport\csharp - dllimport\vs2008\dllimportmango\mangoclass.cpp
; Line 1383
  00000		 |$LN23@dynamic|
  00000	e52de004	 str         lr, [sp, #-4]!
  00004		 |$M89230|
  00004	e59f002c	 ldr         r0, [pc, #0x2C]
  00008	e5903000	 ldr         r3, [r0]
  0000c	e1a0e00f	 mov         lr, pc
  00010	e593f00c	 ldr         pc, [r3, #0xC]
  00014	e59f2018	 ldr         r2, [pc, #0x18]
  00018	e1a03000	 mov         r3, r0
  0001c	e2833010	 add         r3, r3, #0x10
  00020	e59f0008	 ldr         r0, [pc, #8]
  00024	e5823000	 str         r3, [r2]
  00028	e49de004	 ldr         lr, [sp], #4
  0002c	ea000000	 b           atexit
  00030		 |$LN24@dynamic|
  00030		 |$LN25@dynamic|
  00030	00000000	 DCD         |??__Fwndows@@YAXXZ|
  00034		 |$LN26@dynamic|
  00034	00000000	 DCD         |?wndows@@3V?$CStringT@_WV?$StrTraitATL@_WV?$ChTraitsOS@_W@ATL@@@ATL@@@ATL@@A|
  00038		 |$LN27@dynamic|
  00038	00000000	 DCD         |?g_strmgr@ATL@@3VCAtlStringMgr@1@A|
  0003c		 |$M89231|

			 ENDP  ; |??__Ewndows@@YAXXZ|, `dynamic initializer for 'wndows''


  00000			 AREA	 |.pdata|, PDATA
|$T89272| DCD	|$LN14@dynamic@2|
	DCD	0x40000e01
; Function compile flags: /Ogspy

  00000			 AREA	 |.text$yd|, CODE, ARM

  00000		 |??__Fwndows@@YAXXZ| PROC		; `dynamic atexit destructor for 'wndows''
  00000		 |$LN14@dynamic@2|
  00000	e92d4010	 stmdb       sp!, {r4, lr}
  00004		 |$M89269|
  00004	e59f3028	 ldr         r3, [pc, #0x28]
  00008	e5933000	 ldr         r3, [r3]
  0000c	e2434010	 sub         r4, r3, #0x10
  00010	e284000c	 add         r0, r4, #0xC
  00014	eb000000	 bl          InterlockedDecrement
  00018	e3500000	 cmp         r0, #0
  0001c	d5940000	 ldrle       r0, [r4]
  00020	d1a01004	 movle       r1, r4
  00024	d5903000	 ldrle       r3, [r0]
  00028	d1a0e00f	 movle       lr, pc
  0002c	d593f004	 ldrle       pc, [r3, #4]
  00030	e8bd8010	 ldmia       sp!, {r4, pc}
  00034		 |$LN15@dynamic@2|
  00034		 |$LN16@dynamic@2|
  00034	00000000	 DCD         |?wndows@@3V?$CStringT@_WV?$StrTraitATL@_WV?$ChTraitsOS@_W@ATL@@@ATL@@@ATL@@A|
  00038		 |$M89270|

			 ENDP  ; |??__Fwndows@@YAXXZ|, `dynamic atexit destructor for 'wndows''

	EXPORT	|?wndows@@3V?$CStringT@_WV?$StrTraitATL@_WV?$ChTraitsOS@_W@ATL@@@ATL@@@ATL@@A| [ DATA ] ; wndows

  00000			 AREA	 |.bss|, NOINIT
|?wndows@@3V?$CStringT@_WV?$StrTraitATL@_WV?$ChTraitsOS@_W@ATL@@@ATL@@@ATL@@A| % 0x4 ; wndows

  00000			 AREA	 |.CRT$XCU|, DATA
|wndows$initializer$| DCD |??__Ewndows@@YAXXZ|
	END
