; Listing generated by Microsoft (R) Optimizing Compiler Version 15.00.20720 

	TTL	c:\Users\Steven\Desktop\CSharp - DllImport\CSharp - DllImport\VS2008\DllImportMango\MangoClass.cpp
	CODE32

  00000			 AREA	 |.drectve|, DRECTVE
	DCB	"/nodefaultlib:libc.lib "
	DCB	"/nodefaultlib:libcd.lib "
	DCB	"/nodefaultlib:libc.lib "
	DCB	"/nodefaultlib:libcd.lib "
	DCB	"/nodefaultlib:oldnames.lib "
	DCB	"-defaultlib:uuid.lib "
	DCB	"-defaultlib:uuid.lib "
	DCB	"-defaultlib:atls.lib "
	DCB	"/merge:ATL=.rdata "
	DCB	"-defaultlib:coredll.lib "
	DCB	"-defaultlib:ole32.lib "
	DCB	"-defaultlib:oleaut32.lib "
	DCB	"-defaultlib:uuid.lib "
	DCB	"-defaultlib:uuid.lib "
	DCB	"-defaultlib:uuid.lib "
	DCB	"-defaultlib:urlmon.lib "
	DCB	"-defaultlib:aygshell.lib "
	DCB	"/include:__pobjMap_CMangoClass "
	DCB	"-defaultlib:libcpmt.lib "
	DCB	"-defaultlib:sms.lib "
	DCB	"-defaultlib:ceshell.lib "
	DCB	"-defaultlib:aygshell.lib "
	DCB	"-defaultlib:phone.lib "
	DCB	"-defaultlib:Toolhelp.lib "
	DCB	"-defaultlib:LIBCMT "
	DCB	"-defaultlib:OLDNAMES "

	EXPORT	|??_C@_1BA@JIHHIEDE@?$AAT?$AAy?$AAp?$AAe?$AAL?$AAi?$AAb?$AA?$AA@| [ DATA ] ; `string'
	EXPORT	|??_C@_1BC@EAHCMADO@?$AAS?$AAo?$AAf?$AAt?$AAw?$AAa?$AAr?$AAe?$AA?$AA@| [ DATA ] ; `string'
	EXPORT	|??_C@_1O@GBFINDKL@?$AAS?$AAY?$AAS?$AAT?$AAE?$AAM?$AA?$AA@| [ DATA ] ; `string'
	EXPORT	|??_C@_1BC@IBECJAAI@?$AAS?$AAE?$AAC?$AAU?$AAR?$AAI?$AAT?$AAY?$AA?$AA@| [ DATA ] ; `string'
	EXPORT	|??_C@_17OMAOINJK@?$AAS?$AAA?$AAM?$AA?$AA@| [ DATA ] ; `string'
	EXPORT	|??_C@_19HLLLM@?$AAM?$AAi?$AAm?$AAe?$AA?$AA@| [ DATA ] ; `string'
	EXPORT	|??_C@_1BC@MAICEHGI@?$AAH?$AAa?$AAr?$AAd?$AAw?$AAa?$AAr?$AAe?$AA?$AA@| [ DATA ] ; `string'
	EXPORT	|??_C@_1BE@EKPAFMCP@?$AAI?$AAn?$AAt?$AAe?$AAr?$AAf?$AAa?$AAc?$AAe?$AA?$AA@| [ DATA ] ; `string'
	EXPORT	|??_C@_1BC@NKMMNMGL@?$AAF?$AAi?$AAl?$AAe?$AAT?$AAy?$AAp?$AAe?$AA?$AA@| [ DATA ] ; `string'
	EXPORT	|??_C@_1CK@OEKPKBNA@?$AAC?$AAo?$AAm?$AAp?$AAo?$AAn?$AAe?$AAn?$AAt?$AA?5?$AAC?$AAa?$AAt?$AAe?$AAg?$AAo?$AAr?$AAi?$AAe?$AAs?$AA?$AA@| [ DATA ] ; `string'
	EXPORT	|??_C@_1M@KANJNLFF@?$AAC?$AAL?$AAS?$AAI?$AAD?$AA?$AA@| [ DATA ] ; `string'
	EXPORT	|??_C@_1M@EJNEECMJ@?$AAA?$AAp?$AAp?$AAI?$AAD?$AA?$AA@| [ DATA ] ; `string'
	EXPORT	|??_C@_1O@JDLOHAN@?$AAD?$AAe?$AAl?$AAe?$AAt?$AAe?$AA?$AA@| [ DATA ] ; `string'
	EXPORT	|??_C@_1BC@GCKHIPE@?$AAN?$AAo?$AAR?$AAe?$AAm?$AAo?$AAv?$AAe?$AA?$AA@| [ DATA ] ; `string'
	EXPORT	|??_C@_1BI@JFAIJMHL@?$AAF?$AAo?$AAr?$AAc?$AAe?$AAR?$AAe?$AAm?$AAo?$AAv?$AAe?$AA?$AA@| [ DATA ] ; `string'
	EXPORT	|??_C@_17LLMMEOJD@?$AAV?$AAa?$AAl?$AA?$AA@| [ DATA ] ; `string'
	EXPORT	|??_C@_13OPKGLAFF@?$AAB?$AA?$AA@| [ DATA ] ; `string'
	EXPORT	|??_C@_13MKMNOPIJ@?$AAD?$AA?$AA@| [ DATA ] ; `string'
	EXPORT	|??_C@_13LHMFKAAD@?$AAM?$AA?$AA@| [ DATA ] ; `string'
	EXPORT	|??_C@_13HADIAKP@?$AAS?$AA?$AA@| [ DATA ] ; `string'
	EXPORT	|??_C@_1BI@OOKGCPFA@?$AAT?$AAh?$AAe?$AA?5?$AAC?$AAa?$AAp?$AAt?$AAi?$AAo?$AAn?$AA?$AA@| [ DATA ] ; `string'
	EXPORT	|??_C@_1BC@HGKHNDDC@?$AAT?$AAh?$AAe?$AA?5?$AAT?$AAe?$AAx?$AAt?$AA?$AA@| [ DATA ] ; `string'
	EXPORT	|??_C@_1BAK@CEDAMLPG@?$AAh?$AAt?$AAt?$AAp?$AA?3?$AA?1?$AA?1?$AAi?$AAl?$AAs?$AAk?$AAe?$AAn?$AA?4?$AAn?$AAe?$AAt?$AA?1?$AA?5?$AAh?$AAt?$AAt?$AAp?$AA?3?$AA?1?$AA?1?$AAi?$AAl?$AAs?$AAk?$AAe?$AAn@| [ DATA ] ; `string'
	EXPORT	|??_C@_0P@GHFPNOJB@bad?5allocation?$AA@| [ DATA ] ; `string'
	EXPORT	|?ObjectMain@CComObjectRootBase@ATL@@SAX_N@Z| ; ATL::CComObjectRootBase::ObjectMain
	EXPORT	|?GetObjectDescription@?$CComCoClass@VCMangoClass@@$1?CLSID_MangoClass@@3U_GUID@@B@ATL@@SAPB_WXZ| ; ATL::CComCoClass<CMangoClass,&CLSID_MangoClass>::GetObjectDescription
	EXPORT	|?CreateInstance@?$CComCreator2@V?$CComCreator@V?$CComObject@VCMangoClass@@@ATL@@@ATL@@V?$CComCreator@V?$CComAggObject@VCMangoClass@@@ATL@@@2@@ATL@@SAJPAXABU_GUID@@PAPAX@Z| ; ATL::CComCreator2<ATL::CComCreator<ATL::CComObject<CMangoClass> >,ATL::CComCreator<ATL::CComAggObject<CMangoClass> > >::CreateInstance
	EXPORT	|?CreateInstance@?$CComCreator@V?$CComObjectCached@VCComClassFactory@ATL@@@ATL@@@ATL@@SAJPAXABU_GUID@@PAPAX@Z| ; ATL::CComCreator<ATL::CComObjectCached<ATL::CComClassFactory> >::CreateInstance
	EXPORT	|?UpdateRegistry@CMangoClass@@SAJH@Z|	; CMangoClass::UpdateRegistry
	EXPORT	|_GUID_434b816a_3ada_4386_8421_33b0e669f3f1| [ DATA ]
	EXPORT	|?__objMap_CMangoClass@@3U_ATL_OBJMAP_ENTRY30@ATL@@A| [ DATA ] ; __objMap_CMangoClass
	EXPORT	|__pobjMap_CMangoClass| [ DATA ]
	EXPORT	|?s_pLog@CFixedStringMgr@ATL@@2PAVIFixedStringLog@2@A| [ DATA ] ; ATL::CFixedStringMgr::s_pLog
	EXPORT	|?c_bIsMFCDLLTraits@?$_MFCDLLTraitsCheck@DV?$StrTraitATL@DV?$ChTraitsOS@D@ATL@@@ATL@@@_CSTRING_IMPL_@ATL@@2_NB| [ DATA ] ; ATL::_CSTRING_IMPL_::_MFCDLLTraitsCheck<char,ATL::StrTraitATL<char,ATL::ChTraitsOS<char> > >::c_bIsMFCDLLTraits
	EXPORT	|?c_bIsMFCDLLTraits@?$_MFCDLLTraitsCheck@_WV?$StrTraitATL@_WV?$ChTraitsOS@_W@ATL@@@ATL@@@_CSTRING_IMPL_@ATL@@2_NB| [ DATA ] ; ATL::_CSTRING_IMPL_::_MFCDLLTraitsCheck<wchar_t,ATL::StrTraitATL<wchar_t,ATL::ChTraitsOS<wchar_t> > >::c_bIsMFCDLLTraits
	EXPORT	|?sText@@3PB_WB| [ DATA ]		; sText
	EXPORT	|?CSharpBase_Text@@3PB_WB| [ DATA ]	; CSharpBase_Text
	EXPORT	|?CSharpBase_Capt@@3PB_WB| [ DATA ]	; CSharpBase_Capt
	EXPORT	|?_AtlRegisterPerUser@ATL@@3_NA| [ DATA ] ; ATL::_AtlRegisterPerUser
	EXPORT	|?_pAtlModule@ATL@@3PAVCAtlModule@1@A| [ DATA ] ; ATL::_pAtlModule
	EXPORT	|?rgszNeverDelete@CRegParser@ATL@@1QBQB_WB| [ DATA ] ; ATL::CRegParser::rgszNeverDelete

  00000			 AREA	 |.bss|, NOINIT
|?s_pLog@CFixedStringMgr@ATL@@2PAVIFixedStringLog@2@A| % 0x4 ; ATL::CFixedStringMgr::s_pLog

  00000			 AREA	 |.bss|, NOINIT
|?_AtlRegisterPerUser@ATL@@3_NA| % 0x1			; ATL::_AtlRegisterPerUser

  00000			 AREA	 |.bss|, NOINIT
|?_pAtlModule@ATL@@3PAVCAtlModule@1@A| % 0x4		; ATL::_pAtlModule

  00000			 AREA	 |.rdata|, DATA, READONLY
|?rgszNeverDelete@CRegParser@ATL@@1QBQB_WB| DCD |??_C@_1M@EJNEECMJ@?$AAA?$AAp?$AAp?$AAI?$AAD?$AA?$AA@| ; ATL::CRegParser::rgszNeverDelete
	DCD	|??_C@_1M@KANJNLFF@?$AAC?$AAL?$AAS?$AAI?$AAD?$AA?$AA@|
	DCD	|??_C@_1CK@OEKPKBNA@?$AAC?$AAo?$AAm?$AAp?$AAo?$AAn?$AAe?$AAn?$AAt?$AA?5?$AAC?$AAa?$AAt?$AAe?$AAg?$AAo?$AAr?$AAi?$AAe?$AAs?$AA?$AA@|
	DCD	|??_C@_1BC@NKMMNMGL@?$AAF?$AAi?$AAl?$AAe?$AAT?$AAy?$AAp?$AAe?$AA?$AA@|
	DCD	|??_C@_1BE@EKPAFMCP@?$AAI?$AAn?$AAt?$AAe?$AAr?$AAf?$AAa?$AAc?$AAe?$AA?$AA@|
	DCD	|??_C@_1BC@MAICEHGI@?$AAH?$AAa?$AAr?$AAd?$AAw?$AAa?$AAr?$AAe?$AA?$AA@|
	DCD	|??_C@_19HLLLM@?$AAM?$AAi?$AAm?$AAe?$AA?$AA@|
	DCD	|??_C@_17OMAOINJK@?$AAS?$AAA?$AAM?$AA?$AA@|
	DCD	|??_C@_1BC@IBECJAAI@?$AAS?$AAE?$AAC?$AAU?$AAR?$AAI?$AAT?$AAY?$AA?$AA@|
	DCD	|??_C@_1O@GBFINDKL@?$AAS?$AAY?$AAS?$AAT?$AAE?$AAM?$AA?$AA@|
	DCD	|??_C@_1BC@EAHCMADO@?$AAS?$AAo?$AAf?$AAt?$AAw?$AAa?$AAr?$AAe?$AA?$AA@|
	DCD	|??_C@_1BA@JIHHIEDE@?$AAT?$AAy?$AAp?$AAe?$AAL?$AAi?$AAb?$AA?$AA@|

  00000			 AREA	 |.rdata|, DATA, READONLY
|??_C@_1BA@JIHHIEDE@?$AAT?$AAy?$AAp?$AAe?$AAL?$AAi?$AAb?$AA?$AA@| DCB "T", 0x0
	DCB	"y", 0x0, "p", 0x0, "e", 0x0, "L", 0x0, "i", 0x0, "b", 0x0
	DCB	0x0, 0x0				; `string'

  00000			 AREA	 |.rdata|, DATA, READONLY
|??_C@_1BC@EAHCMADO@?$AAS?$AAo?$AAf?$AAt?$AAw?$AAa?$AAr?$AAe?$AA?$AA@| DCB "S"
	DCB	0x0, "o", 0x0, "f", 0x0, "t", 0x0, "w", 0x0, "a", 0x0, "r"
	DCB	0x0, "e", 0x0, 0x0, 0x0			; `string'

  00000			 AREA	 |.rdata|, DATA, READONLY
|??_C@_1O@GBFINDKL@?$AAS?$AAY?$AAS?$AAT?$AAE?$AAM?$AA?$AA@| DCB "S", 0x0, "Y"
	DCB	0x0, "S", 0x0, "T", 0x0, "E", 0x0, "M", 0x0, 0x0, 0x0 ; `string'

  00000			 AREA	 |.rdata|, DATA, READONLY
|??_C@_1BC@IBECJAAI@?$AAS?$AAE?$AAC?$AAU?$AAR?$AAI?$AAT?$AAY?$AA?$AA@| DCB "S"
	DCB	0x0, "E", 0x0, "C", 0x0, "U", 0x0, "R", 0x0, "I", 0x0, "T"
	DCB	0x0, "Y", 0x0, 0x0, 0x0			; `string'

  00000			 AREA	 |.rdata|, DATA, READONLY
|??_C@_17OMAOINJK@?$AAS?$AAA?$AAM?$AA?$AA@| DCB "S", 0x0, "A", 0x0, "M", 0x0
	DCB	0x0, 0x0				; `string'

  00000			 AREA	 |.rdata|, DATA, READONLY
|??_C@_19HLLLM@?$AAM?$AAi?$AAm?$AAe?$AA?$AA@| DCB "M", 0x0, "i", 0x0, "m", 0x0
	DCB	"e", 0x0, 0x0, 0x0			; `string'

  00000			 AREA	 |.rdata|, DATA, READONLY
|??_C@_1BC@MAICEHGI@?$AAH?$AAa?$AAr?$AAd?$AAw?$AAa?$AAr?$AAe?$AA?$AA@| DCB "H"
	DCB	0x0, "a", 0x0, "r", 0x0, "d", 0x0, "w", 0x0, "a", 0x0, "r"
	DCB	0x0, "e", 0x0, 0x0, 0x0			; `string'

  00000			 AREA	 |.rdata|, DATA, READONLY
|??_C@_1BE@EKPAFMCP@?$AAI?$AAn?$AAt?$AAe?$AAr?$AAf?$AAa?$AAc?$AAe?$AA?$AA@| DCB "I"
	DCB	0x0, "n", 0x0, "t", 0x0, "e", 0x0, "r", 0x0, "f", 0x0, "a"
	DCB	0x0, "c", 0x0, "e", 0x0, 0x0, 0x0	; `string'

  00000			 AREA	 |.rdata|, DATA, READONLY
|??_C@_1BC@NKMMNMGL@?$AAF?$AAi?$AAl?$AAe?$AAT?$AAy?$AAp?$AAe?$AA?$AA@| DCB "F"
	DCB	0x0, "i", 0x0, "l", 0x0, "e", 0x0, "T", 0x0, "y", 0x0, "p"
	DCB	0x0, "e", 0x0, 0x0, 0x0			; `string'

  00000			 AREA	 |.rdata|, DATA, READONLY
|??_C@_1CK@OEKPKBNA@?$AAC?$AAo?$AAm?$AAp?$AAo?$AAn?$AAe?$AAn?$AAt?$AA?5?$AAC?$AAa?$AAt?$AAe?$AAg?$AAo?$AAr?$AAi?$AAe?$AAs?$AA?$AA@| DCB "C"
	DCB	0x0, "o", 0x0, "m", 0x0, "p", 0x0, "o", 0x0, "n", 0x0, "e"
	DCB	0x0, "n", 0x0, "t", 0x0, " ", 0x0, "C", 0x0, "a", 0x0, "t"
	DCB	0x0, "e", 0x0, "g", 0x0, "o", 0x0, "r", 0x0, "i", 0x0, "e"
	DCB	0x0, "s", 0x0, 0x0, 0x0			; `string'

  00000			 AREA	 |.rdata|, DATA, READONLY
|??_C@_1M@KANJNLFF@?$AAC?$AAL?$AAS?$AAI?$AAD?$AA?$AA@| DCB "C", 0x0, "L", 0x0
	DCB	"S", 0x0, "I", 0x0, "D", 0x0, 0x0, 0x0	; `string'

  00000			 AREA	 |.rdata|, DATA, READONLY
|??_C@_1M@EJNEECMJ@?$AAA?$AAp?$AAp?$AAI?$AAD?$AA?$AA@| DCB "A", 0x0, "p", 0x0
	DCB	"p", 0x0, "I", 0x0, "D", 0x0, 0x0, 0x0	; `string'

  00000			 AREA	 |.rdata|, DATA, READONLY
|??_C@_1O@JDLOHAN@?$AAD?$AAe?$AAl?$AAe?$AAt?$AAe?$AA?$AA@| DCB "D", 0x0, "e"
	DCB	0x0, "l", 0x0, "e", 0x0, "t", 0x0, "e", 0x0, 0x0, 0x0 ; `string'

  00000			 AREA	 |.rdata|, DATA, READONLY
|??_C@_1BC@GCKHIPE@?$AAN?$AAo?$AAR?$AAe?$AAm?$AAo?$AAv?$AAe?$AA?$AA@| DCB "N"
	DCB	0x0, "o", 0x0, "R", 0x0, "e", 0x0, "m", 0x0, "o", 0x0, "v"
	DCB	0x0, "e", 0x0, 0x0, 0x0			; `string'

  00000			 AREA	 |.rdata|, DATA, READONLY
|??_C@_1BI@JFAIJMHL@?$AAF?$AAo?$AAr?$AAc?$AAe?$AAR?$AAe?$AAm?$AAo?$AAv?$AAe?$AA?$AA@| DCB "F"
	DCB	0x0, "o", 0x0, "r", 0x0, "c", 0x0, "e", 0x0, "R", 0x0, "e"
	DCB	0x0, "m", 0x0, "o", 0x0, "v", 0x0, "e", 0x0, 0x0, 0x0 ; `string'

  00000			 AREA	 |.rdata|, DATA, READONLY
|??_C@_17LLMMEOJD@?$AAV?$AAa?$AAl?$AA?$AA@| DCB "V", 0x0, "a", 0x0, "l", 0x0
	DCB	0x0, 0x0				; `string'

  00000			 AREA	 |.rdata|, DATA, READONLY
|??_C@_13OPKGLAFF@?$AAB?$AA?$AA@| DCB "B", 0x0, 0x0, 0x0 ; `string'

  00000			 AREA	 |.rdata|, DATA, READONLY
|??_C@_13MKMNOPIJ@?$AAD?$AA?$AA@| DCB "D", 0x0, 0x0, 0x0 ; `string'

  00000			 AREA	 |.rdata|, DATA, READONLY
|??_C@_13LHMFKAAD@?$AAM?$AA?$AA@| DCB "M", 0x0, 0x0, 0x0 ; `string'

  00000			 AREA	 |.rdata|, DATA, READONLY
|szStringVal| DCD |??_C@_13HADIAKP@?$AAS?$AA?$AA@|
|multiszStringVal| DCD |??_C@_13LHMFKAAD@?$AAM?$AA?$AA@|
|szDwordVal| DCD |??_C@_13MKMNOPIJ@?$AAD?$AA?$AA@|
|szBinaryVal| DCD |??_C@_13OPKGLAFF@?$AAB?$AA?$AA@|
|szValToken| DCD |??_C@_17LLMMEOJD@?$AAV?$AAa?$AAl?$AA?$AA@|
|szForceRemove| DCD |??_C@_1BI@JFAIJMHL@?$AAF?$AAo?$AAr?$AAc?$AAe?$AAR?$AAe?$AAm?$AAo?$AAv?$AAe?$AA?$AA@|
|szNoRemove| DCD |??_C@_1BC@GCKHIPE@?$AAN?$AAo?$AAR?$AAe?$AAm?$AAo?$AAv?$AAe?$AA?$AA@|
|szDelete| DCD	|??_C@_1O@JDLOHAN@?$AAD?$AAe?$AAl?$AAe?$AAt?$AAe?$AA?$AA@|

  00000			 AREA	 |.rdata|, DATA, READONLY
|??_C@_13HADIAKP@?$AAS?$AA?$AA@| DCB "S", 0x0, 0x0, 0x0	; `string'

  00000			 AREA	 |.rdata|, DATA, READONLY
|??_C@_1BI@OOKGCPFA@?$AAT?$AAh?$AAe?$AA?5?$AAC?$AAa?$AAp?$AAt?$AAi?$AAo?$AAn?$AA?$AA@| DCB "T"
	DCB	0x0, "h", 0x0, "e", 0x0, " ", 0x0, "C", 0x0, "a", 0x0, "p"
	DCB	0x0, "t", 0x0, "i", 0x0, "o", 0x0, "n", 0x0, 0x0, 0x0 ; `string'

  00000			 AREA	 |.rdata|, DATA, READONLY
|??_C@_1BC@HGKHNDDC@?$AAT?$AAh?$AAe?$AA?5?$AAT?$AAe?$AAx?$AAt?$AA?$AA@| DCB "T"
	DCB	0x0, "h", 0x0, "e", 0x0, " ", 0x0, "T", 0x0, "e", 0x0, "x"
	DCB	0x0, "t", 0x0, 0x0, 0x0			; `string'

  00000			 AREA	 |.rdata|, DATA, READONLY
|??_C@_1BAK@CEDAMLPG@?$AAh?$AAt?$AAt?$AAp?$AA?3?$AA?1?$AA?1?$AAi?$AAl?$AAs?$AAk?$AAe?$AAn?$AA?4?$AAn?$AAe?$AAt?$AA?1?$AA?5?$AAh?$AAt?$AAt?$AAp?$AA?3?$AA?1?$AA?1?$AAi?$AAl?$AAs?$AAk?$AAe?$AAn@| DCB "h"
	DCB	0x0, "t", 0x0, "t", 0x0, "p", 0x0, ":", 0x0, "/", 0x0, "/"
	DCB	0x0, "i", 0x0, "l", 0x0, "s", 0x0, "k", 0x0, "e", 0x0, "n"
	DCB	0x0, ".", 0x0, "n", 0x0, "e", 0x0, "t", 0x0, "/", 0x0, " "
	DCB	0x0, "h", 0x0, "t", 0x0, "t", 0x0, "p", 0x0, ":", 0x0, "/"
	DCB	0x0, "/", 0x0, "i", 0x0, "l", 0x0, "s", 0x0, "k", 0x0, "e"
	DCB	0x0, "n", 0x0, ".", 0x0, "n", 0x0, "e", 0x0, "t", 0x0, "/"
	DCB	0x0, " ", 0x0, "h", 0x0, "t", 0x0, "t", 0x0, "p", 0x0, ":"
	DCB	0x0, "/", 0x0, "/", 0x0, "i", 0x0, "l", 0x0, "s", 0x0, "k"
	DCB	0x0, "e", 0x0, "n", 0x0, ".", 0x0, "n", 0x0, "e", 0x0, "t"
	DCB	0x0, "/", 0x0, " ", 0x0, "h", 0x0, "t", 0x0, "t", 0x0, "p"
	DCB	0x0, ":", 0x0, "/", 0x0, "/", 0x0, "i", 0x0, "l", 0x0, "s"
	DCB	0x0, "k", 0x0, "e", 0x0, "n", 0x0, ".", 0x0, "n", 0x0, "e"
	DCB	0x0, "t", 0x0, "/", 0x0, 0xa, 0x0, "h", 0x0, "t", 0x0, "t"
	DCB	0x0, "p", 0x0, ":", 0x0, "/", 0x0, "/", 0x0, "i", 0x0, "l"
	DCB	0x0, "s", 0x0, "k", 0x0, "e", 0x0, "n", 0x0, ".", 0x0, "n"
	DCB	0x0, "e", 0x0, "t", 0x0, "/", 0x0, " ", 0x0, "h", 0x0, "t"
	DCB	0x0, "t", 0x0, "p", 0x0, ":", 0x0, "/", 0x0, "/", 0x0, "i"
	DCB	0x0, "l", 0x0, "s", 0x0, "k", 0x0, "e", 0x0, "n", 0x0, "."
	DCB	0x0, "n", 0x0, "e", 0x0, "t", 0x0, "/", 0x0, 0xa, 0x0, "h"
	DCB	0x0, "t", 0x0, "t", 0x0, "p", 0x0, ":", 0x0, "/", 0x0, "/"
	DCB	0x0, "i", 0x0, "l", 0x0, "s", 0x0, "k", 0x0, "e", 0x0, "n"
	DCB	0x0, ".", 0x0, "n", 0x0, "e", 0x0, "t", 0x0, "/", 0x0, 0x0
	DCB	0x0					; `string'

  00000			 AREA	 |.rdata|, DATA, READONLY
|?c_bIsMFCDLLTraits@?$_MFCDLLTraitsCheck@_WV?$StrTraitATL@_WV?$ChTraitsOS@_W@ATL@@@ATL@@@_CSTRING_IMPL_@ATL@@2_NB| DCB 0x0 ; ATL::_CSTRING_IMPL_::_MFCDLLTraitsCheck<wchar_t,ATL::StrTraitATL<wchar_t,ATL::ChTraitsOS<wchar_t> > >::c_bIsMFCDLLTraits

  00000			 AREA	 |.rdata|, DATA, READONLY
|?c_bIsMFCDLLTraits@?$_MFCDLLTraitsCheck@DV?$StrTraitATL@DV?$ChTraitsOS@D@ATL@@@ATL@@@_CSTRING_IMPL_@ATL@@2_NB| DCB 0x0 ; ATL::_CSTRING_IMPL_::_MFCDLLTraitsCheck<char,ATL::StrTraitATL<char,ATL::ChTraitsOS<char> > >::c_bIsMFCDLLTraits

  00000			 AREA	 |.data|, DATA
|_bad_alloc_Message| DCD |??_C@_0P@GHFPNOJB@bad?5allocation?$AA@|
|?sText@@3PB_WB| DCD |??_C@_1BAK@CEDAMLPG@?$AAh?$AAt?$AAt?$AAp?$AA?3?$AA?1?$AA?1?$AAi?$AAl?$AAs?$AAk?$AAe?$AAn?$AA?4?$AAn?$AAe?$AAt?$AA?1?$AA?5?$AAh?$AAt?$AAt?$AAp?$AA?3?$AA?1?$AA?1?$AAi?$AAl?$AAs?$AAk?$AAe?$AAn@| ; sText
|?CSharpBase_Text@@3PB_WB| DCD |??_C@_1BC@HGKHNDDC@?$AAT?$AAh?$AAe?$AA?5?$AAT?$AAe?$AAx?$AAt?$AA?$AA@| ; CSharpBase_Text
|?CSharpBase_Capt@@3PB_WB| DCD |??_C@_1BI@OOKGCPFA@?$AAT?$AAh?$AAe?$AA?5?$AAC?$AAa?$AAp?$AAt?$AAi?$AAo?$AAn?$AA?$AA@| ; CSharpBase_Capt

  00000			 AREA	 |.rdata|, DATA, READONLY
|??_C@_0P@GHFPNOJB@bad?5allocation?$AA@| DCB "bad allocation", 0x0 ; `string'

  00000			 AREA	 |ATL$__m|, DATA, READONLY
|__pobjMap_CMangoClass| DCD |?__objMap_CMangoClass@@3U_ATL_OBJMAP_ENTRY30@ATL@@A|

  00000			 AREA	 |.data|, DATA
|?__objMap_CMangoClass@@3U_ATL_OBJMAP_ENTRY30@ATL@@A| DCD |_GUID_434b816a_3ada_4386_8421_33b0e669f3f1| ; __objMap_CMangoClass
	DCD	|?UpdateRegistry@CMangoClass@@SAJH@Z|
	DCD	|?CreateInstance@?$CComCreator@V?$CComObjectCached@VCComClassFactory@ATL@@@ATL@@@ATL@@SAJPAXABU_GUID@@PAPAX@Z|
	DCD	|?CreateInstance@?$CComCreator2@V?$CComCreator@V?$CComObject@VCMangoClass@@@ATL@@@ATL@@V?$CComCreator@V?$CComAggObject@VCMangoClass@@@ATL@@@2@@ATL@@SAJPAXABU_GUID@@PAPAX@Z|
	DCD	0x0
	DCD	0x0
	DCD	|?GetObjectDescription@?$CComCoClass@VCMangoClass@@$1?CLSID_MangoClass@@3U_GUID@@B@ATL@@SAPB_WXZ|
	DCD	|?ObjectMain@CComObjectRootBase@ATL@@SAX_N@Z|

  00000			 AREA	 |.rdata|, DATA, READONLY
|_GUID_434b816a_3ada_4386_8421_33b0e669f3f1| DCD 0x434b816a
	DCW	0x3ada
	DCW	0x4386
	DCB	0x84
	DCB	0x21
	DCB	0x33
	DCB	0xb0
	DCB	0xe6
	DCB	0x69
	DCB	0xf3
	DCB	0xf1
	EXPORT	|?FinalConstruct@CMangoClass@@QAAJXZ|	; CMangoClass::FinalConstruct
; File c:\users\steven\desktop\csharp - dllimport\csharp - dllimport\vs2008\dllimportmango\mangoclass.h

  00000			 AREA	 |.pdata|, PDATA
|$T77620| DCD	|$LN5@FinalConst|
	DCD	0x40000200
; Function compile flags: /Ogspy

  00000			 AREA	 |.text|, CODE, ARM

  00000		 |?FinalConstruct@CMangoClass@@QAAJXZ| PROC ; CMangoClass::FinalConstruct
; Line 232
  00000		 |$LN5@FinalConst|
  00000		 |$M77617|
; Line 233
  00000	e3a00000	 mov         r0, #0
; Line 234
  00004	e1a0f00e	 mov         pc, lr
  00008		 |$M77618|

			 ENDP  ; |?FinalConstruct@CMangoClass@@QAAJXZ|, CMangoClass::FinalConstruct

	EXPORT	|LockResource|
; File c:\program files (x86)\windows mobile 6 sdk\pocketpc\include\armv4i\kfuncs.h

  00000			 AREA	 |.pdata|, PDATA
|$T77630| DCD	|$LN5@LockResour|
	DCD	0x40000100
; Function compile flags: /Ogspy

  00000			 AREA	 |.text|, CODE, ARM

  00000		 |LockResource| PROC
; Line 487
  00000		 |$LN5@LockResour|
  00000		 |$M77627|
; Line 489
  00000	e1a0f00e	 mov         pc, lr
  00004		 |$M77628|

			 ENDP  ; |LockResource|

	EXPORT	|wmemcpy_s|
	IMPORT	|memcpy_s|
; File c:\program files (x86)\microsoft visual studio 9.0\vc\ce\include\altcecrt.h

  00000			 AREA	 |.pdata|, PDATA
|$T77643| DCD	|$LN5@wmemcpy_s|
	DCD	0x40000300
; Function compile flags: /Ogspy

  00000			 AREA	 |.text|, CODE, ARM

  00000		 |wmemcpy_s| PROC
; Line 390
  00000		 |$LN5@wmemcpy_s|
  00000		 |$M77640|
; Line 391
  00000	e1a03083	 mov         r3, r3, lsl #1
  00004	e1a01081	 mov         r1, r1, lsl #1
  00008	ea000000	 b           memcpy_s
  0000c		 |$M77641|

			 ENDP  ; |wmemcpy_s|

	EXPORT	|??$AtlMultiply@I@ATL@@YAJPAIII@Z|	; ATL::AtlMultiply<unsigned int>
; File c:\program files (x86)\microsoft visual studio 9.0\vc\ce\atlmfc\include\atlalloc.h

  00000			 AREA	 |.pdata|, PDATA
|$T77658| DCD	|$LN7@AtlMultipl|
	DCD	0x40000e01
; Function compile flags: /Ogspy

  00000			 AREA	 |.text|, CODE, ARM

  00000		 |??$AtlMultiply@I@ATL@@YAJPAIII@Z| PROC ; ATL::AtlMultiply<unsigned int>
; Line 137
  00000		 |$LN7@AtlMultipl|
  00000	e24dd008	 sub         sp, sp, #8
  00004		 |$M77655|
; Line 138
  00004	e0832291	 umull       r2, r3, r1, r2
; Line 139
  00008	e3530000	 cmp         r3, #0
  0000c	e58d3004	 str         r3, [sp, #4]
  00010	1a000004	 bne         |$LN4@AtlMultipl|
  00014	e3720001	 cmn         r2, #1
; Line 143
  00018	95802000	 strls       r2, [r0]
; Line 144
  0001c	93a00000	 movls       r0, #0
; Line 145
  00020	928dd008	 addls       sp, sp, #8
  00024	91a0f00e	 movls       pc, lr
  00028		 |$LN4@AtlMultipl|
; Line 141
  00028	e59f0004	 ldr         r0, [pc, #4]	; -2147024809 (0x80070057)
; Line 145
  0002c	e28dd008	 add         sp, sp, #8
  00030	e1a0f00e	 mov         pc, lr
  00034		 |$LN8@AtlMultipl|
  00034		 |$LN9@AtlMultipl|
  00034	80070057	 DCD         0x80070057
  00038		 |$M77656|

			 ENDP  ; |??$AtlMultiply@I@ATL@@YAJPAIII@Z|, ATL::AtlMultiply<unsigned int>

	EXPORT	|??$AtlMultiply@K@ATL@@YAJPAKKK@Z|	; ATL::AtlMultiply<unsigned long>

  00000			 AREA	 |.pdata|, PDATA
|$T77675| DCD	|$LN7@AtlMultipl@2|
	DCD	0x40000e01
; Function compile flags: /Ogspy

  00000			 AREA	 |.text|, CODE, ARM

  00000		 |??$AtlMultiply@K@ATL@@YAJPAKKK@Z| PROC ; ATL::AtlMultiply<unsigned long>
; Line 161
  00000		 |$LN7@AtlMultipl@2|
  00000	e24dd008	 sub         sp, sp, #8
  00004		 |$M77672|
; Line 162
  00004	e0832291	 umull       r2, r3, r1, r2
; Line 163
  00008	e3530000	 cmp         r3, #0
  0000c	e58d3004	 str         r3, [sp, #4]
  00010	1a000004	 bne         |$LN4@AtlMultipl@2|
  00014	e3720001	 cmn         r2, #1
; Line 167
  00018	95802000	 strls       r2, [r0]
; Line 168
  0001c	93a00000	 movls       r0, #0
; Line 169
  00020	928dd008	 addls       sp, sp, #8
  00024	91a0f00e	 movls       pc, lr
  00028		 |$LN4@AtlMultipl@2|
; Line 165
  00028	e59f0004	 ldr         r0, [pc, #4]	; -2147024809 (0x80070057)
; Line 169
  0002c	e28dd008	 add         sp, sp, #8
  00030	e1a0f00e	 mov         pc, lr
  00034		 |$LN8@AtlMultipl@2|
  00034		 |$LN9@AtlMultipl@2|
  00034	80070057	 DCD         0x80070057
  00038		 |$M77673|

			 ENDP  ; |??$AtlMultiply@K@ATL@@YAJPAKKK@Z|, ATL::AtlMultiply<unsigned long>

	EXPORT	|?AtlCoTaskMemCAlloc@ATL@@YAPAXKK@Z|	; ATL::AtlCoTaskMemCAlloc
	IMPORT	|CoTaskMemAlloc|

  00000			 AREA	 |.pdata|, PDATA
|$T77699| DCD	|$LN11@AtlCoTaskM|
	DCD	0x40000c01
; Function compile flags: /Ogspy

  00000			 AREA	 |.text|, CODE, ARM

  00000		 |?AtlCoTaskMemCAlloc@ATL@@YAPAXKK@Z| PROC ; ATL::AtlCoTaskMemCAlloc
; Line 196
  00000		 |$LN11@AtlCoTaskM|
  00000	e52de004	 str         lr, [sp, #-4]!
  00004		 |$M77696|
; Line 199
  00004	e0832190	 umull       r2, r3, r0, r1
  00008	e3530000	 cmp         r3, #0
  0000c	8a000005	 bhi         |$LN7@AtlCoTaskM|
  00010	3a000001	 bcc         |$LN8@AtlCoTaskM|
  00014	e3720001	 cmn         r2, #1
  00018	8a000002	 bhi         |$LN7@AtlCoTaskM|
  0001c		 |$LN8@AtlCoTaskM|
; Line 203
  0001c	e1a00002	 mov         r0, r2
  00020	e49de004	 ldr         lr, [sp], #4
  00024	ea000000	 b           CoTaskMemAlloc
  00028		 |$LN7@AtlCoTaskM|
; Line 201
  00028	e3a00000	 mov         r0, #0
; Line 204
  0002c	e49df004	 ldr         pc, [sp], #4
  00030		 |$M77697|

			 ENDP  ; |?AtlCoTaskMemCAlloc@ATL@@YAPAXKK@Z|, ATL::AtlCoTaskMemCAlloc

	EXPORT	|?AtlCoTaskMemRecalloc@ATL@@YAPAXPAXKK@Z| ; ATL::AtlCoTaskMemRecalloc
	IMPORT	|CoTaskMemRealloc|

  00000			 AREA	 |.pdata|, PDATA
|$T77722| DCD	|$LN11@AtlCoTaskM@2|
	DCD	0x40000c01
; Function compile flags: /Ogspy

  00000			 AREA	 |.text|, CODE, ARM

  00000		 |?AtlCoTaskMemRecalloc@ATL@@YAPAXPAXKK@Z| PROC ; ATL::AtlCoTaskMemRecalloc
; Line 207
  00000		 |$LN11@AtlCoTaskM@2|
  00000	e52de004	 str         lr, [sp, #-4]!
  00004		 |$M77719|
; Line 210
  00004	e0832291	 umull       r2, r3, r1, r2
  00008	e3530000	 cmp         r3, #0
  0000c	8a000005	 bhi         |$LN7@AtlCoTaskM@2|
  00010	3a000001	 bcc         |$LN8@AtlCoTaskM@2|
  00014	e3720001	 cmn         r2, #1
  00018	8a000002	 bhi         |$LN7@AtlCoTaskM@2|
  0001c		 |$LN8@AtlCoTaskM@2|
; Line 214
  0001c	e1a01002	 mov         r1, r2
  00020	e49de004	 ldr         lr, [sp], #4
  00024	ea000000	 b           CoTaskMemRealloc
  00028		 |$LN7@AtlCoTaskM@2|
; Line 212
  00028	e3a00000	 mov         r0, #0
; Line 215
  0002c	e49df004	 ldr         pc, [sp], #4
  00030		 |$M77720|

			 ENDP  ; |?AtlCoTaskMemRecalloc@ATL@@YAPAXPAXKK@Z|, ATL::AtlCoTaskMemRecalloc

	EXPORT	|?Allocate@CCRTAllocator@ATL@@SAPAXI@Z|	; ATL::CCRTAllocator::Allocate
	IMPORT	|malloc|

  00000			 AREA	 |.pdata|, PDATA
|$T77732| DCD	|$LN5@Allocate|
	DCD	0x40000100
; Function compile flags: /Ogspy

  00000			 AREA	 |.text|, CODE, ARM

  00000		 |?Allocate@CCRTAllocator@ATL@@SAPAXI@Z| PROC ; ATL::CCRTAllocator::Allocate
; Line 242
  00000		 |$LN5@Allocate|
  00000		 |$M77729|
; Line 243
  00000	ea000000	 b           malloc
  00004		 |$M77730|

			 ENDP  ; |?Allocate@CCRTAllocator@ATL@@SAPAXI@Z|, ATL::CCRTAllocator::Allocate

	EXPORT	|?Free@CCRTAllocator@ATL@@SAXPAX@Z|	; ATL::CCRTAllocator::Free
	IMPORT	|free|

  00000			 AREA	 |.pdata|, PDATA
|$T77740| DCD	|$LN5@Free|
	DCD	0x40000100
; Function compile flags: /Ogspy

  00000			 AREA	 |.text|, CODE, ARM

  00000		 |?Free@CCRTAllocator@ATL@@SAXPAX@Z| PROC ; ATL::CCRTAllocator::Free
; Line 247
  00000		 |$LN5@Free|
  00000		 |$M77737|
; Line 248
  00000	ea000000	 b           free
  00004		 |$M77738|

			 ENDP  ; |?Free@CCRTAllocator@ATL@@SAXPAX@Z|, ATL::CCRTAllocator::Free

	EXPORT	|?lstrlenW@ATL@@YAIPB_W@Z|		; ATL::lstrlenW
	IMPORT	|wcslen|
; File c:\program files (x86)\microsoft visual studio 9.0\vc\ce\atlmfc\include\atlosapice.h

  00000			 AREA	 |.pdata|, PDATA
|$T77753| DCD	|$LN7@lstrlenW|
	DCD	0x40000601
; Function compile flags: /Ogspy

  00000			 AREA	 |.text|, CODE, ARM

  00000		 |?lstrlenW@ATL@@YAIPB_W@Z| PROC	; ATL::lstrlenW
; Line 867
  00000		 |$LN7@lstrlenW|
  00000	e52de004	 str         lr, [sp, #-4]!
  00004		 |$M77750|
  00004	e3500000	 cmp         r0, #0
; Line 868
  00008	149de004	 ldrne       lr, [sp], #4
  0000c	1a000000	 bne         wcslen
  00010	e3a00000	 mov         r0, #0
; Line 869
  00014	e49df004	 ldr         pc, [sp], #4
  00018		 |$M77751|

			 ENDP  ; |?lstrlenW@ATL@@YAIPB_W@Z|, ATL::lstrlenW

	EXPORT	|?wvsprintfW@ATL@@YAHPA_WPB_WPAD@Z|	; ATL::wvsprintfW
	IMPORT	|_vsnwprintf|

  00000			 AREA	 |.pdata|, PDATA
|$T77766| DCD	|$LN6@wvsprintfW|
	DCD	0x40000c01
; Function compile flags: /Ogspy

  00000			 AREA	 |.text|, CODE, ARM

  00000		 |?wvsprintfW@ATL@@YAHPA_WPB_WPAD@Z| PROC ; ATL::wvsprintfW
; Line 902
  00000		 |$LN6@wvsprintfW|
  00000	e92d4010	 stmdb       sp!, {r4, lr}
  00004		 |$M77763|
  00004	e1a03002	 mov         r3, r2
  00008	e1a02001	 mov         r2, r1
  0000c	e1a04000	 mov         r4, r0
; Line 906
  00010	e3a01b01	 mov         r1, #1, 22
  00014	eb000000	 bl          _vsnwprintf
  00018	e3500000	 cmp         r0, #0
; Line 915
  0001c	e2843b02	 add         r3, r4, #2, 22	; 2048 (0x800)
  00020	e3a02000	 mov         r2, #0
  00024	43a00b01	 movmi       r0, #1, 22
  00028	e1c320b0	 strh        r2, [r3]
; Line 917
  0002c	e8bd8010	 ldmia       sp!, {r4, pc}
  00030		 |$M77764|

			 ENDP  ; |?wvsprintfW@ATL@@YAHPA_WPB_WPAD@Z|, ATL::wvsprintfW

	EXPORT	|?_AtlGetConversionACP@ATL@@YAIXZ|	; ATL::_AtlGetConversionACP
; File c:\program files (x86)\microsoft visual studio 9.0\vc\ce\atlmfc\include\atlconv.h

  00000			 AREA	 |.pdata|, PDATA
|$T77775| DCD	|$LN5@AtlGetConv|
	DCD	0x40000200
; Function compile flags: /Ogspy

  00000			 AREA	 |.text|, CODE, ARM

  00000		 |?_AtlGetConversionACP@ATL@@YAIXZ| PROC ; ATL::_AtlGetConversionACP
; Line 109
  00000		 |$LN5@AtlGetConv|
  00000		 |$M77772|
; Line 111
  00000	e3a00000	 mov         r0, #0
; Line 115
  00004	e1a0f00e	 mov         pc, lr
  00008		 |$M77773|

			 ENDP  ; |?_AtlGetConversionACP@ATL@@YAIXZ|, ATL::_AtlGetConversionACP

	EXPORT	|?ocslen@@YAHPB_W@Z|			; ocslen
; File c:\program files (x86)\microsoft visual studio 9.0\vc\ce\atlmfc\include\atlosapice.h

  00000			 AREA	 |.pdata|, PDATA
|$T77792| DCD	|$LN9@ocslen|
	DCD	0x40000601
; Function compile flags: /Ogspy

  00000			 AREA	 |.text|, CODE, ARM

  00000		 |?ocslen@@YAHPB_W@Z| PROC		; ocslen
; File c:\program files (x86)\microsoft visual studio 9.0\vc\ce\atlmfc\include\atlconv.h
; Line 695
  00000		 |$LN9@ocslen|
  00000	e52de004	 str         lr, [sp, #-4]!
  00004		 |$M77789|
  00004	e3500000	 cmp         r0, #0
  00008	149de004	 ldrne       lr, [sp], #4
  0000c	1a000000	 bne         wcslen
  00010	e3a00000	 mov         r0, #0
  00014	e49df004	 ldr         pc, [sp], #4
  00018		 |$M77790|

			 ENDP  ; |?ocslen@@YAHPB_W@Z|, ocslen

	EXPORT	|?ocscpy_s@@YA_NPA_WIPB_W@Z|		; ocscpy_s
; File c:\program files (x86)\microsoft visual studio 9.0\vc\ce\atlmfc\include\atlosapice.h

  00000			 AREA	 |.pdata|, PDATA
|$T77820| DCD	|$LN13@ocscpy_s|
	DCD	0x40001501
; Function compile flags: /Ogspy

  00000			 AREA	 |.text|, CODE, ARM

  00000		 |?ocscpy_s@@YA_NPA_WIPB_W@Z| PROC	; ocscpy_s
; File c:\program files (x86)\microsoft visual studio 9.0\vc\ce\atlmfc\include\atlconv.h
; Line 698
  00000		 |$LN13@ocscpy_s|
  00000	e92d4070	 stmdb       sp!, {r4 - r6, lr}
  00004		 |$M77817|
  00004	e1b04002	 movs        r4, r2
  00008	e1a05001	 mov         r5, r1
  0000c	e1a06000	 mov         r6, r0
  00010	0a000002	 beq         |$LN9@ocscpy_s|
  00014	e1a00004	 mov         r0, r4
  00018	eb000000	 bl          wcslen
  0001c	ea000000	 b           |$LN10@ocscpy_s|
  00020		 |$LN9@ocscpy_s|
  00020	e3a00000	 mov         r0, #0
  00024		 |$LN10@ocscpy_s|
  00024	e2803001	 add         r3, r0, #1
  00028	e1a03083	 mov         r3, r3, lsl #1
  0002c	e1a02004	 mov         r2, r4
  00030	e1a01085	 mov         r1, r5, lsl #1
  00034	e1a00006	 mov         r0, r6
  00038	eb000000	 bl          memcpy_s
  0003c	e3500000	 cmp         r0, #0
  00040	03a03001	 moveq       r3, #1
  00044	020300ff	 andeq       r0, r3, #0xFF
  00048	13a03000	 movne       r3, #0
  0004c	120300ff	 andne       r0, r3, #0xFF
  00050	e8bd8070	 ldmia       sp!, {r4 - r6, pc}
  00054		 |$M77818|

			 ENDP  ; |?ocscpy_s@@YA_NPA_WIPB_W@Z|, ocscpy_s

	EXPORT	|?OLE2CT_EX@@YAPB_WPB_WI@Z|		; OLE2CT_EX

  00000			 AREA	 |.pdata|, PDATA
|$T77830| DCD	|$LN5@OLE2CT_EX|
	DCD	0x40000100
; Function compile flags: /Ogspy

  00000			 AREA	 |.text|, CODE, ARM

  00000		 |?OLE2CT_EX@@YAPB_WPB_WI@Z| PROC	; OLE2CT_EX
; Line 724
  00000		 |$LN5@OLE2CT_EX|
  00000		 |$M77827|
  00000	e1a0f00e	 mov         pc, lr
  00004		 |$M77828|

			 ENDP  ; |?OLE2CT_EX@@YAPB_WPB_WI@Z|, OLE2CT_EX

	EXPORT	|?T2OLE_EX@@YAPA_WPA_WI@Z|		; T2OLE_EX

  00000			 AREA	 |.pdata|, PDATA
|$T77840| DCD	|$LN5@T2OLE_EX|
	DCD	0x40000100
; Function compile flags: /Ogspy

  00000			 AREA	 |.text|, CODE, ARM

  00000		 |?T2OLE_EX@@YAPA_WPA_WI@Z| PROC	; T2OLE_EX
; Line 726
  00000		 |$LN5@T2OLE_EX|
  00000		 |$M77837|
  00000	e1a0f00e	 mov         pc, lr
  00004		 |$M77838|

			 ENDP  ; |?T2OLE_EX@@YAPA_WPA_WI@Z|, T2OLE_EX

	EXPORT	|?OLE2T@@YAPA_WPA_W@Z|			; OLE2T

  00000			 AREA	 |.pdata|, PDATA
|$T77850| DCD	|$LN5@OLE2T|
	DCD	0x40000100
; Function compile flags: /Ogspy

  00000			 AREA	 |.text|, CODE, ARM

  00000		 |?OLE2T@@YAPA_WPA_W@Z| PROC		; OLE2T
; Line 736
  00000		 |$LN5@OLE2T|
  00000		 |$M77847|
  00000	e1a0f00e	 mov         pc, lr
  00004		 |$M77848|

			 ENDP  ; |?OLE2T@@YAPA_WPA_W@Z|, OLE2T

	EXPORT	|__$ArrayPad$| [ DATA ]
	EXPORT	|?GetFormattedLength@?$ChTraitsOS@_W@ATL@@SAHPB_WPAD@Z| ; ATL::ChTraitsOS<wchar_t>::GetFormattedLength
	IMPORT	|__GSHandlerCheck|
	IMPORT	|__security_cookie|
	IMPORT	|__security_check_cookie|
; File c:\program files (x86)\microsoft visual studio 9.0\vc\ce\atlmfc\include\atlosapice.h

  00000			 AREA	 |.pdata|, PDATA
|$T77877| DCD	|$LN8@GetFormatt|
	DCD	0xc0001603

  00000			 AREA	 |.xdata|, DATA
|$T77873| DCD	0xfffffff4
; Function compile flags: /Ogspy

  00000			 AREA	 |.text|, CODE, ARM

  00000	00000000	 DCD         |__GSHandlerCheck|
  00004	00000000	 DCD         |$T77873|

  00008		 |?GetFormattedLength@?$ChTraitsOS@_W@ATL@@SAHPB_WPAD@Z| PROC ; ATL::ChTraitsOS<wchar_t>::GetFormattedLength
; File c:\program files (x86)\microsoft visual studio 9.0\vc\ce\atlmfc\include\atlstr.h
; Line 913
  00008		 |$LN8@GetFormatt|
  00008	e92d4010	 stmdb       sp!, {r4, lr}
  0000c	e59fc048	 ldr         r12, [pc, #0x48]
  00010	e08dd00c	 add         sp, sp, r12
  00014		 |$M77874|
  00014	e59f303c	 ldr         r3, [pc, #0x3C]
  00018	e5933000	 ldr         r3, [r3]
  0001c	e58d3808	 str         r3, [sp, #0x808]
  00020	e1a02000	 mov         r2, r0
  00024	e1a03001	 mov         r3, r1
; Line 931
  00028	e3a01b01	 mov         r1, #1, 22
  0002c	e28d0000	 add         r0, sp, #0
  00030	eb000000	 bl          _vsnwprintf
  00034	e1b04000	 movs        r4, r0
  00038	43a04b01	 movmi       r4, #1, 22
; Line 937
  0003c	e59d0808	 ldr         r0, [sp, #0x808]
  00040	eb000000	 bl          __security_check_cookie
; Line 938
  00044	e1a00004	 mov         r0, r4
  00048	e3a0cb02	 mov         r12, #2, 22
  0004c	e38cc00c	 orr         r12, r12, #0xC
  00050	e08dd00c	 add         sp, sp, r12
  00054	e8bd8010	 ldmia       sp!, {r4, pc}
  00058		 |$LN9@GetFormatt|
  00058		 |$LN10@GetFormatt|
  00058	00000000	 DCD         |__security_cookie|
  0005c		 |$LN11@GetFormatt|
  0005c	fffff7f4	 DCD         0xfffff7f4
  00060		 |$M77875|

			 ENDP  ; |?GetFormattedLength@?$ChTraitsOS@_W@ATL@@SAHPB_WPAD@Z|, ATL::ChTraitsOS<wchar_t>::GetFormattedLength

	EXPORT	|?GetBaseTypeLength@?$ChTraitsOS@_W@ATL@@SAHPB_W@Z| ; ATL::ChTraitsOS<wchar_t>::GetBaseTypeLength
; File c:\program files (x86)\microsoft visual studio 9.0\vc\ce\atlmfc\include\atlosapice.h

  00000			 AREA	 |.pdata|, PDATA
|$T77898| DCD	|$LN9@GetBaseTyp|
	DCD	0x40000601
; Function compile flags: /Ogspy

  00000			 AREA	 |.text|, CODE, ARM

  00000		 |?GetBaseTypeLength@?$ChTraitsOS@_W@ATL@@SAHPB_W@Z| PROC ; ATL::ChTraitsOS<wchar_t>::GetBaseTypeLength
; File c:\program files (x86)\microsoft visual studio 9.0\vc\ce\atlmfc\include\atlstr.h
; Line 999
  00000		 |$LN9@GetBaseTyp|
  00000	e52de004	 str         lr, [sp, #-4]!
  00004		 |$M77895|
  00004	e3500000	 cmp         r0, #0
; Line 1001
  00008	149de004	 ldrne       lr, [sp], #4
  0000c	1a000000	 bne         wcslen
  00010	e3a00000	 mov         r0, #0
; Line 1002
  00014	e49df004	 ldr         pc, [sp], #4
  00018		 |$M77896|

			 ENDP  ; |?GetBaseTypeLength@?$ChTraitsOS@_W@ATL@@SAHPB_W@Z|, ATL::ChTraitsOS<wchar_t>::GetBaseTypeLength

	EXPORT	|?GetBaseTypeLength@?$ChTraitsOS@_W@ATL@@SAHPB_WH@Z| ; ATL::ChTraitsOS<wchar_t>::GetBaseTypeLength

  00000			 AREA	 |.pdata|, PDATA
|$T77908| DCD	|$LN5@GetBaseTyp@2|
	DCD	0x40000200
; Function compile flags: /Ogspy

  00000			 AREA	 |.text|, CODE, ARM

  00000		 |?GetBaseTypeLength@?$ChTraitsOS@_W@ATL@@SAHPB_WH@Z| PROC ; ATL::ChTraitsOS<wchar_t>::GetBaseTypeLength
; Line 1005
  00000		 |$LN5@GetBaseTyp@2|
  00000		 |$M77905|
; Line 1009
  00000	e1a00001	 mov         r0, r1
  00004	e1a0f00e	 mov         pc, lr
  00008		 |$M77906|

			 ENDP  ; |?GetBaseTypeLength@?$ChTraitsOS@_W@ATL@@SAHPB_WH@Z|, ATL::ChTraitsOS<wchar_t>::GetBaseTypeLength

	EXPORT	|?_AtlRaiseException@ATL@@YAXKK@Z|	; ATL::_AtlRaiseException
	IMPORT	|RaiseException|
; File c:\program files (x86)\microsoft visual studio 9.0\vc\ce\atlmfc\include\atlexcept.h

  00000			 AREA	 |.pdata|, PDATA
|$T77917| DCD	|$LN5@AtlRaiseEx|
	DCD	0x40000300
; Function compile flags: /Ogspy

  00000			 AREA	 |.text|, CODE, ARM

  00000		 |?_AtlRaiseException@ATL@@YAXKK@Z| PROC ; ATL::_AtlRaiseException
; Line 28
  00000		 |$LN5@AtlRaiseEx|
  00000		 |$M77914|
; Line 29
  00000	e3a03000	 mov         r3, #0
  00004	e3a02000	 mov         r2, #0
  00008	ea000000	 b           RaiseException
  0000c		 |$M77915|

			 ENDP  ; |?_AtlRaiseException@ATL@@YAXKK@Z|, ATL::_AtlRaiseException

	EXPORT	|??0CAtlException@ATL@@QAA@J@Z|		; ATL::CAtlException::CAtlException

  00000			 AREA	 |.pdata|, PDATA
|$T77928| DCD	|$LN5@CAtlExcept|
	DCD	0x40000200
; Function compile flags: /Ogspy

  00000			 AREA	 |.text|, CODE, ARM

  00000		 |??0CAtlException@ATL@@QAA@J@Z| PROC	; ATL::CAtlException::CAtlException
; Line 49
  00000		 |$LN5@CAtlExcept|
  00000		 |$M77925|
  00000	e5801000	 str         r1, [r0]
; Line 50
  00004	e1a0f00e	 mov         pc, lr
  00008		 |$M77926|

			 ENDP  ; |??0CAtlException@ATL@@QAA@J@Z|, ATL::CAtlException::CAtlException

	EXPORT	|?AllocSysString@?$ChTraitsOS@_W@ATL@@SAPA_WPB_WH@Z| ; ATL::ChTraitsOS<wchar_t>::AllocSysString
	IMPORT	|SysAllocStringLen|
; File c:\program files (x86)\microsoft visual studio 9.0\vc\ce\atlmfc\include\atlstr.h

  00000			 AREA	 |.pdata|, PDATA
|$T77939| DCD	|$LN5@AllocSysSt|
	DCD	0x40000100
; Function compile flags: /Ogspy

  00000			 AREA	 |.text|, CODE, ARM

  00000		 |?AllocSysString@?$ChTraitsOS@_W@ATL@@SAPA_WPB_WH@Z| PROC ; ATL::ChTraitsOS<wchar_t>::AllocSysString
; Line 1050
  00000		 |$LN5@AllocSysSt|
  00000		 |$M77936|
; Line 1051
  00000	ea000000	 b           SysAllocStringLen
  00004		 |$M77937|

			 ENDP  ; |?AllocSysString@?$ChTraitsOS@_W@ATL@@SAPA_WPB_WH@Z|, ATL::ChTraitsOS<wchar_t>::AllocSysString

	EXPORT	|?AtlThrowImpl@ATL@@YAXJ@Z|		; ATL::AtlThrowImpl
	EXPORT	|_TI1?AVCAtlException@ATL@@| [ DATA ]
	EXPORT	|_CTA1?AVCAtlException@ATL@@| [ DATA ]
	EXPORT	|_CT??_R0?AVCAtlException@ATL@@@84| [ DATA ]
	EXPORT	|??_R0?AVCAtlException@ATL@@@8| [ DATA ] ; ATL::CAtlException `RTTI Type Descriptor'
	IMPORT	|__CxxThrowException|
	IMPORT	|??_7type_info@@6B@|			; type_info::`vftable'
; File c:\program files (x86)\microsoft visual studio 9.0\vc\ce\atlmfc\include\atlexcept.h

  00000			 AREA	 |.pdata|, PDATA
|$T77955| DCD	|$LN9@AtlThrowIm|
	DCD	0x40000802

  00000			 AREA	 |.data|, DATA
|??_R0?AVCAtlException@ATL@@@8| DCD |??_7type_info@@6B@| ; ATL::CAtlException `RTTI Type Descriptor'
	DCD	0x0
	DCB	".?AVCAtlException@ATL@@", 0x0

  00000			 AREA	 |.xdata$x|, DATA, READONLY
|_CT??_R0?AVCAtlException@ATL@@@84| DCD 0x0
	DCD	|??_R0?AVCAtlException@ATL@@@8|
	DCD	0x0
	DCD	0xffffffff
	%	4
	DCD	0x4
	DCD	0x0

  00000			 AREA	 |.xdata$x|, DATA, READONLY
|_CTA1?AVCAtlException@ATL@@| DCD 0x1
	DCD	|_CT??_R0?AVCAtlException@ATL@@@84|

  00000			 AREA	 |.xdata$x|, DATA, READONLY
|_TI1?AVCAtlException@ATL@@| DCD 0x0
	DCD	0x0
	DCD	0x0
	DCD	|_CTA1?AVCAtlException@ATL@@|
; Function compile flags: /Ogspy

  00000			 AREA	 |.text|, CODE, ARM

  00000		 |?AtlThrowImpl@ATL@@YAXJ@Z| PROC	; ATL::AtlThrowImpl
; Line 70
  00000		 |$LN9@AtlThrowIm|
  00000	e52de004	 str         lr, [sp, #-4]!
  00004	e24dd004	 sub         sp, sp, #4
  00008		 |$M77952|
  00008	e1a03000	 mov         r3, r0
; Line 82
  0000c	e59f1008	 ldr         r1, [pc, #8]
  00010	e28d0000	 add         r0, sp, #0
  00014	e58d3000	 str         r3, [sp]
  00018	eb000000	 bl          __CxxThrowException
  0001c		 |$LN11@AtlThrowIm|
  0001c		 |$LN12@AtlThrowIm|
  0001c	00000000	 DCD         |_TI1?AVCAtlException@ATL@@|
  00020		 |$LN10@AtlThrowIm|
  00020		 |$LN6@AtlThrowIm|
  00020		 |$M77953|

			 ENDP  ; |?AtlThrowImpl@ATL@@YAXJ@Z|, ATL::AtlThrowImpl

	EXPORT	|?LoadLibrary7@CMangoClass@@UAAJPB_WPAI@Z| ; CMangoClass::LoadLibrary7
	IMPORT	|LoadLibraryW|
; File c:\users\steven\desktop\csharp - dllimport\csharp - dllimport\vs2008\dllimportmango\mangoclass.cpp

  00000			 AREA	 |.pdata|, PDATA
|$T77972| DCD	|$LN7@LoadLibrar|
	DCD	0x40000901
; Function compile flags: /Ogspy

  00000			 AREA	 |.text|, CODE, ARM

  00000		 |?LoadLibrary7@CMangoClass@@UAAJPB_WPAI@Z| PROC ; CMangoClass::LoadLibrary7
; Line 449
  00000		 |$LN7@LoadLibrar|
  00000	e92d4010	 stmdb       sp!, {r4, lr}
  00004		 |$M77969|
  00004	e1a04002	 mov         r4, r2
; Line 450
  00008	e1a00001	 mov         r0, r1
  0000c	eb000000	 bl          LoadLibraryW
  00010	e3500000	 cmp         r0, #0
; Line 452
  00014	e5840000	 str         r0, [r4]
; Line 454
  00018	13a00000	 movne       r0, #0
  0001c	03a00001	 moveq       r0, #1
; Line 455
  00020	e8bd8010	 ldmia       sp!, {r4, pc}
  00024		 |$M77970|

			 ENDP  ; |?LoadLibrary7@CMangoClass@@UAAJPB_WPAI@Z|, CMangoClass::LoadLibrary7

	EXPORT	|?GetProcAddress7@CMangoClass@@UAAJIPB_WPAH@Z| ; CMangoClass::GetProcAddress7
	IMPORT	|GetProcAddressW|

  00000			 AREA	 |.pdata|, PDATA
|$T77987| DCD	|$LN7@GetProcAdd|
	DCD	0x40000a01
; Function compile flags: /Ogspy

  00000			 AREA	 |.text|, CODE, ARM

  00000		 |?GetProcAddress7@CMangoClass@@UAAJIPB_WPAH@Z| PROC ; CMangoClass::GetProcAddress7
; Line 458
  00000		 |$LN7@GetProcAdd|
  00000	e92d4010	 stmdb       sp!, {r4, lr}
  00004		 |$M77984|
  00004	e1a04003	 mov         r4, r3
  00008	e1a00001	 mov         r0, r1
; Line 459
  0000c	e1a01002	 mov         r1, r2
  00010	eb000000	 bl          GetProcAddressW
  00014	e3500000	 cmp         r0, #0
; Line 460
  00018	e5840000	 str         r0, [r4]
; Line 462
  0001c	13a00000	 movne       r0, #0
  00020	03a00001	 moveq       r0, #1
; Line 463
  00024	e8bd8010	 ldmia       sp!, {r4, pc}
  00028		 |$M77985|

			 ENDP  ; |?GetProcAddress7@CMangoClass@@UAAJIPB_WPAH@Z|, CMangoClass::GetProcAddress7

	EXPORT	|?FreeLibrary7@CMangoClass@@UAAJI@Z|	; CMangoClass::FreeLibrary7
	IMPORT	|FreeLibrary|

  00000			 AREA	 |.pdata|, PDATA
|$T77997| DCD	|$LN5@FreeLibrar|
	DCD	0x40000200
; Function compile flags: /Ogspy

  00000			 AREA	 |.text|, CODE, ARM

  00000		 |?FreeLibrary7@CMangoClass@@UAAJI@Z| PROC ; CMangoClass::FreeLibrary7
; Line 467
  00000		 |$LN5@FreeLibrar|
  00000		 |$M77994|
; Line 468
  00000	e1a00001	 mov         r0, r1
  00004	ea000000	 b           FreeLibrary
  00008		 |$M77995|

			 ENDP  ; |?FreeLibrary7@CMangoClass@@UAAJI@Z|, CMangoClass::FreeLibrary7

	EXPORT	|?ConvertBSTRToLPSTR@@YAPADPA_W@Z|	; ConvertBSTRToLPSTR
	IMPORT	|??_U@YAPAXI@Z|				; operator new[]
	IMPORT	|WideCharToMultiByte|
	IMPORT	|SysStringLen|
	IMPORT	|memset|

  00000			 AREA	 |.pdata|, PDATA
|$T78012| DCD	|$LN7@ConvertBST|
	DCD	0x40002702
; Function compile flags: /Ogspy

  00000			 AREA	 |.text|, CODE, ARM

  00000		 |?ConvertBSTRToLPSTR@@YAPADPA_W@Z| PROC ; ConvertBSTRToLPSTR
; Line 473
  00000		 |$LN7@ConvertBST|
  00000	e92d41f0	 stmdb       sp!, {r4 - r8, lr}
  00004	e24dd010	 sub         sp, sp, #0x10
  00008		 |$M78009|
  00008	e1b05000	 movs        r5, r0
; Line 474
  0000c	e3a04000	 mov         r4, #0
; Line 475
  00010	0a00001e	 beq         |$LN1@ConvertBST|
; Line 477
  00014	e1a00005	 mov         r0, r5
  00018	eb000000	 bl          SysStringLen
  0001c	e1a07000	 mov         r7, r0
; Line 480
  00020	e3a08000	 mov         r8, #0
  00024	e1a03007	 mov         r3, r7
  00028	e1a02005	 mov         r2, r5
  0002c	e3a01000	 mov         r1, #0
  00030	e3a00000	 mov         r0, #0
  00034	e58d800c	 str         r8, [sp, #0xC]
  00038	e58d8008	 str         r8, [sp, #8]
  0003c	e58d8004	 str         r8, [sp, #4]
  00040	e58d8000	 str         r8, [sp]
  00044	eb000000	 bl          WideCharToMultiByte
  00048	e2806002	 add         r6, r0, #2
; Line 481
  0004c	e1a00006	 mov         r0, r6
  00050	eb000000	 bl          |??_U@YAPAXI@Z|
  00054	e1b04000	 movs        r4, r0
; Line 483
  00058	0a00000c	 beq         |$LN1@ConvertBST|
; Line 485
  0005c	e1a02006	 mov         r2, r6
  00060	e3a01000	 mov         r1, #0
  00064	e1a00004	 mov         r0, r4
  00068	eb000000	 bl          memset
; Line 486
  0006c	e1a03007	 mov         r3, r7
  00070	e1a02005	 mov         r2, r5
  00074	e3a01000	 mov         r1, #0
  00078	e3a00000	 mov         r0, #0
  0007c	e58d800c	 str         r8, [sp, #0xC]
  00080	e58d8008	 str         r8, [sp, #8]
  00084	e58d6004	 str         r6, [sp, #4]
  00088	e58d4000	 str         r4, [sp]
  0008c	eb000000	 bl          WideCharToMultiByte
  00090		 |$LN1@ConvertBST|
; Line 490
  00090	e1a00004	 mov         r0, r4
  00094	e28dd010	 add         sp, sp, #0x10
  00098	e8bd81f0	 ldmia       sp!, {r4 - r8, pc}
  0009c		 |$M78010|

			 ENDP  ; |?ConvertBSTRToLPSTR@@YAPADPA_W@Z|, ConvertBSTRToLPSTR

	EXPORT	|?Clipboard_SET@CMangoClass@@UAAJPA_W@Z| ; CMangoClass::Clipboard_SET
	IMPORT	|CloseClipboard|
	IMPORT	|SetClipboardData|
	IMPORT	|LocalAlloc|
	IMPORT	|EmptyClipboard|
	IMPORT	|OpenClipboard|
	IMPORT	|memcpy|
; File c:\program files (x86)\microsoft visual studio 9.0\vc\ce\atlmfc\include\atlosapice.h

  00000			 AREA	 |.pdata|, PDATA
|$T78039| DCD	|$LN14@Clipboard_|
	DCD	0x40002501
; Function compile flags: /Ogspy

  00000			 AREA	 |.text|, CODE, ARM

  00000		 |?Clipboard_SET@CMangoClass@@UAAJPA_W@Z| PROC ; CMangoClass::Clipboard_SET
; File c:\users\steven\desktop\csharp - dllimport\csharp - dllimport\vs2008\dllimportmango\mangoclass.cpp
; Line 495
  00000		 |$LN14@Clipboard_|
  00000	e92d4030	 stmdb       sp!, {r4, r5, lr}
  00004		 |$M78036|
; Line 496
  00004	e3a00000	 mov         r0, #0
  00008	eb000000	 bl          OpenClipboard
  0000c	e3500000	 cmp         r0, #0
  00010	03a00001	 moveq       r0, #1
; Line 604
  00014	08bd8030	 ldmeqia     sp!, {r4, r5, pc}
; Line 497
  00018	eb000000	 bl          EmptyClipboard
; Line 499
  0001c	e59f406c	 ldr         r4, [pc, #0x6C]
  00020	e5940000	 ldr         r0, [r4]
  00024	e3500000	 cmp         r0, #0
  00028	0a000001	 beq         |$LN6@Clipboard_|
  0002c	eb000000	 bl          wcslen
  00030	ea000000	 b           |$LN7@Clipboard_|
  00034		 |$LN6@Clipboard_|
  00034	e3a00000	 mov         r0, #0
  00038		 |$LN7@Clipboard_|
  00038	e2801001	 add         r1, r0, #1
  0003c	e3a00002	 mov         r0, #2
  00040	eb000000	 bl          LocalAlloc
; Line 501
  00044	e5944000	 ldr         r4, [r4]
  00048	e1a05000	 mov         r5, r0
  0004c	e3540000	 cmp         r4, #0
  00050	0a000002	 beq         |$LN10@Clipboard_|
  00054	e1a00004	 mov         r0, r4
  00058	eb000000	 bl          wcslen
  0005c	ea000000	 b           |$LN11@Clipboard_|
  00060		 |$LN10@Clipboard_|
  00060	e3a00000	 mov         r0, #0
  00064		 |$LN11@Clipboard_|
  00064	e2802001	 add         r2, r0, #1
  00068	e1a00005	 mov         r0, r5
  0006c	e1a01004	 mov         r1, r4
  00070	eb000000	 bl          memcpy
; Line 503
  00074	e1a01005	 mov         r1, r5
  00078	e3a00001	 mov         r0, #1
  0007c	eb000000	 bl          SetClipboardData
; Line 505
  00080	eb000000	 bl          CloseClipboard
; Line 524
  00084	eb000000	 bl          CloseClipboard
; Line 603
  00088	e3a00000	 mov         r0, #0
; Line 604
  0008c	e8bd8030	 ldmia       sp!, {r4, r5, pc}
  00090		 |$LN15@Clipboard_|
  00090		 |$LN16@Clipboard_|
  00090	00000000	 DCD         |?sText@@3PB_WB|
  00094		 |$M78037|

			 ENDP  ; |?Clipboard_SET@CMangoClass@@UAAJPA_W@Z|, CMangoClass::Clipboard_SET

	EXPORT	|?Clipboard_GET@CMangoClass@@UAAJPAPA_W@Z| ; CMangoClass::Clipboard_GET

  00000			 AREA	 |.pdata|, PDATA
|$T78050| DCD	|$LN5@Clipboard_@2|
	DCD	0x40000200
; Function compile flags: /Ogspy

  00000			 AREA	 |.text|, CODE, ARM

  00000		 |?Clipboard_GET@CMangoClass@@UAAJPAPA_W@Z| PROC ; CMangoClass::Clipboard_GET
; Line 607
  00000		 |$LN5@Clipboard_@2|
  00000		 |$M78047|
; Line 608
  00000	e3a00000	 mov         r0, #0
; Line 638
  00004	e1a0f00e	 mov         pc, lr
  00008		 |$M78048|

			 ENDP  ; |?Clipboard_GET@CMangoClass@@UAAJPAPA_W@Z|, CMangoClass::Clipboard_GET

	EXPORT	|?wcsstr@@YAPA_WPA_WPB_W@Z|		; wcsstr
	IMPORT	|wcsstr|
; File c:\program files (x86)\windows mobile 6 sdk\pocketpc\include\armv4i\wchar.h

  00000			 AREA	 |.pdata|, PDATA
|$T78061| DCD	|$LN5@wcsstr|
	DCD	0x40000100
; Function compile flags: /Ogspy

  00000			 AREA	 |.text|, CODE, ARM

  00000		 |?wcsstr@@YAPA_WPA_WPB_W@Z| PROC	; wcsstr
; Line 123
  00000		 |$LN5@wcsstr|
  00000		 |$M78058|
  00000	ea000000	 b           wcsstr
  00004		 |$M78059|

			 ENDP  ; |?wcsstr@@YAPA_WPA_WPB_W@Z|, wcsstr

	EXPORT	|?AtlCrtErrorCheck@ATL@@YAHH@Z|		; ATL::AtlCrtErrorCheck
; File c:\program files (x86)\microsoft visual studio 9.0\vc\ce\atlmfc\include\atlchecked.h

  00000			 AREA	 |.pdata|, PDATA
|$T78073| DCD	|$LN13@AtlCrtErro|
	DCD	0x40001501
; Function compile flags: /Ogspy

  00000			 AREA	 |.text|, CODE, ARM

  00000		 |?AtlCrtErrorCheck@ATL@@YAHH@Z| PROC	; ATL::AtlCrtErrorCheck
; Line 33
  00000		 |$LN13@AtlCrtErro|
  00000	e52de004	 str         lr, [sp, #-4]!
  00004		 |$M78070|
  00004	e3500000	 cmp         r0, #0
; Line 34
  00008	0a00000f	 beq         |$LN9@AtlCrtErro|
  0000c	e350000c	 cmp         r0, #0xC
  00010	0a00000a	 beq         |$LN4@AtlCrtErro|
  00014	e3500016	 cmp         r0, #0x16
  00018	0a000006	 beq         |$LN3@AtlCrtErro|
  0001c	e3500022	 cmp         r0, #0x22
  00020	0a000004	 beq         |$LN3@AtlCrtErro|
  00024	e3500050	 cmp         r0, #0x50
  00028	0a000007	 beq         |$LN9@AtlCrtErro|
  0002c	e3a03116	 mov         r3, #0x16, 2
; Line 47
  00030	e3830901	 orr         r0, r3, #1, 18	; 16384 (0x4000)
  00034	eb000000	 bl          |?AtlThrowImpl@ATL@@YAXJ@Z|
  00038		 |$LN14@AtlCrtErro|
  00038		 |$LN3@AtlCrtErro|
; Line 41
  00038	e59f0010	 ldr         r0, [pc, #0x10]	; -2147024809 (0x80070057)
  0003c	eb000000	 bl          |?AtlThrowImpl@ATL@@YAXJ@Z|
  00040		 |$LN15@AtlCrtErro|
  00040		 |$LN4@AtlCrtErro|
  00040	e3a0313a	 mov         r3, #0x3A, 2
  00044	e3830807	 orr         r0, r3, #7, 16	; 458752 (0x70000)
  00048	eb000000	 bl          |?AtlThrowImpl@ATL@@YAXJ@Z|
  0004c		 |$LN16@AtlCrtErro|
  0004c		 |$LN9@AtlCrtErro|
; Line 51
  0004c	e49df004	 ldr         pc, [sp], #4
  00050		 |$LN17@AtlCrtErro|
  00050		 |$LN18@AtlCrtErro|
  00050	80070057	 DCD         0x80070057
  00054		 |$LN10@AtlCrtErro|
  00054		 |$M78071|

			 ENDP  ; |?AtlCrtErrorCheck@ATL@@YAHH@Z|, ATL::AtlCrtErrorCheck

	EXPORT	|?memcpy_s@Checked@ATL@@YAXPAXIPBXI@Z|	; ATL::Checked::memcpy_s

  00000			 AREA	 |.pdata|, PDATA
|$T78089| DCD	|$LN5@memcpy_s|
	DCD	0x40000401
; Function compile flags: /Ogspy

  00000			 AREA	 |.text|, CODE, ARM

  00000		 |?memcpy_s@Checked@ATL@@YAXPAXIPBXI@Z| PROC ; ATL::Checked::memcpy_s
; Line 66
  00000		 |$LN5@memcpy_s|
  00000	e52de004	 str         lr, [sp, #-4]!
  00004		 |$M78086|
; Line 67
  00004	eb000000	 bl          memcpy_s
  00008	e49de004	 ldr         lr, [sp], #4
  0000c	ea000000	 b           |?AtlCrtErrorCheck@ATL@@YAHH@Z|
  00010		 |$M78087|

			 ENDP  ; |?memcpy_s@Checked@ATL@@YAXPAXIPBXI@Z|, ATL::Checked::memcpy_s

	EXPORT	|?wmemcpy_s@Checked@ATL@@YAXPA_WIPB_WI@Z| ; ATL::Checked::wmemcpy_s
; File c:\program files (x86)\microsoft visual studio 9.0\vc\ce\include\altcecrt.h

  00000			 AREA	 |.pdata|, PDATA
|$T78103| DCD	|$LN7@wmemcpy_s@2|
	DCD	0x40000601
; Function compile flags: /Ogspy

  00000			 AREA	 |.text|, CODE, ARM

  00000		 |?wmemcpy_s@Checked@ATL@@YAXPA_WIPB_WI@Z| PROC ; ATL::Checked::wmemcpy_s
; File c:\program files (x86)\microsoft visual studio 9.0\vc\ce\atlmfc\include\atlchecked.h
; Line 71
  00000		 |$LN7@wmemcpy_s@2|
  00000	e52de004	 str         lr, [sp, #-4]!
  00004		 |$M78100|
; Line 72
  00004	e1a03083	 mov         r3, r3, lsl #1
  00008	e1a01081	 mov         r1, r1, lsl #1
  0000c	eb000000	 bl          memcpy_s
  00010	e49de004	 ldr         lr, [sp], #4
  00014	ea000000	 b           |?AtlCrtErrorCheck@ATL@@YAHH@Z|
  00018		 |$M78101|

			 ENDP  ; |?wmemcpy_s@Checked@ATL@@YAXPA_WIPB_WI@Z|, ATL::Checked::wmemcpy_s

	EXPORT	|?TerminateProcess7@CMangoClass@@UAAJII@Z| ; CMangoClass::TerminateProcess7
	IMPORT	|TerminateProcess|
; File c:\users\steven\desktop\csharp - dllimport\csharp - dllimport\vs2008\dllimportmango\mangoclass.cpp

  00000			 AREA	 |.pdata|, PDATA
|$T78114| DCD	|$LN5@TerminateP|
	DCD	0x40000300
; Function compile flags: /Ogspy

  00000			 AREA	 |.text|, CODE, ARM

  00000		 |?TerminateProcess7@CMangoClass@@UAAJII@Z| PROC ; CMangoClass::TerminateProcess7
; Line 718
  00000		 |$LN5@TerminateP|
  00000		 |$M78111|
  00000	e1a00001	 mov         r0, r1
; Line 719
  00004	e1a01002	 mov         r1, r2
  00008	ea000000	 b           TerminateProcess
  0000c		 |$M78112|

			 ENDP  ; |?TerminateProcess7@CMangoClass@@UAAJII@Z|, CMangoClass::TerminateProcess7

	EXPORT	|?wcscpy_s@Checked@ATL@@YAXPA_WIPB_W@Z|	; ATL::Checked::wcscpy_s
	IMPORT	|wcscpy_s|
; File c:\program files (x86)\microsoft visual studio 9.0\vc\ce\atlmfc\include\atlchecked.h

  00000			 AREA	 |.pdata|, PDATA
|$T78124| DCD	|$LN5@wcscpy_s|
	DCD	0x40000401
; Function compile flags: /Ogspy

  00000			 AREA	 |.text|, CODE, ARM

  00000		 |?wcscpy_s@Checked@ATL@@YAXPA_WIPB_W@Z| PROC ; ATL::Checked::wcscpy_s
; Line 86
  00000		 |$LN5@wcscpy_s|
  00000	e52de004	 str         lr, [sp, #-4]!
  00004		 |$M78121|
; Line 87
  00004	eb000000	 bl          wcscpy_s
  00008	e49de004	 ldr         lr, [sp], #4
  0000c	ea000000	 b           |?AtlCrtErrorCheck@ATL@@YAHH@Z|
  00010		 |$M78122|

			 ENDP  ; |?wcscpy_s@Checked@ATL@@YAXPA_WIPB_W@Z|, ATL::Checked::wcscpy_s

	EXPORT	|?GetAsyncKeyState7@CMangoClass@@UAAJH@Z| ; CMangoClass::GetAsyncKeyState7
	IMPORT	|GetAsyncKeyState|
; File c:\users\steven\desktop\csharp - dllimport\csharp - dllimport\vs2008\dllimportmango\mangoclass.cpp

  00000			 AREA	 |.pdata|, PDATA
|$T78134| DCD	|$LN5@GetAsyncKe|
	DCD	0x40000200
; Function compile flags: /Ogspy

  00000			 AREA	 |.text|, CODE, ARM

  00000		 |?GetAsyncKeyState7@CMangoClass@@UAAJH@Z| PROC ; CMangoClass::GetAsyncKeyState7
; Line 723
  00000		 |$LN5@GetAsyncKe|
  00000		 |$M78131|
; Line 724
  00000	e1a00001	 mov         r0, r1
  00004	ea000000	 b           GetAsyncKeyState
  00008		 |$M78132|

			 ENDP  ; |?GetAsyncKeyState7@CMangoClass@@UAAJH@Z|, CMangoClass::GetAsyncKeyState7

	EXPORT	|?tcsncpy_s@Checked@ATL@@YAHPA_WIPB_WI@Z| ; ATL::Checked::tcsncpy_s
	IMPORT	|wcsncpy_s|
; File c:\program files (x86)\microsoft visual studio 9.0\vc\ce\atlmfc\include\atlchecked.h

  00000			 AREA	 |.pdata|, PDATA
|$T78147| DCD	|$LN5@tcsncpy_s|
	DCD	0x40000401
; Function compile flags: /Ogspy

  00000			 AREA	 |.text|, CODE, ARM

  00000		 |?tcsncpy_s@Checked@ATL@@YAHPA_WIPB_WI@Z| PROC ; ATL::Checked::tcsncpy_s
; Line 106
  00000		 |$LN5@tcsncpy_s|
  00000	e52de004	 str         lr, [sp, #-4]!
  00004		 |$M78144|
; Line 107
  00004	eb000000	 bl          wcsncpy_s
  00008	e49de004	 ldr         lr, [sp], #4
  0000c	ea000000	 b           |?AtlCrtErrorCheck@ATL@@YAHH@Z|
  00010		 |$M78145|

			 ENDP  ; |?tcsncpy_s@Checked@ATL@@YAHPA_WIPB_WI@Z|, ATL::Checked::tcsncpy_s

	EXPORT	|?CopyScreenToBitmap@@YAPAUHBITMAP__@@PAUtagRECT@@@Z| ; CopyScreenToBitmap
	EXPORT	|??_C@_1EO@CMCENLBN@?$AAD?$AAe?$AAl?$AAe?$AAt?$AAe?$AAD?$AAC?$AA?5?$AA1?$AA?5?$AA?$DN?$AA?5?$AAN?$AAU?$AAL?$AAL?$AA?5?$AA?$EA?$AA?5?$AAC?$AAo?$AAp?$AAy?$AAS?$AAc?$AAr?$AAe?$AAe?$AAn?$AAT?$AAo@| [ DATA ] ; `string'
	EXPORT	|??_C@_1EO@OGPHFFJC@?$AAD?$AAe?$AAl?$AAe?$AAt?$AAe?$AAD?$AAC?$AA?5?$AA0?$AA?5?$AA?$DN?$AA?5?$AAN?$AAU?$AAL?$AAL?$AA?5?$AA?$EA?$AA?5?$AAC?$AAo?$AAp?$AAy?$AAS?$AAc?$AAr?$AAe?$AAe?$AAn?$AAT?$AAo@| [ DATA ] ; `string'
	EXPORT	|??_C@_1EA@LDHCEFBL@?$AAb?$AAi?$AAt?$AA?5?$AA?$DN?$AA?5?$AAN?$AAU?$AAL?$AAL?$AA?5?$AA?$EA?$AA?5?$AAC?$AAo?$AAp?$AAy?$AAS?$AAc?$AAr?$AAe?$AAe?$AAn?$AAT?$AAo?$AAB?$AAi?$AAt?$AAm?$AAa?$AAp?$AA?$AA@| [ DATA ] ; `string'
	EXPORT	|??_C@_1EO@LNIOFNPH@?$AAh?$AAO?$AAl?$AAd?$AAB?$AAi?$AAt?$AAm?$AAa?$AAp?$AA?5?$AA?$DN?$AA?5?$AAN?$AAU?$AAL?$AAL?$AA?5?$AA?$EA?$AA?5?$AAC?$AAo?$AAp?$AAy?$AAS?$AAc?$AAr?$AAe?$AAe?$AAn?$AAT?$AAo@| [ DATA ] ; `string'
	EXPORT	|??_C@_1EI@LAONBLBL@?$AAh?$AAB?$AAi?$AAt?$AAm?$AAa?$AAp?$AA?5?$AA?$DN?$AA?5?$AAN?$AAU?$AAL?$AAL?$AA?5?$AA?$EA?$AA?5?$AAC?$AAo?$AAp?$AAy?$AAS?$AAc?$AAr?$AAe?$AAe?$AAn?$AAT?$AAo?$AAB?$AAi?$AAt@| [ DATA ] ; `string'
	EXPORT	|??_C@_1EG@KGKIIMGC@?$AAh?$AAM?$AAe?$AAm?$AAD?$AAC?$AA?5?$AA?$DN?$AA?5?$AAN?$AAU?$AAL?$AAL?$AA?5?$AA?$EA?$AA?5?$AAC?$AAo?$AAp?$AAy?$AAS?$AAc?$AAr?$AAe?$AAe?$AAn?$AAT?$AAo?$AAB?$AAi?$AAt?$AAm@| [ DATA ] ; `string'
	EXPORT	|??_C@_11LOCGONAA@?$AA?$AA@| [ DATA ]	; `string'
	EXPORT	|??_C@_1EG@BBLLCDEB@?$AAh?$AAS?$AAc?$AAr?$AAD?$AAC?$AA?5?$AA?$DN?$AA?5?$AAN?$AAU?$AAL?$AAL?$AA?5?$AA?$EA?$AA?5?$AAC?$AAo?$AAp?$AAy?$AAS?$AAc?$AAr?$AAe?$AAe?$AAn?$AAT?$AAo?$AAB?$AAi?$AAt?$AAm@| [ DATA ] ; `string'
	EXPORT	|??_C@_1BA@PICGEGJB@?$AAD?$AAI?$AAS?$AAP?$AAL?$AAA?$AAY?$AA?$AA@| [ DATA ] ; `string'
	IMPORT	|DeleteDC|
	IMPORT	|BitBlt|
	IMPORT	|SelectObject|
	IMPORT	|CreateCompatibleBitmap|
	IMPORT	|GetDeviceCaps|
	IMPORT	|CreateCompatibleDC|
	IMPORT	|MessageBoxW|
	IMPORT	|CreateDCW|
	IMPORT	|IsRectEmpty|
; File c:\users\steven\desktop\csharp - dllimport\csharp - dllimport\vs2008\dllimportmango\mangoclass.cpp

  00000			 AREA	 |.pdata|, PDATA
|$T78170| DCD	|$LN18@CopyScreen|
	DCD	0x40007902

  00000			 AREA	 |.rdata|, DATA, READONLY
|??_C@_1EO@CMCENLBN@?$AAD?$AAe?$AAl?$AAe?$AAt?$AAe?$AAD?$AAC?$AA?5?$AA1?$AA?5?$AA?$DN?$AA?5?$AAN?$AAU?$AAL?$AAL?$AA?5?$AA?$EA?$AA?5?$AAC?$AAo?$AAp?$AAy?$AAS?$AAc?$AAr?$AAe?$AAe?$AAn?$AAT?$AAo@| DCB "D"
	DCB	0x0, "e", 0x0, "l", 0x0, "e", 0x0, "t", 0x0, "e", 0x0, "D"
	DCB	0x0, "C", 0x0, " ", 0x0, "1", 0x0, " ", 0x0, "=", 0x0, " "
	DCB	0x0, "N", 0x0, "U", 0x0, "L", 0x0, "L", 0x0, " ", 0x0, "@"
	DCB	0x0, " ", 0x0, "C", 0x0, "o", 0x0, "p", 0x0, "y", 0x0, "S"
	DCB	0x0, "c", 0x0, "r", 0x0, "e", 0x0, "e", 0x0, "n", 0x0, "T"
	DCB	0x0, "o", 0x0, "B", 0x0, "i", 0x0, "t", 0x0, "m", 0x0, "a"
	DCB	0x0, "p", 0x0, 0x0, 0x0			; `string'

  00000			 AREA	 |.rdata|, DATA, READONLY
|??_C@_1EO@OGPHFFJC@?$AAD?$AAe?$AAl?$AAe?$AAt?$AAe?$AAD?$AAC?$AA?5?$AA0?$AA?5?$AA?$DN?$AA?5?$AAN?$AAU?$AAL?$AAL?$AA?5?$AA?$EA?$AA?5?$AAC?$AAo?$AAp?$AAy?$AAS?$AAc?$AAr?$AAe?$AAe?$AAn?$AAT?$AAo@| DCB "D"
	DCB	0x0, "e", 0x0, "l", 0x0, "e", 0x0, "t", 0x0, "e", 0x0, "D"
	DCB	0x0, "C", 0x0, " ", 0x0, "0", 0x0, " ", 0x0, "=", 0x0, " "
	DCB	0x0, "N", 0x0, "U", 0x0, "L", 0x0, "L", 0x0, " ", 0x0, "@"
	DCB	0x0, " ", 0x0, "C", 0x0, "o", 0x0, "p", 0x0, "y", 0x0, "S"
	DCB	0x0, "c", 0x0, "r", 0x0, "e", 0x0, "e", 0x0, "n", 0x0, "T"
	DCB	0x0, "o", 0x0, "B", 0x0, "i", 0x0, "t", 0x0, "m", 0x0, "a"
	DCB	0x0, "p", 0x0, 0x0, 0x0			; `string'

  00000			 AREA	 |.rdata|, DATA, READONLY
|??_C@_1EA@LDHCEFBL@?$AAb?$AAi?$AAt?$AA?5?$AA?$DN?$AA?5?$AAN?$AAU?$AAL?$AAL?$AA?5?$AA?$EA?$AA?5?$AAC?$AAo?$AAp?$AAy?$AAS?$AAc?$AAr?$AAe?$AAe?$AAn?$AAT?$AAo?$AAB?$AAi?$AAt?$AAm?$AAa?$AAp?$AA?$AA@| DCB "b"
	DCB	0x0, "i", 0x0, "t", 0x0, " ", 0x0, "=", 0x0, " ", 0x0, "N"
	DCB	0x0, "U", 0x0, "L", 0x0, "L", 0x0, " ", 0x0, "@", 0x0, " "
	DCB	0x0, "C", 0x0, "o", 0x0, "p", 0x0, "y", 0x0, "S", 0x0, "c"
	DCB	0x0, "r", 0x0, "e", 0x0, "e", 0x0, "n", 0x0, "T", 0x0, "o"
	DCB	0x0, "B", 0x0, "i", 0x0, "t", 0x0, "m", 0x0, "a", 0x0, "p"
	DCB	0x0, 0x0, 0x0				; `string'

  00000			 AREA	 |.rdata|, DATA, READONLY
|??_C@_1EO@LNIOFNPH@?$AAh?$AAO?$AAl?$AAd?$AAB?$AAi?$AAt?$AAm?$AAa?$AAp?$AA?5?$AA?$DN?$AA?5?$AAN?$AAU?$AAL?$AAL?$AA?5?$AA?$EA?$AA?5?$AAC?$AAo?$AAp?$AAy?$AAS?$AAc?$AAr?$AAe?$AAe?$AAn?$AAT?$AAo@| DCB "h"
	DCB	0x0, "O", 0x0, "l", 0x0, "d", 0x0, "B", 0x0, "i", 0x0, "t"
	DCB	0x0, "m", 0x0, "a", 0x0, "p", 0x0, " ", 0x0, "=", 0x0, " "
	DCB	0x0, "N", 0x0, "U", 0x0, "L", 0x0, "L", 0x0, " ", 0x0, "@"
	DCB	0x0, " ", 0x0, "C", 0x0, "o", 0x0, "p", 0x0, "y", 0x0, "S"
	DCB	0x0, "c", 0x0, "r", 0x0, "e", 0x0, "e", 0x0, "n", 0x0, "T"
	DCB	0x0, "o", 0x0, "B", 0x0, "i", 0x0, "t", 0x0, "m", 0x0, "a"
	DCB	0x0, "p", 0x0, 0x0, 0x0			; `string'

  00000			 AREA	 |.rdata|, DATA, READONLY
|??_C@_1EI@LAONBLBL@?$AAh?$AAB?$AAi?$AAt?$AAm?$AAa?$AAp?$AA?5?$AA?$DN?$AA?5?$AAN?$AAU?$AAL?$AAL?$AA?5?$AA?$EA?$AA?5?$AAC?$AAo?$AAp?$AAy?$AAS?$AAc?$AAr?$AAe?$AAe?$AAn?$AAT?$AAo?$AAB?$AAi?$AAt@| DCB "h"
	DCB	0x0, "B", 0x0, "i", 0x0, "t", 0x0, "m", 0x0, "a", 0x0, "p"
	DCB	0x0, " ", 0x0, "=", 0x0, " ", 0x0, "N", 0x0, "U", 0x0, "L"
	DCB	0x0, "L", 0x0, " ", 0x0, "@", 0x0, " ", 0x0, "C", 0x0, "o"
	DCB	0x0, "p", 0x0, "y", 0x0, "S", 0x0, "c", 0x0, "r", 0x0, "e"
	DCB	0x0, "e", 0x0, "n", 0x0, "T", 0x0, "o", 0x0, "B", 0x0, "i"
	DCB	0x0, "t", 0x0, "m", 0x0, "a", 0x0, "p", 0x0, 0x0, 0x0 ; `string'

  00000			 AREA	 |.rdata|, DATA, READONLY
|??_C@_1EG@KGKIIMGC@?$AAh?$AAM?$AAe?$AAm?$AAD?$AAC?$AA?5?$AA?$DN?$AA?5?$AAN?$AAU?$AAL?$AAL?$AA?5?$AA?$EA?$AA?5?$AAC?$AAo?$AAp?$AAy?$AAS?$AAc?$AAr?$AAe?$AAe?$AAn?$AAT?$AAo?$AAB?$AAi?$AAt?$AAm@| DCB "h"
	DCB	0x0, "M", 0x0, "e", 0x0, "m", 0x0, "D", 0x0, "C", 0x0, " "
	DCB	0x0, "=", 0x0, " ", 0x0, "N", 0x0, "U", 0x0, "L", 0x0, "L"
	DCB	0x0, " ", 0x0, "@", 0x0, " ", 0x0, "C", 0x0, "o", 0x0, "p"
	DCB	0x0, "y", 0x0, "S", 0x0, "c", 0x0, "r", 0x0, "e", 0x0, "e"
	DCB	0x0, "n", 0x0, "T", 0x0, "o", 0x0, "B", 0x0, "i", 0x0, "t"
	DCB	0x0, "m", 0x0, "a", 0x0, "p", 0x0, 0x0, 0x0 ; `string'

  00000			 AREA	 |.rdata|, DATA, READONLY
|??_C@_11LOCGONAA@?$AA?$AA@| DCB 0x0, 0x0		; `string'

  00000			 AREA	 |.rdata|, DATA, READONLY
|??_C@_1EG@BBLLCDEB@?$AAh?$AAS?$AAc?$AAr?$AAD?$AAC?$AA?5?$AA?$DN?$AA?5?$AAN?$AAU?$AAL?$AAL?$AA?5?$AA?$EA?$AA?5?$AAC?$AAo?$AAp?$AAy?$AAS?$AAc?$AAr?$AAe?$AAe?$AAn?$AAT?$AAo?$AAB?$AAi?$AAt?$AAm@| DCB "h"
	DCB	0x0, "S", 0x0, "c", 0x0, "r", 0x0, "D", 0x0, "C", 0x0, " "
	DCB	0x0, "=", 0x0, " ", 0x0, "N", 0x0, "U", 0x0, "L", 0x0, "L"
	DCB	0x0, " ", 0x0, "@", 0x0, " ", 0x0, "C", 0x0, "o", 0x0, "p"
	DCB	0x0, "y", 0x0, "S", 0x0, "c", 0x0, "r", 0x0, "e", 0x0, "e"
	DCB	0x0, "n", 0x0, "T", 0x0, "o", 0x0, "B", 0x0, "i", 0x0, "t"
	DCB	0x0, "m", 0x0, "a", 0x0, "p", 0x0, 0x0, 0x0 ; `string'

  00000			 AREA	 |.rdata|, DATA, READONLY
|??_C@_1BA@PICGEGJB@?$AAD?$AAI?$AAS?$AAP?$AAL?$AAA?$AAY?$AA?$AA@| DCB "D", 0x0
	DCB	"I", 0x0, "S", 0x0, "P", 0x0, "L", 0x0, "A", 0x0, "Y", 0x0
	DCB	0x0, 0x0				; `string'
; Function compile flags: /Ogspy

  00000			 AREA	 |.text|, CODE, ARM

  00000		 |?CopyScreenToBitmap@@YAPAUHBITMAP__@@PAUtagRECT@@@Z| PROC ; CopyScreenToBitmap
; Line 769
  00000		 |$LN18@CopyScreen|
  00000	e92d47f0	 stmdb       sp!, {r4 - r10, lr}
  00004	e24dd014	 sub         sp, sp, #0x14
  00008		 |$M78167|
  00008	e1a04000	 mov         r4, r0
; Line 778
  0000c	eb000000	 bl          IsRectEmpty
  00010	e3500000	 cmp         r0, #0
; Line 779
  00014	13a04000	 movne       r4, #0
  00018	1a000065	 bne         |$LN1@CopyScreen|
; Line 784
  0001c	e59f01bc	 ldr         r0, [pc, #0x1BC]
  00020	e3a03000	 mov         r3, #0
  00024	e3a02000	 mov         r2, #0
  00028	e3a01000	 mov         r1, #0
  0002c	eb000000	 bl          CreateDCW
  00030	e1b06000	 movs        r6, r0
; Line 787
  00034	059f11a0	 ldreq       r1, [pc, #0x1A0]
  00038	059f2180	 ldreq       r2, [pc, #0x180]
  0003c	03a03000	 moveq       r3, #0
  00040	03a00000	 moveq       r0, #0
  00044	0b000000	 bleq        MessageBoxW
; Line 789
  00048	e1a00006	 mov         r0, r6
  0004c	eb000000	 bl          CreateCompatibleDC
  00050	e1b05000	 movs        r5, r0
; Line 792
  00054	059f117c	 ldreq       r1, [pc, #0x17C]
  00058	059f2160	 ldreq       r2, [pc, #0x160]
  0005c	03a03000	 moveq       r3, #0
  00060	03a00000	 moveq       r0, #0
  00064	0b000000	 bleq        MessageBoxW
; Line 803
  00068	e594a000	 ldr         r10, [r4]
  0006c	e5948004	 ldr         r8, [r4, #4]
  00070	e5949008	 ldr         r9, [r4, #8]
  00074	e594400c	 ldr         r4, [r4, #0xC]
  00078	e3a01008	 mov         r1, #8
  0007c	e1a00006	 mov         r0, r6
  00080	eb000000	 bl          GetDeviceCaps
  00084	e1a07000	 mov         r7, r0
; Line 804
  00088	e1a00006	 mov         r0, r6
  0008c	e3a0100a	 mov         r1, #0xA
  00090	eb000000	 bl          GetDeviceCaps
; Line 808
  00094	e35a0000	 cmp         r10, #0
; Line 809
  00098	43a0a000	 movmi       r10, #0
; Line 810
  0009c	e3580000	 cmp         r8, #0
; Line 811
  000a0	43a08000	 movmi       r8, #0
; Line 812
  000a4	e1590007	 cmp         r9, r7
; Line 813
  000a8	c1a09007	 movgt       r9, r7
; Line 814
  000ac	e1540000	 cmp         r4, r0
; Line 815
  000b0	c1a04000	 movgt       r4, r0
; Line 818
  000b4	e0447008	 sub         r7, r4, r8
; Line 821
  000b8	e1a02007	 mov         r2, r7
  000bc	e049100a	 sub         r1, r9, r10
  000c0	e1a00006	 mov         r0, r6
  000c4	eb000000	 bl          CreateCompatibleBitmap
; Line 823
  000c8	e3550000	 cmp         r5, #0
; Line 824
  000cc	059f20ec	 ldreq       r2, [pc, #0xEC]
  000d0	059f10f4	 ldreq       r1, [pc, #0xF4]
  000d4	e1a04000	 mov         r4, r0
  000d8	03a03000	 moveq       r3, #0
  000dc	03a00000	 moveq       r0, #0
  000e0	0b000000	 bleq        MessageBoxW
; Line 827
  000e4	e1a01004	 mov         r1, r4
  000e8	e1a00005	 mov         r0, r5
  000ec	eb000000	 bl          SelectObject
  000f0	e1b04000	 movs        r4, r0
; Line 830
  000f4	059f10d8	 ldreq       r1, [pc, #0xD8]
  000f8	059f20c0	 ldreq       r2, [pc, #0xC0]
  000fc	03a03000	 moveq       r3, #0
  00100	03a00000	 moveq       r0, #0
  00104	0b000000	 bleq        MessageBoxW
  00108	e3a03733	 mov         r3, #0x33, 14
; Line 834
  0010c	e3833020	 orr         r3, r3, #0x20
  00110	e58d3010	 str         r3, [sp, #0x10]
  00114	e049300a	 sub         r3, r9, r10
  00118	e3a02000	 mov         r2, #0
  0011c	e3a01000	 mov         r1, #0
  00120	e1a00005	 mov         r0, r5
  00124	e58d800c	 str         r8, [sp, #0xC]
  00128	e58da008	 str         r10, [sp, #8]
  0012c	e58d6004	 str         r6, [sp, #4]
  00130	e58d7000	 str         r7, [sp]
  00134	eb000000	 bl          BitBlt
  00138	e3500000	 cmp         r0, #0
; Line 837
  0013c	059f108c	 ldreq       r1, [pc, #0x8C]
  00140	059f2078	 ldreq       r2, [pc, #0x78]
  00144	03a03000	 moveq       r3, #0
  00148	03a00000	 moveq       r0, #0
  0014c	0b000000	 bleq        MessageBoxW
; Line 842
  00150	e1a01004	 mov         r1, r4
  00154	e1a00005	 mov         r0, r5
  00158	eb000000	 bl          SelectObject
  0015c	e1b04000	 movs        r4, r0
; Line 845
  00160	059f2058	 ldreq       r2, [pc, #0x58]
  00164	059f1060	 ldreq       r1, [pc, #0x60]
  00168	03a03000	 moveq       r3, #0
  0016c	03a00000	 moveq       r0, #0
  00170	0b000000	 bleq        MessageBoxW
; Line 850
  00174	e1a00006	 mov         r0, r6
  00178	eb000000	 bl          DeleteDC
  0017c	e3500000	 cmp         r0, #0
; Line 851
  00180	059f1040	 ldreq       r1, [pc, #0x40]
  00184	059f2034	 ldreq       r2, [pc, #0x34]
  00188	03a03000	 moveq       r3, #0
  0018c	03a00000	 moveq       r0, #0
  00190	0b000000	 bleq        MessageBoxW
; Line 852
  00194	e1a00005	 mov         r0, r5
  00198	eb000000	 bl          DeleteDC
  0019c	e3500000	 cmp         r0, #0
; Line 853
  001a0	059f101c	 ldreq       r1, [pc, #0x1C]
  001a4	059f2014	 ldreq       r2, [pc, #0x14]
  001a8	03a03000	 moveq       r3, #0
  001ac	03a00000	 moveq       r0, #0
  001b0	0b000000	 bleq        MessageBoxW
  001b4		 |$LN1@CopyScreen|
; Line 857
  001b4	e1a00004	 mov         r0, r4
  001b8	e28dd014	 add         sp, sp, #0x14
  001bc	e8bd87f0	 ldmia       sp!, {r4 - r10, pc}
  001c0		 |$LN19@CopyScreen|
  001c0		 |$LN20@CopyScreen|
  001c0	00000000	 DCD         |??_C@_11LOCGONAA@?$AA?$AA@|
  001c4		 |$LN21@CopyScreen|
  001c4	00000000	 DCD         |??_C@_1EO@CMCENLBN@?$AAD?$AAe?$AAl?$AAe?$AAt?$AAe?$AAD?$AAC?$AA?5?$AA1?$AA?5?$AA?$DN?$AA?5?$AAN?$AAU?$AAL?$AAL?$AA?5?$AA?$EA?$AA?5?$AAC?$AAo?$AAp?$AAy?$AAS?$AAc?$AAr?$AAe?$AAe?$AAn?$AAT?$AAo@|
  001c8		 |$LN22@CopyScreen|
  001c8	00000000	 DCD         |??_C@_1EO@OGPHFFJC@?$AAD?$AAe?$AAl?$AAe?$AAt?$AAe?$AAD?$AAC?$AA?5?$AA0?$AA?5?$AA?$DN?$AA?5?$AAN?$AAU?$AAL?$AAL?$AA?5?$AA?$EA?$AA?5?$AAC?$AAo?$AAp?$AAy?$AAS?$AAc?$AAr?$AAe?$AAe?$AAn?$AAT?$AAo@|
  001cc		 |$LN23@CopyScreen|
  001cc	00000000	 DCD         |??_C@_1EI@LAONBLBL@?$AAh?$AAB?$AAi?$AAt?$AAm?$AAa?$AAp?$AA?5?$AA?$DN?$AA?5?$AAN?$AAU?$AAL?$AAL?$AA?5?$AA?$EA?$AA?5?$AAC?$AAo?$AAp?$AAy?$AAS?$AAc?$AAr?$AAe?$AAe?$AAn?$AAT?$AAo?$AAB?$AAi?$AAt@|
  001d0		 |$LN24@CopyScreen|
  001d0	00000000	 DCD         |??_C@_1EA@LDHCEFBL@?$AAb?$AAi?$AAt?$AA?5?$AA?$DN?$AA?5?$AAN?$AAU?$AAL?$AAL?$AA?5?$AA?$EA?$AA?5?$AAC?$AAo?$AAp?$AAy?$AAS?$AAc?$AAr?$AAe?$AAe?$AAn?$AAT?$AAo?$AAB?$AAi?$AAt?$AAm?$AAa?$AAp?$AA?$AA@|
  001d4		 |$LN25@CopyScreen|
  001d4	00000000	 DCD         |??_C@_1EO@LNIOFNPH@?$AAh?$AAO?$AAl?$AAd?$AAB?$AAi?$AAt?$AAm?$AAa?$AAp?$AA?5?$AA?$DN?$AA?5?$AAN?$AAU?$AAL?$AAL?$AA?5?$AA?$EA?$AA?5?$AAC?$AAo?$AAp?$AAy?$AAS?$AAc?$AAr?$AAe?$AAe?$AAn?$AAT?$AAo@|
  001d8		 |$LN26@CopyScreen|
  001d8	00000000	 DCD         |??_C@_1EG@KGKIIMGC@?$AAh?$AAM?$AAe?$AAm?$AAD?$AAC?$AA?5?$AA?$DN?$AA?5?$AAN?$AAU?$AAL?$AAL?$AA?5?$AA?$EA?$AA?5?$AAC?$AAo?$AAp?$AAy?$AAS?$AAc?$AAr?$AAe?$AAe?$AAn?$AAT?$AAo?$AAB?$AAi?$AAt?$AAm@|
  001dc		 |$LN27@CopyScreen|
  001dc	00000000	 DCD         |??_C@_1EG@BBLLCDEB@?$AAh?$AAS?$AAc?$AAr?$AAD?$AAC?$AA?5?$AA?$DN?$AA?5?$AAN?$AAU?$AAL?$AAL?$AA?5?$AA?$EA?$AA?5?$AAC?$AAo?$AAp?$AAy?$AAS?$AAc?$AAr?$AAe?$AAe?$AAn?$AAT?$AAo?$AAB?$AAi?$AAt?$AAm@|
  001e0		 |$LN28@CopyScreen|
  001e0	00000000	 DCD         |??_C@_1BA@PICGEGJB@?$AAD?$AAI?$AAS?$AAP?$AAL?$AAA?$AAY?$AA?$AA@|
  001e4		 |$M78168|

			 ENDP  ; |?CopyScreenToBitmap@@YAPAUHBITMAP__@@PAUtagRECT@@@Z|, CopyScreenToBitmap

	EXPORT	|?QueryPerformanceCounter7@CMangoClass@@UAAJPA_K@Z| ; CMangoClass::QueryPerformanceCounter7
	IMPORT	|QueryPerformanceCounter|

  00000			 AREA	 |.pdata|, PDATA
|$T78191| DCD	|$LN5@QueryPerfo|
	DCD	0x40000f02
; Function compile flags: /Ogspy

  00000			 AREA	 |.text|, CODE, ARM

  00000		 |?QueryPerformanceCounter7@CMangoClass@@UAAJPA_K@Z| PROC ; CMangoClass::QueryPerformanceCounter7
; Line 901
  00000		 |$LN5@QueryPerfo|
  00000	e92d4010	 stmdb       sp!, {r4, lr}
  00004	e24dd008	 sub         sp, sp, #8
  00008		 |$M78188|
  00008	e1a04001	 mov         r4, r1
; Line 904
  0000c	e3a03000	 mov         r3, #0
  00010	e3a02000	 mov         r2, #0
; Line 905
  00014	e28d0000	 add         r0, sp, #0
  00018	e58d3000	 str         r3, [sp]
  0001c	e58d2004	 str         r2, [sp, #4]
  00020	eb000000	 bl          QueryPerformanceCounter
; Line 906
  00024	e59d3000	 ldr         r3, [sp]
  00028	e59d2004	 ldr         r2, [sp, #4]
  0002c	e5843000	 str         r3, [r4]
  00030	e5842004	 str         r2, [r4, #4]
; Line 910
  00034	e28dd008	 add         sp, sp, #8
  00038	e8bd8010	 ldmia       sp!, {r4, pc}
  0003c		 |$M78189|

			 ENDP  ; |?QueryPerformanceCounter7@CMangoClass@@UAAJPA_K@Z|, CMangoClass::QueryPerformanceCounter7

	EXPORT	|?SetWindowsHookExW@CMangoClass@@UAAJHH@Z| ; CMangoClass::SetWindowsHookExW

  00000			 AREA	 |.pdata|, PDATA
|$T78200| DCD	|$LN5@SetWindows|
	DCD	0x40000200
; Function compile flags: /Ogspy

  00000			 AREA	 |.text|, CODE, ARM

  00000		 |?SetWindowsHookExW@CMangoClass@@UAAJHH@Z| PROC ; CMangoClass::SetWindowsHookExW
; Line 926
  00000		 |$LN5@SetWindows|
  00000		 |$M78197|
; Line 927
  00000	e3a00000	 mov         r0, #0
; Line 929
  00004	e1a0f00e	 mov         pc, lr
  00008		 |$M78198|

			 ENDP  ; |?SetWindowsHookExW@CMangoClass@@UAAJHH@Z|, CMangoClass::SetWindowsHookExW

	EXPORT	|?ShellExecuteEx7@CMangoClass@@UAAJPA_W0@Z| ; CMangoClass::ShellExecuteEx7
	EXPORT	|??_C@_19BDAJEHDN@?$AAo?$AAp?$AAe?$AAn?$AA?$AA@| [ DATA ] ; `string'
	IMPORT	|GetLastError|
	IMPORT	|ShellExecuteEx|

  00000			 AREA	 |.pdata|, PDATA
|$T78210| DCD	|$LN6@ShellExecu|
	DCD	0x40002302

  00000			 AREA	 |.rdata|, DATA, READONLY
|??_C@_19BDAJEHDN@?$AAo?$AAp?$AAe?$AAn?$AA?$AA@| DCB "o", 0x0, "p", 0x0, "e"
	DCB	0x0, "n", 0x0, 0x0, 0x0			; `string'
; Function compile flags: /Ogspy

  00000			 AREA	 |.text|, CODE, ARM

  00000		 |?ShellExecuteEx7@CMangoClass@@UAAJPA_W0@Z| PROC ; CMangoClass::ShellExecuteEx7
; Line 932
  00000		 |$LN6@ShellExecu|
  00000	e92d40f0	 stmdb       sp!, {r4 - r7, lr}
  00004	e24dd03c	 sub         sp, sp, #0x3C
  00008		 |$M78207|
  00008	e1a04001	 mov         r4, r1
; Line 944
  0000c	e3a0203c	 mov         r2, #0x3C
  00010	e3a01000	 mov         r1, #0
  00014	e28d0000	 add         r0, sp, #0
  00018	eb000000	 bl          memset
; Line 948
  0001c	e59f3064	 ldr         r3, [pc, #0x64]
; Line 950
  00020	e59f205c	 ldr         r2, [pc, #0x5C]
  00024	e3a0103c	 mov         r1, #0x3C
; Line 951
  00028	e3a0e006	 mov         lr, #6
; Line 952
  0002c	e3a05000	 mov         r5, #0
; Line 953
  00030	e3a06000	 mov         r6, #0
; Line 954
  00034	e3a07000	 mov         r7, #0
; Line 956
  00038	e28d0000	 add         r0, sp, #0
  0003c	e58d3014	 str         r3, [sp, #0x14]
  00040	e58d3018	 str         r3, [sp, #0x18]
  00044	e58d200c	 str         r2, [sp, #0xC]
  00048	e58d1000	 str         r1, [sp]
  0004c	e58d4010	 str         r4, [sp, #0x10]
  00050	e58de01c	 str         lr, [sp, #0x1C]
  00054	e58d5004	 str         r5, [sp, #4]
  00058	e58d6008	 str         r6, [sp, #8]
  0005c	e58d7020	 str         r7, [sp, #0x20]
  00060	eb000000	 bl          ShellExecuteEx
  00064	e3500000	 cmp         r0, #0
  00068	1a000002	 bne         |$LN1@ShellExecu|
; Line 958
  0006c	eb000000	 bl          GetLastError
; Line 966
  00070	e28dd03c	 add         sp, sp, #0x3C
  00074	e8bd80f0	 ldmia       sp!, {r4 - r7, pc}
  00078		 |$LN1@ShellExecu|
; Line 963
  00078	e3a00000	 mov         r0, #0
; Line 966
  0007c	e28dd03c	 add         sp, sp, #0x3C
  00080	e8bd80f0	 ldmia       sp!, {r4 - r7, pc}
  00084		 |$LN7@ShellExecu|
  00084		 |$LN8@ShellExecu|
  00084	00000000	 DCD         |??_C@_19BDAJEHDN@?$AAo?$AAp?$AAe?$AAn?$AA?$AA@|
  00088		 |$LN9@ShellExecu|
  00088	00000000	 DCD         |??_C@_11LOCGONAA@?$AA?$AA@|
  0008c		 |$M78208|

			 ENDP  ; |?ShellExecuteEx7@CMangoClass@@UAAJPA_W0@Z|, CMangoClass::ShellExecuteEx7

	EXPORT	|?CreateProcess7@CMangoClass@@UAAJPA_W0@Z| ; CMangoClass::CreateProcess7
	IMPORT	|CreateProcessW|

  00000			 AREA	 |.pdata|, PDATA
|$T78223| DCD	|$LN6@CreateProc|
	DCD	0x40002402
; Function compile flags: /Ogspy

  00000			 AREA	 |.text|, CODE, ARM

  00000		 |?CreateProcess7@CMangoClass@@UAAJPA_W0@Z| PROC ; CMangoClass::CreateProcess7
; Line 969
  00000		 |$LN6@CreateProc|
  00000	e92d40f0	 stmdb       sp!, {r4 - r7, lr}
  00004	e24dd06c	 sub         sp, sp, #0x6C
  00008		 |$M78220|
  00008	e1a05001	 mov         r5, r1
; Line 973
  0000c	e3a02044	 mov         r2, #0x44
  00010	e3a01000	 mov         r1, #0
  00014	e28d0028	 add         r0, sp, #0x28
  00018	eb000000	 bl          memset
; Line 974
  0001c	e3a03000	 mov         r3, #0
  00020	e58d3018	 str         r3, [sp, #0x18]
  00024	e58d301c	 str         r3, [sp, #0x1C]
  00028	e58d3020	 str         r3, [sp, #0x20]
; Line 978
  0002c	e58d3024	 str         r3, [sp, #0x24]
  00030	e3a06044	 mov         r6, #0x44
  00034	e28de018	 add         lr, sp, #0x18
  00038	e28d4028	 add         r4, sp, #0x28
  0003c	e3a07000	 mov         r7, #0
  00040	e3a03000	 mov         r3, #0
  00044	e3a02000	 mov         r2, #0
  00048	e3a01000	 mov         r1, #0
  0004c	e1a00005	 mov         r0, r5
  00050	e58d6028	 str         r6, [sp, #0x28]
  00054	e58de014	 str         lr, [sp, #0x14]
  00058	e58d4010	 str         r4, [sp, #0x10]
  0005c	e58d700c	 str         r7, [sp, #0xC]
  00060	e58d7008	 str         r7, [sp, #8]
  00064	e58d7004	 str         r7, [sp, #4]
  00068	e58d7000	 str         r7, [sp]
  0006c	eb000000	 bl          CreateProcessW
  00070	e3500000	 cmp         r0, #0
; Line 992
  00074	1a000002	 bne         |$LN1@CreateProc|
; Line 994
  00078	eb000000	 bl          GetLastError
; Line 999
  0007c	e28dd06c	 add         sp, sp, #0x6C
  00080	e8bd80f0	 ldmia       sp!, {r4 - r7, pc}
  00084		 |$LN1@CreateProc|
; Line 998
  00084	e3a00000	 mov         r0, #0
; Line 999
  00088	e28dd06c	 add         sp, sp, #0x6C
  0008c	e8bd80f0	 ldmia       sp!, {r4 - r7, pc}
  00090		 |$M78221|

			 ENDP  ; |?CreateProcess7@CMangoClass@@UAAJPA_W0@Z|, CMangoClass::CreateProcess7

	EXPORT	|?GetProcessTimes7@CMangoClass@@UAAJHPAH0000000@Z| ; CMangoClass::GetProcessTimes7
	EXPORT	|??_C@_1BA@HMFMEPIE@?$AAc?$AAo?$AAr?$AAe?$AAd?$AAl?$AAl?$AA?$AA@| [ DATA ] ; `string'
	EXPORT	|??_C@_1CA@EMMAOOIN@?$AAG?$AAe?$AAt?$AAP?$AAr?$AAo?$AAc?$AAe?$AAs?$AAs?$AAT?$AAi?$AAm?$AAe?$AAs?$AA?$AA@| [ DATA ] ; `string'

  00000			 AREA	 |.pdata|, PDATA
|$T78238| DCD	|$LN5@GetProcess|
	DCD	0x40002c02

  00000			 AREA	 |.rdata|, DATA, READONLY
|??_C@_1BA@HMFMEPIE@?$AAc?$AAo?$AAr?$AAe?$AAd?$AAl?$AAl?$AA?$AA@| DCB "c", 0x0
	DCB	"o", 0x0, "r", 0x0, "e", 0x0, "d", 0x0, "l", 0x0, "l", 0x0
	DCB	0x0, 0x0				; `string'

  00000			 AREA	 |.rdata|, DATA, READONLY
|??_C@_1CA@EMMAOOIN@?$AAG?$AAe?$AAt?$AAP?$AAr?$AAo?$AAc?$AAe?$AAs?$AAs?$AAT?$AAi?$AAm?$AAe?$AAs?$AA?$AA@| DCB "G"
	DCB	0x0, "e", 0x0, "t", 0x0, "P", 0x0, "r", 0x0, "o", 0x0, "c"
	DCB	0x0, "e", 0x0, "s", 0x0, "s", 0x0, "T", 0x0, "i", 0x0, "m"
	DCB	0x0, "e", 0x0, "s", 0x0, 0x0, 0x0	; `string'
; Function compile flags: /Ogspy

  00000			 AREA	 |.text|, CODE, ARM

  00000		 |?GetProcessTimes7@CMangoClass@@UAAJHPAH0000000@Z| PROC ; CMangoClass::GetProcessTimes7
; Line 1027
  00000		 |$LN5@GetProcess|
  00000	e92d4ff0	 stmdb       sp!, {r4 - r11, lr}
  00004	e24dd024	 sub         sp, sp, #0x24
  00008		 |$M78235|
  00008	e1a0b003	 mov         r11, r3
  0000c	e1a08002	 mov         r8, r2
  00010	e1a06001	 mov         r6, r1
; Line 1028
  00014	e59f0090	 ldr         r0, [pc, #0x90]
  00018	eb000000	 bl          LoadLibraryW
; Line 1030
  0001c	e59f1084	 ldr         r1, [pc, #0x84]
  00020	eb000000	 bl          GetProcAddressW
; Line 1037
  00024	e28d401c	 add         r4, sp, #0x1C
  00028	e1a05000	 mov         r5, r0
  0002c	e1a00006	 mov         r0, r6
  00030	e58d4000	 str         r4, [sp]
  00034	e28d3014	 add         r3, sp, #0x14
  00038	e28d200c	 add         r2, sp, #0xC
  0003c	e28d1004	 add         r1, sp, #4
  00040	e1a0e00f	 mov         lr, pc
  00044	e1a0f005	 mov         pc, r5
; Line 1039
  00048	e59d1004	 ldr         r1, [sp, #4]
; Line 1040
  0004c	e59de008	 ldr         lr, [sp, #8]
; Line 1042
  00050	e59d6048	 ldr         r6, [sp, #0x48]
  00054	e59d400c	 ldr         r4, [sp, #0xC]
; Line 1043
  00058	e59d904c	 ldr         r9, [sp, #0x4C]
  0005c	e59d7010	 ldr         r7, [sp, #0x10]
; Line 1045
  00060	e59da050	 ldr         r10, [sp, #0x50]
  00064	e5881000	 str         r1, [r8]
  00068	e59d8014	 ldr         r8, [sp, #0x14]
; Line 1046
  0006c	e59d5054	 ldr         r5, [sp, #0x54]
  00070	e58be000	 str         lr, [r11]
  00074	e59de018	 ldr         lr, [sp, #0x18]
; Line 1048
  00078	e59d101c	 ldr         r1, [sp, #0x1C]
  0007c	e5864000	 str         r4, [r6]
  00080	e59d4058	 ldr         r4, [sp, #0x58]
; Line 1049
  00084	e59d205c	 ldr         r2, [sp, #0x5C]
  00088	e59d3020	 ldr         r3, [sp, #0x20]
  0008c	e5897000	 str         r7, [r9]
  00090	e58a8000	 str         r8, [r10]
  00094	e585e000	 str         lr, [r5]
  00098	e5841000	 str         r1, [r4]
  0009c	e5823000	 str         r3, [r2]
; Line 1052
  000a0	e28dd024	 add         sp, sp, #0x24
  000a4	e8bd8ff0	 ldmia       sp!, {r4 - r11, pc}
  000a8		 |$LN6@GetProcess|
  000a8		 |$LN7@GetProcess|
  000a8	00000000	 DCD         |??_C@_1CA@EMMAOOIN@?$AAG?$AAe?$AAt?$AAP?$AAr?$AAo?$AAc?$AAe?$AAs?$AAs?$AAT?$AAi?$AAm?$AAe?$AAs?$AA?$AA@|
  000ac		 |$LN8@GetProcess|
  000ac	00000000	 DCD         |??_C@_1BA@HMFMEPIE@?$AAc?$AAo?$AAr?$AAe?$AAd?$AAl?$AAl?$AA?$AA@|
  000b0		 |$M78236|

			 ENDP  ; |?GetProcessTimes7@CMangoClass@@UAAJHPAH0000000@Z|, CMangoClass::GetProcessTimes7

	EXPORT	|?NavigateToExternalPage7@CMangoClass@@UAAJHPA_WHH@Z| ; CMangoClass::NavigateToExternalPage7
	EXPORT	|??_C@_1M@BFCKBOEN@?$AAf?$AAr?$AAa?$AAm?$AAe?$AA?$AA@| [ DATA ] ; `string'
	EXPORT	|??_C@_1DG@GOIGEDHG@?$AAS?$AAH?$AAP?$AAM?$AAN?$AAa?$AAv?$AAi?$AAg?$AAa?$AAt?$AAe?$AAT?$AAo?$AAE?$AAx?$AAt?$AAe?$AAr?$AAn?$AAa?$AAl?$AAP?$AAa?$AAg?$AAe?$AA?$AA@| [ DATA ] ; `string'

  00000			 AREA	 |.pdata|, PDATA
|$T78255| DCD	|$LN5@NavigateTo|
	DCD	0x40001602

  00000			 AREA	 |.rdata|, DATA, READONLY
|??_C@_1M@BFCKBOEN@?$AAf?$AAr?$AAa?$AAm?$AAe?$AA?$AA@| DCB "f", 0x0, "r", 0x0
	DCB	"a", 0x0, "m", 0x0, "e", 0x0, 0x0, 0x0	; `string'

  00000			 AREA	 |.rdata|, DATA, READONLY
|??_C@_1DG@GOIGEDHG@?$AAS?$AAH?$AAP?$AAM?$AAN?$AAa?$AAv?$AAi?$AAg?$AAa?$AAt?$AAe?$AAT?$AAo?$AAE?$AAx?$AAt?$AAe?$AAr?$AAn?$AAa?$AAl?$AAP?$AAa?$AAg?$AAe?$AA?$AA@| DCB "S"
	DCB	0x0, "H", 0x0, "P", 0x0, "M", 0x0, "N", 0x0, "a", 0x0, "v"
	DCB	0x0, "i", 0x0, "g", 0x0, "a", 0x0, "t", 0x0, "e", 0x0, "T"
	DCB	0x0, "o", 0x0, "E", 0x0, "x", 0x0, "t", 0x0, "e", 0x0, "r"
	DCB	0x0, "n", 0x0, "a", 0x0, "l", 0x0, "P", 0x0, "a", 0x0, "g"
	DCB	0x0, "e", 0x0, 0x0, 0x0			; `string'
; Function compile flags: /Ogspy

  00000			 AREA	 |.text|, CODE, ARM

  00000		 |?NavigateToExternalPage7@CMangoClass@@UAAJHPA_WHH@Z| PROC ; CMangoClass::NavigateToExternalPage7
; Line 1069
  00000		 |$LN5@NavigateTo|
  00000	e92d40f0	 stmdb       sp!, {r4 - r7, lr}
  00004	e24dd008	 sub         sp, sp, #8
  00008		 |$M78252|
  00008	e1a05003	 mov         r5, r3
  0000c	e1a06002	 mov         r6, r2
  00010	e1a07001	 mov         r7, r1
; Line 1072
  00014	e59f0038	 ldr         r0, [pc, #0x38]
  00018	eb000000	 bl          LoadLibraryW
; Line 1074
  0001c	e59f102c	 ldr         r1, [pc, #0x2C]
  00020	eb000000	 bl          GetProcAddressW
; Line 1077
  00024	e59de01c	 ldr         lr, [sp, #0x1C]
  00028	e1a04000	 mov         r4, r0
  0002c	e28d3004	 add         r3, sp, #4
  00030	e58de000	 str         lr, [sp]
  00034	e1a02005	 mov         r2, r5
  00038	e1a01006	 mov         r1, r6
  0003c	e1a00007	 mov         r0, r7
  00040	e1a0e00f	 mov         lr, pc
  00044	e1a0f004	 mov         pc, r4
; Line 1078
  00048	e28dd008	 add         sp, sp, #8
  0004c	e8bd80f0	 ldmia       sp!, {r4 - r7, pc}
  00050		 |$LN6@NavigateTo|
  00050		 |$LN7@NavigateTo|
  00050	00000000	 DCD         |??_C@_1DG@GOIGEDHG@?$AAS?$AAH?$AAP?$AAM?$AAN?$AAa?$AAv?$AAi?$AAg?$AAa?$AAt?$AAe?$AAT?$AAo?$AAE?$AAx?$AAt?$AAe?$AAr?$AAn?$AAa?$AAl?$AAP?$AAa?$AAg?$AAe?$AA?$AA@|
  00054		 |$LN8@NavigateTo|
  00054	00000000	 DCD         |??_C@_1M@BFCKBOEN@?$AAf?$AAr?$AAa?$AAm?$AAe?$AA?$AA@|
  00058		 |$M78253|

			 ENDP  ; |?NavigateToExternalPage7@CMangoClass@@UAAJHPA_WHH@Z|, CMangoClass::NavigateToExternalPage7

	EXPORT	|??0CComCriticalSection@ATL@@QAA@XZ|	; ATL::CComCriticalSection::CComCriticalSection
; File c:\program files (x86)\microsoft visual studio 9.0\vc\ce\atlmfc\include\atlcore.h

  00000			 AREA	 |.pdata|, PDATA
|$T78268| DCD	|$LN5@CComCritic|
	DCD	0x40000701
; Function compile flags: /Ogspy

  00000			 AREA	 |.text|, CODE, ARM

  00000		 |??0CComCriticalSection@ATL@@QAA@XZ| PROC ; ATL::CComCriticalSection::CComCriticalSection
; Line 159
  00000		 |$LN5@CComCritic|
  00000	e92d4010	 stmdb       sp!, {r4, lr}
  00004		 |$M78265|
  00004	e1a04000	 mov         r4, r0
; Line 161
  00008	e3a02014	 mov         r2, #0x14
  0000c	e3a01000	 mov         r1, #0
  00010	eb000000	 bl          memset
; Line 162
  00014	e1a00004	 mov         r0, r4
  00018	e8bd8010	 ldmia       sp!, {r4, pc}
  0001c		 |$M78266|

			 ENDP  ; |??0CComCriticalSection@ATL@@QAA@XZ|, ATL::CComCriticalSection::CComCriticalSection

	EXPORT	|?MessageBox7@CMangoClass@@UAAJPB_W0IPAH@Z| ; CMangoClass::MessageBox7
; File c:\users\steven\desktop\csharp - dllimport\csharp - dllimport\vs2008\dllimportmango\mangoclass.cpp

  00000			 AREA	 |.pdata|, PDATA
|$T78283| DCD	|$LN7@MessageBox|
	DCD	0x40000901
; Function compile flags: /Ogspy

  00000			 AREA	 |.text|, CODE, ARM

  00000		 |?MessageBox7@CMangoClass@@UAAJPB_W0IPAH@Z| PROC ; CMangoClass::MessageBox7
; Line 1081
  00000		 |$LN7@MessageBox|
  00000	e52de004	 str         lr, [sp, #-4]!
  00004		 |$M78280|
; Line 1082
  00004	e3a00000	 mov         r0, #0
  00008	eb000000	 bl          MessageBoxW
; Line 1083
  0000c	e59d3004	 ldr         r3, [sp, #4]
  00010	e3500000	 cmp         r0, #0
  00014	e5830000	 str         r0, [r3]
; Line 1085
  00018	13a00000	 movne       r0, #0
  0001c	03a00001	 moveq       r0, #1
; Line 1086
  00020	e49df004	 ldr         pc, [sp], #4
  00024		 |$M78281|

			 ENDP  ; |?MessageBox7@CMangoClass@@UAAJPB_W0IPAH@Z|, CMangoClass::MessageBox7

	EXPORT	|??1CComCriticalSection@ATL@@QAA@XZ|	; ATL::CComCriticalSection::~CComCriticalSection
; File c:\program files (x86)\microsoft visual studio 9.0\vc\ce\atlmfc\include\atlcore.h

  00000			 AREA	 |.pdata|, PDATA
|$T78290| DCD	|$LN5@CComCritic@2|
	DCD	0x40000100
; Function compile flags: /Ogspy

  00000			 AREA	 |.text|, CODE, ARM

  00000		 |??1CComCriticalSection@ATL@@QAA@XZ| PROC ; ATL::CComCriticalSection::~CComCriticalSection
; Line 164
  00000		 |$LN5@CComCritic@2|
  00000		 |$M78287|
; Line 165
  00000	e1a0f00e	 mov         pc, lr
  00004		 |$M78288|

			 ENDP  ; |??1CComCriticalSection@ATL@@QAA@XZ|, ATL::CComCriticalSection::~CComCriticalSection

	EXPORT	|?Lock@CComCriticalSection@ATL@@QAAJXZ|	; ATL::CComCriticalSection::Lock
	IMPORT	|EnterCriticalSection|

  00000			 AREA	 |.pdata|, PDATA
|$T78300| DCD	|$LN5@Lock|
	DCD	0x40000401
; Function compile flags: /Ogspy

  00000			 AREA	 |.text|, CODE, ARM

  00000		 |?Lock@CComCriticalSection@ATL@@QAAJXZ| PROC ; ATL::CComCriticalSection::Lock
; Line 167
  00000		 |$LN5@Lock|
  00000	e52de004	 str         lr, [sp, #-4]!
  00004		 |$M78297|
; Line 168
  00004	eb000000	 bl          EnterCriticalSection
; Line 169
  00008	e3a00000	 mov         r0, #0
; Line 170
  0000c	e49df004	 ldr         pc, [sp], #4
  00010		 |$M78298|

			 ENDP  ; |?Lock@CComCriticalSection@ATL@@QAAJXZ|, ATL::CComCriticalSection::Lock

	EXPORT	|?ShutdownOS@CMangoClass@@UAAJI@Z|	; CMangoClass::ShutdownOS
	IMPORT	|ExitWindowsEx|
; File c:\users\steven\desktop\csharp - dllimport\csharp - dllimport\vs2008\dllimportmango\mangoclass.cpp

  00000			 AREA	 |.pdata|, PDATA
|$T78310| DCD	|$LN5@ShutdownOS|
	DCD	0x40000300
; Function compile flags: /Ogspy

  00000			 AREA	 |.text|, CODE, ARM

  00000		 |?ShutdownOS@CMangoClass@@UAAJI@Z| PROC ; CMangoClass::ShutdownOS
; Line 1089
  00000		 |$LN5@ShutdownOS|
  00000		 |$M78307|
  00000	e1a00001	 mov         r0, r1
; Line 1090
  00004	e3a01000	 mov         r1, #0
  00008	ea000000	 b           ExitWindowsEx
  0000c		 |$M78308|

			 ENDP  ; |?ShutdownOS@CMangoClass@@UAAJI@Z|, CMangoClass::ShutdownOS

	EXPORT	|?Unlock@CComCriticalSection@ATL@@QAAJXZ| ; ATL::CComCriticalSection::Unlock
	IMPORT	|LeaveCriticalSection|
; File c:\program files (x86)\microsoft visual studio 9.0\vc\ce\atlmfc\include\atlcore.h

  00000			 AREA	 |.pdata|, PDATA
|$T78320| DCD	|$LN5@Unlock|
	DCD	0x40000401
; Function compile flags: /Ogspy

  00000			 AREA	 |.text|, CODE, ARM

  00000		 |?Unlock@CComCriticalSection@ATL@@QAAJXZ| PROC ; ATL::CComCriticalSection::Unlock
; Line 172
  00000		 |$LN5@Unlock|
  00000	e52de004	 str         lr, [sp, #-4]!
  00004		 |$M78317|
; Line 173
  00004	eb000000	 bl          LeaveCriticalSection
; Line 174
  00008	e3a00000	 mov         r0, #0
; Line 175
  0000c	e49df004	 ldr         pc, [sp], #4
  00010		 |$M78318|

			 ENDP  ; |?Unlock@CComCriticalSection@ATL@@QAAJXZ|, ATL::CComCriticalSection::Unlock

	EXPORT	|?CeCreateProcessEx@CMangoClass@@UAAJXZ| ; CMangoClass::CeCreateProcessEx
	EXPORT	|??_C@_1CE@PDGLBPEI@?$AAC?$AAe?$AAC?$AAr?$AAe?$AAa?$AAt?$AAe?$AAP?$AAr?$AAo?$AAc?$AAe?$AAs?$AAs?$AAE?$AAx?$AA?$AA@| [ DATA ] ; `string'
	EXPORT	|??_C@_1BE@FEGGJJAD@?$AAc?$AAa?$AAl?$AAc?$AA7?$AA?4?$AAe?$AAx?$AAe?$AA?$AA@| [ DATA ] ; `string'
; File c:\users\steven\desktop\csharp - dllimport\csharp - dllimport\vs2008\dllimportmango\mangoclass.cpp

  00000			 AREA	 |.pdata|, PDATA
|$T78331| DCD	|$LN5@CeCreatePr|
	DCD	0x40002902

  00000			 AREA	 |.rdata|, DATA, READONLY
|??_C@_1CE@PDGLBPEI@?$AAC?$AAe?$AAC?$AAr?$AAe?$AAa?$AAt?$AAe?$AAP?$AAr?$AAo?$AAc?$AAe?$AAs?$AAs?$AAE?$AAx?$AA?$AA@| DCB "C"
	DCB	0x0, "e", 0x0, "C", 0x0, "r", 0x0, "e", 0x0, "a", 0x0, "t"
	DCB	0x0, "e", 0x0, "P", 0x0, "r", 0x0, "o", 0x0, "c", 0x0, "e"
	DCB	0x0, "s", 0x0, "s", 0x0, "E", 0x0, "x", 0x0, 0x0, 0x0 ; `string'

  00000			 AREA	 |.rdata|, DATA, READONLY
|??_C@_1BE@FEGGJJAD@?$AAc?$AAa?$AAl?$AAc?$AA7?$AA?4?$AAe?$AAx?$AAe?$AA?$AA@| DCB "c"
	DCB	0x0, "a", 0x0, "l", 0x0, "c", 0x0, "7", 0x0, ".", 0x0, "e"
	DCB	0x0, "x", 0x0, "e", 0x0, 0x0, 0x0	; `string'
; Function compile flags: /Ogspy

  00000			 AREA	 |.text|, CODE, ARM

  00000		 |?CeCreateProcessEx@CMangoClass@@UAAJXZ| PROC ; CMangoClass::CeCreateProcessEx
; Line 1107
  00000		 |$LN5@CeCreatePr|
  00000	e92d40f0	 stmdb       sp!, {r4 - r7, lr}
  00004	e24dd06c	 sub         sp, sp, #0x6C
  00008		 |$M78328|
; Line 1108
  00008	e59f0090	 ldr         r0, [pc, #0x90]
  0000c	eb000000	 bl          LoadLibraryW
  00010	e1a04000	 mov         r4, r0
; Line 1113
  00014	e28d0028	 add         r0, sp, #0x28
  00018	e3a02044	 mov         r2, #0x44
  0001c	e3a01000	 mov         r1, #0
  00020	eb000000	 bl          memset
; Line 1118
  00024	e59f1070	 ldr         r1, [pc, #0x70]
  00028	e3a02000	 mov         r2, #0
  0002c	e3a03044	 mov         r3, #0x44
  00030	e1a00004	 mov         r0, r4
  00034	e58d2018	 str         r2, [sp, #0x18]
  00038	e58d201c	 str         r2, [sp, #0x1C]
  0003c	e58d2020	 str         r2, [sp, #0x20]
  00040	e58d2024	 str         r2, [sp, #0x24]
  00044	e58d3028	 str         r3, [sp, #0x28]
  00048	eb000000	 bl          GetProcAddressW
; Line 1120
  0004c	e28d4018	 add         r4, sp, #0x18
  00050	e28d5028	 add         r5, sp, #0x28
  00054	e3a07000	 mov         r7, #0
  00058	e59f1038	 ldr         r1, [pc, #0x38]
  0005c	e1a06000	 mov         r6, r0
  00060	e59f002c	 ldr         r0, [pc, #0x2C]
  00064	e58d4014	 str         r4, [sp, #0x14]
  00068	e58d5010	 str         r5, [sp, #0x10]
  0006c	e58d700c	 str         r7, [sp, #0xC]
  00070	e58d7008	 str         r7, [sp, #8]
  00074	e58d7004	 str         r7, [sp, #4]
  00078	e58d7000	 str         r7, [sp]
  0007c	e3a03000	 mov         r3, #0
  00080	e3a02000	 mov         r2, #0
  00084	e1a0e00f	 mov         lr, pc
  00088	e1a0f006	 mov         pc, r6
; Line 1122
  0008c	e28dd06c	 add         sp, sp, #0x6C
  00090	e8bd80f0	 ldmia       sp!, {r4 - r7, pc}
  00094		 |$LN6@CeCreatePr|
  00094		 |$LN7@CeCreatePr|
  00094	00000000	 DCD         |??_C@_1BE@FEGGJJAD@?$AAc?$AAa?$AAl?$AAc?$AA7?$AA?4?$AAe?$AAx?$AAe?$AA?$AA@|
  00098		 |$LN8@CeCreatePr|
  00098	00000000	 DCD         |??_C@_11LOCGONAA@?$AA?$AA@|
  0009c		 |$LN9@CeCreatePr|
  0009c	00000000	 DCD         |??_C@_1CE@PDGLBPEI@?$AAC?$AAe?$AAC?$AAr?$AAe?$AAa?$AAt?$AAe?$AAP?$AAr?$AAo?$AAc?$AAe?$AAs?$AAs?$AAE?$AAx?$AA?$AA@|
  000a0		 |$LN10@CeCreatePr|
  000a0	00000000	 DCD         |??_C@_1BA@HMFMEPIE@?$AAc?$AAo?$AAr?$AAe?$AAd?$AAl?$AAl?$AA?$AA@|
  000a4		 |$M78329|

			 ENDP  ; |?CeCreateProcessEx@CMangoClass@@UAAJXZ|, CMangoClass::CeCreateProcessEx

	EXPORT	|?Init@CComCriticalSection@ATL@@QAAJXZ|	; ATL::CComCriticalSection::Init
	IMPORT	|InitializeCriticalSection|
	IMPORT	|__C_specific_handler|
; File c:\program files (x86)\microsoft visual studio 9.0\vc\ce\atlmfc\include\atlcore.h

  00000			 AREA	 |.pdata|, PDATA
|$T78364| DCD	|$LN19@Init|
	DCD	0xc0000f04

  00000			 AREA	 |.pdata|, PDATA
|$T78366| DCD	|$LN7@Init|
	DCD	0x40000701

  00000			 AREA	 |.xdata|, DATA
|$T78362| DCD	0x1
	DCD	|$LN11@Init|
	DCD	|$LN12@Init|
	DCD	|$LN7@Init|
	DCD	|$LN8@Init|
; Function compile flags: /Ogspy

  00000			 AREA	 |.text|, CODE, ARM

  00000	00000000	 DCD         |__C_specific_handler|
  00004	00000000	 DCD         |$T78362|

  00008		 |?Init@CComCriticalSection@ATL@@QAAJXZ| PROC ; ATL::CComCriticalSection::Init
; Line 177
  00008		 |$LN19@Init|
  00008	e1a0c00d	 mov         r12, sp
  0000c	e92d5800	 stmdb       sp!, {r11, r12, lr}
  00010	e28db00c	 add         r11, sp, #0xC
  00014	e24dd008	 sub         sp, sp, #8
  00018		 |$LN17@Init|
  00018		 |$LN11@Init|
; Line 181
  00018	eb000000	 bl          InitializeCriticalSection
; Line 182
  0001c	e3a00000	 mov         r0, #0
  00020	e50b0014	 str         r0, [r11, #-0x14]
  00024		 |$LN12@Init|
; Line 183
  00024	ea000004	 b           |$LN2@Init|
  00028		 |$LN8@Init|
; Line 185
  00028	e3a0313a	 mov         r3, #0x3A, 2
; Line 187
  0002c	e3830807	 orr         r0, r3, #7, 16	; 458752 (0x70000)
  00030	e50b0014	 str         r0, [r11, #-0x14]
  00034	ea000000	 b           |$LN2@Init|
  00038		 |$LN16@Init|
; Line 189
  00038	e51b0010	 ldr         r0, [r11, #-0x10]
  0003c		 |$LN2@Init|
; Line 190
  0003c	e24bd00c	 sub         sp, r11, #0xC
  00040	e89da800	 ldmia       sp, {r11, sp, pc}

			 ENDP  ; |?Init@CComCriticalSection@ATL@@QAAJXZ|, ATL::CComCriticalSection::Init

  00044		 |$LN7@Init|
  00044		 |$LN18@Init|
; Line 185
  00044	e52de004	 str         lr, [sp, #-4]!
  00048		 |$LN10@Init|
  00048		 |$LN21@Init|
  00048	e5903000	 ldr         r3, [r0]
  0004c	e5933000	 ldr         r3, [r3]
  00050	e353015f	 cmp         r3, #0x5F, 2	; -1073741801 (0xc0000017)
  00054	03a00001	 moveq       r0, #1
  00058	13a00000	 movne       r0, #0
  0005c		 |$LN9@Init|
  0005c	e49df004	 ldr         pc, [sp], #4
  00060		 |$LN22@Init|
  00060		 |$LN20@Init|
	EXPORT	|?Term@CComCriticalSection@ATL@@QAAJXZ|	; ATL::CComCriticalSection::Term
	IMPORT	|DeleteCriticalSection|

  00000			 AREA	 |.pdata|, PDATA
|$T78380| DCD	|$LN5@Term|
	DCD	0x40000401
; Function compile flags: /Ogspy

  00000			 AREA	 |.text|, CODE, ARM

  00000		 |?Term@CComCriticalSection@ATL@@QAAJXZ| PROC ; ATL::CComCriticalSection::Term
; Line 193
  00000		 |$LN5@Term|
  00000	e52de004	 str         lr, [sp, #-4]!
  00004		 |$M78377|
; Line 194
  00004	eb000000	 bl          DeleteCriticalSection
; Line 195
  00008	e3a00000	 mov         r0, #0
; Line 196
  0000c	e49df004	 ldr         pc, [sp], #4
  00010		 |$M78378|

			 ENDP  ; |?Term@CComCriticalSection@ATL@@QAAJXZ|, ATL::CComCriticalSection::Term

	EXPORT	|?GetLastError7@CMangoClass@@UAAJXZ|	; CMangoClass::GetLastError7
; File c:\users\steven\desktop\csharp - dllimport\csharp - dllimport\vs2008\dllimportmango\mangoclass.cpp

  00000			 AREA	 |.pdata|, PDATA
|$T78389| DCD	|$LN5@GetLastErr|
	DCD	0x40000100
; Function compile flags: /Ogspy

  00000			 AREA	 |.text|, CODE, ARM

  00000		 |?GetLastError7@CMangoClass@@UAAJXZ| PROC ; CMangoClass::GetLastError7
; Line 1125
  00000		 |$LN5@GetLastErr|
  00000		 |$M78386|
; Line 1126
  00000	ea000000	 b           GetLastError
  00004		 |$M78387|

			 ENDP  ; |?GetLastError7@CMangoClass@@UAAJXZ|, CMangoClass::GetLastError7

	EXPORT	|?Tests@CMangoClass@@UAAJXZ|		; CMangoClass::Tests
	EXPORT	|??_C@_1O@BKFFMLHP@?$AAa?$AAg?$AAc?$AAo?$AAr?$AAe?$AA?$AA@| [ DATA ] ; `string'
	EXPORT	|??_C@_1CE@EMLPIGD@?$AAN?$AAa?$AAv?$AAi?$AAg?$AAa?$AAt?$AAe?$AAT?$AAo?$AAS?$AAa?$AAf?$AAe?$AAU?$AAR?$AAI?$AA?$AA@| [ DATA ] ; `string'
	EXPORT	|??_C@_1O@GCCIDMNA@?$AA_?$AAs?$AAe?$AAl?$AAf?$AA?$AA?$AA?$AA@| [ DATA ] ; `string'
	EXPORT	|??_C@_1CG@DOEFHIAG@?$AAh?$AAt?$AAt?$AAp?$AA?3?$AA?1?$AA?1?$AAg?$AAo?$AAo?$AAg?$AAl?$AAe?$AA?4?$AAc?$AAo?$AAm?$AA?$AA?$AA?$AA@| [ DATA ] ; `string'

  00000			 AREA	 |.pdata|, PDATA
|$T78400| DCD	|$LN5@Tests|
	DCD	0x40001101

  00000			 AREA	 |.rdata|, DATA, READONLY
|??_C@_1O@BKFFMLHP@?$AAa?$AAg?$AAc?$AAo?$AAr?$AAe?$AA?$AA@| DCB "a", 0x0, "g"
	DCB	0x0, "c", 0x0, "o", 0x0, "r", 0x0, "e", 0x0, 0x0, 0x0 ; `string'

  00000			 AREA	 |.rdata|, DATA, READONLY
|??_C@_1CE@EMLPIGD@?$AAN?$AAa?$AAv?$AAi?$AAg?$AAa?$AAt?$AAe?$AAT?$AAo?$AAS?$AAa?$AAf?$AAe?$AAU?$AAR?$AAI?$AA?$AA@| DCB "N"
	DCB	0x0, "a", 0x0, "v", 0x0, "i", 0x0, "g", 0x0, "a", 0x0, "t"
	DCB	0x0, "e", 0x0, "T", 0x0, "o", 0x0, "S", 0x0, "a", 0x0, "f"
	DCB	0x0, "e", 0x0, "U", 0x0, "R", 0x0, "I", 0x0, 0x0, 0x0 ; `string'

  00000			 AREA	 |.rdata|, DATA, READONLY
|??_C@_1O@GCCIDMNA@?$AA_?$AAs?$AAe?$AAl?$AAf?$AA?$AA?$AA?$AA@| DCB "_", 0x0
	DCB	"s", 0x0, "e", 0x0, "l", 0x0, "f", 0x0, 0x0, 0x0, 0x0, 0x0 ; `string'

  00000			 AREA	 |.rdata|, DATA, READONLY
|??_C@_1CG@DOEFHIAG@?$AAh?$AAt?$AAt?$AAp?$AA?3?$AA?1?$AA?1?$AAg?$AAo?$AAo?$AAg?$AAl?$AAe?$AA?4?$AAc?$AAo?$AAm?$AA?$AA?$AA?$AA@| DCB "h"
	DCB	0x0, "t", 0x0, "t", 0x0, "p", 0x0, ":", 0x0, "/", 0x0, "/"
	DCB	0x0, "g", 0x0, "o", 0x0, "o", 0x0, "g", 0x0, "l", 0x0, "e"
	DCB	0x0, ".", 0x0, "c", 0x0, "o", 0x0, "m", 0x0, 0x0, 0x0, 0x0
	DCB	0x0					; `string'
; Function compile flags: /Ogspy

  00000			 AREA	 |.text|, CODE, ARM

  00000		 |?Tests@CMangoClass@@UAAJXZ| PROC	; CMangoClass::Tests
; Line 1142
  00000		 |$LN5@Tests|
  00000	e92d4010	 stmdb       sp!, {r4, lr}
  00004		 |$M78397|
; Line 1143
  00004	e59f0034	 ldr         r0, [pc, #0x34]
  00008	eb000000	 bl          LoadLibraryW
; Line 1145
  0000c	e59f1028	 ldr         r1, [pc, #0x28]
  00010	eb000000	 bl          GetProcAddressW
; Line 1149
  00014	e59f201c	 ldr         r2, [pc, #0x1C]
  00018	e59f1014	 ldr         r1, [pc, #0x14]
  0001c	e1a04000	 mov         r4, r0
  00020	e3a00001	 mov         r0, #1
  00024	e3a03001	 mov         r3, #1
  00028	e1a0e00f	 mov         lr, pc
  0002c	e1a0f004	 mov         pc, r4
; Line 1150
  00030	e8bd8010	 ldmia       sp!, {r4, pc}
  00034		 |$LN6@Tests|
  00034		 |$LN7@Tests|
  00034	00000000	 DCD         |??_C@_1CG@DOEFHIAG@?$AAh?$AAt?$AAt?$AAp?$AA?3?$AA?1?$AA?1?$AAg?$AAo?$AAo?$AAg?$AAl?$AAe?$AA?4?$AAc?$AAo?$AAm?$AA?$AA?$AA?$AA@|
  00038		 |$LN8@Tests|
  00038	00000000	 DCD         |??_C@_1O@GCCIDMNA@?$AA_?$AAs?$AAe?$AAl?$AAf?$AA?$AA?$AA?$AA@|
  0003c		 |$LN9@Tests|
  0003c	00000000	 DCD         |??_C@_1CE@EMLPIGD@?$AAN?$AAa?$AAv?$AAi?$AAg?$AAa?$AAt?$AAe?$AAT?$AAo?$AAS?$AAa?$AAf?$AAe?$AAU?$AAR?$AAI?$AA?$AA@|
  00040		 |$LN10@Tests|
  00040	00000000	 DCD         |??_C@_1O@BKFFMLHP@?$AAa?$AAg?$AAc?$AAo?$AAr?$AAe?$AA?$AA@|
  00044		 |$M78398|

			 ENDP  ; |?Tests@CMangoClass@@UAAJXZ|, CMangoClass::Tests

	EXPORT	|?CreateDirectoryPath7@CMangoClass@@UAAJPB_W@Z| ; CMangoClass::CreateDirectoryPath7
	EXPORT	|??_C@_1BG@DNLCLHHC@?$AAs?$AAh?$AAc?$AAo?$AAr?$AAe?$AA?4?$AAd?$AAl?$AAl?$AA?$AA@| [ DATA ] ; `string'
	EXPORT	|??_C@_1CI@CHHCBENG@?$AAC?$AAr?$AAe?$AAa?$AAt?$AAe?$AAD?$AAi?$AAr?$AAe?$AAc?$AAt?$AAo?$AAr?$AAy?$AAP?$AAa?$AAt?$AAh?$AA?$AA@| [ DATA ] ; `string'

  00000			 AREA	 |.pdata|, PDATA
|$T78417| DCD	|$LN5@CreateDire|
	DCD	0x40001002

  00000			 AREA	 |.rdata|, DATA, READONLY
|??_C@_1BG@DNLCLHHC@?$AAs?$AAh?$AAc?$AAo?$AAr?$AAe?$AA?4?$AAd?$AAl?$AAl?$AA?$AA@| DCB "s"
	DCB	0x0, "h", 0x0, "c", 0x0, "o", 0x0, "r", 0x0, "e", 0x0, "."
	DCB	0x0, "d", 0x0, "l", 0x0, "l", 0x0, 0x0, 0x0 ; `string'

  00000			 AREA	 |.rdata|, DATA, READONLY
|??_C@_1CI@CHHCBENG@?$AAC?$AAr?$AAe?$AAa?$AAt?$AAe?$AAD?$AAi?$AAr?$AAe?$AAc?$AAt?$AAo?$AAr?$AAy?$AAP?$AAa?$AAt?$AAh?$AA?$AA@| DCB "C"
	DCB	0x0, "r", 0x0, "e", 0x0, "a", 0x0, "t", 0x0, "e", 0x0, "D"
	DCB	0x0, "i", 0x0, "r", 0x0, "e", 0x0, "c", 0x0, "t", 0x0, "o"
	DCB	0x0, "r", 0x0, "y", 0x0, "P", 0x0, "a", 0x0, "t", 0x0, "h"
	DCB	0x0, 0x0, 0x0				; `string'
; Function compile flags: /Ogspy

  00000			 AREA	 |.text|, CODE, ARM

  00000		 |?CreateDirectoryPath7@CMangoClass@@UAAJPB_W@Z| PROC ; CMangoClass::CreateDirectoryPath7
; Line 1158
  00000		 |$LN5@CreateDire|
  00000	e92d4010	 stmdb       sp!, {r4, lr}
  00004	e24dd004	 sub         sp, sp, #4
  00008		 |$M78414|
  00008	e1a04001	 mov         r4, r1
; Line 1159
  0000c	e59f0028	 ldr         r0, [pc, #0x28]
  00010	eb000000	 bl          LoadLibraryW
; Line 1161
  00014	e59f101c	 ldr         r1, [pc, #0x1C]
  00018	eb000000	 bl          GetProcAddressW
; Line 1165
  0001c	e59d1000	 ldr         r1, [sp]
  00020	e1a03000	 mov         r3, r0
  00024	e1a00004	 mov         r0, r4
  00028	e1a0e00f	 mov         lr, pc
  0002c	e1a0f003	 mov         pc, r3
; Line 1167
  00030	e28dd004	 add         sp, sp, #4
  00034	e8bd8010	 ldmia       sp!, {r4, pc}
  00038		 |$LN6@CreateDire|
  00038		 |$LN7@CreateDire|
  00038	00000000	 DCD         |??_C@_1CI@CHHCBENG@?$AAC?$AAr?$AAe?$AAa?$AAt?$AAe?$AAD?$AAi?$AAr?$AAe?$AAc?$AAt?$AAo?$AAr?$AAy?$AAP?$AAa?$AAt?$AAh?$AA?$AA@|
  0003c		 |$LN8@CreateDire|
  0003c	00000000	 DCD         |??_C@_1BG@DNLCLHHC@?$AAs?$AAh?$AAc?$AAo?$AAr?$AAe?$AA?4?$AAd?$AAl?$AAl?$AA?$AA@|
  00040		 |$M78415|

			 ENDP  ; |?CreateDirectoryPath7@CMangoClass@@UAAJPB_W@Z|, CMangoClass::CreateDirectoryPath7

	EXPORT	|??0CComSafeDeleteCriticalSection@ATL@@QAA@XZ| ; ATL::CComSafeDeleteCriticalSection::CComSafeDeleteCriticalSection
; File c:\program files (x86)\microsoft visual studio 9.0\vc\ce\atlmfc\include\atlcore.h

  00000			 AREA	 |.pdata|, PDATA
|$T78433| DCD	|$LN7@CComSafeDe|
	DCD	0x40000901
; Function compile flags: /Ogspy

  00000			 AREA	 |.text|, CODE, ARM

  00000		 |??0CComSafeDeleteCriticalSection@ATL@@QAA@XZ| PROC ; ATL::CComSafeDeleteCriticalSection::CComSafeDeleteCriticalSection
; Line 222
  00000		 |$LN7@CComSafeDe|
  00000	e92d4010	 stmdb       sp!, {r4, lr}
  00004		 |$M78430|
  00004	e1a04000	 mov         r4, r0
  00008	e3a02014	 mov         r2, #0x14
  0000c	e3a01000	 mov         r1, #0
  00010	eb000000	 bl          memset
  00014	e3a03000	 mov         r3, #0
  00018	e5c43014	 strb        r3, [r4, #0x14]
; Line 223
  0001c	e1a00004	 mov         r0, r4
  00020	e8bd8010	 ldmia       sp!, {r4, pc}
  00024		 |$M78431|

			 ENDP  ; |??0CComSafeDeleteCriticalSection@ATL@@QAA@XZ|, ATL::CComSafeDeleteCriticalSection::CComSafeDeleteCriticalSection

	EXPORT	|?NdisGetSystemUpTimeEx7@CMangoClass@@UAAJH@Z| ; CMangoClass::NdisGetSystemUpTimeEx7
	EXPORT	|??_C@_19NBILFMOL@?$AAn?$AAd?$AAi?$AAs?$AA?$AA@| [ DATA ] ; `string'
	EXPORT	|??_C@_1CI@KBGPDODJ@?$AAN?$AAd?$AAi?$AAs?$AAG?$AAe?$AAt?$AAS?$AAy?$AAs?$AAt?$AAe?$AAm?$AAU?$AAp?$AAT?$AAi?$AAm?$AAe?$AA?$AA@| [ DATA ] ; `string'
; File c:\users\steven\desktop\csharp - dllimport\csharp - dllimport\vs2008\dllimportmango\mangoclass.cpp

  00000			 AREA	 |.pdata|, PDATA
|$T78445| DCD	|$LN7@NdisGetSys|
	DCD	0x40001302

  00000			 AREA	 |.rdata|, DATA, READONLY
|??_C@_19NBILFMOL@?$AAn?$AAd?$AAi?$AAs?$AA?$AA@| DCB "n", 0x0, "d", 0x0, "i"
	DCB	0x0, "s", 0x0, 0x0, 0x0			; `string'

  00000			 AREA	 |.rdata|, DATA, READONLY
|??_C@_1CI@KBGPDODJ@?$AAN?$AAd?$AAi?$AAs?$AAG?$AAe?$AAt?$AAS?$AAy?$AAs?$AAt?$AAe?$AAm?$AAU?$AAp?$AAT?$AAi?$AAm?$AAe?$AA?$AA@| DCB "N"
	DCB	0x0, "d", 0x0, "i", 0x0, "s", 0x0, "G", 0x0, "e", 0x0, "t"
	DCB	0x0, "S", 0x0, "y", 0x0, "s", 0x0, "t", 0x0, "e", 0x0, "m"
	DCB	0x0, "U", 0x0, "p", 0x0, "T", 0x0, "i", 0x0, "m", 0x0, "e"
	DCB	0x0, 0x0, 0x0				; `string'
; Function compile flags: /Ogspy

  00000			 AREA	 |.text|, CODE, ARM

  00000		 |?NdisGetSystemUpTimeEx7@CMangoClass@@UAAJH@Z| PROC ; CMangoClass::NdisGetSystemUpTimeEx7
; Line 1174
  00000		 |$LN7@NdisGetSys|
  00000	e92d4010	 stmdb       sp!, {r4, lr}
  00004	e24dd008	 sub         sp, sp, #8
  00008		 |$M78442|
  00008	e1a04001	 mov         r4, r1
; Line 1178
  0000c	e59f0034	 ldr         r0, [pc, #0x34]
  00010	eb000000	 bl          LoadLibraryW
; Line 1180
  00014	e59f1028	 ldr         r1, [pc, #0x28]
  00018	eb000000	 bl          GetProcAddressW
  0001c	e1a03000	 mov         r3, r0
; Line 1183
  00020	e28d0000	 add         r0, sp, #0
  00024	e1a0e00f	 mov         lr, pc
  00028	e1a0f003	 mov         pc, r3
; Line 1185
  0002c	e3540000	 cmp         r4, #0
; Line 1187
  00030	059d0004	 ldreq       r0, [sp, #4]
; Line 1193
  00034	028dd008	 addeq       sp, sp, #8
; Line 1191
  00038	159d0000	 ldrne       r0, [sp]
; Line 1193
  0003c	128dd008	 addne       sp, sp, #8
  00040	e8bd8010	 ldmia       sp!, {r4, pc}
  00044		 |$LN8@NdisGetSys|
  00044		 |$LN9@NdisGetSys|
  00044	00000000	 DCD         |??_C@_1CI@KBGPDODJ@?$AAN?$AAd?$AAi?$AAs?$AAG?$AAe?$AAt?$AAS?$AAy?$AAs?$AAt?$AAe?$AAm?$AAU?$AAp?$AAT?$AAi?$AAm?$AAe?$AA?$AA@|
  00048		 |$LN10@NdisGetSys|
  00048	00000000	 DCD         |??_C@_19NBILFMOL@?$AAn?$AAd?$AAi?$AAs?$AA?$AA@|
  0004c		 |$M78443|

			 ENDP  ; |?NdisGetSystemUpTimeEx7@CMangoClass@@UAAJH@Z|, CMangoClass::NdisGetSystemUpTimeEx7

	EXPORT	|??1CComSafeDeleteCriticalSection@ATL@@QAA@XZ| ; ATL::CComSafeDeleteCriticalSection::~CComSafeDeleteCriticalSection
; File c:\program files (x86)\microsoft visual studio 9.0\vc\ce\atlmfc\include\atlcore.h

  00000			 AREA	 |.pdata|, PDATA
|$T78462| DCD	|$LN10@CComSafeDe@2|
	DCD	0x40000701
; Function compile flags: /Ogspy

  00000			 AREA	 |.text|, CODE, ARM

  00000		 |??1CComSafeDeleteCriticalSection@ATL@@QAA@XZ| PROC ; ATL::CComSafeDeleteCriticalSection::~CComSafeDeleteCriticalSection
; Line 226
  00000		 |$LN10@CComSafeDe@2|
  00000	e52de004	 str         lr, [sp, #-4]!
  00004		 |$M78459|
; Line 227
  00004	e5d03014	 ldrb        r3, [r0, #0x14]
  00008	e3530000	 cmp         r3, #0
; Line 231
  0000c	13a03000	 movne       r3, #0
  00010	15c03014	 strneb      r3, [r0, #0x14]
; Line 232
  00014	1b000000	 blne        DeleteCriticalSection
; Line 233
  00018	e49df004	 ldr         pc, [sp], #4
  0001c		 |$M78460|

			 ENDP  ; |??1CComSafeDeleteCriticalSection@ATL@@QAA@XZ|, ATL::CComSafeDeleteCriticalSection::~CComSafeDeleteCriticalSection

	EXPORT	|?Init@CComSafeDeleteCriticalSection@ATL@@QAAJXZ| ; ATL::CComSafeDeleteCriticalSection::Init

  00000			 AREA	 |.pdata|, PDATA
|$T78473| DCD	|$LN6@Init@2|
	DCD	0x40000701
; Function compile flags: /Ogspy

  00000			 AREA	 |.text|, CODE, ARM

  00000		 |?Init@CComSafeDeleteCriticalSection@ATL@@QAAJXZ| PROC ; ATL::CComSafeDeleteCriticalSection::Init
; Line 236
  00000		 |$LN6@Init@2|
  00000	e92d4010	 stmdb       sp!, {r4, lr}
  00004		 |$M78470|
  00004	e1a04000	 mov         r4, r0
; Line 238
  00008	eb000000	 bl          |?Init@CComCriticalSection@ATL@@QAAJXZ|
  0000c	e3500000	 cmp         r0, #0
; Line 241
  00010	53a03001	 movpl       r3, #1
  00014	55c43014	 strplb      r3, [r4, #0x14]
; Line 244
  00018	e8bd8010	 ldmia       sp!, {r4, pc}
  0001c		 |$M78471|

			 ENDP  ; |?Init@CComSafeDeleteCriticalSection@ATL@@QAAJXZ|, ATL::CComSafeDeleteCriticalSection::Init

	EXPORT	|?handleToFILE@@YAPAXH@Z|		; handleToFILE
; File c:\users\steven\desktop\csharp - dllimport\csharp - dllimport\vs2008\dllimportmango\mangoclass.cpp

  00000			 AREA	 |.pdata|, PDATA
|$T78483| DCD	|$LN5@handleToFI|
	DCD	0x40000100
; Function compile flags: /Ogspy

  00000			 AREA	 |.text|, CODE, ARM

  00000		 |?handleToFILE@@YAPAXH@Z| PROC		; handleToFILE
; Line 1198
  00000		 |$LN5@handleToFI|
  00000		 |$M78480|
; Line 1203
  00000	e1a0f00e	 mov         pc, lr
  00004		 |$M78481|

			 ENDP  ; |?handleToFILE@@YAPAXH@Z|, handleToFILE

	EXPORT	|?FILEToHandle@@YAHPAX@Z|		; FILEToHandle

  00000			 AREA	 |.pdata|, PDATA
|$T78493| DCD	|$LN5@FILEToHand|
	DCD	0x40000100
; Function compile flags: /Ogspy

  00000			 AREA	 |.text|, CODE, ARM

  00000		 |?FILEToHandle@@YAHPAX@Z| PROC		; FILEToHandle
; Line 1206
  00000		 |$LN5@FILEToHand|
  00000		 |$M78490|
; Line 1211
  00000	e1a0f00e	 mov         pc, lr
  00004		 |$M78491|

			 ENDP  ; |?FILEToHandle@@YAHPAX@Z|, FILEToHandle

	EXPORT	|?handleToVOID@@YAPAXH@Z|		; handleToVOID

  00000			 AREA	 |.pdata|, PDATA
|$T78503| DCD	|$LN5@handleToVO|
	DCD	0x40000100
; Function compile flags: /Ogspy

  00000			 AREA	 |.text|, CODE, ARM

  00000		 |?handleToVOID@@YAPAXH@Z| PROC		; handleToVOID
; Line 1214
  00000		 |$LN5@handleToVO|
  00000		 |$M78500|
; Line 1219
  00000	e1a0f00e	 mov         pc, lr
  00004		 |$M78501|

			 ENDP  ; |?handleToVOID@@YAPAXH@Z|, handleToVOID

	EXPORT	|?Lock@CComSafeDeleteCriticalSection@ATL@@QAAJXZ| ; ATL::CComSafeDeleteCriticalSection::Lock
; File c:\program files (x86)\microsoft visual studio 9.0\vc\ce\atlmfc\include\atlcore.h

  00000			 AREA	 |.pdata|, PDATA
|$T78516| DCD	|$LN10@Lock@2|
	DCD	0x40000401
; Function compile flags: /Ogspy

  00000			 AREA	 |.text|, CODE, ARM

  00000		 |?Lock@CComSafeDeleteCriticalSection@ATL@@QAAJXZ| PROC ; ATL::CComSafeDeleteCriticalSection::Lock
; Line 257
  00000		 |$LN10@Lock@2|
  00000	e52de004	 str         lr, [sp, #-4]!
  00004		 |$M78513|
; Line 264
  00004	eb000000	 bl          EnterCriticalSection
  00008	e3a00000	 mov         r0, #0
; Line 265
  0000c	e49df004	 ldr         pc, [sp], #4
  00010		 |$M78514|

			 ENDP  ; |?Lock@CComSafeDeleteCriticalSection@ATL@@QAAJXZ|, ATL::CComSafeDeleteCriticalSection::Lock

	EXPORT	|?VOIDToHandle@@YAHPAX@Z|		; VOIDToHandle
; File c:\users\steven\desktop\csharp - dllimport\csharp - dllimport\vs2008\dllimportmango\mangoclass.cpp

  00000			 AREA	 |.pdata|, PDATA
|$T78526| DCD	|$LN5@VOIDToHand|
	DCD	0x40000100
; Function compile flags: /Ogspy

  00000			 AREA	 |.text|, CODE, ARM

  00000		 |?VOIDToHandle@@YAHPAX@Z| PROC		; VOIDToHandle
; Line 1223
  00000		 |$LN5@VOIDToHand|
  00000		 |$M78523|
; Line 1228
  00000	e1a0f00e	 mov         pc, lr
  00004		 |$M78524|

			 ENDP  ; |?VOIDToHandle@@YAHPAX@Z|, VOIDToHandle

	EXPORT	|?fopen7@CMangoClass@@UAAJPA_W0@Z|	; CMangoClass::fopen7
	IMPORT	|fopen|

  00000			 AREA	 |.pdata|, PDATA
|$T78544| DCD	|$LN7@fopen7|
	DCD	0x40000b01
; Function compile flags: /Ogspy

  00000			 AREA	 |.text|, CODE, ARM

  00000		 |?fopen7@CMangoClass@@UAAJPA_W0@Z| PROC ; CMangoClass::fopen7
; Line 1232
  00000		 |$LN7@fopen7|
  00000	e92d4030	 stmdb       sp!, {r4, r5, lr}
  00004		 |$M78541|
  00004	e1a05002	 mov         r5, r2
; Line 1233
  00008	e1a00001	 mov         r0, r1
  0000c	eb000000	 bl          |?ConvertBSTRToLPSTR@@YAPADPA_W@Z|
  00010	e1a04000	 mov         r4, r0
; Line 1234
  00014	e1a00005	 mov         r0, r5
  00018	eb000000	 bl          |?ConvertBSTRToLPSTR@@YAPADPA_W@Z|
  0001c	e1a01000	 mov         r1, r0
; Line 1237
  00020	e1a00004	 mov         r0, r4
  00024	e8bd4030	 ldmia       sp!, {r4, r5, lr}
  00028	ea000000	 b           fopen
  0002c		 |$M78542|

			 ENDP  ; |?fopen7@CMangoClass@@UAAJPA_W0@Z|, CMangoClass::fopen7

	EXPORT	|?Init@CComFakeCriticalSection@ATL@@QAAJXZ| ; ATL::CComFakeCriticalSection::Init
; File c:\program files (x86)\microsoft visual studio 9.0\vc\ce\atlmfc\include\atlcore.h

  00000			 AREA	 |.pdata|, PDATA
|$T78553| DCD	|$LN5@Init@3|
	DCD	0x40000200
; Function compile flags: /Ogspy

  00000			 AREA	 |.text|, CODE, ARM

  00000		 |?Init@CComFakeCriticalSection@ATL@@QAAJXZ| PROC ; ATL::CComFakeCriticalSection::Init
; Line 283
  00000		 |$LN5@Init@3|
  00000		 |$M78550|
  00000	e3a00000	 mov         r0, #0
  00004	e1a0f00e	 mov         pc, lr
  00008		 |$M78551|

			 ENDP  ; |?Init@CComFakeCriticalSection@ATL@@QAAJXZ|, ATL::CComFakeCriticalSection::Init

	EXPORT	|?fclose7@CMangoClass@@UAAJH@Z|		; CMangoClass::fclose7
	IMPORT	|fclose|
; File c:\users\steven\desktop\csharp - dllimport\csharp - dllimport\vs2008\dllimportmango\mangoclass.cpp

  00000			 AREA	 |.pdata|, PDATA
|$T78568| DCD	|$LN7@fclose7|
	DCD	0x40000200
; Function compile flags: /Ogspy

  00000			 AREA	 |.text|, CODE, ARM

  00000		 |?fclose7@CMangoClass@@UAAJH@Z| PROC	; CMangoClass::fclose7
; Line 1243
  00000		 |$LN7@fclose7|
  00000		 |$M78565|
; Line 1244
  00000	e1a00001	 mov         r0, r1
  00004	ea000000	 b           fclose
  00008		 |$M78566|

			 ENDP  ; |?fclose7@CMangoClass@@UAAJH@Z|, CMangoClass::fclose7

	EXPORT	|?fseek7@CMangoClass@@UAAJHJH@Z|	; CMangoClass::fseek7
	IMPORT	|fseek|

  00000			 AREA	 |.pdata|, PDATA
|$T78585| DCD	|$LN7@fseek7|
	DCD	0x40000801
; Function compile flags: /Ogspy

  00000			 AREA	 |.text|, CODE, ARM

  00000		 |?fseek7@CMangoClass@@UAAJHJH@Z| PROC	; CMangoClass::fseek7
; Line 1249
  00000		 |$LN7@fseek7|
  00000	e52de004	 str         lr, [sp, #-4]!
  00004		 |$M78582|
  00004	e1a00002	 mov         r0, r2
  00008	e1a0e001	 mov         lr, r1
; Line 1250
  0000c	e1a01000	 mov         r1, r0
  00010	e1a0000e	 mov         r0, lr
  00014	e1a02003	 mov         r2, r3
  00018	e49de004	 ldr         lr, [sp], #4
  0001c	ea000000	 b           fseek
  00020		 |$M78583|

			 ENDP  ; |?fseek7@CMangoClass@@UAAJHJH@Z|, CMangoClass::fseek7

	EXPORT	|?GetModuleInstance@CAtlBaseModule@ATL@@QAAPAUHINSTANCE__@@XZ| ; ATL::CAtlBaseModule::GetModuleInstance
; File c:\program files (x86)\microsoft visual studio 9.0\vc\ce\atlmfc\include\atlcore.h

  00000			 AREA	 |.pdata|, PDATA
|$T78595| DCD	|$LN5@GetModuleI|
	DCD	0x40000200
; Function compile flags: /Ogspy

  00000			 AREA	 |.text|, CODE, ARM

  00000		 |?GetModuleInstance@CAtlBaseModule@ATL@@QAAPAUHINSTANCE__@@XZ| PROC ; ATL::CAtlBaseModule::GetModuleInstance
; Line 311
  00000		 |$LN5@GetModuleI|
  00000		 |$M78592|
; Line 312
  00000	e5900004	 ldr         r0, [r0, #4]
; Line 313
  00004	e1a0f00e	 mov         pc, lr
  00008		 |$M78593|

			 ENDP  ; |?GetModuleInstance@CAtlBaseModule@ATL@@QAAPAUHINSTANCE__@@XZ|, ATL::CAtlBaseModule::GetModuleInstance

	EXPORT	|?fgetc7@CMangoClass@@UAAJH@Z|		; CMangoClass::fgetc7
	IMPORT	|fgetc|
; File c:\users\steven\desktop\csharp - dllimport\csharp - dllimport\vs2008\dllimportmango\mangoclass.cpp

  00000			 AREA	 |.pdata|, PDATA
|$T78610| DCD	|$LN7@fgetc7|
	DCD	0x40000200
; Function compile flags: /Ogspy

  00000			 AREA	 |.text|, CODE, ARM

  00000		 |?fgetc7@CMangoClass@@UAAJH@Z| PROC	; CMangoClass::fgetc7
; Line 1254
  00000		 |$LN7@fgetc7|
  00000		 |$M78607|
; Line 1255
  00000	e1a00001	 mov         r0, r1
  00004	ea000000	 b           fgetc
  00008		 |$M78608|

			 ENDP  ; |?fgetc7@CMangoClass@@UAAJH@Z|, CMangoClass::fgetc7

	EXPORT	|?fsize7@CMangoClass@@UAAJH@Z|		; CMangoClass::fsize7
	IMPORT	|GetFileSize|

  00000			 AREA	 |.pdata|, PDATA
|$T78625| DCD	|$LN8@fsize7|
	DCD	0x40000b02
; Function compile flags: /Ogspy

  00000			 AREA	 |.text|, CODE, ARM

  00000		 |?fsize7@CMangoClass@@UAAJH@Z| PROC	; CMangoClass::fsize7
; Line 1260
  00000		 |$LN8@fsize7|
  00000	e52de004	 str         lr, [sp, #-4]!
  00004	e24dd004	 sub         sp, sp, #4
  00008		 |$M78622|
  00008	e1a00001	 mov         r0, r1
; Line 1262
  0000c	e28d1000	 add         r1, sp, #0
  00010	eb000000	 bl          GetFileSize
  00014	e3500000	 cmp         r0, #0
; Line 1264
  00018	03e00000	 mvneq       r0, #0
; Line 1268
  0001c	028dd004	 addeq       sp, sp, #4
; Line 1267
  00020	159d0000	 ldrne       r0, [sp]
; Line 1268
  00024	128dd004	 addne       sp, sp, #4
  00028	e49df004	 ldr         pc, [sp], #4
  0002c		 |$M78623|

			 ENDP  ; |?fsize7@CMangoClass@@UAAJH@Z|, CMangoClass::fsize7

	EXPORT	|?fputc7@CMangoClass@@UAAJHD@Z|		; CMangoClass::fputc7
	IMPORT	|fputc|

  00000			 AREA	 |.pdata|, PDATA
|$T78641| DCD	|$LN7@fputc7|
	DCD	0x40000200
; Function compile flags: /Ogspy

  00000			 AREA	 |.text|, CODE, ARM

  00000		 |?fputc7@CMangoClass@@UAAJHD@Z| PROC	; CMangoClass::fputc7
; Line 1271
  00000		 |$LN7@fputc7|
  00000		 |$M78638|
; Line 1272
  00000	e1a00002	 mov         r0, r2
  00004	ea000000	 b           fputc
  00008		 |$M78639|

			 ENDP  ; |?fputc7@CMangoClass@@UAAJHD@Z|, CMangoClass::fputc7

	EXPORT	|?_AtlGetStringResourceImage@ATL@@YAPBUATLSTRINGRESOURCEIMAGE@1@PAUHINSTANCE__@@PAUHRSRC__@@I@Z| ; ATL::_AtlGetStringResourceImage
	IMPORT	|SizeofResource|
	IMPORT	|LoadResource|
; File c:\program files (x86)\windows mobile 6 sdk\pocketpc\include\armv4i\kfuncs.h

  00000			 AREA	 |.pdata|, PDATA
|$T78664| DCD	|$LN17@AtlGetStri|
	DCD	0x40001c01
; Function compile flags: /Ogspy

  00000			 AREA	 |.text|, CODE, ARM

  00000		 |?_AtlGetStringResourceImage@ATL@@YAPBUATLSTRINGRESOURCEIMAGE@1@PAUHINSTANCE__@@PAUHRSRC__@@I@Z| PROC ; ATL::_AtlGetStringResourceImage
; File c:\program files (x86)\microsoft visual studio 9.0\vc\ce\atlmfc\include\atlcore.h
; Line 344
  00000		 |$LN17@AtlGetStri|
  00000	e92d40f0	 stmdb       sp!, {r4 - r7, lr}
  00004		 |$M78661|
  00004	e1a07002	 mov         r7, r2
  00008	e1a05001	 mov         r5, r1
  0000c	e1a06000	 mov         r6, r0
; Line 351
  00010	eb000000	 bl          LoadResource
  00014	e1b04000	 movs        r4, r0
; Line 354
  00018	0a000011	 beq         |$LN14@AtlGetStri|
; Line 363
  0001c	e1a01005	 mov         r1, r5
  00020	e1a00006	 mov         r0, r6
  00024	eb000000	 bl          SizeofResource
; Line 364
  00028	e0842000	 add         r2, r4, r0
; Line 365
  0002c	e217100f	 ands        r1, r7, #0xF
; Line 367
  00030	0a000006	 beq         |$LN3@AtlGetStri|
  00034		 |$LL4@AtlGetStri|
  00034	e1540002	 cmp         r4, r2
  00038	2a000009	 bcs         |$LN14@AtlGetStri|
; Line 369
  0003c	e1d430b0	 ldrh        r3, [r4]
; Line 370
  00040	e2511001	 subs        r1, r1, #1
  00044	e2833001	 add         r3, r3, #1
  00048	e0844083	 add         r4, r4, r3, lsl #1
  0004c	1afffff8	 bne         |$LL4@AtlGetStri|
  00050		 |$LN3@AtlGetStri|
; Line 372
  00050	e1540002	 cmp         r4, r2
; Line 374
  00054	2a000002	 bcs         |$LN14@AtlGetStri|
; Line 376
  00058	e1d430b0	 ldrh        r3, [r4]
  0005c	e3530000	 cmp         r3, #0
  00060	1a000000	 bne         |$LN1@AtlGetStri|
  00064		 |$LN14@AtlGetStri|
; Line 378
  00064	e3a04000	 mov         r4, #0
  00068		 |$LN1@AtlGetStri|
; Line 382
  00068	e1a00004	 mov         r0, r4
  0006c	e8bd80f0	 ldmia       sp!, {r4 - r7, pc}
  00070		 |$M78662|

			 ENDP  ; |?_AtlGetStringResourceImage@ATL@@YAPBUATLSTRINGRESOURCEIMAGE@1@PAUHINSTANCE__@@PAUHRSRC__@@I@Z|, ATL::_AtlGetStringResourceImage

	EXPORT	|?AtlGetStringResourceImage@ATL@@YAPBUATLSTRINGRESOURCEIMAGE@1@PAUHINSTANCE__@@I@Z| ; ATL::AtlGetStringResourceImage
	IMPORT	|FindResourceW|

  00000			 AREA	 |.pdata|, PDATA
|$T78676| DCD	|$LN6@AtlGetStri@2|
	DCD	0x40001101
; Function compile flags: /Ogspy

  00000			 AREA	 |.text|, CODE, ARM

  00000		 |?AtlGetStringResourceImage@ATL@@YAPBUATLSTRINGRESOURCEIMAGE@1@PAUHINSTANCE__@@I@Z| PROC ; ATL::AtlGetStringResourceImage
; Line 385
  00000		 |$LN6@AtlGetStri@2|
  00000	e92d4030	 stmdb       sp!, {r4, r5, lr}
  00004		 |$M78673|
  00004	e1a04001	 mov         r4, r1
  00008	e1a05000	 mov         r5, r0
; Line 388
  0000c	e1a03224	 mov         r3, r4, lsr #4
  00010	e2833001	 add         r3, r3, #1
  00014	e1a01803	 mov         r1, r3, lsl #16
  00018	e1a01821	 mov         r1, r1, lsr #16
  0001c	e3a02006	 mov         r2, #6
  00020	eb000000	 bl          FindResourceW
  00024	e3500000	 cmp         r0, #0
; Line 391
  00028	03a00000	 moveq       r0, #0
; Line 395
  0002c	08bd8030	 ldmeqia     sp!, {r4, r5, pc}
; Line 394
  00030	e1a02004	 mov         r2, r4
  00034	e1a01000	 mov         r1, r0
  00038	e1a00005	 mov         r0, r5
; Line 395
  0003c	e8bd4030	 ldmia       sp!, {r4, r5, lr}
; Line 394
  00040	ea000000	 b           |?_AtlGetStringResourceImage@ATL@@YAPBUATLSTRINGRESOURCEIMAGE@1@PAUHINSTANCE__@@PAUHRSRC__@@I@Z|
  00044		 |$M78674|

			 ENDP  ; |?AtlGetStringResourceImage@ATL@@YAPBUATLSTRINGRESOURCEIMAGE@1@PAUHINSTANCE__@@I@Z|, ATL::AtlGetStringResourceImage

	EXPORT	|__$ArrayPad$| [ DATA ]
	EXPORT	|?dirFiles7@CMangoClass@@UAAJPA_WPAPA_W@Z| ; CMangoClass::dirFiles7
	IMPORT	|FindFirstFileW|
; File c:\users\steven\desktop\csharp - dllimport\csharp - dllimport\vs2008\dllimportmango\mangoclass.cpp

  00000			 AREA	 |.pdata|, PDATA
|$T78691| DCD	|$LN7@dirFiles7|
	DCD	0xc0001302

  00000			 AREA	 |.xdata|, DATA
|$T78687| DCD	0xfffffff8
; Function compile flags: /Ogspy

  00000			 AREA	 |.text|, CODE, ARM

  00000	00000000	 DCD         |__GSHandlerCheck|
  00004	00000000	 DCD         |$T78687|

  00008		 |?dirFiles7@CMangoClass@@UAAJPA_WPAPA_W@Z| PROC ; CMangoClass::dirFiles7
; Line 1323
  00008		 |$LN7@dirFiles7|
  00008	e52de004	 str         lr, [sp, #-4]!
  0000c	e24ddf8e	 sub         sp, sp, #0x8E, 30	; 568 (0x238)
  00010		 |$M78688|
  00010	e59f3038	 ldr         r3, [pc, #0x38]
  00014	e5933000	 ldr         r3, [r3]
  00018	e58d3234	 str         r3, [sp, #0x234]
  0001c	e1a00001	 mov         r0, r1
; Line 1328
  00020	e28d1004	 add         r1, sp, #4
  00024	eb000000	 bl          FindFirstFileW
; Line 1332
  00028	e3700001	 cmn         r0, #1
  0002c	1a000004	 bne         |$LN4@dirFiles7|
; Line 1334
  00030	e59d0234	 ldr         r0, [sp, #0x234]
  00034	eb000000	 bl          __security_check_cookie
  00038	e3e00000	 mvn         r0, #0
; Line 1336
  0003c	e28ddf8e	 add         sp, sp, #0x8E, 30	; 568 (0x238)
  00040	e49df004	 ldr         pc, [sp], #4
  00044		 |$LN4@dirFiles7|
; Line 1334
  00044	e59d0000	 ldr         r0, [sp]
; Line 1336
  00048	e28ddf8e	 add         sp, sp, #0x8E, 30	; 568 (0x238)
  0004c	e49df004	 ldr         pc, [sp], #4
  00050		 |$LN8@dirFiles7|
  00050		 |$LN9@dirFiles7|
  00050	00000000	 DCD         |__security_cookie|
  00054		 |$M78689|

			 ENDP  ; |?dirFiles7@CMangoClass@@UAAJPA_WPAPA_W@Z|, CMangoClass::dirFiles7

	EXPORT	|?FindFirstFile7@CMangoClass@@UAAJPA_WPAU_WIN32_FIND_DATAW@@@Z| ; CMangoClass::FindFirstFile7

  00000			 AREA	 |.pdata|, PDATA
|$T78712| DCD	|$LN7@FindFirstF|
	DCD	0x40000300
; Function compile flags: /Ogspy

  00000			 AREA	 |.text|, CODE, ARM

  00000		 |?FindFirstFile7@CMangoClass@@UAAJPA_WPAU_WIN32_FIND_DATAW@@@Z| PROC ; CMangoClass::FindFirstFile7
; Line 1339
  00000		 |$LN7@FindFirstF|
  00000		 |$M78709|
  00000	e1a00001	 mov         r0, r1
; Line 1340
  00004	e1a01002	 mov         r1, r2
  00008	ea000000	 b           FindFirstFileW
  0000c		 |$M78710|

			 ENDP  ; |?FindFirstFile7@CMangoClass@@UAAJPA_WPAU_WIN32_FIND_DATAW@@@Z|, CMangoClass::FindFirstFile7

	EXPORT	|?FindNextFile7@CMangoClass@@UAAJHPAU_WIN32_FIND_DATAW@@@Z| ; CMangoClass::FindNextFile7
	IMPORT	|FindNextFileW|

  00000			 AREA	 |.pdata|, PDATA
|$T78728| DCD	|$LN7@FindNextFi|
	DCD	0x40000300
; Function compile flags: /Ogspy

  00000			 AREA	 |.text|, CODE, ARM

  00000		 |?FindNextFile7@CMangoClass@@UAAJHPAU_WIN32_FIND_DATAW@@@Z| PROC ; CMangoClass::FindNextFile7
; Line 1343
  00000		 |$LN7@FindNextFi|
  00000		 |$M78725|
  00000	e1a00001	 mov         r0, r1
; Line 1344
  00004	e1a01002	 mov         r1, r2
  00008	ea000000	 b           FindNextFileW
  0000c		 |$M78726|

			 ENDP  ; |?FindNextFile7@CMangoClass@@UAAJHPAU_WIN32_FIND_DATAW@@@Z|, CMangoClass::FindNextFile7

	EXPORT	|?FindClose7@CMangoClass@@UAAJH@Z|	; CMangoClass::FindClose7
	IMPORT	|FindClose|

  00000			 AREA	 |.pdata|, PDATA
|$T78743| DCD	|$LN7@FindClose7|
	DCD	0x40000200
; Function compile flags: /Ogspy

  00000			 AREA	 |.text|, CODE, ARM

  00000		 |?FindClose7@CMangoClass@@UAAJH@Z| PROC ; CMangoClass::FindClose7
; Line 1348
  00000		 |$LN7@FindClose7|
  00000		 |$M78740|
; Line 1349
  00000	e1a00001	 mov         r0, r1
  00004	ea000000	 b           FindClose
  00008		 |$M78741|

			 ENDP  ; |?FindClose7@CMangoClass@@UAAJH@Z|, CMangoClass::FindClose7

	EXPORT	|?AtlFindStringResourceInstance@ATL@@YAPAUHINSTANCE__@@IG@Z| ; ATL::AtlFindStringResourceInstance
	IMPORT	|?GetHInstanceAt@CAtlBaseModule@ATL@@QAAPAUHINSTANCE__@@H@Z| ; ATL::CAtlBaseModule::GetHInstanceAt
	IMPORT	|?_AtlBaseModule@ATL@@3VCAtlBaseModule@1@A| ; ATL::_AtlBaseModule
; File c:\program files (x86)\microsoft visual studio 9.0\vc\ce\atlmfc\include\atlcore.h

  00000			 AREA	 |.pdata|, PDATA
|$T78759| DCD	|$LN13@AtlFindStr|
	DCD	0x40001601
; Function compile flags: /Ogspy

  00000			 AREA	 |.text|, CODE, ARM

  00000		 |?AtlFindStringResourceInstance@ATL@@YAPAUHINSTANCE__@@IG@Z| PROC ; ATL::AtlFindStringResourceInstance
; Line 495
  00000		 |$LN13@AtlFindStr|
  00000	e92d4070	 stmdb       sp!, {r4 - r6, lr}
  00004		 |$M78756|
  00004	e1a06000	 mov         r6, r0
; Line 497
  00008	e59f0044	 ldr         r0, [pc, #0x44]
  0000c	e3a01000	 mov         r1, #0
  00010	eb000000	 bl          |?GetHInstanceAt@CAtlBaseModule@ATL@@QAAPAUHINSTANCE__@@H@Z|
; Line 499
  00014	e3a05001	 mov         r5, #1
  00018	ea000008	 b           |$LN10@AtlFindStr|
  0001c		 |$LL4@AtlFindStr|
; Line 505
  0001c	e1a01006	 mov         r1, r6
  00020	e1a00004	 mov         r0, r4
  00024	eb000000	 bl          |?AtlGetStringResourceImage@ATL@@YAPBUATLSTRINGRESOURCEIMAGE@1@PAUHINSTANCE__@@I@Z|
  00028	e3500000	 cmp         r0, #0
; Line 507
  0002c	1a000006	 bne         |$LN5@AtlFindStr|
  00030	e59f001c	 ldr         r0, [pc, #0x1C]
  00034	e1a01005	 mov         r1, r5
  00038	eb000000	 bl          |?GetHInstanceAt@CAtlBaseModule@ATL@@QAAPAUHINSTANCE__@@H@Z|
  0003c	e2855001	 add         r5, r5, #1
  00040		 |$LN10@AtlFindStr|
  00040	e1b04000	 movs        r4, r0
  00044	1afffff4	 bne         |$LL4@AtlFindStr|
; Line 511
  00048	e3a04000	 mov         r4, #0
  0004c		 |$LN5@AtlFindStr|
; Line 512
  0004c	e1a00004	 mov         r0, r4
  00050	e8bd8070	 ldmia       sp!, {r4 - r6, pc}
  00054		 |$LN14@AtlFindStr|
  00054		 |$LN15@AtlFindStr|
  00054	00000000	 DCD         |?_AtlBaseModule@ATL@@3VCAtlBaseModule@1@A|
  00058		 |$M78757|

			 ENDP  ; |?AtlFindStringResourceInstance@ATL@@YAPAUHINSTANCE__@@IG@Z|, ATL::AtlFindStringResourceInstance

	EXPORT	|?AtlHresultFromLastError@ATL@@YAJXZ|	; ATL::AtlHresultFromLastError
; File c:\program files (x86)\microsoft visual studio 9.0\vc\ce\atlmfc\include\atlcomcli.h

  00000			 AREA	 |.pdata|, PDATA
|$T78773| DCD	|$LN7@AtlHresult|
	DCD	0x40000a01
; Function compile flags: /Ogspy

  00000			 AREA	 |.text|, CODE, ARM

  00000		 |?AtlHresultFromLastError@ATL@@YAJXZ| PROC ; ATL::AtlHresultFromLastError
; Line 32
  00000		 |$LN7@AtlHresult|
  00000	e52de004	 str         lr, [sp, #-4]!
  00004		 |$M78770|
; Line 33
  00004	eb000000	 bl          GetLastError
; Line 34
  00008	e3500000	 cmp         r0, #0
  0000c	c3a03cff	 movgt       r3, #0xFF, 24
  00010	c38330ff	 orrgt       r3, r3, #0xFF
  00014	c3a01102	 movgt       r1, #2, 2
  00018	c0002003	 andgt       r2, r0, r3
  0001c	c3813807	 orrgt       r3, r1, #7, 16	; 458752 (0x70000)
  00020	c1820003	 orrgt       r0, r2, r3
; Line 35
  00024	e49df004	 ldr         pc, [sp], #4
  00028		 |$M78771|

			 ENDP  ; |?AtlHresultFromLastError@ATL@@YAJXZ|, ATL::AtlHresultFromLastError

	EXPORT	|?EnumDisplayDevices7@CMangoClass@@UAAJKPAU_DISPLAY_DEVICE@@K@Z| ; CMangoClass::EnumDisplayDevices7
	IMPORT	|EnumDisplayDevices|
; File c:\users\steven\desktop\csharp - dllimport\csharp - dllimport\vs2008\dllimportmango\mangoclass.cpp

  00000			 AREA	 |.pdata|, PDATA
|$T78785| DCD	|$LN5@EnumDispla|
	DCD	0x40000200
; Function compile flags: /Ogspy

  00000			 AREA	 |.text|, CODE, ARM

  00000		 |?EnumDisplayDevices7@CMangoClass@@UAAJKPAU_DISPLAY_DEVICE@@K@Z| PROC ; CMangoClass::EnumDisplayDevices7
; Line 1464
  00000		 |$LN5@EnumDispla|
  00000		 |$M78782|
; Line 1465
  00000	e3a00000	 mov         r0, #0
  00004	ea000000	 b           EnumDisplayDevices
  00008		 |$M78783|

			 ENDP  ; |?EnumDisplayDevices7@CMangoClass@@UAAJKPAU_DISPLAY_DEVICE@@K@Z|, CMangoClass::EnumDisplayDevices7

	EXPORT	|?AtlHresultFromWin32@ATL@@YAJK@Z|	; ATL::AtlHresultFromWin32
; File c:\program files (x86)\microsoft visual studio 9.0\vc\ce\atlmfc\include\atlcomcli.h

  00000			 AREA	 |.pdata|, PDATA
|$T78797| DCD	|$LN7@AtlHresult@2|
	DCD	0x40000800
; Function compile flags: /Ogspy

  00000			 AREA	 |.text|, CODE, ARM

  00000		 |?AtlHresultFromWin32@ATL@@YAJK@Z| PROC ; ATL::AtlHresultFromWin32
; Line 38
  00000		 |$LN7@AtlHresult@2|
  00000		 |$M78794|
; Line 39
  00000	e3500000	 cmp         r0, #0
  00004	c3a03cff	 movgt       r3, #0xFF, 24
  00008	c38330ff	 orrgt       r3, r3, #0xFF
  0000c	c3a01102	 movgt       r1, #2, 2
  00010	c0002003	 andgt       r2, r0, r3
  00014	c3813807	 orrgt       r3, r1, #7, 16	; 458752 (0x70000)
  00018	c1820003	 orrgt       r0, r2, r3
; Line 40
  0001c	e1a0f00e	 mov         pc, lr
  00020		 |$M78795|

			 ENDP  ; |?AtlHresultFromWin32@ATL@@YAJK@Z|, ATL::AtlHresultFromWin32

	EXPORT	|?waveOutGetVolume7@CMangoClass@@UAAJPAK@Z| ; CMangoClass::waveOutGetVolume7
	IMPORT	|waveOutGetVolume|
; File c:\users\steven\desktop\csharp - dllimport\csharp - dllimport\vs2008\dllimportmango\mangoclass.cpp

  00000			 AREA	 |.pdata|, PDATA
|$T78808| DCD	|$LN5@waveOutGet|
	DCD	0x40000a02
; Function compile flags: /Ogspy

  00000			 AREA	 |.text|, CODE, ARM

  00000		 |?waveOutGetVolume7@CMangoClass@@UAAJPAK@Z| PROC ; CMangoClass::waveOutGetVolume7
; Line 1469
  00000		 |$LN5@waveOutGet|
  00000	e92d4010	 stmdb       sp!, {r4, lr}
  00004	e24dd004	 sub         sp, sp, #4
  00008		 |$M78805|
  00008	e1a04001	 mov         r4, r1
; Line 1471
  0000c	e28d1000	 add         r1, sp, #0
  00010	e3a00000	 mov         r0, #0
  00014	eb000000	 bl          waveOutGetVolume
; Line 1472
  00018	e59d3000	 ldr         r3, [sp]
; Line 1475
  0001c	e5843000	 str         r3, [r4]
  00020	e28dd004	 add         sp, sp, #4
  00024	e8bd8010	 ldmia       sp!, {r4, pc}
  00028		 |$M78806|

			 ENDP  ; |?waveOutGetVolume7@CMangoClass@@UAAJPAK@Z|, CMangoClass::waveOutGetVolume7

	EXPORT	|?waveOutSetVolume7@CMangoClass@@UAAJK@Z| ; CMangoClass::waveOutSetVolume7
	IMPORT	|waveOutSetVolume|

  00000			 AREA	 |.pdata|, PDATA
|$T78818| DCD	|$LN5@waveOutSet|
	DCD	0x40000200
; Function compile flags: /Ogspy

  00000			 AREA	 |.text|, CODE, ARM

  00000		 |?waveOutSetVolume7@CMangoClass@@UAAJK@Z| PROC ; CMangoClass::waveOutSetVolume7
; Line 1477
  00000		 |$LN5@waveOutSet|
  00000		 |$M78815|
; Line 1478
  00000	e3a00000	 mov         r0, #0
  00004	ea000000	 b           waveOutSetVolume
  00008		 |$M78816|

			 ENDP  ; |?waveOutSetVolume7@CMangoClass@@UAAJK@Z|, CMangoClass::waveOutSetVolume7

	EXPORT	|?waveOutSetPitch7@CMangoClass@@UAAJK@Z| ; CMangoClass::waveOutSetPitch7
	IMPORT	|waveOutSetPitch|

  00000			 AREA	 |.pdata|, PDATA
|$T78828| DCD	|$LN5@waveOutSet@2|
	DCD	0x40000200
; Function compile flags: /Ogspy

  00000			 AREA	 |.text|, CODE, ARM

  00000		 |?waveOutSetPitch7@CMangoClass@@UAAJK@Z| PROC ; CMangoClass::waveOutSetPitch7
; Line 1482
  00000		 |$LN5@waveOutSet@2|
  00000		 |$M78825|
; Line 1483
  00000	e3a00000	 mov         r0, #0
  00004	ea000000	 b           waveOutSetPitch
  00008		 |$M78826|

			 ENDP  ; |?waveOutSetPitch7@CMangoClass@@UAAJK@Z|, CMangoClass::waveOutSetPitch7

	EXPORT	|?waveGetHWAVEOUT@CMangoClass@@UAAJXZ|	; CMangoClass::waveGetHWAVEOUT
	IMPORT	|waveOutOpen|

  00000			 AREA	 |.pdata|, PDATA
|$T78837| DCD	|$LN5@waveGetHWA|
	DCD	0x40000e02
; Function compile flags: /Ogspy

  00000			 AREA	 |.text|, CODE, ARM

  00000		 |?waveGetHWAVEOUT@CMangoClass@@UAAJXZ| PROC ; CMangoClass::waveGetHWAVEOUT
; Line 1487
  00000		 |$LN5@waveGetHWA|
  00000	e52de004	 str         lr, [sp, #-4]!
  00004	e24dd020	 sub         sp, sp, #0x20
  00008		 |$M78834|
; Line 1490
  00008	e3a03002	 mov         r3, #2
  0000c	e3a02000	 mov         r2, #0
  00010	e58d3004	 str         r3, [sp, #4]
  00014	e58d2000	 str         r2, [sp]
  00018	e3a03000	 mov         r3, #0
  0001c	e28d200c	 add         r2, sp, #0xC
  00020	e3e01000	 mvn         r1, #0
  00024	e28d0008	 add         r0, sp, #8
  00028	eb000000	 bl          waveOutOpen
; Line 1494
  0002c	e28d0008	 add         r0, sp, #8
; Line 1495
  00030	e28dd020	 add         sp, sp, #0x20
  00034	e49df004	 ldr         pc, [sp], #4
  00038		 |$M78835|

			 ENDP  ; |?waveGetHWAVEOUT@CMangoClass@@UAAJXZ|, CMangoClass::waveGetHWAVEOUT

	EXPORT	|?KernelIoControl@CMangoClass@@UAAJIHIHIPAI@Z| ; CMangoClass::KernelIoControl
	EXPORT	|??_C@_1CA@CBJOHOHO@?$AAK?$AAe?$AAr?$AAn?$AAe?$AAl?$AAI?$AAo?$AAC?$AAo?$AAn?$AAt?$AAr?$AAo?$AAl?$AA?$AA@| [ DATA ] ; `string'

  00000			 AREA	 |.pdata|, PDATA
|$T78851| DCD	|$LN5@KernelIoCo|
	DCD	0x40001802

  00000			 AREA	 |.rdata|, DATA, READONLY
|??_C@_1CA@CBJOHOHO@?$AAK?$AAe?$AAr?$AAn?$AAe?$AAl?$AAI?$AAo?$AAC?$AAo?$AAn?$AAt?$AAr?$AAo?$AAl?$AA?$AA@| DCB "K"
	DCB	0x0, "e", 0x0, "r", 0x0, "n", 0x0, "e", 0x0, "l", 0x0, "I"
	DCB	0x0, "o", 0x0, "C", 0x0, "o", 0x0, "n", 0x0, "t", 0x0, "r"
	DCB	0x0, "o", 0x0, "l", 0x0, 0x0, 0x0	; `string'
; Function compile flags: /Ogspy

  00000			 AREA	 |.text|, CODE, ARM

  00000		 |?KernelIoControl@CMangoClass@@UAAJIHIHIPAI@Z| PROC ; CMangoClass::KernelIoControl
; Line 1513
  00000		 |$LN5@KernelIoCo|
  00000	e92d41f0	 stmdb       sp!, {r4 - r8, lr}
  00004	e24dd008	 sub         sp, sp, #8
  00008		 |$M78848|
  00008	e1a06003	 mov         r6, r3
  0000c	e1a07002	 mov         r7, r2
  00010	e1a08001	 mov         r8, r1
; Line 1514
  00014	e59f0040	 ldr         r0, [pc, #0x40]
  00018	eb000000	 bl          LoadLibraryW
; Line 1516
  0001c	e59f1034	 ldr         r1, [pc, #0x34]
  00020	eb000000	 bl          GetProcAddressW
; Line 1518
  00024	e59de028	 ldr         lr, [sp, #0x28]
  00028	e59d4024	 ldr         r4, [sp, #0x24]
  0002c	e59d3020	 ldr         r3, [sp, #0x20]
  00030	e1a05000	 mov         r5, r0
  00034	e58de004	 str         lr, [sp, #4]
  00038	e58d4000	 str         r4, [sp]
  0003c	e1a02006	 mov         r2, r6
  00040	e1a01007	 mov         r1, r7
  00044	e1a00008	 mov         r0, r8
  00048	e1a0e00f	 mov         lr, pc
  0004c	e1a0f005	 mov         pc, r5
; Line 1519
  00050	e28dd008	 add         sp, sp, #8
  00054	e8bd81f0	 ldmia       sp!, {r4 - r8, pc}
  00058		 |$LN6@KernelIoCo|
  00058		 |$LN7@KernelIoCo|
  00058	00000000	 DCD         |??_C@_1CA@CBJOHOHO@?$AAK?$AAe?$AAr?$AAn?$AAe?$AAl?$AAI?$AAo?$AAC?$AAo?$AAn?$AAt?$AAr?$AAo?$AAl?$AA?$AA@|
  0005c		 |$LN8@KernelIoCo|
  0005c	00000000	 DCD         |??_C@_1BA@HMFMEPIE@?$AAc?$AAo?$AAr?$AAe?$AAd?$AAl?$AAl?$AA?$AA@|
  00060		 |$M78849|

			 ENDP  ; |?KernelIoControl@CMangoClass@@UAAJIHIHIPAI@Z|, CMangoClass::KernelIoControl

	EXPORT	|?ScreenSetContrast@CMangoClass@@UAAJK@Z| ; CMangoClass::ScreenSetContrast
	IMPORT	|ExtEscape|

  00000			 AREA	 |.pdata|, PDATA
|$T78865| DCD	|$LN5@ScreenSetC|
	DCD	0x40001502
; Function compile flags: /Ogspy

  00000			 AREA	 |.text|, CODE, ARM

  00000		 |?ScreenSetContrast@CMangoClass@@UAAJK@Z| PROC ; CMangoClass::ScreenSetContrast
; Line 1593
  00000		 |$LN5@ScreenSetC|
  00000	e92d4030	 stmdb       sp!, {r4, r5, lr}
  00004	e24dd010	 sub         sp, sp, #0x10
  00008		 |$M78862|
  00008	e1a04001	 mov         r4, r1
; Line 1595
  0000c	e3a03000	 mov         r3, #0
  00010	e3a02000	 mov         r2, #0
  00014	e3a01000	 mov         r1, #0
  00018	e3a00000	 mov         r0, #0
  0001c	eb000000	 bl          CreateDCW
  00020	e3a01b06	 mov         r1, #6, 22
; Line 1596
  00024	e3a0e001	 mov         lr, #1
; Line 1604
  00028	e3a05000	 mov         r5, #0
  0002c	e3811005	 orr         r1, r1, #5
  00030	e28d3008	 add         r3, sp, #8
  00034	e3a02008	 mov         r2, #8
  00038	e58de008	 str         lr, [sp, #8]
  0003c	e58d400c	 str         r4, [sp, #0xC]
  00040	e58d5004	 str         r5, [sp, #4]
  00044	e58d5000	 str         r5, [sp]
  00048	eb000000	 bl          ExtEscape
; Line 1607
  0004c	e28dd010	 add         sp, sp, #0x10
  00050	e8bd8030	 ldmia       sp!, {r4, r5, pc}
  00054		 |$M78863|

			 ENDP  ; |?ScreenSetContrast@CMangoClass@@UAAJK@Z|, CMangoClass::ScreenSetContrast

	EXPORT	|?ScreenGetContrast@CMangoClass@@UAAJXZ| ; CMangoClass::ScreenGetContrast

  00000			 AREA	 |.pdata|, PDATA
|$T78875| DCD	|$LN7@ScreenGetC|
	DCD	0x40002602
; Function compile flags: /Ogspy

  00000			 AREA	 |.text|, CODE, ARM

  00000		 |?ScreenGetContrast@CMangoClass@@UAAJXZ| PROC ; CMangoClass::ScreenGetContrast
; Line 1610
  00000		 |$LN7@ScreenGetC|
  00000	e92d4070	 stmdb       sp!, {r4 - r6, lr}
  00004	e24dd014	 sub         sp, sp, #0x14
  00008		 |$M78872|
; Line 1616
  00008	e3a03b06	 mov         r3, #6, 22
  0000c	e3835005	 orr         r5, r3, #5
; Line 1617
  00010	e3a03000	 mov         r3, #0
  00014	e3a02000	 mov         r2, #0
  00018	e3a01000	 mov         r1, #0
  0001c	e3a00000	 mov         r0, #0
  00020	e58d5008	 str         r5, [sp, #8]
  00024	eb000000	 bl          CreateDCW
  00028	e1b04000	 movs        r4, r0
; Line 1619
  0002c	0a000016	 beq         |$LN1@ScreenGetC|
; Line 1621
  00030	e3a06000	 mov         r6, #0
  00034	e28d3008	 add         r3, sp, #8
  00038	e3a02004	 mov         r2, #4
  0003c	e3a01008	 mov         r1, #8
  00040	e1a00004	 mov         r0, r4
  00044	e58d6004	 str         r6, [sp, #4]
  00048	e58d6000	 str         r6, [sp]
  0004c	eb000000	 bl          ExtEscape
  00050	e3500000	 cmp         r0, #0
  00054	0a00000c	 beq         |$LN1@ScreenGetC|
; Line 1623
  00058	e3a03000	 mov         r3, #0
; Line 1624
  0005c	e3a02000	 mov         r2, #0
  00060	e58d300c	 str         r3, [sp, #0xC]
  00064	e58d2010	 str         r2, [sp, #0x10]
; Line 1631
  00068	e28d300c	 add         r3, sp, #0xC
  0006c	e3a02008	 mov         r2, #8
  00070	e1a01005	 mov         r1, r5
  00074	e1a00004	 mov         r0, r4
  00078	e58d6004	 str         r6, [sp, #4]
  0007c	e58d6000	 str         r6, [sp]
  00080	eb000000	 bl          ExtEscape
; Line 1638
  00084	e28dd014	 add         sp, sp, #0x14
  00088	e8bd8070	 ldmia       sp!, {r4 - r6, pc}
  0008c		 |$LN1@ScreenGetC|
; Line 1637
  0008c	e3e00000	 mvn         r0, #0
; Line 1638
  00090	e28dd014	 add         sp, sp, #0x14
  00094	e8bd8070	 ldmia       sp!, {r4 - r6, pc}
  00098		 |$M78873|

			 ENDP  ; |?ScreenGetContrast@CMangoClass@@UAAJXZ|, CMangoClass::ScreenGetContrast

	EXPORT	|?PhoneMakeCall7@CMangoClass@@UAAJPA_W@Z| ; CMangoClass::PhoneMakeCall7
	IMPORT	|PhoneMakeCall|

  00000			 AREA	 |.pdata|, PDATA
|$T78885| DCD	|$LN5@PhoneMakeC|
	DCD	0x40001002
; Function compile flags: /Ogspy

  00000			 AREA	 |.text|, CODE, ARM

  00000		 |?PhoneMakeCall7@CMangoClass@@UAAJPA_W@Z| PROC ; CMangoClass::PhoneMakeCall7
; Line 1698
  00000		 |$LN5@PhoneMakeC|
  00000	e92d4010	 stmdb       sp!, {r4, lr}
  00004	e24dd01c	 sub         sp, sp, #0x1C
  00008		 |$M78882|
  00008	e1a04001	 mov         r4, r1
; Line 1700
  0000c	e3a0201c	 mov         r2, #0x1C
  00010	e3a01000	 mov         r1, #0
  00014	e28d0000	 add         r0, sp, #0
  00018	eb000000	 bl          memset
; Line 1701
  0001c	e3a0301c	 mov         r3, #0x1C
; Line 1702
  00020	e3a02001	 mov         r2, #1
; Line 1704
  00024	e28d0000	 add         r0, sp, #0
  00028	e58d3000	 str         r3, [sp]
  0002c	e58d2004	 str         r2, [sp, #4]
  00030	e58d4008	 str         r4, [sp, #8]
  00034	eb000000	 bl          PhoneMakeCall
; Line 1705
  00038	e28dd01c	 add         sp, sp, #0x1C
  0003c	e8bd8010	 ldmia       sp!, {r4, pc}
  00040		 |$M78883|

			 ENDP  ; |?PhoneMakeCall7@CMangoClass@@UAAJPA_W@Z|, CMangoClass::PhoneMakeCall7

	EXPORT	|?SetSystemTime7@CMangoClass@@UAAJGGGGGGGG@Z| ; CMangoClass::SetSystemTime7
	IMPORT	|SetSystemTime|

  00000			 AREA	 |.pdata|, PDATA
|$T78897| DCD	|$LN5@SetSystemT|
	DCD	0x40001302
; Function compile flags: /Ogspy

  00000			 AREA	 |.text|, CODE, ARM

  00000		 |?SetSystemTime7@CMangoClass@@UAAJGGGGGGGG@Z| PROC ; CMangoClass::SetSystemTime7
; Line 1708
  00000		 |$LN5@SetSystemT|
  00000	e92d4070	 stmdb       sp!, {r4 - r6, lr}
  00004	e24dd010	 sub         sp, sp, #0x10
  00008		 |$M78894|
; Line 1713
  00008	e1dd02b0	 ldrh        r0, [sp, #0x20]
; Line 1714
  0000c	e1dde2b4	 ldrh        lr, [sp, #0x24]
; Line 1715
  00010	e1dd42b8	 ldrh        r4, [sp, #0x28]
; Line 1716
  00014	e1dd52bc	 ldrh        r5, [sp, #0x2C]
; Line 1717
  00018	e1dd63b0	 ldrh        r6, [sp, #0x30]
  0001c	e1cd00b6	 strh        r0, [sp, #6]
; Line 1719
  00020	e28d0000	 add         r0, sp, #0
  00024	e1cde0b8	 strh        lr, [sp, #8]
  00028	e1cd40ba	 strh        r4, [sp, #0xA]
  0002c	e1cd50bc	 strh        r5, [sp, #0xC]
  00030	e1cd60be	 strh        r6, [sp, #0xE]
  00034	e1cd10b0	 strh        r1, [sp]
  00038	e1cd20b2	 strh        r2, [sp, #2]
  0003c	e1cd30b4	 strh        r3, [sp, #4]
  00040	eb000000	 bl          SetSystemTime
; Line 1723
  00044	e28dd010	 add         sp, sp, #0x10
  00048	e8bd8070	 ldmia       sp!, {r4 - r6, pc}
  0004c		 |$M78895|

			 ENDP  ; |?SetSystemTime7@CMangoClass@@UAAJGGGGGGGG@Z|, CMangoClass::SetSystemTime7

	EXPORT	|?PostMessage7@CMangoClass@@UAAJHIII@Z|	; CMangoClass::PostMessage7
	IMPORT	|PostMessageW|

  00000			 AREA	 |.pdata|, PDATA
|$T78914| DCD	|$LN7@PostMessag|
	DCD	0x40000a01
; Function compile flags: /Ogspy

  00000			 AREA	 |.text|, CODE, ARM

  00000		 |?PostMessage7@CMangoClass@@UAAJHIII@Z| PROC ; CMangoClass::PostMessage7
; Line 1901
  00000		 |$LN7@PostMessag|
  00000	e92d4010	 stmdb       sp!, {r4, lr}
  00004		 |$M78911|
  00004	e1a00003	 mov         r0, r3
  00008	e1a0e002	 mov         lr, r2
  0000c	e1a04001	 mov         r4, r1
; Line 1902
  00010	e59d3008	 ldr         r3, [sp, #8]
  00014	e1a02000	 mov         r2, r0
  00018	e1a00004	 mov         r0, r4
  0001c	e1a0100e	 mov         r1, lr
  00020	e8bd4010	 ldmia       sp!, {r4, lr}
  00024	ea000000	 b           PostMessageW
  00028		 |$M78912|

			 ENDP  ; |?PostMessage7@CMangoClass@@UAAJHIII@Z|, CMangoClass::PostMessage7

	EXPORT	|?SendMessage7@CMangoClass@@UAAJHIII@Z|	; CMangoClass::SendMessage7
	IMPORT	|SendMessageW|

  00000			 AREA	 |.pdata|, PDATA
|$T78931| DCD	|$LN7@SendMessag|
	DCD	0x40000a01
; Function compile flags: /Ogspy

  00000			 AREA	 |.text|, CODE, ARM

  00000		 |?SendMessage7@CMangoClass@@UAAJHIII@Z| PROC ; CMangoClass::SendMessage7
; Line 1906
  00000		 |$LN7@SendMessag|
  00000	e92d4010	 stmdb       sp!, {r4, lr}
  00004		 |$M78928|
  00004	e1a00003	 mov         r0, r3
  00008	e1a0e002	 mov         lr, r2
  0000c	e1a04001	 mov         r4, r1
; Line 1907
  00010	e59d3008	 ldr         r3, [sp, #8]
  00014	e1a02000	 mov         r2, r0
  00018	e1a00004	 mov         r0, r4
  0001c	e1a0100e	 mov         r1, lr
  00020	e8bd4010	 ldmia       sp!, {r4, lr}
  00024	ea000000	 b           SendMessageW
  00028		 |$M78929|

			 ENDP  ; |?SendMessage7@CMangoClass@@UAAJHIII@Z|, CMangoClass::SendMessage7

	EXPORT	|?CaptureScreen@CMangoClass@@UAAJPAPAUHBITMAP__@@PAHPAPAX@Z| ; CMangoClass::CaptureScreen
	IMPORT	|ReleaseDC|
	IMPORT	|CreateDIBSection|
	IMPORT	|GetDC|

  00000			 AREA	 |.pdata|, PDATA
|$T78950| DCD	|$LN12@CaptureScr|
	DCD	0x40006402
; Function compile flags: /Ogspy

  00000			 AREA	 |.text|, CODE, ARM

  00000		 |?CaptureScreen@CMangoClass@@UAAJPAPAUHBITMAP__@@PAHPAPAX@Z| PROC ; CMangoClass::CaptureScreen
; Line 1916
  00000		 |$LN12@CaptureScr|
  00000	e92d4ff0	 stmdb       sp!, {r4 - r11, lr}
  00004	e24dd04c	 sub         sp, sp, #0x4C
  00008		 |$M78947|
  00008	e1a07003	 mov         r7, r3
  0000c	e1a08002	 mov         r8, r2
  00010	e1a09001	 mov         r9, r1
; Line 1924
  00014	e3a02000	 mov         r2, #0
  00018	e5892000	 str         r2, [r9]
  0001c	e3a03000	 mov         r3, #0
; Line 1925
  00020	e5882000	 str         r2, [r8]
; Line 1928
  00024	e3a00000	 mov         r0, #0
  00028	e5872000	 str         r2, [r7]
  0002c	e3a04000	 mov         r4, #0
  00030	e58d3014	 str         r3, [sp, #0x14]
  00034	eb000000	 bl          GetDC
  00038	e1b06000	 movs        r6, r0
; Line 1930
  0003c	4a00004f	 bmi         |$LN7@CaptureScr|
; Line 1932
  00040	e3a01008	 mov         r1, #8
  00044	e1a00006	 mov         r0, r6
  00048	eb000000	 bl          GetDeviceCaps
  0004c	e1a05000	 mov         r5, r0
; Line 1933
  00050	e1a00006	 mov         r0, r6
  00054	e3a0100a	 mov         r1, #0xA
  00058	e58d5018	 str         r5, [sp, #0x18]
  0005c	eb000000	 bl          GetDeviceCaps
  00060	e1a0a000	 mov         r10, r0
; Line 1936
  00064	e28d0020	 add         r0, sp, #0x20
  00068	e3a0202c	 mov         r2, #0x2C
  0006c	e3a01000	 mov         r1, #0
  00070	e58da01c	 str         r10, [sp, #0x1C]
  00074	eb000000	 bl          memset
; Line 1943
  00078	e003059a	 mul         r3, r10, r5
  0007c	e26a2000	 rsb         r2, r10, #0
  00080	e0833083	 add         r3, r3, r3, lsl #1
  00084	e3a01028	 mov         r1, #0x28
  00088	e3a0e001	 mov         lr, #1
  0008c	e3a0a018	 mov         r10, #0x18
  00090	e3a0b000	 mov         r11, #0
; Line 1945
  00094	e1a00006	 mov         r0, r6
  00098	e58d3034	 str         r3, [sp, #0x34]
  0009c	e58d1020	 str         r1, [sp, #0x20]
  000a0	e58d5024	 str         r5, [sp, #0x24]
  000a4	e58d2028	 str         r2, [sp, #0x28]
  000a8	e1cde2bc	 strh        lr, [sp, #0x2C]
  000ac	e1cda2be	 strh        r10, [sp, #0x2E]
  000b0	e58db030	 str         r11, [sp, #0x30]
  000b4	eb000000	 bl          CreateCompatibleDC
  000b8	e1b05000	 movs        r5, r0
; Line 1947
  000bc	4a00002a	 bmi         |$LN6@CaptureScr|
; Line 1949
  000c0	e3a0e000	 mov         lr, #0
  000c4	e28d3014	 add         r3, sp, #0x14
  000c8	e3a02000	 mov         r2, #0
  000cc	e28d1020	 add         r1, sp, #0x20
  000d0	e1a00005	 mov         r0, r5
  000d4	e58de004	 str         lr, [sp, #4]
  000d8	e58de000	 str         lr, [sp]
  000dc	eb000000	 bl          CreateDIBSection
  000e0	e1b0a000	 movs        r10, r0
; Line 1951
  000e4	4a00001c	 bmi         |$LN5@CaptureScr|
; Line 1953
  000e8	e1a0100a	 mov         r1, r10
  000ec	e1a00005	 mov         r0, r5
  000f0	eb000000	 bl          SelectObject
  000f4	e3a03733	 mov         r3, #0x33, 14
; Line 1955
  000f8	e3a0e000	 mov         lr, #0
  000fc	e3833020	 orr         r3, r3, #0x20
  00100	e58de00c	 str         lr, [sp, #0xC]
  00104	e58de008	 str         lr, [sp, #8]
  00108	e59de01c	 ldr         lr, [sp, #0x1C]
  0010c	e58d3010	 str         r3, [sp, #0x10]
  00110	e59d3018	 ldr         r3, [sp, #0x18]
  00114	e1a0b000	 mov         r11, r0
  00118	e3a02000	 mov         r2, #0
  0011c	e3a01000	 mov         r1, #0
  00120	e1a00005	 mov         r0, r5
  00124	e58de000	 str         lr, [sp]
  00128	e58d6004	 str         r6, [sp, #4]
  0012c	eb000000	 bl          BitBlt
  00130	e3500000	 cmp         r0, #0
; Line 1958
  00134	e1a00005	 mov         r0, r5
  00138	e1a0100b	 mov         r1, r11
  0013c	03e04003	 mvneq       r4, #3
  00140	eb000000	 bl          SelectObject
; Line 1961
  00144	e59d3034	 ldr         r3, [sp, #0x34]
; Line 1962
  00148	e59d2014	 ldr         r2, [sp, #0x14]
  0014c	e589a000	 str         r10, [r9]
  00150	e5883000	 str         r3, [r8]
  00154	e5872000	 str         r2, [r7]
; Line 1964
  00158	ea000000	 b           |$LN3@CaptureScr|
  0015c		 |$LN5@CaptureScr|
; Line 1965
  0015c	e3e04002	 mvn         r4, #2
  00160		 |$LN3@CaptureScr|
; Line 1967
  00160	e1a00005	 mov         r0, r5
  00164	eb000000	 bl          DeleteDC
; Line 1969
  00168	ea000000	 b           |$LN2@CaptureScr|
  0016c		 |$LN6@CaptureScr|
; Line 1970
  0016c	e3e04001	 mvn         r4, #1
  00170		 |$LN2@CaptureScr|
; Line 1972
  00170	e1a01006	 mov         r1, r6
  00174	e3a00000	 mov         r0, #0
  00178	eb000000	 bl          ReleaseDC
; Line 1974
  0017c	ea000000	 b           |$LN1@CaptureScr|
  00180		 |$LN7@CaptureScr|
; Line 1975
  00180	e3e04000	 mvn         r4, #0
  00184		 |$LN1@CaptureScr|
; Line 1978
  00184	e1a00004	 mov         r0, r4
  00188	e28dd04c	 add         sp, sp, #0x4C
  0018c	e8bd8ff0	 ldmia       sp!, {r4 - r11, pc}
  00190		 |$M78948|

			 ENDP  ; |?CaptureScreen@CMangoClass@@UAAJPAPAUHBITMAP__@@PAHPAPAX@Z|, CMangoClass::CaptureScreen

	EXPORT	|?DeleteObject@CMangoClass@@UAAJPAX@Z|	; CMangoClass::DeleteObject
	IMPORT	|DeleteObject|

  00000			 AREA	 |.pdata|, PDATA
|$T78960| DCD	|$LN5@DeleteObje|
	DCD	0x40000200
; Function compile flags: /Ogspy

  00000			 AREA	 |.text|, CODE, ARM

  00000		 |?DeleteObject@CMangoClass@@UAAJPAX@Z| PROC ; CMangoClass::DeleteObject
; Line 1981
  00000		 |$LN5@DeleteObje|
  00000		 |$M78957|
; Line 1982
  00000	e1a00001	 mov         r0, r1
  00004	ea000000	 b           DeleteObject
  00008		 |$M78958|

			 ENDP  ; |?DeleteObject@CMangoClass@@UAAJPAX@Z|, CMangoClass::DeleteObject

	EXPORT	|?ASMExecute@CMangoClass@@UAAJPAE@Z|	; CMangoClass::ASMExecute

  00000			 AREA	 |.pdata|, PDATA
|$T78970| DCD	|$LN5@ASMExecute|
	DCD	0x40000401
; Function compile flags: /Ogspy

  00000			 AREA	 |.text|, CODE, ARM

  00000		 |?ASMExecute@CMangoClass@@UAAJPAE@Z| PROC ; CMangoClass::ASMExecute
; Line 1986
  00000		 |$LN5@ASMExecute|
  00000	e52de004	 str         lr, [sp, #-4]!
  00004		 |$M78967|
; Line 1993
  00004	e1a0e00f	 mov         lr, pc
  00008	e1a0f001	 mov         pc, r1
; Line 2013
  0000c	e49df004	 ldr         pc, [sp], #4
  00010		 |$M78968|

			 ENDP  ; |?ASMExecute@CMangoClass@@UAAJPAE@Z|, CMangoClass::ASMExecute

	EXPORT	|?___hello@@YAXXZ|			; ___hello

  00000			 AREA	 |.pdata|, PDATA
|$T78977| DCD	|$LN5@hello|
	DCD	0x40001602
; Function compile flags: /Ogspy

  00000			 AREA	 |.text|, CODE, ARM

  00000		 |?___hello@@YAXXZ| PROC		; ___hello
; Line 2027
  00000		 |$LN5@hello|
  00000	e92d4030	 stmdb       sp!, {r4, r5, lr}
  00004	e24dd010	 sub         sp, sp, #0x10
  00008		 |$M78974|
; Line 2030
  00008	e59f4044	 ldr         r4, [pc, #0x44]	; 356947272 (0x15469548)
  0000c	e59f303c	 ldr         r3, [pc, #0x3C]	; 356947272 (0x15469548)
  00010	e59f2034	 ldr         r2, [pc, #0x34]	; 356947272 (0x15469548)
  00014	e59f102c	 ldr         r1, [pc, #0x2C]	; 356947272 (0x15469548)
  00018	e59f0024	 ldr         r0, [pc, #0x24]	; 356947272 (0x15469548)
  0001c	e59f501c	 ldr         r5, [pc, #0x1C]	; 356947272 (0x15469548)
  00020	e58d400c	 str         r4, [sp, #0xC]
  00024	e58d4008	 str         r4, [sp, #8]
  00028	e58d4004	 str         r4, [sp, #4]
  0002c	e58d4000	 str         r4, [sp]
  00030	e1a0e00f	 mov         lr, pc
  00034	e1a0f005	 mov         pc, r5
; Line 2062
  00038	e28dd010	 add         sp, sp, #0x10
  0003c	e8bd8030	 ldmia       sp!, {r4, r5, pc}
  00040		 |$LN6@hello|
  00040		 |$LN7@hello|
  00040	15469548	 DCD         0x15469548
  00044		 |$LN8@hello|
  00044	56485598	 DCD         0x56485598
  00048		 |$LN9@hello|
  00048	13467954	 DCD         0x13467954
  0004c		 |$LN10@hello|
  0004c	31669741	 DCD         0x31669741
  00050		 |$LN11@hello|
  00050	51234879	 DCD         0x51234879
  00054		 |$LN12@hello|
  00054	16845965	 DCD         0x16845965
  00058		 |$M78975|

			 ENDP  ; |?___hello@@YAXXZ|, ___hello

	EXPORT	|?GetHelloWorldMSGBPtr@CMangoClass@@UAAJXZ| ; CMangoClass::GetHelloWorldMSGBPtr

  00000			 AREA	 |.pdata|, PDATA
|$T78993| DCD	|$LN5@GetHelloWo|
	DCD	0x40000300
; Function compile flags: /Ogspy

  00000			 AREA	 |.text|, CODE, ARM

  00000		 |?GetHelloWorldMSGBPtr@CMangoClass@@UAAJXZ| PROC ; CMangoClass::GetHelloWorldMSGBPtr
; Line 2066
  00000		 |$LN5@GetHelloWo|
  00000		 |$M78990|
; Line 2067
  00000	e59f0000	 ldr         r0, [pc]
; Line 2068
  00004	e1a0f00e	 mov         pc, lr
  00008		 |$LN6@GetHelloWo|
  00008		 |$LN7@GetHelloWo|
  00008	00000000	 DCD         |?___hello@@YAXXZ|
  0000c		 |$M78991|

			 ENDP  ; |?GetHelloWorldMSGBPtr@CMangoClass@@UAAJXZ|, CMangoClass::GetHelloWorldMSGBPtr

	EXPORT	|?ValueAtAddres@CMangoClass@@UAAJPAH@Z|	; CMangoClass::ValueAtAddres

  00000			 AREA	 |.pdata|, PDATA
|$T79005| DCD	|$LN5@ValueAtAdd|
	DCD	0x40000200
; Function compile flags: /Ogspy

  00000			 AREA	 |.text|, CODE, ARM

  00000		 |?ValueAtAddres@CMangoClass@@UAAJPAH@Z| PROC ; CMangoClass::ValueAtAddres
; Line 2070
  00000		 |$LN5@ValueAtAdd|
  00000		 |$M79002|
; Line 2072
  00000	e5910000	 ldr         r0, [r1]
; Line 2073
  00004	e1a0f00e	 mov         pc, lr
  00008		 |$M79003|

			 ENDP  ; |?ValueAtAddres@CMangoClass@@UAAJPAH@Z|, CMangoClass::ValueAtAddres

	EXPORT	|?AddressOfObject@CMangoClass@@UAAJPAX@Z| ; CMangoClass::AddressOfObject

  00000			 AREA	 |.pdata|, PDATA
|$T79015| DCD	|$LN5@AddressOfO|
	DCD	0x40000200
; Function compile flags: /Ogspy

  00000			 AREA	 |.text|, CODE, ARM

  00000		 |?AddressOfObject@CMangoClass@@UAAJPAX@Z| PROC ; CMangoClass::AddressOfObject
; Line 2076
  00000		 |$LN5@AddressOfO|
  00000		 |$M79012|
; Line 2078
  00000	e1a00001	 mov         r0, r1
  00004	e1a0f00e	 mov         pc, lr
  00008		 |$M79013|

			 ENDP  ; |?AddressOfObject@CMangoClass@@UAAJPAX@Z|, CMangoClass::AddressOfObject

	EXPORT	|?__TEST_SayHello@@YAXXZ|		; __TEST_SayHello
	EXPORT	|??_C@_19BCDHFEBA@?$AAt?$AAe?$AAs?$AAt?$AA?$AA@| [ DATA ] ; `string'

  00000			 AREA	 |.pdata|, PDATA
|$T79022| DCD	|$LN5@TEST_SayHe|
	DCD	0x40000600

  00000			 AREA	 |.rdata|, DATA, READONLY
|??_C@_19BCDHFEBA@?$AAt?$AAe?$AAs?$AAt?$AA?$AA@| DCB "t", 0x0, "e", 0x0, "s"
	DCB	0x0, "t", 0x0, 0x0, 0x0			; `string'
; Function compile flags: /Ogspy

  00000			 AREA	 |.text|, CODE, ARM

  00000		 |?__TEST_SayHello@@YAXXZ| PROC		; __TEST_SayHello
; Line 2081
  00000		 |$LN5@TEST_SayHe|
  00000		 |$M79019|
; Line 2082
  00000	e59f100c	 ldr         r1, [pc, #0xC]
  00004	e3a03000	 mov         r3, #0
  00008	e3a00000	 mov         r0, #0
  0000c	e1a02001	 mov         r2, r1
  00010	ea000000	 b           MessageBoxW
  00014		 |$LN6@TEST_SayHe|
  00014		 |$LN7@TEST_SayHe|
  00014	00000000	 DCD         |??_C@_19BCDHFEBA@?$AAt?$AAe?$AAs?$AAt?$AA?$AA@|
  00018		 |$M79020|

			 ENDP  ; |?__TEST_SayHello@@YAXXZ|, __TEST_SayHello

	EXPORT	|?TestFunc1@CMangoClass@@UAAJXZ|	; CMangoClass::TestFunc1

  00000			 AREA	 |.pdata|, PDATA
|$T79033| DCD	|$LN5@TestFunc1|
	DCD	0x40000300
; Function compile flags: /Ogspy

  00000			 AREA	 |.text|, CODE, ARM

  00000		 |?TestFunc1@CMangoClass@@UAAJXZ| PROC	; CMangoClass::TestFunc1
; Line 2085
  00000		 |$LN5@TestFunc1|
  00000		 |$M79030|
; Line 2086
  00000	e59f0000	 ldr         r0, [pc]
; Line 2087
  00004	e1a0f00e	 mov         pc, lr
  00008		 |$LN6@TestFunc1|
  00008		 |$LN7@TestFunc1|
  00008	00000000	 DCD         |?__TEST_SayHello@@YAXXZ|
  0000c		 |$M79031|

			 ENDP  ; |?TestFunc1@CMangoClass@@UAAJXZ|, CMangoClass::TestFunc1

	EXPORT	|?DeviceIoControl7@CMangoClass@@UAAJPAXK0K0KPAKPAU_OVERLAPPED@@@Z| ; CMangoClass::DeviceIoControl7
	IMPORT	|DeviceIoControl|

  00000			 AREA	 |.pdata|, PDATA
|$T79047| DCD	|$LN5@DeviceIoCo|
	DCD	0x40001402
; Function compile flags: /Ogspy

  00000			 AREA	 |.text|, CODE, ARM

  00000		 |?DeviceIoControl7@CMangoClass@@UAAJPAXK0K0KPAKPAU_OVERLAPPED@@@Z| PROC ; CMangoClass::DeviceIoControl7
; Line 2096
  00000		 |$LN5@DeviceIoCo|
  00000	e92d41f0	 stmdb       sp!, {r4 - r8, lr}
  00004	e24dd010	 sub         sp, sp, #0x10
  00008		 |$M79044|
  00008	e1a06003	 mov         r6, r3
  0000c	e1a07002	 mov         r7, r2
  00010	e1a08001	 mov         r8, r1
; Line 2098
  00014	e59d0038	 ldr         r0, [sp, #0x38]
  00018	e59de034	 ldr         lr, [sp, #0x34]
  0001c	e59d4030	 ldr         r4, [sp, #0x30]
  00020	e59d502c	 ldr         r5, [sp, #0x2C]
  00024	e59d3028	 ldr         r3, [sp, #0x28]
  00028	e58d000c	 str         r0, [sp, #0xC]
  0002c	e1a00008	 mov         r0, r8
  00030	e1a02006	 mov         r2, r6
  00034	e1a01007	 mov         r1, r7
  00038	e58de008	 str         lr, [sp, #8]
  0003c	e58d4004	 str         r4, [sp, #4]
  00040	e58d5000	 str         r5, [sp]
  00044	eb000000	 bl          DeviceIoControl
; Line 2099
  00048	e28dd010	 add         sp, sp, #0x10
  0004c	e8bd81f0	 ldmia       sp!, {r4 - r8, pc}
  00050		 |$M79045|

			 ENDP  ; |?DeviceIoControl7@CMangoClass@@UAAJPAXK0K0KPAKPAU_OVERLAPPED@@@Z|, CMangoClass::DeviceIoControl7

	EXPORT	|?EXP_test1@@YAXXZ|			; EXP_test1
	EXPORT	|??_C@_1CO@FMCDJLBB@?$AAH?$AAe?$AAl?$AAl?$AAo?$AA?5?$AAf?$AAr?$AAo?$AAm?$AA?5?$AA?$CC?$AAE?$AAX?$AAP?$AA_?$AAt?$AAe?$AAs?$AAt?$AA1?$AA?$CC?$AA?$AA@| [ DATA ] ; `string'

  00000			 AREA	 |.pdata|, PDATA
|$T79054| DCD	|$LN5@EXP_test1|
	DCD	0x40000700

  00000			 AREA	 |.rdata|, DATA, READONLY
|??_C@_1CO@FMCDJLBB@?$AAH?$AAe?$AAl?$AAl?$AAo?$AA?5?$AAf?$AAr?$AAo?$AAm?$AA?5?$AA?$CC?$AAE?$AAX?$AAP?$AA_?$AAt?$AAe?$AAs?$AAt?$AA1?$AA?$CC?$AA?$AA@| DCB "H"
	DCB	0x0, "e", 0x0, "l", 0x0, "l", 0x0, "o", 0x0, " ", 0x0, "f"
	DCB	0x0, "r", 0x0, "o", 0x0, "m", 0x0, " ", 0x0, """", 0x0, "E"
	DCB	0x0, "X", 0x0, "P", 0x0, "_", 0x0, "t", 0x0, "e", 0x0, "s"
	DCB	0x0, "t", 0x0, "1", 0x0, """", 0x0, 0x0, 0x0 ; `string'
; Function compile flags: /Ogspy

  00000			 AREA	 |.text|, CODE, ARM

  00000		 |?EXP_test1@@YAXXZ| PROC		; EXP_test1
; Line 2102
  00000		 |$LN5@EXP_test1|
  00000		 |$M79051|
; Line 2103
  00000	e59f2010	 ldr         r2, [pc, #0x10]
  00004	e59f1008	 ldr         r1, [pc, #8]
  00008	e3a03000	 mov         r3, #0
  0000c	e3a00000	 mov         r0, #0
  00010	ea000000	 b           MessageBoxW
  00014		 |$LN6@EXP_test1|
  00014		 |$LN7@EXP_test1|
  00014	00000000	 DCD         |??_C@_1CO@FMCDJLBB@?$AAH?$AAe?$AAl?$AAl?$AAo?$AA?5?$AAf?$AAr?$AAo?$AAm?$AA?5?$AA?$CC?$AAE?$AAX?$AAP?$AA_?$AAt?$AAe?$AAs?$AAt?$AA1?$AA?$CC?$AA?$AA@|
  00018		 |$LN8@EXP_test1|
  00018	00000000	 DCD         |??_C@_11LOCGONAA@?$AA?$AA@|
  0001c		 |$M79052|

			 ENDP  ; |?EXP_test1@@YAXXZ|, EXP_test1

	EXPORT	|?EXP_test3@@YAXPAH@Z|			; EXP_test3
	EXPORT	|??_C@_1HM@IPBCEOJE@?$AAH?$AAe?$AAl?$AAl?$AAo?$AA?5?$AAf?$AAr?$AAo?$AAm?$AA?5?$AA?$CC?$AAE?$AAX?$AAP?$AA_?$AAt?$AAe?$AAs?$AAt?$AA3?$AA?$CC?$AA?4?$AA?5?$AAI?$AA?5?$AAa?$AAs?$AAs?$AAi?$AAg?$AAn@| [ DATA ] ; `string'

  00000			 AREA	 |.pdata|, PDATA
|$T79065| DCD	|$LN5@EXP_test3|
	DCD	0x40000a00

  00000			 AREA	 |.rdata|, DATA, READONLY
|??_C@_1HM@IPBCEOJE@?$AAH?$AAe?$AAl?$AAl?$AAo?$AA?5?$AAf?$AAr?$AAo?$AAm?$AA?5?$AA?$CC?$AAE?$AAX?$AAP?$AA_?$AAt?$AAe?$AAs?$AAt?$AA3?$AA?$CC?$AA?4?$AA?5?$AAI?$AA?5?$AAa?$AAs?$AAs?$AAi?$AAg?$AAn@| DCB "H"
	DCB	0x0, "e", 0x0, "l", 0x0, "l", 0x0, "o", 0x0, " ", 0x0, "f"
	DCB	0x0, "r", 0x0, "o", 0x0, "m", 0x0, " ", 0x0, """", 0x0, "E"
	DCB	0x0, "X", 0x0, "P", 0x0, "_", 0x0, "t", 0x0, "e", 0x0, "s"
	DCB	0x0, "t", 0x0, "3", 0x0, """", 0x0, ".", 0x0, " ", 0x0, "I"
	DCB	0x0, " ", 0x0, "a", 0x0, "s", 0x0, "s", 0x0, "i", 0x0, "g"
	DCB	0x0, "n", 0x0, "e", 0x0, "d", 0x0, " ", 0x0, """", 0x0, "i"
	DCB	0x0, "n", 0x0, "t", 0x0, " ", 0x0, "*", 0x0, " ", 0x0, "a"
	DCB	0x0, "s", 0x0, "s", 0x0, "i", 0x0, "g", 0x0, "n", 0x0, "T"
	DCB	0x0, "o", 0x0, "P", 0x0, "t", 0x0, "r", 0x0, """", 0x0, " "
	DCB	0x0, "=", 0x0, " ", 0x0, "1", 0x0, "3", 0x0, "3", 0x0, "7"
	DCB	0x0, 0x0, 0x0				; `string'
; Function compile flags: /Ogspy

  00000			 AREA	 |.text|, CODE, ARM

  00000		 |?EXP_test3@@YAXPAH@Z| PROC		; EXP_test3
; Line 2113
  00000		 |$LN5@EXP_test3|
  00000		 |$M79062|
  00000	e3a03c05	 mov         r3, #5, 24
; Line 2115
  00004	e59f2018	 ldr         r2, [pc, #0x18]
  00008	e59f1010	 ldr         r1, [pc, #0x10]
  0000c	e3833039	 orr         r3, r3, #0x39
  00010	e5803000	 str         r3, [r0]
  00014	e3a03000	 mov         r3, #0
  00018	e3a00000	 mov         r0, #0
  0001c	ea000000	 b           MessageBoxW
  00020		 |$LN6@EXP_test3|
  00020		 |$LN7@EXP_test3|
  00020	00000000	 DCD         |??_C@_1HM@IPBCEOJE@?$AAH?$AAe?$AAl?$AAl?$AAo?$AA?5?$AAf?$AAr?$AAo?$AAm?$AA?5?$AA?$CC?$AAE?$AAX?$AAP?$AA_?$AAt?$AAe?$AAs?$AAt?$AA3?$AA?$CC?$AA?4?$AA?5?$AAI?$AA?5?$AAa?$AAs?$AAs?$AAi?$AAg?$AAn@|
  00024		 |$LN8@EXP_test3|
  00024	00000000	 DCD         |??_C@_11LOCGONAA@?$AA?$AA@|
  00028		 |$M79063|

			 ENDP  ; |?EXP_test3@@YAXPAH@Z|, EXP_test3

	EXPORT	|?EXP_test5@@YAPAXXZ|			; EXP_test5

  00000			 AREA	 |.pdata|, PDATA
|$T79077| DCD	|$LN5@EXP_test5|
	DCD	0x40000401
; Function compile flags: /Ogspy

  00000			 AREA	 |.text|, CODE, ARM

  00000		 |?EXP_test5@@YAPAXXZ| PROC		; EXP_test5
; Line 2153
  00000		 |$LN5@EXP_test5|
  00000	e24dd004	 sub         sp, sp, #4
  00004		 |$M79074|
; Line 2155
  00004	e28d0000	 add         r0, sp, #0
; Line 2156
  00008	e28dd004	 add         sp, sp, #4
  0000c	e1a0f00e	 mov         pc, lr
  00010		 |$M79075|

			 ENDP  ; |?EXP_test5@@YAPAXXZ|, EXP_test5

	EXPORT	|?add@@YAHHH@Z|				; add

  00000			 AREA	 |.pdata|, PDATA
|$T79088| DCD	|$LN5@add|
	DCD	0x40000200
; Function compile flags: /Ogspy

  00000			 AREA	 |.text|, CODE, ARM

  00000		 |?add@@YAHHH@Z| PROC			; add
; Line 2159
  00000		 |$LN5@add|
  00000		 |$M79085|
; Line 2160
  00000	e0800001	 add         r0, r0, r1
; Line 2161
  00004	e1a0f00e	 mov         pc, lr
  00008		 |$M79086|

			 ENDP  ; |?add@@YAHHH@Z|, add

	EXPORT	|returnNumber|

  00000			 AREA	 |.pdata|, PDATA
|$T79097| DCD	|$LN5@returnNumb|
	DCD	0x40000200
; Function compile flags: /Ogspy

  00000			 AREA	 |.text|, CODE, ARM

  00000		 |returnNumber| PROC
; Line 2163
  00000		 |$LN5@returnNumb|
  00000		 |$M79094|
; Line 2164
  00000	e3a00032	 mov         r0, #0x32
; Line 2165
  00004	e1a0f00e	 mov         pc, lr
  00008		 |$M79095|

			 ENDP  ; |returnNumber|

	EXPORT	|Callbacktest|

  00000			 AREA	 |.pdata|, PDATA
|$T79105| DCD	|$LN5@Callbackte|
	DCD	0x40000401
; Function compile flags: /Ogspy

  00000			 AREA	 |.text|, CODE, ARM

  00000		 |Callbacktest| PROC
; Line 2189
  00000		 |$LN5@Callbackte|
  00000	e52de004	 str         lr, [sp, #-4]!
  00004		 |$M79102|
; Line 2190
  00004	e1a0e00f	 mov         lr, pc
  00008	e1a0f000	 mov         pc, r0
; Line 2191
  0000c	e49df004	 ldr         pc, [sp], #4
  00010		 |$M79103|

			 ENDP  ; |Callbacktest|

	EXPORT	|?WriteByte@CMangoClass@@UAAJPAHE@Z|	; CMangoClass::WriteByte

  00000			 AREA	 |.pdata|, PDATA
|$T79116| DCD	|$LN5@WriteByte|
	DCD	0x40000300
; Function compile flags: /Ogspy

  00000			 AREA	 |.text|, CODE, ARM

  00000		 |?WriteByte@CMangoClass@@UAAJPAHE@Z| PROC ; CMangoClass::WriteByte
; Line 2193
  00000		 |$LN5@WriteByte|
  00000		 |$M79113|
; Line 2194
  00000	e5812000	 str         r2, [r1]
; Line 2195
  00004	e3a00000	 mov         r0, #0
; Line 2196
  00008	e1a0f00e	 mov         pc, lr
  0000c		 |$M79114|

			 ENDP  ; |?WriteByte@CMangoClass@@UAAJPAHE@Z|, CMangoClass::WriteByte

	EXPORT	|?EDB_Mount@CMangoClass@@UAAJPA_WPA_N@Z| ; CMangoClass::EDB_Mount
	EXPORT	|??_C@_1BI@CJKPFBEK@?$AAc?$AAo?$AAr?$AAe?$AAd?$AAl?$AAl?$AA?4?$AAd?$AAl?$AAl?$AA?$AA@| [ DATA ] ; `string'
	EXPORT	|??_C@_1BO@BDKHPBJL@?$AAC?$AAe?$AAM?$AAo?$AAu?$AAn?$AAt?$AAD?$AAB?$AAV?$AAo?$AAl?$AAE?$AAx?$AA?$AA@| [ DATA ] ; `string'

  00000			 AREA	 |.pdata|, PDATA
|$T79130| DCD	|$LN7@EDB_Mount@2|
	DCD	0x40001d02

  00000			 AREA	 |.rdata|, DATA, READONLY
|??_C@_1BI@CJKPFBEK@?$AAc?$AAo?$AAr?$AAe?$AAd?$AAl?$AAl?$AA?4?$AAd?$AAl?$AAl?$AA?$AA@| DCB "c"
	DCB	0x0, "o", 0x0, "r", 0x0, "e", 0x0, "d", 0x0, "l", 0x0, "l"
	DCB	0x0, ".", 0x0, "d", 0x0, "l", 0x0, "l", 0x0, 0x0, 0x0 ; `string'

  00000			 AREA	 |.rdata|, DATA, READONLY
|??_C@_1BO@BDKHPBJL@?$AAC?$AAe?$AAM?$AAo?$AAu?$AAn?$AAt?$AAD?$AAB?$AAV?$AAo?$AAl?$AAE?$AAx?$AA?$AA@| DCB "C"
	DCB	0x0, "e", 0x0, "M", 0x0, "o", 0x0, "u", 0x0, "n", 0x0, "t"
	DCB	0x0, "D", 0x0, "B", 0x0, "V", 0x0, "o", 0x0, "l", 0x0, "E"
	DCB	0x0, "x", 0x0, 0x0, 0x0			; `string'
; Function compile flags: /Ogspy

  00000			 AREA	 |.text|, CODE, ARM

  00000		 |?EDB_Mount@CMangoClass@@UAAJPA_WPA_N@Z| PROC ; CMangoClass::EDB_Mount
; Line 2201
  00000		 |$LN7@EDB_Mount@2|
  00000	e92d4070	 stmdb       sp!, {r4 - r6, lr}
  00004	e24dd010	 sub         sp, sp, #0x10
  00008		 |$M79127|
  00008	e1a06002	 mov         r6, r2
  0000c	e1a05001	 mov         r5, r1
; Line 2202
  00010	e59f0058	 ldr         r0, [pc, #0x58]
  00014	eb000000	 bl          LoadLibraryW
  00018	e59f104c	 ldr         r1, [pc, #0x4C]
  0001c	eb000000	 bl          GetProcAddressW
; Line 2205
  00020	e3a03000	 mov         r3, #0
  00024	e58d3000	 str         r3, [sp]
  00028	e58d3004	 str         r3, [sp, #4]
  0002c	e58d3008	 str         r3, [sp, #8]
  00030	e58d300c	 str         r3, [sp, #0xC]
  00034	e1a04000	 mov         r4, r0
; Line 2207
  00038	e3a0310e	 mov         r3, #0xE, 2
  0003c	e3a02000	 mov         r2, #0
  00040	e1a01005	 mov         r1, r5
  00044	e28d0000	 add         r0, sp, #0
  00048	e1a0e00f	 mov         lr, pc
  0004c	e1a0f004	 mov         pc, r4
  00050	e3500000	 cmp         r0, #0
  00054	13a03001	 movne       r3, #1
  00058	03a03000	 moveq       r3, #0
; Line 2208
  0005c	e5c63000	 strb        r3, [r6]
; Line 2210
  00060	e28d0000	 add         r0, sp, #0
; Line 2211
  00064	e28dd010	 add         sp, sp, #0x10
  00068	e8bd8070	 ldmia       sp!, {r4 - r6, pc}
  0006c		 |$LN8@EDB_Mount@2|
  0006c		 |$LN9@EDB_Mount@2|
  0006c	00000000	 DCD         |??_C@_1BO@BDKHPBJL@?$AAC?$AAe?$AAM?$AAo?$AAu?$AAn?$AAt?$AAD?$AAB?$AAV?$AAo?$AAl?$AAE?$AAx?$AA?$AA@|
  00070		 |$LN10@EDB_Mount@2|
  00070	00000000	 DCD         |??_C@_1BI@CJKPFBEK@?$AAc?$AAo?$AAr?$AAe?$AAd?$AAl?$AAl?$AA?4?$AAd?$AAl?$AAl?$AA?$AA@|
  00074		 |$M79128|

			 ENDP  ; |?EDB_Mount@CMangoClass@@UAAJPA_WPA_N@Z|, CMangoClass::EDB_Mount

	EXPORT	|?EDB_OpenMounted@CMangoClass@@UAAJPA_WPAU_CEGUID@@@Z| ; CMangoClass::EDB_OpenMounted

  00000			 AREA	 |.pdata|, PDATA
|$T79142| DCD	|$LN5@EDB_OpenMo|
	DCD	0x40000200
; Function compile flags: /Ogspy

  00000			 AREA	 |.text|, CODE, ARM

  00000		 |?EDB_OpenMounted@CMangoClass@@UAAJPA_WPAU_CEGUID@@@Z| PROC ; CMangoClass::EDB_OpenMounted
; Line 2216
  00000		 |$LN5@EDB_OpenMo|
  00000		 |$M79139|
; Line 2217
  00000	e3a00000	 mov         r0, #0
; Line 2229
  00004	e1a0f00e	 mov         pc, lr
  00008		 |$M79140|

			 ENDP  ; |?EDB_OpenMounted@CMangoClass@@UAAJPA_WPAU_CEGUID@@@Z|, CMangoClass::EDB_OpenMounted

	EXPORT	|?EDB_FindFirstDB@CMangoClass@@UAAJPAU_CEGUID@@@Z| ; CMangoClass::EDB_FindFirstDB
	IMPORT	|CeFindFirstDatabaseEx|

  00000			 AREA	 |.pdata|, PDATA
|$T79151| DCD	|$LN5@EDB_FindFi|
	DCD	0x40000300
; Function compile flags: /Ogspy

  00000			 AREA	 |.text|, CODE, ARM

  00000		 |?EDB_FindFirstDB@CMangoClass@@UAAJPAU_CEGUID@@@Z| PROC ; CMangoClass::EDB_FindFirstDB
; Line 2231
  00000		 |$LN5@EDB_FindFi|
  00000		 |$M79148|
; Line 2232
  00000	e3a01000	 mov         r1, #0
  00004	e3a00000	 mov         r0, #0
  00008	ea000000	 b           CeFindFirstDatabaseEx
  0000c		 |$M79149|

			 ENDP  ; |?EDB_FindFirstDB@CMangoClass@@UAAJPAU_CEGUID@@@Z|, CMangoClass::EDB_FindFirstDB

	EXPORT	|?EDB_FindNextDB@CMangoClass@@UAAJPAXPAU_CEGUID@@@Z| ; CMangoClass::EDB_FindNextDB
	IMPORT	|CeFindNextDatabaseEx|

  00000			 AREA	 |.pdata|, PDATA
|$T79162| DCD	|$LN5@EDB_FindNe|
	DCD	0x40000300
; Function compile flags: /Ogspy

  00000			 AREA	 |.text|, CODE, ARM

  00000		 |?EDB_FindNextDB@CMangoClass@@UAAJPAXPAU_CEGUID@@@Z| PROC ; CMangoClass::EDB_FindNextDB
; Line 2236
  00000		 |$LN5@EDB_FindNe|
  00000		 |$M79159|
  00000	e1a00001	 mov         r0, r1
; Line 2237
  00004	e1a01002	 mov         r1, r2
  00008	ea000000	 b           CeFindNextDatabaseEx
  0000c		 |$M79160|

			 ENDP  ; |?EDB_FindNextDB@CMangoClass@@UAAJPAXPAU_CEGUID@@@Z|, CMangoClass::EDB_FindNextDB

	EXPORT	|?EDB_OpenDBSession@CMangoClass@@UAAJPAU_CEGUID@@PAK@Z| ; CMangoClass::EDB_OpenDBSession
	EXPORT	|??_C@_1DA@GCNOLKIC@?$AAC?$AAe?$AAO?$AAp?$AAe?$AAn?$AAD?$AAa?$AAt?$AAa?$AAb?$AAa?$AAs?$AAe?$AAI?$AAn?$AAS?$AAe?$AAs?$AAs?$AAi?$AAo?$AAn?$AA?$AA@| [ DATA ] ; `string'

  00000			 AREA	 |.pdata|, PDATA
|$T79174| DCD	|$LN5@EDB_OpenDB|
	DCD	0x40001802

  00000			 AREA	 |.rdata|, DATA, READONLY
|??_C@_1DA@GCNOLKIC@?$AAC?$AAe?$AAO?$AAp?$AAe?$AAn?$AAD?$AAa?$AAt?$AAa?$AAb?$AAa?$AAs?$AAe?$AAI?$AAn?$AAS?$AAe?$AAs?$AAs?$AAi?$AAo?$AAn?$AA?$AA@| DCB "C"
	DCB	0x0, "e", 0x0, "O", 0x0, "p", 0x0, "e", 0x0, "n", 0x0, "D"
	DCB	0x0, "a", 0x0, "t", 0x0, "a", 0x0, "b", 0x0, "a", 0x0, "s"
	DCB	0x0, "e", 0x0, "I", 0x0, "n", 0x0, "S", 0x0, "e", 0x0, "s"
	DCB	0x0, "s", 0x0, "i", 0x0, "o", 0x0, "n", 0x0, 0x0, 0x0 ; `string'
; Function compile flags: /Ogspy

  00000			 AREA	 |.text|, CODE, ARM

  00000		 |?EDB_OpenDBSession@CMangoClass@@UAAJPAU_CEGUID@@PAK@Z| PROC ; CMangoClass::EDB_OpenDBSession
; Line 2241
  00000		 |$LN5@EDB_OpenDB|
  00000	e92d41f0	 stmdb       sp!, {r4 - r8, lr}
  00004	e24dd00c	 sub         sp, sp, #0xC
  00008		 |$M79171|
  00008	e1a05002	 mov         r5, r2
  0000c	e1a06001	 mov         r6, r1
; Line 2242
  00010	e59f0044	 ldr         r0, [pc, #0x44]
  00014	eb000000	 bl          LoadLibraryW
  00018	e59f1038	 ldr         r1, [pc, #0x38]
  0001c	eb000000	 bl          GetProcAddressW
; Line 2244
  00020	e3a08001	 mov         r8, #1
  00024	e3a07000	 mov         r7, #0
  00028	e1a04000	 mov         r4, r0
  0002c	e3a00000	 mov         r0, #0
  00030	e58d7008	 str         r7, [sp, #8]
  00034	e58d8004	 str         r8, [sp, #4]
  00038	e58d7000	 str         r7, [sp]
  0003c	e3a03000	 mov         r3, #0
  00040	e1a02005	 mov         r2, r5
  00044	e1a01006	 mov         r1, r6
  00048	e1a0e00f	 mov         lr, pc
  0004c	e1a0f004	 mov         pc, r4
; Line 2246
  00050	e28dd00c	 add         sp, sp, #0xC
  00054	e8bd81f0	 ldmia       sp!, {r4 - r8, pc}
  00058		 |$LN6@EDB_OpenDB|
  00058		 |$LN7@EDB_OpenDB|
  00058	00000000	 DCD         |??_C@_1DA@GCNOLKIC@?$AAC?$AAe?$AAO?$AAp?$AAe?$AAn?$AAD?$AAa?$AAt?$AAa?$AAb?$AAa?$AAs?$AAe?$AAI?$AAn?$AAS?$AAe?$AAs?$AAs?$AAi?$AAo?$AAn?$AA?$AA@|
  0005c		 |$LN8@EDB_OpenDB|
  0005c	00000000	 DCD         |??_C@_1BI@CJKPFBEK@?$AAc?$AAo?$AAr?$AAe?$AAd?$AAl?$AAl?$AA?4?$AAd?$AAl?$AAl?$AA?$AA@|
  00060		 |$M79172|

			 ENDP  ; |?EDB_OpenDBSession@CMangoClass@@UAAJPAU_CEGUID@@PAK@Z|, CMangoClass::EDB_OpenDBSession

	EXPORT	|?EDB_CloseHandle@CMangoClass@@UAAJPAX@Z| ; CMangoClass::EDB_CloseHandle
	IMPORT	|CloseHandle|

  00000			 AREA	 |.pdata|, PDATA
|$T79187| DCD	|$LN5@EDB_CloseH|
	DCD	0x40000200
; Function compile flags: /Ogspy

  00000			 AREA	 |.text|, CODE, ARM

  00000		 |?EDB_CloseHandle@CMangoClass@@UAAJPAX@Z| PROC ; CMangoClass::EDB_CloseHandle
; Line 2248
  00000		 |$LN5@EDB_CloseH|
  00000		 |$M79184|
; Line 2249
  00000	e1a00001	 mov         r0, r1
  00004	ea000000	 b           CloseHandle
  00008		 |$M79185|

			 ENDP  ; |?EDB_CloseHandle@CMangoClass@@UAAJPAX@Z|, CMangoClass::EDB_CloseHandle

	EXPORT	|?EDB_CeOidGetInfoEx@CMangoClass@@UAAJPAU_CEGUID@@K@Z| ; CMangoClass::EDB_CeOidGetInfoEx
	IMPORT	|CeOidGetInfoEx2|

  00000			 AREA	 |.pdata|, PDATA
|$T79198| DCD	|$LN5@EDB_CeOidG@2|
	DCD	0x40001002
; Function compile flags: /Ogspy

  00000			 AREA	 |.text|, CODE, ARM

  00000		 |?EDB_CeOidGetInfoEx@CMangoClass@@UAAJPAU_CEGUID@@K@Z| PROC ; CMangoClass::EDB_CeOidGetInfoEx
; Line 2253
  00000		 |$LN5@EDB_CeOidG@2|
  00000	e92d4030	 stmdb       sp!, {r4, r5, lr}
  00004	e24dde9a	 sub         sp, sp, #0x9A, 28	; 2464 (0x9a0)
  00008		 |$M79195|
  00008	e1a04002	 mov         r4, r2
  0000c	e1a05001	 mov         r5, r1
; Line 2255
  00010	e3a02e9a	 mov         r2, #0x9A, 28
  00014	e3a01000	 mov         r1, #0
  00018	e28d0000	 add         r0, sp, #0
  0001c	eb000000	 bl          memset
; Line 2256
  00020	e3a03002	 mov         r3, #2
; Line 2258
  00024	e28d2000	 add         r2, sp, #0
  00028	e1a01004	 mov         r1, r4
  0002c	e1a00005	 mov         r0, r5
  00030	e1cd30b0	 strh        r3, [sp]
  00034	eb000000	 bl          CeOidGetInfoEx2
; Line 2278
  00038	e28dde9a	 add         sp, sp, #0x9A, 28	; 2464 (0x9a0)
  0003c	e8bd8030	 ldmia       sp!, {r4, r5, pc}
  00040		 |$M79196|

			 ENDP  ; |?EDB_CeOidGetInfoEx@CMangoClass@@UAAJPAU_CEGUID@@K@Z|, CMangoClass::EDB_CeOidGetInfoEx

	EXPORT	|?EDB_OpenDBFind@CMangoClass@@UAAJPAU_CEGUID@@K@Z| ; CMangoClass::EDB_OpenDBFind
	IMPORT	|CeOpenDatabaseInSession|

  00000			 AREA	 |.pdata|, PDATA
|$T79208| DCD	|$LN5@EDB_OpenDB@2|
	DCD	0x40000f04
; Function compile flags: /Ogspy

  00000			 AREA	 |.text|, CODE, ARM

  00000		 |?EDB_OpenDBFind@CMangoClass@@UAAJPAU_CEGUID@@K@Z| PROC ; CMangoClass::EDB_OpenDBFind
; Line 2280
  00000		 |$LN5@EDB_OpenDB@2|
  00000	e1a0c00d	 mov         r12, sp
  00004	e92d000f	 stmdb       sp!, {r0 - r3}
  00008	e92d5000	 stmdb       sp!, {r12, lr}
  0000c	e24dd00c	 sub         sp, sp, #0xC
  00010		 |$M79205|
; Line 2281
  00010	e3a03001	 mov         r3, #1
  00014	e58d3004	 str         r3, [sp, #4]
  00018	e3a0e000	 mov         lr, #0
  0001c	e3a03000	 mov         r3, #0
  00020	e28d201c	 add         r2, sp, #0x1C
  00024	e3a00000	 mov         r0, #0
  00028	e58de008	 str         lr, [sp, #8]
  0002c	e58de000	 str         lr, [sp]
  00030	eb000000	 bl          CeOpenDatabaseInSession
; Line 2283
  00034	e28dd00c	 add         sp, sp, #0xC
  00038	e89da000	 ldmia       sp, {sp, pc}
  0003c		 |$M79206|

			 ENDP  ; |?EDB_OpenDBFind@CMangoClass@@UAAJPAU_CEGUID@@K@Z|, CMangoClass::EDB_OpenDBFind

	EXPORT	|?EDB_CeOpenDatabaseEx@CMangoClass@@UAAJPAU_CEGUID@@K@Z| ; CMangoClass::EDB_CeOpenDatabaseEx
	IMPORT	|CeOpenDatabaseEx|

  00000			 AREA	 |.pdata|, PDATA
|$T79218| DCD	|$LN5@EDB_CeOpen|
	DCD	0x40000f04
; Function compile flags: /Ogspy

  00000			 AREA	 |.text|, CODE, ARM

  00000		 |?EDB_CeOpenDatabaseEx@CMangoClass@@UAAJPAU_CEGUID@@K@Z| PROC ; CMangoClass::EDB_CeOpenDatabaseEx
; Line 2286
  00000		 |$LN5@EDB_CeOpen|
  00000	e1a0c00d	 mov         r12, sp
  00004	e92d000f	 stmdb       sp!, {r0 - r3}
  00008	e92d5000	 stmdb       sp!, {r12, lr}
  0000c	e24dd008	 sub         sp, sp, #8
  00010		 |$M79215|
  00010	e1a00001	 mov         r0, r1
; Line 2287
  00014	e3a03000	 mov         r3, #0
  00018	e3a02001	 mov         r2, #1
  0001c	e58d3004	 str         r3, [sp, #4]
  00020	e58d2000	 str         r2, [sp]
  00024	e3a03000	 mov         r3, #0
  00028	e3a02000	 mov         r2, #0
  0002c	e28d1018	 add         r1, sp, #0x18
  00030	eb000000	 bl          CeOpenDatabaseEx
; Line 2289
  00034	e28dd008	 add         sp, sp, #8
  00038	e89da000	 ldmia       sp, {sp, pc}
  0003c		 |$M79216|

			 ENDP  ; |?EDB_CeOpenDatabaseEx@CMangoClass@@UAAJPAU_CEGUID@@K@Z|, CMangoClass::EDB_CeOpenDatabaseEx

	EXPORT	|Test_Return_TimeStruct|

  00000			 AREA	 |.pdata|, PDATA
|$T79227| DCD	|$LN5@Test_Retur|
	DCD	0x40000401
; Function compile flags: /Ogspy

  00000			 AREA	 |.text|, CODE, ARM

  00000		 |Test_Return_TimeStruct| PROC
; Line 2302
  00000		 |$LN5@Test_Retur|
  00000	e24dd004	 sub         sp, sp, #4
  00004		 |$M79224|
; Line 2306
  00004	e28d0000	 add         r0, sp, #0
; Line 2307
  00008	e28dd004	 add         sp, sp, #4
  0000c	e1a0f00e	 mov         pc, lr
  00010		 |$M79225|

			 ENDP  ; |Test_Return_TimeStruct|

	EXPORT	|??B?$CSimpleStringT@_W$0A@@ATL@@QBAPB_WXZ| ; ATL::CSimpleStringT<wchar_t,0>::operator wchar_t const *
; File c:\program files (x86)\microsoft visual studio 9.0\vc\ce\atlmfc\include\atlsimpstr.h

  00000			 AREA	 |.pdata|, PDATA
|$T79237| DCD	|$LN5@operator|
	DCD	0x40000200
; Function compile flags: /Ogspy

  00000			 AREA	 |.text|, CODE, ARM

  00000		 |??B?$CSimpleStringT@_W$0A@@ATL@@QBAPB_WXZ| PROC ; ATL::CSimpleStringT<wchar_t,0>::operator wchar_t const *
; Line 393
  00000		 |$LN5@operator|
  00000		 |$M79234|
; Line 394
  00000	e5900000	 ldr         r0, [r0]
; Line 395
  00004	e1a0f00e	 mov         pc, lr
  00008		 |$M79235|

			 ENDP  ; |??B?$CSimpleStringT@_W$0A@@ATL@@QBAPB_WXZ|, ATL::CSimpleStringT<wchar_t,0>::operator wchar_t const *

; File c:\program files (x86)\microsoft visual studio 9.0\vc\ce\atlmfc\include\atlcom.h

  00000			 AREA	 |.pdata|, PDATA
|$T79246| DCD	|$LN5@GetObjectD|
	DCD	0x40000200
; Function compile flags: /Ogspy

  00000			 AREA	 |.text|, CODE, ARM

  00000		 |?GetObjectDescription@?$CComCoClass@VCMangoClass@@$1?CLSID_MangoClass@@3U_GUID@@B@ATL@@SAPB_WXZ| PROC ; ATL::CComCoClass<CMangoClass,&CLSID_MangoClass>::GetObjectDescription
; Line 3672
  00000		 |$LN5@GetObjectD|
  00000		 |$M79243|
  00000	e3a00000	 mov         r0, #0
  00004	e1a0f00e	 mov         pc, lr
  00008		 |$M79244|

			 ENDP  ; |?GetObjectDescription@?$CComCoClass@VCMangoClass@@$1?CLSID_MangoClass@@3U_GUID@@B@ATL@@SAPB_WXZ|, ATL::CComCoClass<CMangoClass,&CLSID_MangoClass>::GetObjectDescription

	EXPORT	|?_AtlInitialConstruct@?$CComObjectRootEx@VCComMultiThreadModel@ATL@@@ATL@@QAAJXZ| ; ATL::CComObjectRootEx<ATL::CComMultiThreadModel>::_AtlInitialConstruct
; File c:\program files (x86)\microsoft visual studio 9.0\vc\ce\atlmfc\include\atlcore.h

  00000			 AREA	 |.pdata|, PDATA
|$T79264| DCD	|$LN8@AtlInitial|
	DCD	0x40000801
; Function compile flags: /Ogspy

  00000			 AREA	 |.text|, CODE, ARM

  00000		 |?_AtlInitialConstruct@?$CComObjectRootEx@VCComMultiThreadModel@ATL@@@ATL@@QAAJXZ| PROC ; ATL::CComObjectRootEx<ATL::CComMultiThreadModel>::_AtlInitialConstruct
; File c:\program files (x86)\microsoft visual studio 9.0\vc\ce\atlmfc\include\atlcom.h
; Line 2492
  00000		 |$LN8@AtlInitial|
  00000	e92d4010	 stmdb       sp!, {r4, lr}
  00004		 |$M79261|
  00004	e1a04000	 mov         r4, r0
; Line 2493
  00008	e2840004	 add         r0, r4, #4
  0000c	eb000000	 bl          |?Init@CComCriticalSection@ATL@@QAAJXZ|
  00010	e3500000	 cmp         r0, #0
  00014	53a03001	 movpl       r3, #1
  00018	55c43018	 strplb      r3, [r4, #0x18]
; Line 2494
  0001c	e8bd8010	 ldmia       sp!, {r4, pc}
  00020		 |$M79262|

			 ENDP  ; |?_AtlInitialConstruct@?$CComObjectRootEx@VCComMultiThreadModel@ATL@@@ATL@@QAAJXZ|, ATL::CComObjectRootEx<ATL::CComMultiThreadModel>::_AtlInitialConstruct

	EXPORT	|?GetString@?$CSimpleStringT@_W$0A@@ATL@@QBAPB_WXZ| ; ATL::CSimpleStringT<wchar_t,0>::GetString
; File c:\program files (x86)\microsoft visual studio 9.0\vc\ce\atlmfc\include\atlsimpstr.h

  00000			 AREA	 |.pdata|, PDATA
|$T79274| DCD	|$LN5@GetString|
	DCD	0x40000200
; Function compile flags: /Ogspy

  00000			 AREA	 |.text|, CODE, ARM

  00000		 |?GetString@?$CSimpleStringT@_W$0A@@ATL@@QBAPB_WXZ| PROC ; ATL::CSimpleStringT<wchar_t,0>::GetString
; Line 540
  00000		 |$LN5@GetString|
  00000		 |$M79271|
; Line 541
  00000	e5900000	 ldr         r0, [r0]
; Line 542
  00004	e1a0f00e	 mov         pc, lr
  00008		 |$M79272|

			 ENDP  ; |?GetString@?$CSimpleStringT@_W$0A@@ATL@@QBAPB_WXZ|, ATL::CSimpleStringT<wchar_t,0>::GetString

	EXPORT	|?GetDefaultManager@?$StrTraitATL@_WV?$ChTraitsOS@_W@ATL@@@ATL@@SAPAUIAtlStringMgr@2@XZ| ; ATL::StrTraitATL<wchar_t,ATL::ChTraitsOS<wchar_t> >::GetDefaultManager
	IMPORT	|?g_strmgr@ATL@@3VCAtlStringMgr@1@A|	; ATL::g_strmgr
; File c:\program files (x86)\microsoft visual studio 9.0\vc\ce\atlmfc\include\atlstr.h

  00000			 AREA	 |.pdata|, PDATA
|$T79283| DCD	|$LN5@GetDefault|
	DCD	0x40000300
; Function compile flags: /Ogspy

  00000			 AREA	 |.text|, CODE, ARM

  00000		 |?GetDefaultManager@?$StrTraitATL@_WV?$ChTraitsOS@_W@ATL@@@ATL@@SAPAUIAtlStringMgr@2@XZ| PROC ; ATL::StrTraitATL<wchar_t,ATL::ChTraitsOS<wchar_t> >::GetDefaultManager
; Line 1144
  00000		 |$LN5@GetDefault|
  00000		 |$M79280|
; Line 1145
  00000	e59f0000	 ldr         r0, [pc]
; Line 1146
  00004	e1a0f00e	 mov         pc, lr
  00008		 |$LN6@GetDefault|
  00008		 |$LN7@GetDefault|
  00008	00000000	 DCD         |?g_strmgr@ATL@@3VCAtlStringMgr@1@A|
  0000c		 |$M79281|

			 ENDP  ; |?GetDefaultManager@?$StrTraitATL@_WV?$ChTraitsOS@_W@ATL@@@ATL@@SAPAUIAtlStringMgr@2@XZ|, ATL::StrTraitATL<wchar_t,ATL::ChTraitsOS<wchar_t> >::GetDefaultManager

	EXPORT	|?CopyCharsOverlapped@?$CSimpleStringT@_W$0A@@ATL@@SAXPA_WIPB_WH@Z| ; ATL::CSimpleStringT<wchar_t,0>::CopyCharsOverlapped
	IMPORT	|memmove_s|
; File c:\program files (x86)\microsoft visual studio 9.0\vc\ce\atlmfc\include\atlsimpstr.h

  00000			 AREA	 |.pdata|, PDATA
|$T79296| DCD	|$LN5@CopyCharsO|
	DCD	0x40000300
; Function compile flags: /Ogspy

  00000			 AREA	 |.text|, CODE, ARM

  00000		 |?CopyCharsOverlapped@?$CSimpleStringT@_W$0A@@ATL@@SAXPA_WIPB_WH@Z| PROC ; ATL::CSimpleStringT<wchar_t,0>::CopyCharsOverlapped
; Line 711
  00000		 |$LN5@CopyCharsO|
  00000		 |$M79293|
; Line 713
  00000	e1a03083	 mov         r3, r3, lsl #1
  00004	e1a01081	 mov         r1, r1, lsl #1
  00008	ea000000	 b           memmove_s
  0000c		 |$M79294|

			 ENDP  ; |?CopyCharsOverlapped@?$CSimpleStringT@_W$0A@@ATL@@SAXPA_WIPB_WH@Z|, ATL::CSimpleStringT<wchar_t,0>::CopyCharsOverlapped

	EXPORT	|?FindStringResourceInstance@?$StrTraitATL@_WV?$ChTraitsOS@_W@ATL@@@ATL@@SAPAUHINSTANCE__@@I@Z| ; ATL::StrTraitATL<wchar_t,ATL::ChTraitsOS<wchar_t> >::FindStringResourceInstance
; File c:\program files (x86)\microsoft visual studio 9.0\vc\ce\atlmfc\include\atlstr.h

  00000			 AREA	 |.pdata|, PDATA
|$T79306| DCD	|$LN5@FindString|
	DCD	0x40000200
; Function compile flags: /Ogspy

  00000			 AREA	 |.text|, CODE, ARM

  00000		 |?FindStringResourceInstance@?$StrTraitATL@_WV?$ChTraitsOS@_W@ATL@@@ATL@@SAPAUHINSTANCE__@@I@Z| PROC ; ATL::StrTraitATL<wchar_t,ATL::ChTraitsOS<wchar_t> >::FindStringResourceInstance
; Line 1139
  00000		 |$LN5@FindString|
  00000		 |$M79303|
; Line 1140
  00000	e3a01000	 mov         r1, #0
  00004	ea000000	 b           |?AtlFindStringResourceInstance@ATL@@YAPAUHINSTANCE__@@IG@Z|
  00008		 |$M79304|

			 ENDP  ; |?FindStringResourceInstance@?$StrTraitATL@_WV?$ChTraitsOS@_W@ATL@@@ATL@@SAPAUHINSTANCE__@@I@Z|, ATL::StrTraitATL<wchar_t,ATL::ChTraitsOS<wchar_t> >::FindStringResourceInstance

	EXPORT	|?_AtlInitialConstruct@?$CComObjectRootEx@VCComMultiThreadModelNoCS@ATL@@@ATL@@QAAJXZ| ; ATL::CComObjectRootEx<ATL::CComMultiThreadModelNoCS>::_AtlInitialConstruct
; File c:\program files (x86)\microsoft visual studio 9.0\vc\ce\atlmfc\include\atlcore.h

  00000			 AREA	 |.pdata|, PDATA
|$T79318| DCD	|$LN7@AtlInitial@2|
	DCD	0x40000200
; Function compile flags: /Ogspy

  00000			 AREA	 |.text|, CODE, ARM

  00000		 |?_AtlInitialConstruct@?$CComObjectRootEx@VCComMultiThreadModelNoCS@ATL@@@ATL@@QAAJXZ| PROC ; ATL::CComObjectRootEx<ATL::CComMultiThreadModelNoCS>::_AtlInitialConstruct
; File c:\program files (x86)\microsoft visual studio 9.0\vc\ce\atlmfc\include\atlcom.h
; Line 2492
  00000		 |$LN7@AtlInitial@2|
  00000		 |$M79315|
; Line 2493
  00000	e3a00000	 mov         r0, #0
; Line 2494
  00004	e1a0f00e	 mov         pc, lr
  00008		 |$M79316|

			 ENDP  ; |?_AtlInitialConstruct@?$CComObjectRootEx@VCComMultiThreadModelNoCS@ATL@@@ATL@@QAAJXZ|, ATL::CComObjectRootEx<ATL::CComMultiThreadModelNoCS>::_AtlInitialConstruct

	EXPORT	|?StringLength@?$CSimpleStringT@_W$0A@@ATL@@SAHPB_W@Z| ; ATL::CSimpleStringT<wchar_t,0>::StringLength
; File c:\program files (x86)\microsoft visual studio 9.0\vc\ce\atlmfc\include\atlsimpstr.h

  00000			 AREA	 |.pdata|, PDATA
|$T79328| DCD	|$LN6@StringLeng|
	DCD	0x40000601
; Function compile flags: /Ogspy

  00000			 AREA	 |.text|, CODE, ARM

  00000		 |?StringLength@?$CSimpleStringT@_W$0A@@ATL@@SAHPB_W@Z| PROC ; ATL::CSimpleStringT<wchar_t,0>::StringLength
; Line 724
  00000		 |$LN6@StringLeng|
  00000	e52de004	 str         lr, [sp, #-4]!
  00004		 |$M79325|
  00004	e3500000	 cmp         r0, #0
; Line 727
  00008	03a00000	 moveq       r0, #0
; Line 730
  0000c	049df004	 ldreq       pc, [sp], #4
  00010	e49de004	 ldr         lr, [sp], #4
; Line 729
  00014	ea000000	 b           wcslen
  00018		 |$M79326|

			 ENDP  ; |?StringLength@?$CSimpleStringT@_W$0A@@ATL@@SAHPB_W@Z|, ATL::CSimpleStringT<wchar_t,0>::StringLength

	EXPORT	|??$DLLCALL_PARAM@I@@YAJPB_W0@Z|	; DLLCALL_PARAM<unsigned int>
	IMPORT	|__CxxFrameHandler3|
; File c:\users\steven\desktop\csharp - dllimport\csharp - dllimport\vs2008\dllimportmango\mangoclass.cpp

  00000			 AREA	 |.pdata|, PDATA
|$T79353| DCD	|$LN15@DLLCALL_PA|
	DCD	0xc0001503

  00000			 AREA	 |.pdata|, PDATA
|$T79356| DCD	|__catch$79334|
	DCD	0xc0000300

  00000			 AREA	 |.rdata|, DATA, READONLY
|__unwindtable$??$DLLCALL_PARAM@I@@YAJPB_W0@Z| DCD 0xffffffff
	DCD	0x0
	DCD	0xffffffff
	DCD	0x0
|__catchsym$??$DLLCALL_PARAM@I@@YAJPB_W0@Z$2| DCD 0x40
	DCD	0x0
	DCD	0x0
	DCD	0x1
	DCD	|__catch$79334|
|__tryblocktable$??$DLLCALL_PARAM@I@@YAJPB_W0@Z| DCD 0x0
	DCD	0x0
	DCD	0x0
	DCD	0x1
	DCD	|__catchsym$??$DLLCALL_PARAM@I@@YAJPB_W0@Z$2|
|__ehfuncinfo$??$DLLCALL_PARAM@I@@YAJPB_W0@Z| DCD 0x19930522
	DCD	0x2
	DCD	|__unwindtable$??$DLLCALL_PARAM@I@@YAJPB_W0@Z|
	DCD	0x1
	DCD	|__tryblocktable$??$DLLCALL_PARAM@I@@YAJPB_W0@Z|
	DCD	0x1
	DCD	|$T79347|
	DCD	0x0
	DCD	0x1
|$T79347| DCD	|$M79346|
	DCD	0x0
; Function compile flags: /Ogspy

  00000			 AREA	 |.text|, CODE, ARM

  00000	00000000	 DCD         |__CxxFrameHandler3|
  00004	00000000	 DCD         |__ehfuncinfo$??$DLLCALL_PARAM@I@@YAJPB_W0@Z|

  00008		 |??$DLLCALL_PARAM@I@@YAJPB_W0@Z| PROC	; DLLCALL_PARAM<unsigned int>
; Line 296
  00008		 |$LN15@DLLCALL_PA|
  00008	e1a0c00d	 mov         r12, sp
  0000c	e92d5810	 stmdb       sp!, {r4, r11, r12, lr}
  00010	e28db010	 add         r11, sp, #0x10
  00014		 |$M79350|
  00014	e1a04001	 mov         r4, r1
; Line 297
  00018	eb000000	 bl          LoadLibraryW
  0001c	e3500000	 cmp         r0, #0
; Line 299
  00020	0a00000a	 beq         |$LN5@DLLCALL_PA|
; Line 301
  00024	e1a01004	 mov         r1, r4
  00028	eb000000	 bl          GetProcAddressW
  0002c	e3500000	 cmp         r0, #0
; Line 303
  00030	0a000004	 beq         |$LN4@DLLCALL_PA|
  00034		 |$M79346|
; Line 318
  00034	e1a0e00f	 mov         lr, pc
  00038	e1a0f000	 mov         pc, r0
  0003c	ea000004	 b           |$LN6@DLLCALL_PA|
  00040		 |$LN11@DLLCALL_PA|
; Line 324
  00040	e3a00004	 mov         r0, #4
  00044	ea000002	 b           |$LN6@DLLCALL_PA|
  00048		 |$LN4@DLLCALL_PA|
; Line 330
  00048	e3a00003	 mov         r0, #3
  0004c	ea000000	 b           |$LN6@DLLCALL_PA|
  00050		 |$LN5@DLLCALL_PA|
; Line 338
  00050	e3a00002	 mov         r0, #2
  00054		 |$LN6@DLLCALL_PA|
; Line 341
  00054	e24bd010	 sub         sp, r11, #0x10
  00058	e89da810	 ldmia       sp, {r4, r11, sp, pc}
  0005c		 |$M79351|
  0005c	00000000	 DCD         |__CxxFrameHandler3|
  00060	00000000	 DCD         |__ehfuncinfo$??$DLLCALL_PARAM@I@@YAJPB_W0@Z|
  00064		 |__catch$79334|
  00064		 |$M79354|
; Line 324
  00064	e59f0000	 ldr         r0, [pc]
  00068	e1a0f00e	 mov         pc, lr
  0006c		 |$LN18@DLLCALL_PA|
  0006c		 |$LN19@DLLCALL_PA|
  0006c	00000000	 DCD         |$LN11@DLLCALL_PA|
  00070		 |$M79355|

			 ENDP  ; |??$DLLCALL_PARAM@I@@YAJPB_W0@Z|, DLLCALL_PARAM<unsigned int>

	EXPORT	|??$DLLCALL_PARAM@II@@YAJPB_W0IH@Z|	; DLLCALL_PARAM<unsigned int,unsigned int>

  00000			 AREA	 |.pdata|, PDATA
|$T79385| DCD	|$LN15@DLLCALL_PA@2|
	DCD	0xc0001703

  00000			 AREA	 |.pdata|, PDATA
|$T79388| DCD	|__catch$79366|
	DCD	0xc0000300

  00000			 AREA	 |.rdata|, DATA, READONLY
|__unwindtable$??$DLLCALL_PARAM@II@@YAJPB_W0IH@Z| DCD 0xffffffff
	DCD	0x0
	DCD	0xffffffff
	DCD	0x0
|__catchsym$??$DLLCALL_PARAM@II@@YAJPB_W0IH@Z$2| DCD 0x40
	DCD	0x0
	DCD	0x0
	DCD	0x1
	DCD	|__catch$79366|
|__tryblocktable$??$DLLCALL_PARAM@II@@YAJPB_W0IH@Z| DCD 0x0
	DCD	0x0
	DCD	0x0
	DCD	0x1
	DCD	|__catchsym$??$DLLCALL_PARAM@II@@YAJPB_W0IH@Z$2|
|__ehfuncinfo$??$DLLCALL_PARAM@II@@YAJPB_W0IH@Z| DCD 0x19930522
	DCD	0x2
	DCD	|__unwindtable$??$DLLCALL_PARAM@II@@YAJPB_W0IH@Z|
	DCD	0x1
	DCD	|__tryblocktable$??$DLLCALL_PARAM@II@@YAJPB_W0IH@Z|
	DCD	0x1
	DCD	|$T79380|
	DCD	0x0
	DCD	0x1
|$T79380| DCD	|$M79379|
	DCD	0x0
; Function compile flags: /Ogspy

  00000			 AREA	 |.text|, CODE, ARM

  00000	00000000	 DCD         |__CxxFrameHandler3|
  00004	00000000	 DCD         |__ehfuncinfo$??$DLLCALL_PARAM@II@@YAJPB_W0IH@Z|

  00008		 |??$DLLCALL_PARAM@II@@YAJPB_W0IH@Z| PROC ; DLLCALL_PARAM<unsigned int,unsigned int>
; Line 115
  00008		 |$LN15@DLLCALL_PA@2|
  00008	e1a0c00d	 mov         r12, sp
  0000c	e92d5830	 stmdb       sp!, {r4, r5, r11, r12, lr}
  00010	e28db014	 add         r11, sp, #0x14
  00014		 |$M79382|
  00014	e1a04002	 mov         r4, r2
  00018	e1a05001	 mov         r5, r1
; Line 116
  0001c	eb000000	 bl          LoadLibraryW
  00020	e3500000	 cmp         r0, #0
; Line 118
  00024	0a00000b	 beq         |$LN5@DLLCALL_PA@2|
; Line 120
  00028	e1a01005	 mov         r1, r5
  0002c	eb000000	 bl          GetProcAddressW
  00030	e1b03000	 movs        r3, r0
; Line 122
  00034	0a000005	 beq         |$LN4@DLLCALL_PA@2|
; Line 137
  00038	e1a00004	 mov         r0, r4
  0003c		 |$M79379|
  0003c	e1a0e00f	 mov         lr, pc
  00040	e1a0f003	 mov         pc, r3
  00044	ea000004	 b           |$LN6@DLLCALL_PA@2|
  00048		 |$LN11@DLLCALL_PA@2|
; Line 143
  00048	e3a00004	 mov         r0, #4
  0004c	ea000002	 b           |$LN6@DLLCALL_PA@2|
  00050		 |$LN4@DLLCALL_PA@2|
; Line 149
  00050	e3a00003	 mov         r0, #3
  00054	ea000000	 b           |$LN6@DLLCALL_PA@2|
  00058		 |$LN5@DLLCALL_PA@2|
; Line 157
  00058	e3a00002	 mov         r0, #2
  0005c		 |$LN6@DLLCALL_PA@2|
; Line 160
  0005c	e24bd014	 sub         sp, r11, #0x14
  00060	e89da830	 ldmia       sp, {r4, r5, r11, sp, pc}
  00064		 |$M79383|
  00064	00000000	 DCD         |__CxxFrameHandler3|
  00068	00000000	 DCD         |__ehfuncinfo$??$DLLCALL_PARAM@II@@YAJPB_W0IH@Z|
  0006c		 |__catch$79366|
  0006c		 |$M79386|
; Line 143
  0006c	e59f0000	 ldr         r0, [pc]
  00070	e1a0f00e	 mov         pc, lr
  00074		 |$LN18@DLLCALL_PA@2|
  00074		 |$LN19@DLLCALL_PA@2|
  00074	00000000	 DCD         |$LN11@DLLCALL_PA@2|
  00078		 |$M79387|

			 ENDP  ; |??$DLLCALL_PARAM@II@@YAJPB_W0IH@Z|, DLLCALL_PARAM<unsigned int,unsigned int>

	EXPORT	|??$DLLCALL_PARAM@J@@YAJPB_W0@Z|	; DLLCALL_PARAM<long>

  00000			 AREA	 |.pdata|, PDATA
|$T79416| DCD	|$LN15@DLLCALL_PA@3|
	DCD	0xc0001503

  00000			 AREA	 |.pdata|, PDATA
|$T79419| DCD	|__catch$79398|
	DCD	0xc0000300

  00000			 AREA	 |.rdata|, DATA, READONLY
|__unwindtable$??$DLLCALL_PARAM@J@@YAJPB_W0@Z| DCD 0xffffffff
	DCD	0x0
	DCD	0xffffffff
	DCD	0x0
|__catchsym$??$DLLCALL_PARAM@J@@YAJPB_W0@Z$2| DCD 0x40
	DCD	0x0
	DCD	0x0
	DCD	0x1
	DCD	|__catch$79398|
|__tryblocktable$??$DLLCALL_PARAM@J@@YAJPB_W0@Z| DCD 0x0
	DCD	0x0
	DCD	0x0
	DCD	0x1
	DCD	|__catchsym$??$DLLCALL_PARAM@J@@YAJPB_W0@Z$2|
|__ehfuncinfo$??$DLLCALL_PARAM@J@@YAJPB_W0@Z| DCD 0x19930522
	DCD	0x2
	DCD	|__unwindtable$??$DLLCALL_PARAM@J@@YAJPB_W0@Z|
	DCD	0x1
	DCD	|__tryblocktable$??$DLLCALL_PARAM@J@@YAJPB_W0@Z|
	DCD	0x1
	DCD	|$T79411|
	DCD	0x0
	DCD	0x1
|$T79411| DCD	|$M79410|
	DCD	0x0
; Function compile flags: /Ogspy

  00000			 AREA	 |.text|, CODE, ARM

  00000	00000000	 DCD         |__CxxFrameHandler3|
  00004	00000000	 DCD         |__ehfuncinfo$??$DLLCALL_PARAM@J@@YAJPB_W0@Z|

  00008		 |??$DLLCALL_PARAM@J@@YAJPB_W0@Z| PROC	; DLLCALL_PARAM<long>
; Line 296
  00008		 |$LN15@DLLCALL_PA@3|
  00008	e1a0c00d	 mov         r12, sp
  0000c	e92d5810	 stmdb       sp!, {r4, r11, r12, lr}
  00010	e28db010	 add         r11, sp, #0x10
  00014		 |$M79413|
  00014	e1a04001	 mov         r4, r1
; Line 297
  00018	eb000000	 bl          LoadLibraryW
  0001c	e3500000	 cmp         r0, #0
; Line 299
  00020	0a00000a	 beq         |$LN5@DLLCALL_PA@3|
; Line 301
  00024	e1a01004	 mov         r1, r4
  00028	eb000000	 bl          GetProcAddressW
  0002c	e3500000	 cmp         r0, #0
; Line 303
  00030	0a000004	 beq         |$LN4@DLLCALL_PA@3|
  00034		 |$M79410|
; Line 318
  00034	e1a0e00f	 mov         lr, pc
  00038	e1a0f000	 mov         pc, r0
  0003c	ea000004	 b           |$LN6@DLLCALL_PA@3|
  00040		 |$LN11@DLLCALL_PA@3|
; Line 324
  00040	e3a00004	 mov         r0, #4
  00044	ea000002	 b           |$LN6@DLLCALL_PA@3|
  00048		 |$LN4@DLLCALL_PA@3|
; Line 330
  00048	e3a00003	 mov         r0, #3
  0004c	ea000000	 b           |$LN6@DLLCALL_PA@3|
  00050		 |$LN5@DLLCALL_PA@3|
; Line 338
  00050	e3a00002	 mov         r0, #2
  00054		 |$LN6@DLLCALL_PA@3|
; Line 341
  00054	e24bd010	 sub         sp, r11, #0x10
  00058	e89da810	 ldmia       sp, {r4, r11, sp, pc}
  0005c		 |$M79414|
  0005c	00000000	 DCD         |__CxxFrameHandler3|
  00060	00000000	 DCD         |__ehfuncinfo$??$DLLCALL_PARAM@J@@YAJPB_W0@Z|
  00064		 |__catch$79398|
  00064		 |$M79417|
; Line 324
  00064	e59f0000	 ldr         r0, [pc]
  00068	e1a0f00e	 mov         pc, lr
  0006c		 |$LN18@DLLCALL_PA@3|
  0006c		 |$LN19@DLLCALL_PA@3|
  0006c	00000000	 DCD         |$LN11@DLLCALL_PA@3|
  00070		 |$M79418|

			 ENDP  ; |??$DLLCALL_PARAM@J@@YAJPB_W0@Z|, DLLCALL_PARAM<long>

	EXPORT	|??$DLLCALL_PARAM@IPB_W@@YAJPB_W00H@Z|	; DLLCALL_PARAM<unsigned int,wchar_t const *>

  00000			 AREA	 |.pdata|, PDATA
|$T79448| DCD	|$LN15@DLLCALL_PA@4|
	DCD	0xc0001703

  00000			 AREA	 |.pdata|, PDATA
|$T79451| DCD	|__catch$79429|
	DCD	0xc0000300

  00000			 AREA	 |.rdata|, DATA, READONLY
|__unwindtable$??$DLLCALL_PARAM@IPB_W@@YAJPB_W00H@Z| DCD 0xffffffff
	DCD	0x0
	DCD	0xffffffff
	DCD	0x0
|__catchsym$??$DLLCALL_PARAM@IPB_W@@YAJPB_W00H@Z$2| DCD 0x40
	DCD	0x0
	DCD	0x0
	DCD	0x1
	DCD	|__catch$79429|
|__tryblocktable$??$DLLCALL_PARAM@IPB_W@@YAJPB_W00H@Z| DCD 0x0
	DCD	0x0
	DCD	0x0
	DCD	0x1
	DCD	|__catchsym$??$DLLCALL_PARAM@IPB_W@@YAJPB_W00H@Z$2|
|__ehfuncinfo$??$DLLCALL_PARAM@IPB_W@@YAJPB_W00H@Z| DCD 0x19930522
	DCD	0x2
	DCD	|__unwindtable$??$DLLCALL_PARAM@IPB_W@@YAJPB_W00H@Z|
	DCD	0x1
	DCD	|__tryblocktable$??$DLLCALL_PARAM@IPB_W@@YAJPB_W00H@Z|
	DCD	0x1
	DCD	|$T79443|
	DCD	0x0
	DCD	0x1
|$T79443| DCD	|$M79442|
	DCD	0x0
; Function compile flags: /Ogspy

  00000			 AREA	 |.text|, CODE, ARM

  00000	00000000	 DCD         |__CxxFrameHandler3|
  00004	00000000	 DCD         |__ehfuncinfo$??$DLLCALL_PARAM@IPB_W@@YAJPB_W00H@Z|

  00008		 |??$DLLCALL_PARAM@IPB_W@@YAJPB_W00H@Z| PROC ; DLLCALL_PARAM<unsigned int,wchar_t const *>
; Line 115
  00008		 |$LN15@DLLCALL_PA@4|
  00008	e1a0c00d	 mov         r12, sp
  0000c	e92d5830	 stmdb       sp!, {r4, r5, r11, r12, lr}
  00010	e28db014	 add         r11, sp, #0x14
  00014		 |$M79445|
  00014	e1a04002	 mov         r4, r2
  00018	e1a05001	 mov         r5, r1
; Line 116
  0001c	eb000000	 bl          LoadLibraryW
  00020	e3500000	 cmp         r0, #0
; Line 118
  00024	0a00000b	 beq         |$LN5@DLLCALL_PA@4|
; Line 120
  00028	e1a01005	 mov         r1, r5
  0002c	eb000000	 bl          GetProcAddressW
  00030	e1b03000	 movs        r3, r0
; Line 122
  00034	0a000005	 beq         |$LN4@DLLCALL_PA@4|
; Line 137
  00038	e1a00004	 mov         r0, r4
  0003c		 |$M79442|
  0003c	e1a0e00f	 mov         lr, pc
  00040	e1a0f003	 mov         pc, r3
  00044	ea000004	 b           |$LN6@DLLCALL_PA@4|
  00048		 |$LN11@DLLCALL_PA@4|
; Line 143
  00048	e3a00004	 mov         r0, #4
  0004c	ea000002	 b           |$LN6@DLLCALL_PA@4|
  00050		 |$LN4@DLLCALL_PA@4|
; Line 149
  00050	e3a00003	 mov         r0, #3
  00054	ea000000	 b           |$LN6@DLLCALL_PA@4|
  00058		 |$LN5@DLLCALL_PA@4|
; Line 157
  00058	e3a00002	 mov         r0, #2
  0005c		 |$LN6@DLLCALL_PA@4|
; Line 160
  0005c	e24bd014	 sub         sp, r11, #0x14
  00060	e89da830	 ldmia       sp, {r4, r5, r11, sp, pc}
  00064		 |$M79446|
  00064	00000000	 DCD         |__CxxFrameHandler3|
  00068	00000000	 DCD         |__ehfuncinfo$??$DLLCALL_PARAM@IPB_W@@YAJPB_W00H@Z|
  0006c		 |__catch$79429|
  0006c		 |$M79449|
; Line 143
  0006c	e59f0000	 ldr         r0, [pc]
  00070	e1a0f00e	 mov         pc, lr
  00074		 |$LN18@DLLCALL_PA@4|
  00074		 |$LN19@DLLCALL_PA@4|
  00074	00000000	 DCD         |$LN11@DLLCALL_PA@4|
  00078		 |$M79450|

			 ENDP  ; |??$DLLCALL_PARAM@IPB_W@@YAJPB_W00H@Z|, DLLCALL_PARAM<unsigned int,wchar_t const *>

	EXPORT	|??$DLLCALL_PARAM@I_N@@YAJPB_W0_NH@Z|	; DLLCALL_PARAM<unsigned int,bool>

  00000			 AREA	 |.pdata|, PDATA
|$T79480| DCD	|$LN15@DLLCALL_PA@5|
	DCD	0xc0001703

  00000			 AREA	 |.pdata|, PDATA
|$T79483| DCD	|__catch$79461|
	DCD	0xc0000300

  00000			 AREA	 |.rdata|, DATA, READONLY
|__unwindtable$??$DLLCALL_PARAM@I_N@@YAJPB_W0_NH@Z| DCD 0xffffffff
	DCD	0x0
	DCD	0xffffffff
	DCD	0x0
|__catchsym$??$DLLCALL_PARAM@I_N@@YAJPB_W0_NH@Z$2| DCD 0x40
	DCD	0x0
	DCD	0x0
	DCD	0x1
	DCD	|__catch$79461|
|__tryblocktable$??$DLLCALL_PARAM@I_N@@YAJPB_W0_NH@Z| DCD 0x0
	DCD	0x0
	DCD	0x0
	DCD	0x1
	DCD	|__catchsym$??$DLLCALL_PARAM@I_N@@YAJPB_W0_NH@Z$2|
|__ehfuncinfo$??$DLLCALL_PARAM@I_N@@YAJPB_W0_NH@Z| DCD 0x19930522
	DCD	0x2
	DCD	|__unwindtable$??$DLLCALL_PARAM@I_N@@YAJPB_W0_NH@Z|
	DCD	0x1
	DCD	|__tryblocktable$??$DLLCALL_PARAM@I_N@@YAJPB_W0_NH@Z|
	DCD	0x1
	DCD	|$T79475|
	DCD	0x0
	DCD	0x1
|$T79475| DCD	|$M79474|
	DCD	0x0
; Function compile flags: /Ogspy

  00000			 AREA	 |.text|, CODE, ARM

  00000	00000000	 DCD         |__CxxFrameHandler3|
  00004	00000000	 DCD         |__ehfuncinfo$??$DLLCALL_PARAM@I_N@@YAJPB_W0_NH@Z|

  00008		 |??$DLLCALL_PARAM@I_N@@YAJPB_W0_NH@Z| PROC ; DLLCALL_PARAM<unsigned int,bool>
; Line 115
  00008		 |$LN15@DLLCALL_PA@5|
  00008	e1a0c00d	 mov         r12, sp
  0000c	e92d5830	 stmdb       sp!, {r4, r5, r11, r12, lr}
  00010	e28db014	 add         r11, sp, #0x14
  00014		 |$M79477|
  00014	e1a04002	 mov         r4, r2
  00018	e1a05001	 mov         r5, r1
; Line 116
  0001c	eb000000	 bl          LoadLibraryW
  00020	e3500000	 cmp         r0, #0
; Line 118
  00024	0a00000b	 beq         |$LN5@DLLCALL_PA@5|
; Line 120
  00028	e1a01005	 mov         r1, r5
  0002c	eb000000	 bl          GetProcAddressW
  00030	e1b03000	 movs        r3, r0
; Line 122
  00034	0a000005	 beq         |$LN4@DLLCALL_PA@5|
; Line 137
  00038	e1a00004	 mov         r0, r4
  0003c		 |$M79474|
  0003c	e1a0e00f	 mov         lr, pc
  00040	e1a0f003	 mov         pc, r3
  00044	ea000004	 b           |$LN6@DLLCALL_PA@5|
  00048		 |$LN11@DLLCALL_PA@5|
; Line 143
  00048	e3a00004	 mov         r0, #4
  0004c	ea000002	 b           |$LN6@DLLCALL_PA@5|
  00050		 |$LN4@DLLCALL_PA@5|
; Line 149
  00050	e3a00003	 mov         r0, #3
  00054	ea000000	 b           |$LN6@DLLCALL_PA@5|
  00058		 |$LN5@DLLCALL_PA@5|
; Line 157
  00058	e3a00002	 mov         r0, #2
  0005c		 |$LN6@DLLCALL_PA@5|
; Line 160
  0005c	e24bd014	 sub         sp, r11, #0x14
  00060	e89da830	 ldmia       sp, {r4, r5, r11, sp, pc}
  00064		 |$M79478|
  00064	00000000	 DCD         |__CxxFrameHandler3|
  00068	00000000	 DCD         |__ehfuncinfo$??$DLLCALL_PARAM@I_N@@YAJPB_W0_NH@Z|
  0006c		 |__catch$79461|
  0006c		 |$M79481|
; Line 143
  0006c	e59f0000	 ldr         r0, [pc]
  00070	e1a0f00e	 mov         pc, lr
  00074		 |$LN18@DLLCALL_PA@5|
  00074		 |$LN19@DLLCALL_PA@5|
  00074	00000000	 DCD         |$LN11@DLLCALL_PA@5|
  00078		 |$M79482|

			 ENDP  ; |??$DLLCALL_PARAM@I_N@@YAJPB_W0_NH@Z|, DLLCALL_PARAM<unsigned int,bool>

	EXPORT	|??$DLLCALL_PARAM@IH@@YAJPB_W0HH@Z|	; DLLCALL_PARAM<unsigned int,int>

  00000			 AREA	 |.pdata|, PDATA
|$T79512| DCD	|$LN15@DLLCALL_PA@6|
	DCD	0xc0001703

  00000			 AREA	 |.pdata|, PDATA
|$T79515| DCD	|__catch$79493|
	DCD	0xc0000300

  00000			 AREA	 |.rdata|, DATA, READONLY
|__unwindtable$??$DLLCALL_PARAM@IH@@YAJPB_W0HH@Z| DCD 0xffffffff
	DCD	0x0
	DCD	0xffffffff
	DCD	0x0
|__catchsym$??$DLLCALL_PARAM@IH@@YAJPB_W0HH@Z$2| DCD 0x40
	DCD	0x0
	DCD	0x0
	DCD	0x1
	DCD	|__catch$79493|
|__tryblocktable$??$DLLCALL_PARAM@IH@@YAJPB_W0HH@Z| DCD 0x0
	DCD	0x0
	DCD	0x0
	DCD	0x1
	DCD	|__catchsym$??$DLLCALL_PARAM@IH@@YAJPB_W0HH@Z$2|
|__ehfuncinfo$??$DLLCALL_PARAM@IH@@YAJPB_W0HH@Z| DCD 0x19930522
	DCD	0x2
	DCD	|__unwindtable$??$DLLCALL_PARAM@IH@@YAJPB_W0HH@Z|
	DCD	0x1
	DCD	|__tryblocktable$??$DLLCALL_PARAM@IH@@YAJPB_W0HH@Z|
	DCD	0x1
	DCD	|$T79507|
	DCD	0x0
	DCD	0x1
|$T79507| DCD	|$M79506|
	DCD	0x0
; Function compile flags: /Ogspy

  00000			 AREA	 |.text|, CODE, ARM

  00000	00000000	 DCD         |__CxxFrameHandler3|
  00004	00000000	 DCD         |__ehfuncinfo$??$DLLCALL_PARAM@IH@@YAJPB_W0HH@Z|

  00008		 |??$DLLCALL_PARAM@IH@@YAJPB_W0HH@Z| PROC ; DLLCALL_PARAM<unsigned int,int>
; Line 115
  00008		 |$LN15@DLLCALL_PA@6|
  00008	e1a0c00d	 mov         r12, sp
  0000c	e92d5830	 stmdb       sp!, {r4, r5, r11, r12, lr}
  00010	e28db014	 add         r11, sp, #0x14
  00014		 |$M79509|
  00014	e1a04002	 mov         r4, r2
  00018	e1a05001	 mov         r5, r1
; Line 116
  0001c	eb000000	 bl          LoadLibraryW
  00020	e3500000	 cmp         r0, #0
; Line 118
  00024	0a00000b	 beq         |$LN5@DLLCALL_PA@6|
; Line 120
  00028	e1a01005	 mov         r1, r5
  0002c	eb000000	 bl          GetProcAddressW
  00030	e1b03000	 movs        r3, r0
; Line 122
  00034	0a000005	 beq         |$LN4@DLLCALL_PA@6|
; Line 137
  00038	e1a00004	 mov         r0, r4
  0003c		 |$M79506|
  0003c	e1a0e00f	 mov         lr, pc
  00040	e1a0f003	 mov         pc, r3
  00044	ea000004	 b           |$LN6@DLLCALL_PA@6|
  00048		 |$LN11@DLLCALL_PA@6|
; Line 143
  00048	e3a00004	 mov         r0, #4
  0004c	ea000002	 b           |$LN6@DLLCALL_PA@6|
  00050		 |$LN4@DLLCALL_PA@6|
; Line 149
  00050	e3a00003	 mov         r0, #3
  00054	ea000000	 b           |$LN6@DLLCALL_PA@6|
  00058		 |$LN5@DLLCALL_PA@6|
; Line 157
  00058	e3a00002	 mov         r0, #2
  0005c		 |$LN6@DLLCALL_PA@6|
; Line 160
  0005c	e24bd014	 sub         sp, r11, #0x14
  00060	e89da830	 ldmia       sp, {r4, r5, r11, sp, pc}
  00064		 |$M79510|
  00064	00000000	 DCD         |__CxxFrameHandler3|
  00068	00000000	 DCD         |__ehfuncinfo$??$DLLCALL_PARAM@IH@@YAJPB_W0HH@Z|
  0006c		 |__catch$79493|
  0006c		 |$M79513|
; Line 143
  0006c	e59f0000	 ldr         r0, [pc]
  00070	e1a0f00e	 mov         pc, lr
  00074		 |$LN18@DLLCALL_PA@6|
  00074		 |$LN19@DLLCALL_PA@6|
  00074	00000000	 DCD         |$LN11@DLLCALL_PA@6|
  00078		 |$M79514|

			 ENDP  ; |??$DLLCALL_PARAM@IH@@YAJPB_W0HH@Z|, DLLCALL_PARAM<unsigned int,int>

	EXPORT	|??$DLLCALL_PARAM_DUAL@IH@@YAJPB_W0HHH@Z| ; DLLCALL_PARAM_DUAL<unsigned int,int>

  00000			 AREA	 |.pdata|, PDATA
|$T79545| DCD	|$LN15@DLLCALL_PA@7|
	DCD	0xc0001903

  00000			 AREA	 |.pdata|, PDATA
|$T79548| DCD	|__catch$79525|
	DCD	0xc0000300

  00000			 AREA	 |.rdata|, DATA, READONLY
|__unwindtable$??$DLLCALL_PARAM_DUAL@IH@@YAJPB_W0HHH@Z| DCD 0xffffffff
	DCD	0x0
	DCD	0xffffffff
	DCD	0x0
|__catchsym$??$DLLCALL_PARAM_DUAL@IH@@YAJPB_W0HHH@Z$2| DCD 0x40
	DCD	0x0
	DCD	0x0
	DCD	0x1
	DCD	|__catch$79525|
|__tryblocktable$??$DLLCALL_PARAM_DUAL@IH@@YAJPB_W0HHH@Z| DCD 0x0
	DCD	0x0
	DCD	0x0
	DCD	0x1
	DCD	|__catchsym$??$DLLCALL_PARAM_DUAL@IH@@YAJPB_W0HHH@Z$2|
|__ehfuncinfo$??$DLLCALL_PARAM_DUAL@IH@@YAJPB_W0HHH@Z| DCD 0x19930522
	DCD	0x2
	DCD	|__unwindtable$??$DLLCALL_PARAM_DUAL@IH@@YAJPB_W0HHH@Z|
	DCD	0x1
	DCD	|__tryblocktable$??$DLLCALL_PARAM_DUAL@IH@@YAJPB_W0HHH@Z|
	DCD	0x1
	DCD	|$T79540|
	DCD	0x0
	DCD	0x1
|$T79540| DCD	|$M79539|
	DCD	0x0
; Function compile flags: /Ogspy

  00000			 AREA	 |.text|, CODE, ARM

  00000	00000000	 DCD         |__CxxFrameHandler3|
  00004	00000000	 DCD         |__ehfuncinfo$??$DLLCALL_PARAM_DUAL@IH@@YAJPB_W0HHH@Z|

  00008		 |??$DLLCALL_PARAM_DUAL@IH@@YAJPB_W0HHH@Z| PROC ; DLLCALL_PARAM_DUAL<unsigned int,int>
; Line 164
  00008		 |$LN15@DLLCALL_PA@7|
  00008	e1a0c00d	 mov         r12, sp
  0000c	e92d5870	 stmdb       sp!, {r4 - r6, r11, r12, lr}
  00010	e28db018	 add         r11, sp, #0x18
  00014		 |$M79542|
  00014	e1a05003	 mov         r5, r3
  00018	e1a06002	 mov         r6, r2
  0001c	e1a04001	 mov         r4, r1
; Line 165
  00020	eb000000	 bl          LoadLibraryW
  00024	e3500000	 cmp         r0, #0
; Line 167
  00028	0a00000c	 beq         |$LN5@DLLCALL_PA@7|
; Line 169
  0002c	e1a01004	 mov         r1, r4
  00030	eb000000	 bl          GetProcAddressW
  00034	e1b04000	 movs        r4, r0
; Line 171
  00038	0a000006	 beq         |$LN4@DLLCALL_PA@7|
; Line 186
  0003c	e1a01005	 mov         r1, r5
  00040	e1a00006	 mov         r0, r6
  00044		 |$M79539|
  00044	e1a0e00f	 mov         lr, pc
  00048	e1a0f004	 mov         pc, r4
  0004c	ea000004	 b           |$LN6@DLLCALL_PA@7|
  00050		 |$LN11@DLLCALL_PA@7|
; Line 192
  00050	e3a00004	 mov         r0, #4
  00054	ea000002	 b           |$LN6@DLLCALL_PA@7|
  00058		 |$LN4@DLLCALL_PA@7|
; Line 198
  00058	e3a00003	 mov         r0, #3
  0005c	ea000000	 b           |$LN6@DLLCALL_PA@7|
  00060		 |$LN5@DLLCALL_PA@7|
; Line 206
  00060	e3a00002	 mov         r0, #2
  00064		 |$LN6@DLLCALL_PA@7|
; Line 209
  00064	e24bd018	 sub         sp, r11, #0x18
  00068	e89da870	 ldmia       sp, {r4 - r6, r11, sp, pc}
  0006c		 |$M79543|
  0006c	00000000	 DCD         |__CxxFrameHandler3|
  00070	00000000	 DCD         |__ehfuncinfo$??$DLLCALL_PARAM_DUAL@IH@@YAJPB_W0HHH@Z|
  00074		 |__catch$79525|
  00074		 |$M79546|
; Line 192
  00074	e59f0000	 ldr         r0, [pc]
  00078	e1a0f00e	 mov         pc, lr
  0007c		 |$LN18@DLLCALL_PA@7|
  0007c		 |$LN19@DLLCALL_PA@7|
  0007c	00000000	 DCD         |$LN11@DLLCALL_PA@7|
  00080		 |$M79547|

			 ENDP  ; |??$DLLCALL_PARAM_DUAL@IH@@YAJPB_W0HHH@Z|, DLLCALL_PARAM_DUAL<unsigned int,int>

	EXPORT	|??$LoadMethod@P6AIPA_WHH@Z@@YAP6AIPA_WHH@ZPB_W1@Z| ; LoadMethod<unsigned int (__cdecl*)(wchar_t *,int,int)>

  00000			 AREA	 |.pdata|, PDATA
|$T79565| DCD	|$LN7@LoadMethod|
	DCD	0x40000e01
; Function compile flags: /Ogspy

  00000			 AREA	 |.text|, CODE, ARM

  00000		 |??$LoadMethod@P6AIPA_WHH@Z@@YAP6AIPA_WHH@ZPB_W1@Z| PROC ; LoadMethod<unsigned int (__cdecl*)(wchar_t *,int,int)>
; Line 395
  00000		 |$LN7@LoadMethod|
  00000	e92d4030	 stmdb       sp!, {r4, r5, lr}
  00004		 |$M79562|
  00004	e1a05001	 mov         r5, r1
; Line 396
  00008	eb000000	 bl          LoadLibraryW
  0000c	e1b04000	 movs        r4, r0
; Line 398
  00010	0a000006	 beq         |$LN2@LoadMethod|
; Line 400
  00014	e1a01005	 mov         r1, r5
  00018	e1a00004	 mov         r0, r4
  0001c	eb000000	 bl          GetProcAddressW
  00020	e3500000	 cmp         r0, #0
; Line 404
  00024	1a000002	 bne         |$LN3@LoadMethod|
; Line 407
  00028	e1a00004	 mov         r0, r4
  0002c	eb000000	 bl          FreeLibrary
  00030		 |$LN2@LoadMethod|
; Line 409
  00030	e3a00000	 mov         r0, #0
  00034		 |$LN3@LoadMethod|
; Line 410
  00034	e8bd8030	 ldmia       sp!, {r4, r5, pc}
  00038		 |$M79563|

			 ENDP  ; |??$LoadMethod@P6AIPA_WHH@Z@@YAP6AIPA_WHH@ZPB_W1@Z|, LoadMethod<unsigned int (__cdecl*)(wchar_t *,int,int)>

	EXPORT	|??$LoadMethod@P6AIPA_WHPAH@Z@@YAP6AIPA_WHPAH@ZPB_W2@Z| ; LoadMethod<unsigned int (__cdecl*)(wchar_t *,int,int *)>

  00000			 AREA	 |.pdata|, PDATA
|$T79578| DCD	|$LN7@LoadMethod@2|
	DCD	0x40000e01
; Function compile flags: /Ogspy

  00000			 AREA	 |.text|, CODE, ARM

  00000		 |??$LoadMethod@P6AIPA_WHPAH@Z@@YAP6AIPA_WHPAH@ZPB_W2@Z| PROC ; LoadMethod<unsigned int (__cdecl*)(wchar_t *,int,int *)>
; Line 395
  00000		 |$LN7@LoadMethod@2|
  00000	e92d4030	 stmdb       sp!, {r4, r5, lr}
  00004		 |$M79575|
  00004	e1a05001	 mov         r5, r1
; Line 396
  00008	eb000000	 bl          LoadLibraryW
  0000c	e1b04000	 movs        r4, r0
; Line 398
  00010	0a000006	 beq         |$LN2@LoadMethod@2|
; Line 400
  00014	e1a01005	 mov         r1, r5
  00018	e1a00004	 mov         r0, r4
  0001c	eb000000	 bl          GetProcAddressW
  00020	e3500000	 cmp         r0, #0
; Line 404
  00024	1a000002	 bne         |$LN3@LoadMethod@2|
; Line 407
  00028	e1a00004	 mov         r0, r4
  0002c	eb000000	 bl          FreeLibrary
  00030		 |$LN2@LoadMethod@2|
; Line 409
  00030	e3a00000	 mov         r0, #0
  00034		 |$LN3@LoadMethod@2|
; Line 410
  00034	e8bd8030	 ldmia       sp!, {r4, r5, pc}
  00038		 |$M79576|

			 ENDP  ; |??$LoadMethod@P6AIPA_WHPAH@Z@@YAP6AIPA_WHPAH@ZPB_W2@Z|, LoadMethod<unsigned int (__cdecl*)(wchar_t *,int,int *)>

	EXPORT	|??$LoadMethod@P6AJHHHH@Z@@YAP6AJHHHH@ZPB_W0@Z| ; LoadMethod<long (__cdecl*)(int,int,int,int)>

  00000			 AREA	 |.pdata|, PDATA
|$T79591| DCD	|$LN7@LoadMethod@3|
	DCD	0x40000e01
; Function compile flags: /Ogspy

  00000			 AREA	 |.text|, CODE, ARM

  00000		 |??$LoadMethod@P6AJHHHH@Z@@YAP6AJHHHH@ZPB_W0@Z| PROC ; LoadMethod<long (__cdecl*)(int,int,int,int)>
; Line 395
  00000		 |$LN7@LoadMethod@3|
  00000	e92d4030	 stmdb       sp!, {r4, r5, lr}
  00004		 |$M79588|
  00004	e1a05001	 mov         r5, r1
; Line 396
  00008	eb000000	 bl          LoadLibraryW
  0000c	e1b04000	 movs        r4, r0
; Line 398
  00010	0a000006	 beq         |$LN2@LoadMethod@3|
; Line 400
  00014	e1a01005	 mov         r1, r5
  00018	e1a00004	 mov         r0, r4
  0001c	eb000000	 bl          GetProcAddressW
  00020	e3500000	 cmp         r0, #0
; Line 404
  00024	1a000002	 bne         |$LN3@LoadMethod@3|
; Line 407
  00028	e1a00004	 mov         r0, r4
  0002c	eb000000	 bl          FreeLibrary
  00030		 |$LN2@LoadMethod@3|
; Line 409
  00030	e3a00000	 mov         r0, #0
  00034		 |$LN3@LoadMethod@3|
; Line 410
  00034	e8bd8030	 ldmia       sp!, {r4, r5, pc}
  00038		 |$M79589|

			 ENDP  ; |??$LoadMethod@P6AJHHHH@Z@@YAP6AJHHHH@ZPB_W0@Z|, LoadMethod<long (__cdecl*)(int,int,int,int)>

	EXPORT	|??$LoadMethod@P6AIPA_W0@Z@@YAP6AIPA_W0@ZPB_W1@Z| ; LoadMethod<unsigned int (__cdecl*)(wchar_t *,wchar_t *)>

  00000			 AREA	 |.pdata|, PDATA
|$T79604| DCD	|$LN7@LoadMethod@4|
	DCD	0x40000e01
; Function compile flags: /Ogspy

  00000			 AREA	 |.text|, CODE, ARM

  00000		 |??$LoadMethod@P6AIPA_W0@Z@@YAP6AIPA_W0@ZPB_W1@Z| PROC ; LoadMethod<unsigned int (__cdecl*)(wchar_t *,wchar_t *)>
; Line 395
  00000		 |$LN7@LoadMethod@4|
  00000	e92d4030	 stmdb       sp!, {r4, r5, lr}
  00004		 |$M79601|
  00004	e1a05001	 mov         r5, r1
; Line 396
  00008	eb000000	 bl          LoadLibraryW
  0000c	e1b04000	 movs        r4, r0
; Line 398
  00010	0a000006	 beq         |$LN2@LoadMethod@4|
; Line 400
  00014	e1a01005	 mov         r1, r5
  00018	e1a00004	 mov         r0, r4
  0001c	eb000000	 bl          GetProcAddressW
  00020	e3500000	 cmp         r0, #0
; Line 404
  00024	1a000002	 bne         |$LN3@LoadMethod@4|
; Line 407
  00028	e1a00004	 mov         r0, r4
  0002c	eb000000	 bl          FreeLibrary
  00030		 |$LN2@LoadMethod@4|
; Line 409
  00030	e3a00000	 mov         r0, #0
  00034		 |$LN3@LoadMethod@4|
; Line 410
  00034	e8bd8030	 ldmia       sp!, {r4, r5, pc}
  00038		 |$M79602|

			 ENDP  ; |??$LoadMethod@P6AIPA_W0@Z@@YAP6AIPA_W0@ZPB_W1@Z|, LoadMethod<unsigned int (__cdecl*)(wchar_t *,wchar_t *)>

	EXPORT	|??$LoadMethod@P6AKPAU_SYSTEM_POWER_STATUS_EX2@@KH@Z@@YAP6AKPAU_SYSTEM_POWER_STATUS_EX2@@KH@ZPB_W1@Z| ; LoadMethod<unsigned long (__cdecl*)(_SYSTEM_POWER_STATUS_EX2 *,unsigned long,int)>

  00000			 AREA	 |.pdata|, PDATA
|$T79617| DCD	|$LN7@LoadMethod@5|
	DCD	0x40000e01
; Function compile flags: /Ogspy

  00000			 AREA	 |.text|, CODE, ARM

  00000		 |??$LoadMethod@P6AKPAU_SYSTEM_POWER_STATUS_EX2@@KH@Z@@YAP6AKPAU_SYSTEM_POWER_STATUS_EX2@@KH@ZPB_W1@Z| PROC ; LoadMethod<unsigned long (__cdecl*)(_SYSTEM_POWER_STATUS_EX2 *,unsigned long,int)>
; Line 395
  00000		 |$LN7@LoadMethod@5|
  00000	e92d4030	 stmdb       sp!, {r4, r5, lr}
  00004		 |$M79614|
  00004	e1a05001	 mov         r5, r1
; Line 396
  00008	eb000000	 bl          LoadLibraryW
  0000c	e1b04000	 movs        r4, r0
; Line 398
  00010	0a000006	 beq         |$LN2@LoadMethod@5|
; Line 400
  00014	e1a01005	 mov         r1, r5
  00018	e1a00004	 mov         r0, r4
  0001c	eb000000	 bl          GetProcAddressW
  00020	e3500000	 cmp         r0, #0
; Line 404
  00024	1a000002	 bne         |$LN3@LoadMethod@5|
; Line 407
  00028	e1a00004	 mov         r0, r4
  0002c	eb000000	 bl          FreeLibrary
  00030		 |$LN2@LoadMethod@5|
; Line 409
  00030	e3a00000	 mov         r0, #0
  00034		 |$LN3@LoadMethod@5|
; Line 410
  00034	e8bd8030	 ldmia       sp!, {r4, r5, pc}
  00038		 |$M79615|

			 ENDP  ; |??$LoadMethod@P6AKPAU_SYSTEM_POWER_STATUS_EX2@@KH@Z@@YAP6AKPAU_SYSTEM_POWER_STATUS_EX2@@KH@ZPB_W1@Z|, LoadMethod<unsigned long (__cdecl*)(_SYSTEM_POWER_STATUS_EX2 *,unsigned long,int)>

	EXPORT	|??$LoadMethod@P6AHPA_WPAU_SYSTEMTIME@@@Z@@YAP6AHPA_WPAU_SYSTEMTIME@@@ZPB_W2@Z| ; LoadMethod<int (__cdecl*)(wchar_t *,_SYSTEMTIME *)>

  00000			 AREA	 |.pdata|, PDATA
|$T79630| DCD	|$LN7@LoadMethod@6|
	DCD	0x40000e01
; Function compile flags: /Ogspy

  00000			 AREA	 |.text|, CODE, ARM

  00000		 |??$LoadMethod@P6AHPA_WPAU_SYSTEMTIME@@@Z@@YAP6AHPA_WPAU_SYSTEMTIME@@@ZPB_W2@Z| PROC ; LoadMethod<int (__cdecl*)(wchar_t *,_SYSTEMTIME *)>
; Line 395
  00000		 |$LN7@LoadMethod@6|
  00000	e92d4030	 stmdb       sp!, {r4, r5, lr}
  00004		 |$M79627|
  00004	e1a05001	 mov         r5, r1
; Line 396
  00008	eb000000	 bl          LoadLibraryW
  0000c	e1b04000	 movs        r4, r0
; Line 398
  00010	0a000006	 beq         |$LN2@LoadMethod@6|
; Line 400
  00014	e1a01005	 mov         r1, r5
  00018	e1a00004	 mov         r0, r4
  0001c	eb000000	 bl          GetProcAddressW
  00020	e3500000	 cmp         r0, #0
; Line 404
  00024	1a000002	 bne         |$LN3@LoadMethod@6|
; Line 407
  00028	e1a00004	 mov         r0, r4
  0002c	eb000000	 bl          FreeLibrary
  00030		 |$LN2@LoadMethod@6|
; Line 409
  00030	e3a00000	 mov         r0, #0
  00034		 |$LN3@LoadMethod@6|
; Line 410
  00034	e8bd8030	 ldmia       sp!, {r4, r5, pc}
  00038		 |$M79628|

			 ENDP  ; |??$LoadMethod@P6AHPA_WPAU_SYSTEMTIME@@@Z@@YAP6AHPA_WPAU_SYSTEMTIME@@@ZPB_W2@Z|, LoadMethod<int (__cdecl*)(wchar_t *,_SYSTEMTIME *)>

	EXPORT	|??$DLLCALL_PARAM_OUT@J@@YAJPB_W0PAX@Z|	; DLLCALL_PARAM_OUT<long>

  00000			 AREA	 |.pdata|, PDATA
|$T79657| DCD	|$LN17@DLLCALL_PA@8|
	DCD	0xc0001b03

  00000			 AREA	 |.pdata|, PDATA
|$T79660| DCD	|__catch$79638|
	DCD	0xc0000300

  00000			 AREA	 |.rdata|, DATA, READONLY
|__unwindtable$??$DLLCALL_PARAM_OUT@J@@YAJPB_W0PAX@Z| DCD 0xffffffff
	DCD	0x0
	DCD	0xffffffff
	DCD	0x0
|__catchsym$??$DLLCALL_PARAM_OUT@J@@YAJPB_W0PAX@Z$2| DCD 0x40
	DCD	0x0
	DCD	0x0
	DCD	0x1
	DCD	|__catch$79638|
|__tryblocktable$??$DLLCALL_PARAM_OUT@J@@YAJPB_W0PAX@Z| DCD 0x0
	DCD	0x0
	DCD	0x0
	DCD	0x1
	DCD	|__catchsym$??$DLLCALL_PARAM_OUT@J@@YAJPB_W0PAX@Z$2|
|__ehfuncinfo$??$DLLCALL_PARAM_OUT@J@@YAJPB_W0PAX@Z| DCD 0x19930522
	DCD	0x2
	DCD	|__unwindtable$??$DLLCALL_PARAM_OUT@J@@YAJPB_W0PAX@Z|
	DCD	0x1
	DCD	|__tryblocktable$??$DLLCALL_PARAM_OUT@J@@YAJPB_W0PAX@Z|
	DCD	0x1
	DCD	|$T79652|
	DCD	0x0
	DCD	0x1
|$T79652| DCD	|$M79651|
	DCD	0x0
; Function compile flags: /Ogspy

  00000			 AREA	 |.text|, CODE, ARM

  00000	00000000	 DCD         |__CxxFrameHandler3|
  00004	00000000	 DCD         |__ehfuncinfo$??$DLLCALL_PARAM_OUT@J@@YAJPB_W0PAX@Z|

  00008		 |??$DLLCALL_PARAM_OUT@J@@YAJPB_W0PAX@Z| PROC ; DLLCALL_PARAM_OUT<long>
; Line 346
  00008		 |$LN17@DLLCALL_PA@8|
  00008	e1a0c00d	 mov         r12, sp
  0000c	e92d5830	 stmdb       sp!, {r4, r5, r11, r12, lr}
  00010	e28db014	 add         r11, sp, #0x14
  00014		 |$M79654|
  00014	e1a04002	 mov         r4, r2
  00018	e1a05001	 mov         r5, r1
; Line 347
  0001c	eb000000	 bl          LoadLibraryW
  00020	e3500000	 cmp         r0, #0
; Line 349
  00024	0a00000f	 beq         |$LN5@DLLCALL_PA@8|
; Line 351
  00028	e1a01005	 mov         r1, r5
  0002c	eb000000	 bl          GetProcAddressW
  00030	e1b03000	 movs        r3, r0
; Line 353
  00034	0a000009	 beq         |$LN4@DLLCALL_PA@8|
; Line 368
  00038	e1a00004	 mov         r0, r4
  0003c		 |$M79651|
  0003c	e1a0e00f	 mov         lr, pc
  00040	e1a0f003	 mov         pc, r3
  00044	e3500000	 cmp         r0, #0
  00048	13a0000f	 movne       r0, #0xF
  0004c	1a000006	 bne         |$LN6@DLLCALL_PA@8|
  00050	e3a00013	 mov         r0, #0x13
  00054	ea000004	 b           |$LN6@DLLCALL_PA@8|
  00058		 |$LN13@DLLCALL_PA@8|
; Line 374
  00058	e3a00004	 mov         r0, #4
  0005c	ea000002	 b           |$LN6@DLLCALL_PA@8|
  00060		 |$LN4@DLLCALL_PA@8|
; Line 380
  00060	e3a00003	 mov         r0, #3
  00064	ea000000	 b           |$LN6@DLLCALL_PA@8|
  00068		 |$LN5@DLLCALL_PA@8|
; Line 388
  00068	e3a00002	 mov         r0, #2
  0006c		 |$LN6@DLLCALL_PA@8|
; Line 391
  0006c	e24bd014	 sub         sp, r11, #0x14
  00070	e89da830	 ldmia       sp, {r4, r5, r11, sp, pc}
  00074		 |$M79655|
  00074	00000000	 DCD         |__CxxFrameHandler3|
  00078	00000000	 DCD         |__ehfuncinfo$??$DLLCALL_PARAM_OUT@J@@YAJPB_W0PAX@Z|
  0007c		 |__catch$79638|
  0007c		 |$M79658|
; Line 374
  0007c	e59f0000	 ldr         r0, [pc]
  00080	e1a0f00e	 mov         pc, lr
  00084		 |$LN20@DLLCALL_PA@8|
  00084		 |$LN21@DLLCALL_PA@8|
  00084	00000000	 DCD         |$LN13@DLLCALL_PA@8|
  00088		 |$M79659|

			 ENDP  ; |??$DLLCALL_PARAM_OUT@J@@YAJPB_W0PAX@Z|, DLLCALL_PARAM_OUT<long>

	EXPORT	|?Increment@CComMultiThreadModel@ATL@@SAKPAJ@Z| ; ATL::CComMultiThreadModel::Increment
	IMPORT	|InterlockedIncrement|
; File c:\program files (x86)\microsoft visual studio 9.0\vc\ce\atlmfc\include\atlbase.h

  00000			 AREA	 |.pdata|, PDATA
|$T79674| DCD	|$LN5@Increment|
	DCD	0x40000100
; Function compile flags: /Ogspy

  00000			 AREA	 |.text|, CODE, ARM

  00000		 |?Increment@CComMultiThreadModel@ATL@@SAKPAJ@Z| PROC ; ATL::CComMultiThreadModel::Increment
; Line 380
  00000		 |$LN5@Increment|
  00000		 |$M79671|
  00000	ea000000	 b           InterlockedIncrement
  00004		 |$M79672|

			 ENDP  ; |?Increment@CComMultiThreadModel@ATL@@SAKPAJ@Z|, ATL::CComMultiThreadModel::Increment

	EXPORT	|?Decrement@CComMultiThreadModel@ATL@@SAKPAJ@Z| ; ATL::CComMultiThreadModel::Decrement
	IMPORT	|InterlockedDecrement|

  00000			 AREA	 |.pdata|, PDATA
|$T79684| DCD	|$LN5@Decrement|
	DCD	0x40000100
; Function compile flags: /Ogspy

  00000			 AREA	 |.text|, CODE, ARM

  00000		 |?Decrement@CComMultiThreadModel@ATL@@SAKPAJ@Z| PROC ; ATL::CComMultiThreadModel::Decrement
; Line 381
  00000		 |$LN5@Decrement|
  00000		 |$M79681|
  00000	ea000000	 b           InterlockedDecrement
  00004		 |$M79682|

			 ENDP  ; |?Decrement@CComMultiThreadModel@ATL@@SAKPAJ@Z|, ATL::CComMultiThreadModel::Decrement

	EXPORT	|?EscapeSingleQuote@CAtlModule@ATL@@SAXPA_WIPB_W@Z| ; ATL::CAtlModule::EscapeSingleQuote

  00000			 AREA	 |.pdata|, PDATA
|$T79698| DCD	|$LN13@EscapeSing|
	DCD	0x40001701
; Function compile flags: /Ogspy

  00000			 AREA	 |.text|, CODE, ARM

  00000		 |?EscapeSingleQuote@CAtlModule@ATL@@SAXPA_WIPB_W@Z| PROC ; ATL::CAtlModule::EscapeSingleQuote
; Line 2909
  00000		 |$LN13@EscapeSing|
  00000	e52de004	 str         lr, [sp, #-4]!
  00004		 |$M79695|
  00004	e3510000	 cmp         r1, #0
; Line 2910
  00008	0a000012	 beq         |$LN6@EscapeSing|
; Line 2916
  0000c	e3a03000	 mov         r3, #0
  00010	e251e001	 subs        lr, r1, #1
  00014	0a00000d	 beq         |$LN10@EscapeSing|
  00018		 |$LL4@EscapeSing|
  00018	e1d210b0	 ldrh        r1, [r2]
  0001c	e3510000	 cmp         r1, #0
  00020	0a00000a	 beq         |$LN10@EscapeSing|
; Line 2918
  00024	e0c010b2	 strh        r1, [r0], #2
; Line 2920
  00028	e1d210b0	 ldrh        r1, [r2]
  0002c	e3510027	 cmp         r1, #0x27
  00030	1a000002	 bne         |$LN1@EscapeSing|
  00034	e2833001	 add         r3, r3, #1
  00038	e153000e	 cmp         r3, lr
; Line 2921
  0003c	30c010b2	 strcch      r1, [r0], #2
  00040		 |$LN1@EscapeSing|
  00040	e2833001	 add         r3, r3, #1
  00044	e153000e	 cmp         r3, lr
; Line 2922
  00048	e2822002	 add         r2, r2, #2
  0004c	3afffff1	 bcc         |$LL4@EscapeSing|
  00050		 |$LN10@EscapeSing|
; Line 2924
  00050	e3a03000	 mov         r3, #0
  00054	e1c030b0	 strh        r3, [r0]
  00058		 |$LN6@EscapeSing|
; Line 2925
  00058	e49df004	 ldr         pc, [sp], #4
  0005c		 |$M79696|

			 ENDP  ; |?EscapeSingleQuote@CAtlModule@ATL@@SAXPA_WIPB_W@Z|, ATL::CAtlModule::EscapeSingleQuote

	EXPORT	|??0CRegKey@ATL@@QAA@XZ|		; ATL::CRegKey::CRegKey

  00000			 AREA	 |.pdata|, PDATA
|$T79708| DCD	|$LN5@CRegKey|
	DCD	0x40000300
; Function compile flags: /Ogspy

  00000			 AREA	 |.text|, CODE, ARM

  00000		 |??0CRegKey@ATL@@QAA@XZ| PROC		; ATL::CRegKey::CRegKey
; Line 5281
  00000		 |$LN5@CRegKey|
  00000		 |$M79705|
  00000	e3a03000	 mov         r3, #0
  00004	e5803000	 str         r3, [r0]
; Line 5282
  00008	e1a0f00e	 mov         pc, lr
  0000c		 |$M79706|

			 ENDP  ; |??0CRegKey@ATL@@QAA@XZ|, ATL::CRegKey::CRegKey

	EXPORT	|??BCRegKey@ATL@@QBAPAUHKEY__@@XZ|	; ATL::CRegKey::operator HKEY__ *

  00000			 AREA	 |.pdata|, PDATA
|$T79718| DCD	|$LN5@operator@2|
	DCD	0x40000200
; Function compile flags: /Ogspy

  00000			 AREA	 |.text|, CODE, ARM

  00000		 |??BCRegKey@ATL@@QBAPAUHKEY__@@XZ| PROC ; ATL::CRegKey::operator HKEY__ *
; Line 5318
  00000		 |$LN5@operator@2|
  00000		 |$M79715|
  00000	e5900000	 ldr         r0, [r0]
  00004	e1a0f00e	 mov         pc, lr
  00008		 |$M79716|

			 ENDP  ; |??BCRegKey@ATL@@QBAPAUHKEY__@@XZ|, ATL::CRegKey::operator HKEY__ *

	EXPORT	|?Detach@CRegKey@ATL@@QAAPAUHKEY__@@XZ|	; ATL::CRegKey::Detach

  00000			 AREA	 |.pdata|, PDATA
|$T79729| DCD	|$LN5@Detach|
	DCD	0x40000500
; Function compile flags: /Ogspy

  00000			 AREA	 |.text|, CODE, ARM

  00000		 |?Detach@CRegKey@ATL@@QAAPAUHKEY__@@XZ| PROC ; ATL::CRegKey::Detach
; Line 5321
  00000		 |$LN5@Detach|
  00000		 |$M79726|
  00000	e1a03000	 mov         r3, r0
; Line 5323
  00004	e5930000	 ldr         r0, [r3]
  00008	e3a02000	 mov         r2, #0
  0000c	e5832000	 str         r2, [r3]
; Line 5328
  00010	e1a0f00e	 mov         pc, lr
  00014		 |$M79727|

			 ENDP  ; |?Detach@CRegKey@ATL@@QAAPAUHKEY__@@XZ|, ATL::CRegKey::Detach

	EXPORT	|?Attach@CRegKey@ATL@@QAAXPAUHKEY__@@@Z| ; ATL::CRegKey::Attach

  00000			 AREA	 |.pdata|, PDATA
|$T79738| DCD	|$LN8@Attach|
	DCD	0x40000200
; Function compile flags: /Ogspy

  00000			 AREA	 |.text|, CODE, ARM

  00000		 |?Attach@CRegKey@ATL@@QAAXPAUHKEY__@@@Z| PROC ; ATL::CRegKey::Attach
; Line 5331
  00000		 |$LN8@Attach|
  00000		 |$M79735|
; Line 5333
  00000	e5801000	 str         r1, [r0]
; Line 5337
  00004	e1a0f00e	 mov         pc, lr
  00008		 |$M79736|

			 ENDP  ; |?Attach@CRegKey@ATL@@QAAXPAUHKEY__@@@Z|, ATL::CRegKey::Attach

	EXPORT	|?DeleteSubKey@CRegKey@ATL@@QAAJPB_W@Z|	; ATL::CRegKey::DeleteSubKey
	IMPORT	|RegDeleteKeyW|

  00000			 AREA	 |.pdata|, PDATA
|$T79749| DCD	|$LN8@DeleteSubK|
	DCD	0x40000200
; Function compile flags: /Ogspy

  00000			 AREA	 |.text|, CODE, ARM

  00000		 |?DeleteSubKey@CRegKey@ATL@@QAAJPB_W@Z| PROC ; ATL::CRegKey::DeleteSubKey
; Line 5340
  00000		 |$LN8@DeleteSubK|
  00000		 |$M79746|
; Line 5370
  00000	e5900000	 ldr         r0, [r0]
  00004	ea000000	 b           RegDeleteKeyW
  00008		 |$M79747|

			 ENDP  ; |?DeleteSubKey@CRegKey@ATL@@QAAJPB_W@Z|, ATL::CRegKey::DeleteSubKey

	EXPORT	|?DeleteValue@CRegKey@ATL@@QAAJPB_W@Z|	; ATL::CRegKey::DeleteValue
	IMPORT	|RegDeleteValueW|

  00000			 AREA	 |.pdata|, PDATA
|$T79760| DCD	|$LN8@DeleteValu|
	DCD	0x40000200
; Function compile flags: /Ogspy

  00000			 AREA	 |.text|, CODE, ARM

  00000		 |?DeleteValue@CRegKey@ATL@@QAAJPB_W@Z| PROC ; ATL::CRegKey::DeleteValue
; Line 5374
  00000		 |$LN8@DeleteValu|
  00000		 |$M79757|
; Line 5376
  00000	e5900000	 ldr         r0, [r0]
  00004	ea000000	 b           RegDeleteValueW
  00008		 |$M79758|

			 ENDP  ; |?DeleteValue@CRegKey@ATL@@QAAJPB_W@Z|, ATL::CRegKey::DeleteValue

	EXPORT	|?Close@CRegKey@ATL@@QAAJXZ|		; ATL::CRegKey::Close
	IMPORT	|RegCloseKey|

  00000			 AREA	 |.pdata|, PDATA
|$T79771| DCD	|$LN6@Close|
	DCD	0x40000b01
; Function compile flags: /Ogspy

  00000			 AREA	 |.text|, CODE, ARM

  00000		 |?Close@CRegKey@ATL@@QAAJXZ| PROC	; ATL::CRegKey::Close
; Line 5380
  00000		 |$LN6@Close|
  00000	e92d4010	 stmdb       sp!, {r4, lr}
  00004		 |$M79768|
  00004	e1a04000	 mov         r4, r0
; Line 5382
  00008	e5943000	 ldr         r3, [r4]
  0000c	e3a00000	 mov         r0, #0
  00010	e3530000	 cmp         r3, #0
  00014	0a000003	 beq         |$LN1@Close|
; Line 5384
  00018	e1a00003	 mov         r0, r3
  0001c	eb000000	 bl          RegCloseKey
; Line 5385
  00020	e3a03000	 mov         r3, #0
  00024	e5843000	 str         r3, [r4]
  00028		 |$LN1@Close|
; Line 5391
  00028	e8bd8010	 ldmia       sp!, {r4, pc}
  0002c		 |$M79769|

			 ENDP  ; |?Close@CRegKey@ATL@@QAAJXZ|, ATL::CRegKey::Close

	EXPORT	|?Create@CRegKey@ATL@@QAAJPAUHKEY__@@PB_WPA_WKKPAU_SECURITY_ATTRIBUTES@@PAK@Z| ; ATL::CRegKey::Create
	IMPORT	|RegCreateKeyExW|

  00000			 AREA	 |.pdata|, PDATA
|$T79792| DCD	|$LN10@Create|
	DCD	0x40002702
; Function compile flags: /Ogspy

  00000			 AREA	 |.text|, CODE, ARM

  00000		 |?Create@CRegKey@ATL@@QAAJPAUHKEY__@@PB_WPA_WKKPAU_SECURITY_ATTRIBUTES@@PAK@Z| PROC ; ATL::CRegKey::Create
; Line 5426
  00000		 |$LN10@Create|
  00000	e92d4ff0	 stmdb       sp!, {r4 - r11, lr}
  00004	e24dd01c	 sub         sp, sp, #0x1C
  00008		 |$M79789|
  00008	e1a08002	 mov         r8, r2
  0000c	e1a09001	 mov         r9, r1
  00010	e1a0a000	 mov         r10, r0
; Line 5431
  00014	e59de048	 ldr         lr, [sp, #0x48]
  00018	e59d4044	 ldr         r4, [sp, #0x44]
  0001c	e59d5040	 ldr         r5, [sp, #0x40]
  00020	e3a0b000	 mov         r11, #0
  00024	e28d6018	 add         r6, sp, #0x18
  00028	e28d7014	 add         r7, sp, #0x14
  0002c	e3a02000	 mov         r2, #0
  00030	e1a01008	 mov         r1, r8
  00034	e1a00009	 mov         r0, r9
  00038	e58de008	 str         lr, [sp, #8]
  0003c	e58d4004	 str         r4, [sp, #4]
  00040	e58d5000	 str         r5, [sp]
  00044	e58db014	 str         r11, [sp, #0x14]
  00048	e58d6010	 str         r6, [sp, #0x10]
  0004c	e58d700c	 str         r7, [sp, #0xC]
  00050	eb000000	 bl          RegCreateKeyExW
; Line 5432
  00054	e59d204c	 ldr         r2, [sp, #0x4C]
  00058	e3520000	 cmp         r2, #0
; Line 5433
  0005c	159d3018	 ldrne       r3, [sp, #0x18]
  00060	15823000	 strne       r3, [r2]
; Line 5434
  00064	e3500000	 cmp         r0, #0
  00068	1a000009	 bne         |$LN1@Create|
; Line 5436
  0006c	e59a3000	 ldr         r3, [r10]
  00070	e3a00000	 mov         r0, #0
  00074	e3530000	 cmp         r3, #0
  00078	0a000003	 beq         |$LN5@Create|
  0007c	e1a00003	 mov         r0, r3
  00080	eb000000	 bl          RegCloseKey
  00084	e3a03000	 mov         r3, #0
  00088	e58a3000	 str         r3, [r10]
  0008c		 |$LN5@Create|
; Line 5437
  0008c	e59d3014	 ldr         r3, [sp, #0x14]
  00090	e58a3000	 str         r3, [r10]
  00094		 |$LN1@Create|
; Line 5443
  00094	e28dd01c	 add         sp, sp, #0x1C
  00098	e8bd8ff0	 ldmia       sp!, {r4 - r11, pc}
  0009c		 |$M79790|

			 ENDP  ; |?Create@CRegKey@ATL@@QAAJPAUHKEY__@@PB_WPA_WKKPAU_SECURITY_ATTRIBUTES@@PAK@Z|, ATL::CRegKey::Create

	EXPORT	|?Open@CRegKey@ATL@@QAAJPAUHKEY__@@PB_WK@Z| ; ATL::CRegKey::Open
	IMPORT	|RegOpenKeyExW|

  00000			 AREA	 |.pdata|, PDATA
|$T79812| DCD	|$LN12@Open|
	DCD	0x40001b02
; Function compile flags: /Ogspy

  00000			 AREA	 |.text|, CODE, ARM

  00000		 |?Open@CRegKey@ATL@@QAAJPAUHKEY__@@PB_WK@Z| PROC ; ATL::CRegKey::Open
; Line 5446
  00000		 |$LN12@Open|
  00000	e92d4070	 stmdb       sp!, {r4 - r6, lr}
  00004	e24dd008	 sub         sp, sp, #8
  00008		 |$M79809|
  00008	e1a04002	 mov         r4, r2
  0000c	e1a05001	 mov         r5, r1
  00010	e1a06000	 mov         r6, r0
; Line 5448
  00014	e3a02000	 mov         r2, #0
; Line 5449
  00018	e58d2004	 str         r2, [sp, #4]
  0001c	e28de004	 add         lr, sp, #4
  00020	e3a02000	 mov         r2, #0
  00024	e1a01004	 mov         r1, r4
  00028	e1a00005	 mov         r0, r5
  0002c	e58de000	 str         lr, [sp]
  00030	eb000000	 bl          RegOpenKeyExW
  00034	e3500000	 cmp         r0, #0
; Line 5450
  00038	1a000009	 bne         |$LN1@Open|
; Line 5452
  0003c	e5963000	 ldr         r3, [r6]
  00040	e3a00000	 mov         r0, #0
  00044	e3530000	 cmp         r3, #0
  00048	0a000003	 beq         |$LN7@Open|
  0004c	e1a00003	 mov         r0, r3
  00050	eb000000	 bl          RegCloseKey
  00054	e3a03000	 mov         r3, #0
  00058	e5863000	 str         r3, [r6]
  0005c		 |$LN7@Open|
; Line 5454
  0005c	e59d3004	 ldr         r3, [sp, #4]
  00060	e5863000	 str         r3, [r6]
  00064		 |$LN1@Open|
; Line 5460
  00064	e28dd008	 add         sp, sp, #8
  00068	e8bd8070	 ldmia       sp!, {r4 - r6, pc}
  0006c		 |$M79810|

			 ENDP  ; |?Open@CRegKey@ATL@@QAAJPAUHKEY__@@PB_WK@Z|, ATL::CRegKey::Open

	EXPORT	|?SetDWORDValue@CRegKey@ATL@@QAAJPB_WK@Z| ; ATL::CRegKey::SetDWORDValue
	IMPORT	|RegSetValueExW|

  00000			 AREA	 |.pdata|, PDATA
|$T79823| DCD	|$LN8@SetDWORDVa|
	DCD	0x40000e04
; Function compile flags: /Ogspy

  00000			 AREA	 |.text|, CODE, ARM

  00000		 |?SetDWORDValue@CRegKey@ATL@@QAAJPB_WK@Z| PROC ; ATL::CRegKey::SetDWORDValue
; Line 5764
  00000		 |$LN8@SetDWORDVa|
  00000	e1a0c00d	 mov         r12, sp
  00004	e92d000f	 stmdb       sp!, {r0 - r3}
  00008	e92d5010	 stmdb       sp!, {r4, r12, lr}
  0000c	e24dd008	 sub         sp, sp, #8
  00010		 |$M79820|
; Line 5766
  00010	e5900000	 ldr         r0, [r0]
  00014	e3a04004	 mov         r4, #4
  00018	e28de01c	 add         lr, sp, #0x1C
  0001c	e3a03004	 mov         r3, #4
  00020	e3a02000	 mov         r2, #0
  00024	e58d4004	 str         r4, [sp, #4]
  00028	e58de000	 str         lr, [sp]
  0002c	eb000000	 bl          RegSetValueExW
; Line 5767
  00030	e28dd008	 add         sp, sp, #8
  00034	e89da010	 ldmia       sp, {r4, sp, pc}
  00038		 |$M79821|

			 ENDP  ; |?SetDWORDValue@CRegKey@ATL@@QAAJPB_WK@Z|, ATL::CRegKey::SetDWORDValue

	EXPORT	|?SetStringValue@CRegKey@ATL@@QAAJPB_W0K@Z| ; ATL::CRegKey::SetStringValue
; File c:\program files (x86)\microsoft visual studio 9.0\vc\ce\atlmfc\include\atlosapice.h

  00000			 AREA	 |.pdata|, PDATA
|$T79845| DCD	|$LN18@SetStringV|
	DCD	0x40001602
; Function compile flags: /Ogspy

  00000			 AREA	 |.text|, CODE, ARM

  00000		 |?SetStringValue@CRegKey@ATL@@QAAJPB_W0K@Z| PROC ; ATL::CRegKey::SetStringValue
; File c:\program files (x86)\microsoft visual studio 9.0\vc\ce\atlmfc\include\atlbase.h
; Line 5778
  00000		 |$LN18@SetStringV|
  00000	e92d40f0	 stmdb       sp!, {r4 - r7, lr}
  00004	e24dd008	 sub         sp, sp, #8
  00008		 |$M79842|
  00008	e1a05003	 mov         r5, r3
  0000c	e1b04002	 movs        r4, r2
  00010	e1a06001	 mov         r6, r1
  00014	e1a07000	 mov         r7, r0
; Line 5780
  00018	03a0000d	 moveq       r0, #0xD
; Line 5784
  0001c	028dd008	 addeq       sp, sp, #8
  00020	08bd80f0	 ldmeqia     sp!, {r4 - r7, pc}
; Line 5783
  00024	e1a00004	 mov         r0, r4
  00028	eb000000	 bl          wcslen
  0002c	e2803001	 add         r3, r0, #1
  00030	e5970000	 ldr         r0, [r7]
  00034	e1a03083	 mov         r3, r3, lsl #1
  00038	e58d3004	 str         r3, [sp, #4]
  0003c	e1a03005	 mov         r3, r5
  00040	e3a02000	 mov         r2, #0
  00044	e1a01006	 mov         r1, r6
  00048	e58d4000	 str         r4, [sp]
  0004c	eb000000	 bl          RegSetValueExW
; Line 5784
  00050	e28dd008	 add         sp, sp, #8
  00054	e8bd80f0	 ldmia       sp!, {r4 - r7, pc}
  00058		 |$M79843|

			 ENDP  ; |?SetStringValue@CRegKey@ATL@@QAAJPB_W0K@Z|, ATL::CRegKey::SetStringValue

	EXPORT	|?SetMultiStringValue@CRegKey@ATL@@QAAJPB_W0@Z| ; ATL::CRegKey::SetMultiStringValue
; File c:\program files (x86)\microsoft visual studio 9.0\vc\ce\atlmfc\include\atlosapice.h

  00000			 AREA	 |.pdata|, PDATA
|$T79870| DCD	|$LN22@SetMultiSt|
	DCD	0x40001e02
; Function compile flags: /Ogspy

  00000			 AREA	 |.text|, CODE, ARM

  00000		 |?SetMultiStringValue@CRegKey@ATL@@QAAJPB_W0@Z| PROC ; ATL::CRegKey::SetMultiStringValue
; File c:\program files (x86)\microsoft visual studio 9.0\vc\ce\atlmfc\include\atlbase.h
; Line 5787
  00000		 |$LN22@SetMultiSt|
  00000	e92d41f0	 stmdb       sp!, {r4 - r8, lr}
  00004	e24dd008	 sub         sp, sp, #8
  00008		 |$M79867|
  00008	e1b06002	 movs        r6, r2
  0000c	e1a07001	 mov         r7, r1
  00010	e1a08000	 mov         r8, r0
; Line 5793
  00014	03a0000d	 moveq       r0, #0xD
; Line 5809
  00018	028dd008	 addeq       sp, sp, #8
  0001c	08bd81f0	 ldmeqia     sp!, {r4 - r8, pc}
; Line 5798
  00020	e3a05000	 mov         r5, #0
; Line 5799
  00024	e1a04006	 mov         r4, r6
  00028		 |$LL3@SetMultiSt|
; Line 5802
  00028	e3540000	 cmp         r4, #0
  0002c	0a000002	 beq         |$LN17@SetMultiSt|
  00030	e1a00004	 mov         r0, r4
  00034	eb000000	 bl          wcslen
  00038	ea000000	 b           |$LN18@SetMultiSt|
  0003c		 |$LN17@SetMultiSt|
  0003c	e3a00000	 mov         r0, #0
  00040		 |$LN18@SetMultiSt|
  00040	e2803001	 add         r3, r0, #1
; Line 5803
  00044	e0844083	 add         r4, r4, r3, lsl #1
; Line 5804
  00048	e0855083	 add         r5, r5, r3, lsl #1
; Line 5805
  0004c	e3530001	 cmp         r3, #1
  00050	1afffff4	 bne         |$LL3@SetMultiSt|
; Line 5808
  00054	e5980000	 ldr         r0, [r8]
  00058	e3a03007	 mov         r3, #7
  0005c	e3a02000	 mov         r2, #0
  00060	e1a01007	 mov         r1, r7
  00064	e58d5004	 str         r5, [sp, #4]
  00068	e58d6000	 str         r6, [sp]
  0006c	eb000000	 bl          RegSetValueExW
; Line 5809
  00070	e28dd008	 add         sp, sp, #8
  00074	e8bd81f0	 ldmia       sp!, {r4 - r8, pc}
  00078		 |$M79868|

			 ENDP  ; |?SetMultiStringValue@CRegKey@ATL@@QAAJPB_W0@Z|, ATL::CRegKey::SetMultiStringValue

	EXPORT	|?IsEqualKey@CExpansionVectorEqualHelper@ATL@@SA_NQA_W0@Z| ; ATL::CExpansionVectorEqualHelper::IsEqualKey
	IMPORT	|lstrcmpiW|
; File c:\program files (x86)\microsoft visual studio 9.0\vc\ce\atlmfc\include\statreg.h

  00000			 AREA	 |.pdata|, PDATA
|$T79881| DCD	|$LN6@IsEqualKey|
	DCD	0x40000601
; Function compile flags: /Ogspy

  00000			 AREA	 |.text|, CODE, ARM

  00000		 |?IsEqualKey@CExpansionVectorEqualHelper@ATL@@SA_NQA_W0@Z| PROC ; ATL::CExpansionVectorEqualHelper::IsEqualKey
; Line 74
  00000		 |$LN6@IsEqualKey|
  00000	e52de004	 str         lr, [sp, #-4]!
  00004		 |$M79878|
; Line 75
  00004	eb000000	 bl          lstrcmpiW
  00008	e3500000	 cmp         r0, #0
; Line 76
  0000c	03a00001	 moveq       r0, #1
; Line 77
  00010	13a00000	 movne       r0, #0
; Line 78
  00014	e49df004	 ldr         pc, [sp], #4
  00018		 |$M79879|

			 ENDP  ; |?IsEqualKey@CExpansionVectorEqualHelper@ATL@@SA_NQA_W0@Z|, ATL::CExpansionVectorEqualHelper::IsEqualKey

	EXPORT	|?GenerateError@CRegParser@ATL@@IAAJI@Z| ; ATL::CRegParser::GenerateError

  00000			 AREA	 |.pdata|, PDATA
|$T79890| DCD	|$LN5@GenerateEr|
	DCD	0x40000300
; Function compile flags: /Ogspy

  00000			 AREA	 |.text|, CODE, ARM

  00000		 |?GenerateError@CRegParser@ATL@@IAAJI@Z| PROC ; ATL::CRegParser::GenerateError
; Line 170
  00000		 |$LN5@GenerateEr|
  00000		 |$M79887|
  00000	e3a03126	 mov         r3, #0x26, 2
  00004	e3830802	 orr         r0, r3, #2, 16	; 131072 (0x20000)
  00008	e1a0f00e	 mov         pc, lr
  0000c		 |$M79888|

			 ENDP  ; |?GenerateError@CRegParser@ATL@@IAAJI@Z|, ATL::CRegParser::GenerateError

	EXPORT	|?EndOfVar@CRegParser@ATL@@IAAHXZ|	; ATL::CRegParser::EndOfVar
	IMPORT	|CharNextW|

  00000			 AREA	 |.pdata|, PDATA
|$T79902| DCD	|$LN7@EndOfVar|
	DCD	0x40000c01
; Function compile flags: /Ogspy

  00000			 AREA	 |.text|, CODE, ARM

  00000		 |?EndOfVar@CRegParser@ATL@@IAAHXZ| PROC ; ATL::CRegParser::EndOfVar
; Line 174
  00000		 |$LN7@EndOfVar|
  00000	e52de004	 str         lr, [sp, #-4]!
  00004		 |$M79899|
  00004	e5900000	 ldr         r0, [r0]
  00008	e1d030b0	 ldrh        r3, [r0]
  0000c	e3530027	 cmp         r3, #0x27
  00010	1a000004	 bne         |$LN3@EndOfVar|
  00014	eb000000	 bl          CharNextW
  00018	e1d030b0	 ldrh        r3, [r0]
  0001c	e3530027	 cmp         r3, #0x27
  00020	13a00001	 movne       r0, #1
  00024	149df004	 ldrne       pc, [sp], #4
  00028		 |$LN3@EndOfVar|
  00028	e3a00000	 mov         r0, #0
  0002c	e49df004	 ldr         pc, [sp], #4
  00030		 |$M79900|

			 ENDP  ; |?EndOfVar@CRegParser@ATL@@IAAHXZ|, ATL::CRegParser::EndOfVar

	EXPORT	|??0CParseBuffer@CRegParser@ATL@@QAA@H@Z| ; ATL::CRegParser::CParseBuffer::CParseBuffer
; File c:\program files (x86)\microsoft visual studio 9.0\vc\ce\atlmfc\include\atlalloc.h

  00000			 AREA	 |.pdata|, PDATA
|$T79937| DCD	|$LN15@CParseBuff|
	DCD	0x40001601
; Function compile flags: /Ogspy

  00000			 AREA	 |.text|, CODE, ARM

  00000		 |??0CParseBuffer@CRegParser@ATL@@QAA@H@Z| PROC ; ATL::CRegParser::CParseBuffer::CParseBuffer
; File c:\program files (x86)\microsoft visual studio 9.0\vc\ce\atlmfc\include\statreg.h
; Line 190
  00000		 |$LN15@CParseBuff|
  00000	e92d4030	 stmdb       sp!, {r4, r5, lr}
  00004		 |$M79934|
  00004	e1a04000	 mov         r4, r0
; Line 192
  00008	e3510064	 cmp         r1, #0x64
; Line 193
  0000c	b3a01ffa	 movlt       r1, #0xFA, 30
; Line 196
  00010	e3a03002	 mov         r3, #2
  00014	e0830391	 umull       r0, r3, r1, r3
  00018	e3a05000	 mov         r5, #0
  0001c	e3530000	 cmp         r3, #0
  00020	e5841004	 str         r1, [r4, #4]
  00024	e5845000	 str         r5, [r4]
  00028	8a000004	 bhi         |$LN11@CParseBuff|
  0002c	3a000001	 bcc         |$LN12@CParseBuff|
  00030	e3700001	 cmn         r0, #1
  00034	8a000001	 bhi         |$LN11@CParseBuff|
  00038		 |$LN12@CParseBuff|
  00038	eb000000	 bl          CoTaskMemAlloc
  0003c	ea000000	 b           |$LN6@CParseBuff|
  00040		 |$LN11@CParseBuff|
  00040	e3a00000	 mov         r0, #0
  00044		 |$LN6@CParseBuff|
; Line 197
  00044	e3500000	 cmp         r0, #0
  00048	e5840008	 str         r0, [r4, #8]
; Line 198
  0004c	11c050b0	 strneh      r5, [r0]
; Line 199
  00050	e1a00004	 mov         r0, r4
  00054	e8bd8030	 ldmia       sp!, {r4, r5, pc}
  00058		 |$M79935|

			 ENDP  ; |??0CParseBuffer@CRegParser@ATL@@QAA@H@Z|, ATL::CRegParser::CParseBuffer::CParseBuffer

	EXPORT	|??1CParseBuffer@CRegParser@ATL@@QAA@XZ| ; ATL::CRegParser::CParseBuffer::~CParseBuffer
	IMPORT	|CoTaskMemFree|

  00000			 AREA	 |.pdata|, PDATA
|$T79945| DCD	|$LN5@CParseBuff@2|
	DCD	0x40000200
; Function compile flags: /Ogspy

  00000			 AREA	 |.text|, CODE, ARM

  00000		 |??1CParseBuffer@CRegParser@ATL@@QAA@XZ| PROC ; ATL::CRegParser::CParseBuffer::~CParseBuffer
; Line 201
  00000		 |$LN5@CParseBuff@2|
  00000		 |$M79942|
; Line 202
  00000	e5900008	 ldr         r0, [r0, #8]
  00004	ea000000	 b           CoTaskMemFree
  00008		 |$M79943|

			 ENDP  ; |??1CParseBuffer@CRegParser@ATL@@QAA@XZ|, ATL::CRegParser::CParseBuffer::~CParseBuffer

	EXPORT	|?Append@CParseBuffer@CRegParser@ATL@@QAAHPB_WH@Z| ; ATL::CRegParser::CParseBuffer::Append
; File c:\program files (x86)\microsoft visual studio 9.0\vc\ce\atlmfc\include\atlchecked.h

  00000			 AREA	 |.pdata|, PDATA
|$T79995| DCD	|$LN28@Append|
	DCD	0x40003d01
; Function compile flags: /Ogspy

  00000			 AREA	 |.text|, CODE, ARM

  00000		 |?Append@CParseBuffer@CRegParser@ATL@@QAAHPB_WH@Z| PROC ; ATL::CRegParser::CParseBuffer::Append
; File c:\program files (x86)\microsoft visual studio 9.0\vc\ce\atlmfc\include\statreg.h
; Line 205
  00000		 |$LN28@Append|
  00000	e92d4070	 stmdb       sp!, {r4 - r6, lr}
  00004		 |$M79992|
  00004	e1a05002	 mov         r5, r2
  00008	e1a06001	 mov         r6, r1
  0000c	e1a04000	 mov         r4, r0
; Line 207
  00010	e594e000	 ldr         lr, [r4]
  00014	e08e3005	 add         r3, lr, r5
  00018	e2830001	 add         r0, r3, #1
; Line 208
  0001c	e150000e	 cmp         r0, lr
  00020	da000031	 ble         |$LN8@Append|
  00024	e1500005	 cmp         r0, r5
  00028	da00002f	 ble         |$LN8@Append|
; Line 211
  0002c	e5943004	 ldr         r3, [r4, #4]
  00030	e1500003	 cmp         r0, r3
  00034	ba000013	 blt         |$LN7@Append|
  00038		 |$LL6@Append|
; Line 214
  00038	e5943004	 ldr         r3, [r4, #4]
  0003c	e3730107	 cmn         r3, #7, 2
  00040	ca000029	 bgt         |$LN8@Append|
; Line 216
  00044	e1a0e083	 mov         lr, r3, lsl #1
  00048	e1a0300e	 mov         r3, lr
  0004c	e1500003	 cmp         r0, r3
  00050	e584e004	 str         lr, [r4, #4]
  00054	aafffff7	 bge         |$LL6@Append|
; Line 218
  00058	e3a03002	 mov         r3, #2
  0005c	e083139e	 umull       r1, r3, lr, r3
  00060	e5940008	 ldr         r0, [r4, #8]
  00064	e3530000	 cmp         r3, #0
  00068	8a00001f	 bhi         |$LN8@Append|
  0006c	3a000001	 bcc         |$LN25@Append|
  00070	e3710001	 cmn         r1, #1
  00074	8a00001c	 bhi         |$LN8@Append|
  00078		 |$LN25@Append|
  00078	eb000000	 bl          CoTaskMemRealloc
  0007c	e3500000	 cmp         r0, #0
; Line 219
  00080	0a000019	 beq         |$LN8@Append|
; Line 221
  00084	e5840008	 str         r0, [r4, #8]
  00088		 |$LN7@Append|
; Line 223
  00088	e5943000	 ldr         r3, [r4]
  0008c	e1b00003	 movs        r0, r3
  00090	4a000015	 bmi         |$LN8@Append|
  00094	e5943004	 ldr         r3, [r4, #4]
  00098	e1500003	 cmp         r0, r3
  0009c	aa000012	 bge         |$LN8@Append|
  000a0	e0431000	 sub         r1, r3, r0
  000a4	e1510003	 cmp         r1, r3
  000a8	ca00000f	 bgt         |$LN8@Append|
; Line 229
  000ac	e5942008	 ldr         r2, [r4, #8]
  000b0	e1a01081	 mov         r1, r1, lsl #1
  000b4	e1a03085	 mov         r3, r5, lsl #1
  000b8	e0820080	 add         r0, r2, r0, lsl #1
  000bc	e1a02006	 mov         r2, r6
  000c0	eb000000	 bl          memcpy_s
  000c4	eb000000	 bl          |?AtlCrtErrorCheck@ATL@@YAHH@Z|
; Line 230
  000c8	e5943000	 ldr         r3, [r4]
; Line 231
  000cc	e5942008	 ldr         r2, [r4, #8]
  000d0	e3a01000	 mov         r1, #0
  000d4	e0833005	 add         r3, r3, r5
  000d8	e0822083	 add         r2, r2, r3, lsl #1
  000dc	e5843000	 str         r3, [r4]
  000e0	e1c210b0	 strh        r1, [r2]
; Line 233
  000e4	e3a00001	 mov         r0, #1
; Line 234
  000e8	e8bd8070	 ldmia       sp!, {r4 - r6, pc}
  000ec		 |$LN8@Append|
; Line 209
  000ec	e3a00000	 mov         r0, #0
; Line 234
  000f0	e8bd8070	 ldmia       sp!, {r4 - r6, pc}
  000f4		 |$M79993|

			 ENDP  ; |?Append@CParseBuffer@CRegParser@ATL@@QAAHPB_WH@Z|, ATL::CRegParser::CParseBuffer::Append

	EXPORT	|?AddChar@CParseBuffer@CRegParser@ATL@@QAAHPB_W@Z| ; ATL::CRegParser::CParseBuffer::AddChar

  00000			 AREA	 |.pdata|, PDATA
|$T80006| DCD	|$LN5@AddChar|
	DCD	0x40000200
; Function compile flags: /Ogspy

  00000			 AREA	 |.text|, CODE, ARM

  00000		 |?AddChar@CParseBuffer@CRegParser@ATL@@QAAHPB_W@Z| PROC ; ATL::CRegParser::CParseBuffer::AddChar
; Line 237
  00000		 |$LN5@AddChar|
  00000		 |$M80003|
; Line 243
  00000	e3a02001	 mov         r2, #1
  00004	ea000000	 b           |?Append@CParseBuffer@CRegParser@ATL@@QAAHPB_WH@Z|
  00008		 |$M80004|

			 ENDP  ; |?AddChar@CParseBuffer@CRegParser@ATL@@QAAHPB_W@Z|, ATL::CRegParser::CParseBuffer::AddChar

	EXPORT	|?Detach@CParseBuffer@CRegParser@ATL@@QAAPA_WXZ| ; ATL::CRegParser::CParseBuffer::Detach

  00000			 AREA	 |.pdata|, PDATA
|$T80017| DCD	|$LN5@Detach@2|
	DCD	0x40000700
; Function compile flags: /Ogspy

  00000			 AREA	 |.text|, CODE, ARM

  00000		 |?Detach@CParseBuffer@CRegParser@ATL@@QAAPA_WXZ| PROC ; ATL::CRegParser::CParseBuffer::Detach
; Line 261
  00000		 |$LN5@Detach@2|
  00000		 |$M80014|
  00000	e1a03000	 mov         r3, r0
; Line 262
  00004	e5930008	 ldr         r0, [r3, #8]
; Line 263
  00008	e3a02000	 mov         r2, #0
  0000c	e5832008	 str         r2, [r3, #8]
; Line 264
  00010	e5832000	 str         r2, [r3]
  00014	e5832004	 str         r2, [r3, #4]
; Line 266
  00018	e1a0f00e	 mov         pc, lr
  0001c		 |$M80015|

			 ENDP  ; |?Detach@CParseBuffer@CRegParser@ATL@@QAAPA_WXZ|, ATL::CRegParser::CParseBuffer::Detach

	EXPORT	|?FinalConstruct@CRegObject@ATL@@QAAJXZ| ; ATL::CRegObject::FinalConstruct
; File c:\program files (x86)\microsoft visual studio 9.0\vc\ce\atlmfc\include\atlcore.h

  00000			 AREA	 |.pdata|, PDATA
|$T80035| DCD	|$LN8@FinalConst@2|
	DCD	0x40000801
; Function compile flags: /Ogspy

  00000			 AREA	 |.text|, CODE, ARM

  00000		 |?FinalConstruct@CRegObject@ATL@@QAAJXZ| PROC ; ATL::CRegObject::FinalConstruct
; File c:\program files (x86)\microsoft visual studio 9.0\vc\ce\atlmfc\include\statreg.h
; Line 301
  00000		 |$LN8@FinalConst@2|
  00000	e92d4010	 stmdb       sp!, {r4, lr}
  00004		 |$M80032|
  00004	e1a04000	 mov         r4, r0
  00008	e2840010	 add         r0, r4, #0x10
  0000c	eb000000	 bl          |?Init@CComCriticalSection@ATL@@QAAJXZ|
  00010	e3500000	 cmp         r0, #0
  00014	53a03001	 movpl       r3, #1
  00018	55c43024	 strplb      r3, [r4, #0x24]
  0001c	e8bd8010	 ldmia       sp!, {r4, pc}
  00020		 |$M80033|

			 ENDP  ; |?FinalConstruct@CRegObject@ATL@@QAAJXZ|, ATL::CRegObject::FinalConstruct

	EXPORT	|??1CComAutoDeleteCriticalSection@ATL@@QAA@XZ| ; ATL::CComAutoDeleteCriticalSection::~CComAutoDeleteCriticalSection

  00000			 AREA	 |.pdata|, PDATA
|$T80057| DCD	|$LN12@CComAutoDe|
	DCD	0x40000701
; Function compile flags: /Ogspy

  00000			 AREA	 |.text|, CODE, ARM

  00000		 |??1CComAutoDeleteCriticalSection@ATL@@QAA@XZ| PROC ; ATL::CComAutoDeleteCriticalSection::~CComAutoDeleteCriticalSection
  00000		 |$LN12@CComAutoDe|
  00000	e52de004	 str         lr, [sp, #-4]!
  00004		 |$M80054|
  00004	e5d03014	 ldrb        r3, [r0, #0x14]
  00008	e3530000	 cmp         r3, #0
  0000c	13a03000	 movne       r3, #0
  00010	15c03014	 strneb      r3, [r0, #0x14]
  00014	1b000000	 blne        DeleteCriticalSection
  00018	e49df004	 ldr         pc, [sp], #4
  0001c		 |$M80055|

			 ENDP  ; |??1CComAutoDeleteCriticalSection@ATL@@QAA@XZ|, ATL::CComAutoDeleteCriticalSection::~CComAutoDeleteCriticalSection

	EXPORT	|??_B?1??VTFromRegType@CRegParser@ATL@@KAHPB_WAAG@Z@51| [ DATA ] ; `ATL::CRegParser::VTFromRegType'::`2'::`local static guard'
	EXPORT	|?VTFromRegType@CRegParser@ATL@@KAHPB_WAAG@Z| ; ATL::CRegParser::VTFromRegType
	EXPORT	|?map@?1??VTFromRegType@CRegParser@ATL@@KAHPB_WAAG@Z@4QBUtypemap@?1??123@KAH01@Z@B| [ DATA ] ; `ATL::CRegParser::VTFromRegType'::`2'::map

  00000			 AREA	 |.bss|, NOINIT
|??_B?1??VTFromRegType@CRegParser@ATL@@KAHPB_WAAG@Z@51| % 0x4 ; `ATL::CRegParser::VTFromRegType'::`2'::`local static guard'

  00000			 AREA	 |.bss|, NOINIT
|?map@?1??VTFromRegType@CRegParser@ATL@@KAHPB_WAAG@Z@4QBUtypemap@?1??123@KAH01@Z@B| % 0x20 ; `ATL::CRegParser::VTFromRegType'::`2'::map

  00000			 AREA	 |.pdata|, PDATA
|$T80073| DCD	|$LN14@VTFromRegT|
	DCD	0x40003301
; Function compile flags: /Ogspy

  00000			 AREA	 |.text|, CODE, ARM

  00000		 |?VTFromRegType@CRegParser@ATL@@KAHPB_WAAG@Z| PROC ; ATL::CRegParser::VTFromRegType
; Line 651
  00000		 |$LN14@VTFromRegT|
  00000	e92d41f0	 stmdb       sp!, {r4 - r8, lr}
  00004		 |$M80070|
  00004	e1a07001	 mov         r7, r1
  00008	e1a08000	 mov         r8, r0
; Line 661
  0000c	e59f40b4	 ldr         r4, [pc, #0xB4]
  00010	e59f60ac	 ldr         r6, [pc, #0xAC]
  00014	e5945000	 ldr         r5, [r4]
  00018	e3150001	 tst         r5, #1
  0001c	1a000012	 bne         |$LN5@VTFromRegT|
  00020	e59f3098	 ldr         r3, [pc, #0x98]
; Line 662
  00024	e59f2090	 ldr         r2, [pc, #0x90]
  00028	e3a01008	 mov         r1, #8
  0002c	e5863000	 str         r3, [r6]
  00030	e3a03901	 mov         r3, #1, 18
; Line 663
  00034	e59fe07c	 ldr         lr, [pc, #0x7C]
  00038	e3833008	 orr         r3, r3, #8
  0003c	e1c610b4	 strh        r1, [r6, #4]
  00040	e5862008	 str         r2, [r6, #8]
; Line 664
  00044	e59f2068	 ldr         r2, [pc, #0x68]
  00048	e1c630bc	 strh        r3, [r6, #0xC]
  0004c	e3a03013	 mov         r3, #0x13
  00050	e586e010	 str         lr, [r6, #0x10]
  00054	e1c631b4	 strh        r3, [r6, #0x14]
  00058	e5862018	 str         r2, [r6, #0x18]
  0005c	e3a02011	 mov         r2, #0x11
  00060	e3853001	 orr         r3, r5, #1
  00064	e1c621bc	 strh        r2, [r6, #0x1C]
  00068	e5843000	 str         r3, [r4]
  0006c		 |$LN5@VTFromRegT|
; Line 669
  0006c	e3a04000	 mov         r4, #0
  00070	e1a05006	 mov         r5, r6
  00074		 |$LL4@VTFromRegT|
; Line 671
  00074	e5951000	 ldr         r1, [r5]
  00078	e1a00008	 mov         r0, r8
  0007c	eb000000	 bl          lstrcmpiW
  00080	e3500000	 cmp         r0, #0
  00084	0a000005	 beq         |$LN10@VTFromRegT|
  00088	e2844001	 add         r4, r4, #1
  0008c	e3540004	 cmp         r4, #4
  00090	e2855008	 add         r5, r5, #8
  00094	3afffff6	 bcc         |$LL4@VTFromRegT|
; Line 678
  00098	e3a00000	 mov         r0, #0
; Line 680
  0009c	e8bd81f0	 ldmia       sp!, {r4 - r8, pc}
  000a0		 |$LN10@VTFromRegT|
; Line 673
  000a0	e0863184	 add         r3, r6, r4, lsl #3
  000a4	e1d330b4	 ldrh        r3, [r3, #4]
; Line 674
  000a8	e3a00001	 mov         r0, #1
  000ac	e1c730b0	 strh        r3, [r7]
; Line 680
  000b0	e8bd81f0	 ldmia       sp!, {r4 - r8, pc}
  000b4		 |$LN15@VTFromRegT|
  000b4		 |$LN16@VTFromRegT|
  000b4	00000000	 DCD         |??_C@_13OPKGLAFF@?$AAB?$AA?$AA@|
  000b8		 |$LN17@VTFromRegT|
  000b8	00000000	 DCD         |??_C@_13MKMNOPIJ@?$AAD?$AA?$AA@|
  000bc		 |$LN18@VTFromRegT|
  000bc	00000000	 DCD         |??_C@_13LHMFKAAD@?$AAM?$AA?$AA@|
  000c0		 |$LN19@VTFromRegT|
  000c0	00000000	 DCD         |??_C@_13HADIAKP@?$AAS?$AA?$AA@|
  000c4		 |$LN20@VTFromRegT|
  000c4	00000000	 DCD         |?map@?1??VTFromRegType@CRegParser@ATL@@KAHPB_WAAG@Z@4QBUtypemap@?1??123@KAH01@Z@B|
  000c8		 |$LN21@VTFromRegT|
  000c8	00000000	 DCD         |??_B?1??VTFromRegType@CRegParser@ATL@@KAHPB_WAAG@Z@51|
  000cc		 |$M80071|

			 ENDP  ; |?VTFromRegType@CRegParser@ATL@@KAHPB_WAAG@Z|, ATL::CRegParser::VTFromRegType

	EXPORT	|?ChToByte@CRegParser@ATL@@KAE_W@Z|	; ATL::CRegParser::ChToByte

  00000			 AREA	 |.pdata|, PDATA
|$T80092| DCD	|$LN12@ChToByte|
	DCD	0x40001600
; Function compile flags: /Ogspy

  00000			 AREA	 |.text|, CODE, ARM

  00000		 |?ChToByte@CRegParser@ATL@@KAE_W@Z| PROC ; ATL::CRegParser::ChToByte
; Line 683
  00000		 |$LN12@ChToByte|
  00000		 |$M80089|
; Line 684
  00000	e3500030	 cmp         r0, #0x30
  00004	ba000011	 blt         |$LN1@ChToByte|
  00008	e3500039	 cmp         r0, #0x39
  0000c	da00000c	 ble         |$LN4@ChToByte|
  00010	e3500040	 cmp         r0, #0x40
  00014	da00000d	 ble         |$LN1@ChToByte|
  00018	e3500046	 cmp         r0, #0x46
  0001c	da000005	 ble         |$LN3@ChToByte|
  00020	e2403061	 sub         r3, r0, #0x61
  00024	e3530005	 cmp         r3, #5
  00028	8a000008	 bhi         |$LN1@ChToByte|
; Line 710
  0002c	e28030a9	 add         r3, r0, #0xA9
; Line 696
  00030	e20300ff	 and         r0, r3, #0xFF
; Line 716
  00034	e1a0f00e	 mov         pc, lr
  00038		 |$LN3@ChToByte|
; Line 703
  00038	e28030c9	 add         r3, r0, #0xC9
; Line 696
  0003c	e20300ff	 and         r0, r3, #0xFF
; Line 716
  00040	e1a0f00e	 mov         pc, lr
  00044		 |$LN4@ChToByte|
; Line 696
  00044	e28030d0	 add         r3, r0, #0xD0
  00048	e20300ff	 and         r0, r3, #0xFF
; Line 716
  0004c	e1a0f00e	 mov         pc, lr
  00050		 |$LN1@ChToByte|
; Line 714
  00050	e3a00000	 mov         r0, #0
; Line 716
  00054	e1a0f00e	 mov         pc, lr
  00058		 |$M80090|

			 ENDP  ; |?ChToByte@CRegParser@ATL@@KAE_W@Z|, ATL::CRegParser::ChToByte

	EXPORT	|?HKeyFromString@CRegParser@ATL@@KAPAUHKEY__@@PA_W@Z| ; ATL::CRegParser::HKeyFromString
	EXPORT	|?map@?1??HKeyFromString@CRegParser@ATL@@KAPAUHKEY__@@PA_W@Z@4QBUkeymap@?1??123@KAPAU4@0@Z@B| [ DATA ] ; `ATL::CRegParser::HKeyFromString'::`2'::map
	EXPORT	|??_C@_19NCHLBIN@?$AAH?$AAK?$AAC?$AAR?$AA?$AA@| [ DATA ] ; `string'
	EXPORT	|??_C@_19JAPAIJDE@?$AAH?$AAK?$AAC?$AAU?$AA?$AA@| [ DATA ] ; `string'
	EXPORT	|??_C@_19PEALEEJB@?$AAH?$AAK?$AAL?$AAM?$AA?$AA@| [ DATA ] ; `string'
	EXPORT	|??_C@_17PJOJPMPB@?$AAH?$AAK?$AAU?$AA?$AA@| [ DATA ] ; `string'
	EXPORT	|??_C@_1CE@PACHPJFI@?$AAH?$AAK?$AAE?$AAY?$AA_?$AAC?$AAL?$AAA?$AAS?$AAS?$AAE?$AAS?$AA_?$AAR?$AAO?$AAO?$AAT?$AA?$AA@| [ DATA ] ; `string'
	EXPORT	|??_C@_1CE@HLHNCBPM@?$AAH?$AAK?$AAE?$AAY?$AA_?$AAC?$AAU?$AAR?$AAR?$AAE?$AAN?$AAT?$AA_?$AAU?$AAS?$AAE?$AAR?$AA?$AA@| [ DATA ] ; `string'
	EXPORT	|??_C@_1CG@GFBEANJL@?$AAH?$AAK?$AAE?$AAY?$AA_?$AAL?$AAO?$AAC?$AAA?$AAL?$AA_?$AAM?$AAA?$AAC?$AAH?$AAI?$AAN?$AAE?$AA?$AA@| [ DATA ] ; `string'
	EXPORT	|??_C@_1BG@BGODANIO@?$AAH?$AAK?$AAE?$AAY?$AA_?$AAU?$AAS?$AAE?$AAR?$AAS?$AA?$AA@| [ DATA ] ; `string'

  00000			 AREA	 |.pdata|, PDATA
|$T80106| DCD	|$LN12@HKeyFromSt|
	DCD	0x40001401

  00000			 AREA	 |.rdata|, DATA, READONLY
|??_C@_1BG@BGODANIO@?$AAH?$AAK?$AAE?$AAY?$AA_?$AAU?$AAS?$AAE?$AAR?$AAS?$AA?$AA@| DCB "H"
	DCB	0x0, "K", 0x0, "E", 0x0, "Y", 0x0, "_", 0x0, "U", 0x0, "S"
	DCB	0x0, "E", 0x0, "R", 0x0, "S", 0x0, 0x0, 0x0 ; `string'

  00000			 AREA	 |.rdata|, DATA, READONLY
|??_C@_1CG@GFBEANJL@?$AAH?$AAK?$AAE?$AAY?$AA_?$AAL?$AAO?$AAC?$AAA?$AAL?$AA_?$AAM?$AAA?$AAC?$AAH?$AAI?$AAN?$AAE?$AA?$AA@| DCB "H"
	DCB	0x0, "K", 0x0, "E", 0x0, "Y", 0x0, "_", 0x0, "L", 0x0, "O"
	DCB	0x0, "C", 0x0, "A", 0x0, "L", 0x0, "_", 0x0, "M", 0x0, "A"
	DCB	0x0, "C", 0x0, "H", 0x0, "I", 0x0, "N", 0x0, "E", 0x0, 0x0
	DCB	0x0					; `string'

  00000			 AREA	 |.rdata|, DATA, READONLY
|??_C@_1CE@HLHNCBPM@?$AAH?$AAK?$AAE?$AAY?$AA_?$AAC?$AAU?$AAR?$AAR?$AAE?$AAN?$AAT?$AA_?$AAU?$AAS?$AAE?$AAR?$AA?$AA@| DCB "H"
	DCB	0x0, "K", 0x0, "E", 0x0, "Y", 0x0, "_", 0x0, "C", 0x0, "U"
	DCB	0x0, "R", 0x0, "R", 0x0, "E", 0x0, "N", 0x0, "T", 0x0, "_"
	DCB	0x0, "U", 0x0, "S", 0x0, "E", 0x0, "R", 0x0, 0x0, 0x0 ; `string'

  00000			 AREA	 |.rdata|, DATA, READONLY
|??_C@_1CE@PACHPJFI@?$AAH?$AAK?$AAE?$AAY?$AA_?$AAC?$AAL?$AAA?$AAS?$AAS?$AAE?$AAS?$AA_?$AAR?$AAO?$AAO?$AAT?$AA?$AA@| DCB "H"
	DCB	0x0, "K", 0x0, "E", 0x0, "Y", 0x0, "_", 0x0, "C", 0x0, "L"
	DCB	0x0, "A", 0x0, "S", 0x0, "S", 0x0, "E", 0x0, "S", 0x0, "_"
	DCB	0x0, "R", 0x0, "O", 0x0, "O", 0x0, "T", 0x0, 0x0, 0x0 ; `string'

  00000			 AREA	 |.rdata|, DATA, READONLY
|??_C@_17PJOJPMPB@?$AAH?$AAK?$AAU?$AA?$AA@| DCB "H", 0x0, "K", 0x0, "U", 0x0
	DCB	0x0, 0x0				; `string'

  00000			 AREA	 |.rdata|, DATA, READONLY
|??_C@_19PEALEEJB@?$AAH?$AAK?$AAL?$AAM?$AA?$AA@| DCB "H", 0x0, "K", 0x0, "L"
	DCB	0x0, "M", 0x0, 0x0, 0x0			; `string'

  00000			 AREA	 |.rdata|, DATA, READONLY
|??_C@_19JAPAIJDE@?$AAH?$AAK?$AAC?$AAU?$AA?$AA@| DCB "H", 0x0, "K", 0x0, "C"
	DCB	0x0, "U", 0x0, 0x0, 0x0			; `string'

  00000			 AREA	 |.rdata|, DATA, READONLY
|??_C@_19NCHLBIN@?$AAH?$AAK?$AAC?$AAR?$AA?$AA@| DCB "H", 0x0, "K", 0x0, "C"
	DCB	0x0, "R", 0x0, 0x0, 0x0			; `string'

  00000			 AREA	 |.rdata|, DATA, READONLY
|?map@?1??HKeyFromString@CRegParser@ATL@@KAPAUHKEY__@@PA_W@Z@4QBUkeymap@?1??123@KAPAU4@0@Z@B| DCD |??_C@_19NCHLBIN@?$AAH?$AAK?$AAC?$AAR?$AA?$AA@| ; `ATL::CRegParser::HKeyFromString'::`2'::map
	DCD	0x80000000
	DCD	|??_C@_19JAPAIJDE@?$AAH?$AAK?$AAC?$AAU?$AA?$AA@|
	DCD	0x80000001
	DCD	|??_C@_19PEALEEJB@?$AAH?$AAK?$AAL?$AAM?$AA?$AA@|
	DCD	0x80000002
	DCD	|??_C@_17PJOJPMPB@?$AAH?$AAK?$AAU?$AA?$AA@|
	DCD	0x80000003
	DCD	|??_C@_1CE@PACHPJFI@?$AAH?$AAK?$AAE?$AAY?$AA_?$AAC?$AAL?$AAA?$AAS?$AAS?$AAE?$AAS?$AA_?$AAR?$AAO?$AAO?$AAT?$AA?$AA@|
	DCD	0x80000000
	DCD	|??_C@_1CE@HLHNCBPM@?$AAH?$AAK?$AAE?$AAY?$AA_?$AAC?$AAU?$AAR?$AAR?$AAE?$AAN?$AAT?$AA_?$AAU?$AAS?$AAE?$AAR?$AA?$AA@|
	DCD	0x80000001
	DCD	|??_C@_1CG@GFBEANJL@?$AAH?$AAK?$AAE?$AAY?$AA_?$AAL?$AAO?$AAC?$AAA?$AAL?$AA_?$AAM?$AAA?$AAC?$AAH?$AAI?$AAN?$AAE?$AA?$AA@|
	DCD	0x80000002
	DCD	|??_C@_1BG@BGODANIO@?$AAH?$AAK?$AAE?$AAY?$AA_?$AAU?$AAS?$AAE?$AAR?$AAS?$AA?$AA@|
	DCD	0x80000003
; Function compile flags: /Ogspy

  00000			 AREA	 |.text|, CODE, ARM

  00000		 |?HKeyFromString@CRegParser@ATL@@KAPAUHKEY__@@PA_W@Z| PROC ; ATL::CRegParser::HKeyFromString
; Line 719
  00000		 |$LN12@HKeyFromSt|
  00000	e92d40f0	 stmdb       sp!, {r4 - r7, lr}
  00004		 |$M80103|
  00004	e1a07000	 mov         r7, r0
; Line 746
  00008	e59f603c	 ldr         r6, [pc, #0x3C]
  0000c	e3a04000	 mov         r4, #0
  00010	e1a05006	 mov         r5, r6
  00014		 |$LL4@HKeyFromSt|
; Line 748
  00014	e5951000	 ldr         r1, [r5]
  00018	e1a00007	 mov         r0, r7
  0001c	eb000000	 bl          lstrcmpiW
  00020	e3500000	 cmp         r0, #0
  00024	0a000005	 beq         |$LN8@HKeyFromSt|
  00028	e2844001	 add         r4, r4, #1
  0002c	e3540008	 cmp         r4, #8
  00030	e2855008	 add         r5, r5, #8
  00034	3afffff6	 bcc         |$LL4@HKeyFromSt|
; Line 751
  00038	e3a00000	 mov         r0, #0
; Line 752
  0003c	e8bd80f0	 ldmia       sp!, {r4 - r7, pc}
  00040		 |$LN8@HKeyFromSt|
; Line 749
  00040	e2863004	 add         r3, r6, #4
  00044	e7930184	 ldr         r0, [r3, +r4, lsl #3]
; Line 752
  00048	e8bd80f0	 ldmia       sp!, {r4 - r7, pc}
  0004c		 |$LN13@HKeyFromSt|
  0004c		 |$LN14@HKeyFromSt|
  0004c	00000000	 DCD         |?map@?1??HKeyFromString@CRegParser@ATL@@KAPAUHKEY__@@PA_W@Z@4QBUkeymap@?1??123@KAPAU4@0@Z@B|
  00050		 |$M80104|

			 ENDP  ; |?HKeyFromString@CRegParser@ATL@@KAPAUHKEY__@@PA_W@Z|, ATL::CRegParser::HKeyFromString

	EXPORT	|?StrChrW@CRegParser@ATL@@KAPA_WPA_W_W@Z| ; ATL::CRegParser::StrChrW

  00000			 AREA	 |.pdata|, PDATA
|$T80124| DCD	|$LN13@StrChrW|
	DCD	0x40001201
; Function compile flags: /Ogspy

  00000			 AREA	 |.text|, CODE, ARM

  00000		 |?StrChrW@CRegParser@ATL@@KAPA_WPA_W_W@Z| PROC ; ATL::CRegParser::StrChrW
; Line 755
  00000		 |$LN13@StrChrW|
  00000	e92d4030	 stmdb       sp!, {r4, r5, lr}
  00004		 |$M80121|
  00004	e1a05001	 mov         r5, r1
  00008	e3500000	 cmp         r0, #0
; Line 756
  0000c	e3a04000	 mov         r4, #0
; Line 758
  00010	1a000005	 bne         |$LN7@StrChrW|
; Line 759
  00014	e3a04000	 mov         r4, #0
; Line 771
  00018	e1a00004	 mov         r0, r4
  0001c	e8bd8030	 ldmia       sp!, {r4, r5, pc}
  00020		 |$LL3@StrChrW|
; Line 763
  00020	e1530005	 cmp         r3, r5
  00024	0a000005	 beq         |$LN8@StrChrW|
; Line 768
  00028	eb000000	 bl          CharNextW
  0002c		 |$LN7@StrChrW|
  0002c	e1d030b0	 ldrh        r3, [r0]
  00030	e3530000	 cmp         r3, #0
  00034	1afffff9	 bne         |$LL3@StrChrW|
; Line 771
  00038	e1a00004	 mov         r0, r4
