; Listing generated by Microsoft (R) Optimizing Compiler Version 15.00.20720 

	TTL	c:\Users\Steven\Desktop\CSharp - DllImport\CSharp - DllImport\VS2008\DllImportMango\stdafx.cpp
	CODE32

  00000			 AREA	 |.drectve|, DRECTVE
	DCB	"/nodefaultlib:libc.lib "
	DCB	"/nodefaultlib:libcd.lib "
	DCB	"/nodefaultlib:libc.lib "
	DCB	"/nodefaultlib:libcd.lib "
	DCB	"/nodefaultlib:oldnames.lib "
	DCB	"-defaultlib:uuid.lib "
	DCB	"-defaultlib:uuid.lib "
	DCB	"-defaultlib:atls.lib "
	DCB	"/merge:ATL=.rdata "
	DCB	"-defaultlib:coredll.lib "
	DCB	"-defaultlib:ole32.lib "
	DCB	"-defaultlib:oleaut32.lib "
	DCB	"-defaultlib:uuid.lib "
	DCB	"-defaultlib:uuid.lib "
	DCB	"-defaultlib:uuid.lib "
	DCB	"-defaultlib:urlmon.lib "
	DCB	"-defaultlib:aygshell.lib "
	DCB	"-defaultlib:LIBCMT "
	DCB	"-defaultlib:OLDNAMES "

	EXPORT	|??_C@_1BA@JIHHIEDE@?$AAT?$AAy?$AAp?$AAe?$AAL?$AAi?$AAb?$AA?$AA@| [ DATA ] ; `string'
	EXPORT	|??_C@_1BC@EAHCMADO@?$AAS?$AAo?$AAf?$AAt?$AAw?$AAa?$AAr?$AAe?$AA?$AA@| [ DATA ] ; `string'
	EXPORT	|??_C@_1O@GBFINDKL@?$AAS?$AAY?$AAS?$AAT?$AAE?$AAM?$AA?$AA@| [ DATA ] ; `string'
	EXPORT	|??_C@_1BC@IBECJAAI@?$AAS?$AAE?$AAC?$AAU?$AAR?$AAI?$AAT?$AAY?$AA?$AA@| [ DATA ] ; `string'
	EXPORT	|??_C@_17OMAOINJK@?$AAS?$AAA?$AAM?$AA?$AA@| [ DATA ] ; `string'
	EXPORT	|??_C@_19HLLLM@?$AAM?$AAi?$AAm?$AAe?$AA?$AA@| [ DATA ] ; `string'
	EXPORT	|??_C@_1BC@MAICEHGI@?$AAH?$AAa?$AAr?$AAd?$AAw?$AAa?$AAr?$AAe?$AA?$AA@| [ DATA ] ; `string'
	EXPORT	|??_C@_1BE@EKPAFMCP@?$AAI?$AAn?$AAt?$AAe?$AAr?$AAf?$AAa?$AAc?$AAe?$AA?$AA@| [ DATA ] ; `string'
	EXPORT	|??_C@_1BC@NKMMNMGL@?$AAF?$AAi?$AAl?$AAe?$AAT?$AAy?$AAp?$AAe?$AA?$AA@| [ DATA ] ; `string'
	EXPORT	|??_C@_1CK@OEKPKBNA@?$AAC?$AAo?$AAm?$AAp?$AAo?$AAn?$AAe?$AAn?$AAt?$AA?5?$AAC?$AAa?$AAt?$AAe?$AAg?$AAo?$AAr?$AAi?$AAe?$AAs?$AA?$AA@| [ DATA ] ; `string'
	EXPORT	|??_C@_1M@KANJNLFF@?$AAC?$AAL?$AAS?$AAI?$AAD?$AA?$AA@| [ DATA ] ; `string'
	EXPORT	|??_C@_1M@EJNEECMJ@?$AAA?$AAp?$AAp?$AAI?$AAD?$AA?$AA@| [ DATA ] ; `string'
	EXPORT	|??_C@_1O@JDLOHAN@?$AAD?$AAe?$AAl?$AAe?$AAt?$AAe?$AA?$AA@| [ DATA ] ; `string'
	EXPORT	|??_C@_1BC@GCKHIPE@?$AAN?$AAo?$AAR?$AAe?$AAm?$AAo?$AAv?$AAe?$AA?$AA@| [ DATA ] ; `string'
	EXPORT	|??_C@_1BI@JFAIJMHL@?$AAF?$AAo?$AAr?$AAc?$AAe?$AAR?$AAe?$AAm?$AAo?$AAv?$AAe?$AA?$AA@| [ DATA ] ; `string'
	EXPORT	|??_C@_17LLMMEOJD@?$AAV?$AAa?$AAl?$AA?$AA@| [ DATA ] ; `string'
	EXPORT	|??_C@_13OPKGLAFF@?$AAB?$AA?$AA@| [ DATA ] ; `string'
	EXPORT	|??_C@_13MKMNOPIJ@?$AAD?$AA?$AA@| [ DATA ] ; `string'
	EXPORT	|??_C@_13LHMFKAAD@?$AAM?$AA?$AA@| [ DATA ] ; `string'
	EXPORT	|??_C@_13HADIAKP@?$AAS?$AA?$AA@| [ DATA ] ; `string'
	EXPORT	|?_Min@?$AtlLimits@H@ATL@@2HB| [ DATA ]	; ATL::AtlLimits<int>::_Min
	EXPORT	|?_Max@?$AtlLimits@H@ATL@@2HB| [ DATA ]	; ATL::AtlLimits<int>::_Max
	EXPORT	|?_Min@?$AtlLimits@I@ATL@@2IB| [ DATA ]	; ATL::AtlLimits<unsigned int>::_Min
	EXPORT	|?_Max@?$AtlLimits@I@ATL@@2IB| [ DATA ]	; ATL::AtlLimits<unsigned int>::_Max
	EXPORT	|?_Min@?$AtlLimits@J@ATL@@2JB| [ DATA ]	; ATL::AtlLimits<long>::_Min
	EXPORT	|?_Max@?$AtlLimits@J@ATL@@2JB| [ DATA ]	; ATL::AtlLimits<long>::_Max
	EXPORT	|?_Min@?$AtlLimits@K@ATL@@2KB| [ DATA ]	; ATL::AtlLimits<unsigned long>::_Min
	EXPORT	|?_Max@?$AtlLimits@K@ATL@@2KB| [ DATA ]	; ATL::AtlLimits<unsigned long>::_Max
	EXPORT	|?_Min@?$AtlLimits@_J@ATL@@2_JB| [ DATA ] ; ATL::AtlLimits<__int64>::_Min
	EXPORT	|?_Max@?$AtlLimits@_J@ATL@@2_JB| [ DATA ] ; ATL::AtlLimits<__int64>::_Max
	EXPORT	|?_Min@?$AtlLimits@_K@ATL@@2_KB| [ DATA ] ; ATL::AtlLimits<unsigned __int64>::_Min
	EXPORT	|?_Max@?$AtlLimits@_K@ATL@@2_KB| [ DATA ] ; ATL::AtlLimits<unsigned __int64>::_Max
	EXPORT	|?m_bInitFailed@CAtlBaseModule@ATL@@2_NA| [ DATA ] ; ATL::CAtlBaseModule::m_bInitFailed
	EXPORT	|?VT@?$CVarTypeInfo@D@ATL@@2GB| [ DATA ] ; ATL::CVarTypeInfo<char>::VT
	EXPORT	|?pmField@?$CVarTypeInfo@D@ATL@@2QQtagVARIANT@@DQ3@| [ DATA ] ; ATL::CVarTypeInfo<char>::pmField
	EXPORT	|?VT@?$CVarTypeInfo@E@ATL@@2GB| [ DATA ] ; ATL::CVarTypeInfo<unsigned char>::VT
	EXPORT	|?pmField@?$CVarTypeInfo@E@ATL@@2QQtagVARIANT@@EQ3@| [ DATA ] ; ATL::CVarTypeInfo<unsigned char>::pmField
	EXPORT	|?VT@?$CVarTypeInfo@PAD@ATL@@2GB| [ DATA ] ; ATL::CVarTypeInfo<char *>::VT
	EXPORT	|?pmField@?$CVarTypeInfo@PAD@ATL@@2QQtagVARIANT@@PADQ3@| [ DATA ] ; ATL::CVarTypeInfo<char *>::pmField
	EXPORT	|?VT@?$CVarTypeInfo@PAE@ATL@@2GB| [ DATA ] ; ATL::CVarTypeInfo<unsigned char *>::VT
	EXPORT	|?pmField@?$CVarTypeInfo@PAE@ATL@@2QQtagVARIANT@@PAEQ3@| [ DATA ] ; ATL::CVarTypeInfo<unsigned char *>::pmField
	EXPORT	|?VT@?$CVarTypeInfo@F@ATL@@2GB| [ DATA ] ; ATL::CVarTypeInfo<short>::VT
	EXPORT	|?pmField@?$CVarTypeInfo@F@ATL@@2QQtagVARIANT@@FQ3@| [ DATA ] ; ATL::CVarTypeInfo<short>::pmField
	EXPORT	|?VT@?$CVarTypeInfo@PAF@ATL@@2GB| [ DATA ] ; ATL::CVarTypeInfo<short *>::VT
	EXPORT	|?pmField@?$CVarTypeInfo@PAF@ATL@@2QQtagVARIANT@@PAFQ3@| [ DATA ] ; ATL::CVarTypeInfo<short *>::pmField
	EXPORT	|?VT@?$CVarTypeInfo@G@ATL@@2GB| [ DATA ] ; ATL::CVarTypeInfo<unsigned short>::VT
	EXPORT	|?pmField@?$CVarTypeInfo@G@ATL@@2QQtagVARIANT@@GQ3@| [ DATA ] ; ATL::CVarTypeInfo<unsigned short>::pmField
	EXPORT	|?VT@?$CVarTypeInfo@PAG@ATL@@2GB| [ DATA ] ; ATL::CVarTypeInfo<unsigned short *>::VT
	EXPORT	|?pmField@?$CVarTypeInfo@PAG@ATL@@2QQtagVARIANT@@PAGQ3@| [ DATA ] ; ATL::CVarTypeInfo<unsigned short *>::pmField
	EXPORT	|?VT@?$CVarTypeInfo@H@ATL@@2GB| [ DATA ] ; ATL::CVarTypeInfo<int>::VT
	EXPORT	|?pmField@?$CVarTypeInfo@H@ATL@@2QQtagVARIANT@@HQ3@| [ DATA ] ; ATL::CVarTypeInfo<int>::pmField
	EXPORT	|?VT@?$CVarTypeInfo@PAH@ATL@@2GB| [ DATA ] ; ATL::CVarTypeInfo<int *>::VT
	EXPORT	|?pmField@?$CVarTypeInfo@PAH@ATL@@2QQtagVARIANT@@PAHQ3@| [ DATA ] ; ATL::CVarTypeInfo<int *>::pmField
	EXPORT	|?VT@?$CVarTypeInfo@I@ATL@@2GB| [ DATA ] ; ATL::CVarTypeInfo<unsigned int>::VT
	EXPORT	|?pmField@?$CVarTypeInfo@I@ATL@@2QQtagVARIANT@@IQ3@| [ DATA ] ; ATL::CVarTypeInfo<unsigned int>::pmField
	EXPORT	|?VT@?$CVarTypeInfo@PAI@ATL@@2GB| [ DATA ] ; ATL::CVarTypeInfo<unsigned int *>::VT
	EXPORT	|?pmField@?$CVarTypeInfo@PAI@ATL@@2QQtagVARIANT@@PAIQ3@| [ DATA ] ; ATL::CVarTypeInfo<unsigned int *>::pmField
	EXPORT	|?VT@?$CVarTypeInfo@J@ATL@@2GB| [ DATA ] ; ATL::CVarTypeInfo<long>::VT
	EXPORT	|?pmField@?$CVarTypeInfo@J@ATL@@2QQtagVARIANT@@JQ3@| [ DATA ] ; ATL::CVarTypeInfo<long>::pmField
	EXPORT	|?VT@?$CVarTypeInfo@PAJ@ATL@@2GB| [ DATA ] ; ATL::CVarTypeInfo<long *>::VT
	EXPORT	|?pmField@?$CVarTypeInfo@PAJ@ATL@@2QQtagVARIANT@@PAJQ3@| [ DATA ] ; ATL::CVarTypeInfo<long *>::pmField
	EXPORT	|?VT@?$CVarTypeInfo@K@ATL@@2GB| [ DATA ] ; ATL::CVarTypeInfo<unsigned long>::VT
	EXPORT	|?pmField@?$CVarTypeInfo@K@ATL@@2QQtagVARIANT@@KQ3@| [ DATA ] ; ATL::CVarTypeInfo<unsigned long>::pmField
	EXPORT	|?VT@?$CVarTypeInfo@PAK@ATL@@2GB| [ DATA ] ; ATL::CVarTypeInfo<unsigned long *>::VT
	EXPORT	|?pmField@?$CVarTypeInfo@PAK@ATL@@2QQtagVARIANT@@PAKQ3@| [ DATA ] ; ATL::CVarTypeInfo<unsigned long *>::pmField
	EXPORT	|?VT@?$CVarTypeInfo@M@ATL@@2GB| [ DATA ] ; ATL::CVarTypeInfo<float>::VT
	EXPORT	|?pmField@?$CVarTypeInfo@M@ATL@@2QQtagVARIANT@@MQ3@| [ DATA ] ; ATL::CVarTypeInfo<float>::pmField
	EXPORT	|?VT@?$CVarTypeInfo@PAM@ATL@@2GB| [ DATA ] ; ATL::CVarTypeInfo<float *>::VT
	EXPORT	|?pmField@?$CVarTypeInfo@PAM@ATL@@2QQtagVARIANT@@PAMQ3@| [ DATA ] ; ATL::CVarTypeInfo<float *>::pmField
	EXPORT	|?VT@?$CVarTypeInfo@N@ATL@@2GB| [ DATA ] ; ATL::CVarTypeInfo<double>::VT
	EXPORT	|?pmField@?$CVarTypeInfo@N@ATL@@2QQtagVARIANT@@NQ3@| [ DATA ] ; ATL::CVarTypeInfo<double>::pmField
	EXPORT	|?VT@?$CVarTypeInfo@PAN@ATL@@2GB| [ DATA ] ; ATL::CVarTypeInfo<double *>::VT
	EXPORT	|?pmField@?$CVarTypeInfo@PAN@ATL@@2QQtagVARIANT@@PANQ3@| [ DATA ] ; ATL::CVarTypeInfo<double *>::pmField
	EXPORT	|?VT@?$CVarTypeInfo@UtagVARIANT@@@ATL@@2GB| [ DATA ] ; ATL::CVarTypeInfo<tagVARIANT>::VT
	EXPORT	|?VT@?$CVarTypeInfo@PA_W@ATL@@2GB| [ DATA ] ; ATL::CVarTypeInfo<wchar_t *>::VT
	EXPORT	|?pmField@?$CVarTypeInfo@PA_W@ATL@@2QQtagVARIANT@@PA_WQ3@| [ DATA ] ; ATL::CVarTypeInfo<wchar_t *>::pmField
	EXPORT	|?VT@?$CVarTypeInfo@PAPA_W@ATL@@2GB| [ DATA ] ; ATL::CVarTypeInfo<wchar_t * *>::VT
	EXPORT	|?pmField@?$CVarTypeInfo@PAPA_W@ATL@@2QQtagVARIANT@@PAPA_WQ3@| [ DATA ] ; ATL::CVarTypeInfo<wchar_t * *>::pmField
	EXPORT	|?VT@?$CVarTypeInfo@PAUIUnknown@@@ATL@@2GB| [ DATA ] ; ATL::CVarTypeInfo<IUnknown *>::VT
	EXPORT	|?pmField@?$CVarTypeInfo@PAUIUnknown@@@ATL@@2QQtagVARIANT@@PAUIUnknown@@Q3@| [ DATA ] ; ATL::CVarTypeInfo<IUnknown *>::pmField
	EXPORT	|?VT@?$CVarTypeInfo@PAPAUIUnknown@@@ATL@@2GB| [ DATA ] ; ATL::CVarTypeInfo<IUnknown * *>::VT
	EXPORT	|?pmField@?$CVarTypeInfo@PAPAUIUnknown@@@ATL@@2QQtagVARIANT@@PAPAUIUnknown@@Q3@| [ DATA ] ; ATL::CVarTypeInfo<IUnknown * *>::pmField
	EXPORT	|?VT@?$CVarTypeInfo@PAUIDispatch@@@ATL@@2GB| [ DATA ] ; ATL::CVarTypeInfo<IDispatch *>::VT
	EXPORT	|?pmField@?$CVarTypeInfo@PAUIDispatch@@@ATL@@2QQtagVARIANT@@PAUIDispatch@@Q3@| [ DATA ] ; ATL::CVarTypeInfo<IDispatch *>::pmField
	EXPORT	|?VT@?$CVarTypeInfo@PAPAUIDispatch@@@ATL@@2GB| [ DATA ] ; ATL::CVarTypeInfo<IDispatch * *>::VT
	EXPORT	|?pmField@?$CVarTypeInfo@PAPAUIDispatch@@@ATL@@2QQtagVARIANT@@PAPAUIDispatch@@Q3@| [ DATA ] ; ATL::CVarTypeInfo<IDispatch * *>::pmField
	EXPORT	|?VT@?$CVarTypeInfo@TtagCY@@@ATL@@2GB| [ DATA ] ; ATL::CVarTypeInfo<tagCY>::VT
	EXPORT	|?pmField@?$CVarTypeInfo@TtagCY@@@ATL@@2QQtagVARIANT@@TtagCY@@Q3@| [ DATA ] ; ATL::CVarTypeInfo<tagCY>::pmField
	EXPORT	|?VT@?$CVarTypeInfo@PATtagCY@@@ATL@@2GB| [ DATA ] ; ATL::CVarTypeInfo<tagCY *>::VT
	EXPORT	|?pmField@?$CVarTypeInfo@PATtagCY@@@ATL@@2QQtagVARIANT@@PATtagCY@@Q3@| [ DATA ] ; ATL::CVarTypeInfo<tagCY *>::pmField
	EXPORT	|LIBID_ATLLib| [ DATA ]
	EXPORT	|CLSID_Registrar| [ DATA ]
	EXPORT	|IID_IRegistrar| [ DATA ]
	EXPORT	|IID_IAxWinHostWindow| [ DATA ]
	EXPORT	|IID_IAxWinAmbientDispatch| [ DATA ]
	EXPORT	|IID_IInternalConnection| [ DATA ]
	EXPORT	|IID_IDocHostUIHandlerDispatch| [ DATA ]
	EXPORT	|IID_IAxWinHostWindowLic| [ DATA ]
	EXPORT	|IID_IAxWinAmbientDispatchEx| [ DATA ]
	EXPORT	|__pobjMapEntryFirst| [ DATA ]
	EXPORT	|__pobjMapEntryLast| [ DATA ]
	EXPORT	|?_pPerfRegFunc@ATL@@3P6AJPAUHINSTANCE__@@@ZA| [ DATA ] ; ATL::_pPerfRegFunc
	EXPORT	|?_pPerfUnRegFunc@ATL@@3P6AJXZA| [ DATA ] ; ATL::_pPerfUnRegFunc
	EXPORT	|?_AtlRegisterPerUser@ATL@@3_NA| [ DATA ] ; ATL::_AtlRegisterPerUser
	EXPORT	|?_pAtlModule@ATL@@3PAVCAtlModule@1@A| [ DATA ] ; ATL::_pAtlModule
	EXPORT	|?m_libid@CAtlModule@ATL@@2U_GUID@@A| [ DATA ] ; ATL::CAtlModule::m_libid
	EXPORT	|?_pModule@ATL@@3PAVCComModule@1@A| [ DATA ] ; ATL::_pModule
	EXPORT	|?MAX_VALUE@CRegParser@ATL@@1HB| [ DATA ] ; ATL::CRegParser::MAX_VALUE
	EXPORT	|?MAX_TYPE@CRegParser@ATL@@1HB| [ DATA ] ; ATL::CRegParser::MAX_TYPE
	EXPORT	|?rgszNeverDelete@CRegParser@ATL@@1QBQB_WB| [ DATA ] ; ATL::CRegParser::rgszNeverDelete
	EXPORT	|?cbNeverDelete@CRegParser@ATL@@1HB| [ DATA ] ; ATL::CRegParser::cbNeverDelete
	EXPORT	|?rcDefault@CWindow@ATL@@2UtagRECT@@A| [ DATA ] ; ATL::CWindow::rcDefault

  00000			 AREA	 |.bss|, NOINIT
|?m_bInitFailed@CAtlBaseModule@ATL@@2_NA| % 0x1		; ATL::CAtlBaseModule::m_bInitFailed

  00000			 AREA	 |.bss|, NOINIT
|?_pPerfRegFunc@ATL@@3P6AJPAUHINSTANCE__@@@ZA| % 0x4	; ATL::_pPerfRegFunc

  00000			 AREA	 |.bss|, NOINIT
|?_pPerfUnRegFunc@ATL@@3P6AJXZA| % 0x4			; ATL::_pPerfUnRegFunc

  00000			 AREA	 |.bss|, NOINIT
|?_AtlRegisterPerUser@ATL@@3_NA| % 0x1			; ATL::_AtlRegisterPerUser

  00000			 AREA	 |.bss|, NOINIT
|?_pAtlModule@ATL@@3PAVCAtlModule@1@A| % 0x4		; ATL::_pAtlModule

  00000			 AREA	 |.bss|, NOINIT
|?m_libid@CAtlModule@ATL@@2U_GUID@@A| % 0x10		; ATL::CAtlModule::m_libid

  00000			 AREA	 |.bss|, NOINIT
|?_pModule@ATL@@3PAVCComModule@1@A| % 0x4		; ATL::_pModule

  00000			 AREA	 |.data|, DATA
|?rcDefault@CWindow@ATL@@2UtagRECT@@A| DCD 0x80000000	; ATL::CWindow::rcDefault
	DCD	0x80000000
	DCD	0x0
	DCD	0x0

  00000			 AREA	 |.rdata|, DATA, READONLY
|?cbNeverDelete@CRegParser@ATL@@1HB| DCD 0xc		; ATL::CRegParser::cbNeverDelete

  00000			 AREA	 |.rdata|, DATA, READONLY
|?rgszNeverDelete@CRegParser@ATL@@1QBQB_WB| DCD |??_C@_1M@EJNEECMJ@?$AAA?$AAp?$AAp?$AAI?$AAD?$AA?$AA@| ; ATL::CRegParser::rgszNeverDelete
	DCD	|??_C@_1M@KANJNLFF@?$AAC?$AAL?$AAS?$AAI?$AAD?$AA?$AA@|
	DCD	|??_C@_1CK@OEKPKBNA@?$AAC?$AAo?$AAm?$AAp?$AAo?$AAn?$AAe?$AAn?$AAt?$AA?5?$AAC?$AAa?$AAt?$AAe?$AAg?$AAo?$AAr?$AAi?$AAe?$AAs?$AA?$AA@|
	DCD	|??_C@_1BC@NKMMNMGL@?$AAF?$AAi?$AAl?$AAe?$AAT?$AAy?$AAp?$AAe?$AA?$AA@|
	DCD	|??_C@_1BE@EKPAFMCP@?$AAI?$AAn?$AAt?$AAe?$AAr?$AAf?$AAa?$AAc?$AAe?$AA?$AA@|
	DCD	|??_C@_1BC@MAICEHGI@?$AAH?$AAa?$AAr?$AAd?$AAw?$AAa?$AAr?$AAe?$AA?$AA@|
	DCD	|??_C@_19HLLLM@?$AAM?$AAi?$AAm?$AAe?$AA?$AA@|
	DCD	|??_C@_17OMAOINJK@?$AAS?$AAA?$AAM?$AA?$AA@|
	DCD	|??_C@_1BC@IBECJAAI@?$AAS?$AAE?$AAC?$AAU?$AAR?$AAI?$AAT?$AAY?$AA?$AA@|
	DCD	|??_C@_1O@GBFINDKL@?$AAS?$AAY?$AAS?$AAT?$AAE?$AAM?$AA?$AA@|
	DCD	|??_C@_1BC@EAHCMADO@?$AAS?$AAo?$AAf?$AAt?$AAw?$AAa?$AAr?$AAe?$AA?$AA@|
	DCD	|??_C@_1BA@JIHHIEDE@?$AAT?$AAy?$AAp?$AAe?$AAL?$AAi?$AAb?$AA?$AA@|

  00000			 AREA	 |.rdata|, DATA, READONLY
|??_C@_1BA@JIHHIEDE@?$AAT?$AAy?$AAp?$AAe?$AAL?$AAi?$AAb?$AA?$AA@| DCB "T", 0x0
	DCB	"y", 0x0, "p", 0x0, "e", 0x0, "L", 0x0, "i", 0x0, "b", 0x0
	DCB	0x0, 0x0				; `string'

  00000			 AREA	 |.rdata|, DATA, READONLY
|??_C@_1BC@EAHCMADO@?$AAS?$AAo?$AAf?$AAt?$AAw?$AAa?$AAr?$AAe?$AA?$AA@| DCB "S"
	DCB	0x0, "o", 0x0, "f", 0x0, "t", 0x0, "w", 0x0, "a", 0x0, "r"
	DCB	0x0, "e", 0x0, 0x0, 0x0			; `string'

  00000			 AREA	 |.rdata|, DATA, READONLY
|??_C@_1O@GBFINDKL@?$AAS?$AAY?$AAS?$AAT?$AAE?$AAM?$AA?$AA@| DCB "S", 0x0, "Y"
	DCB	0x0, "S", 0x0, "T", 0x0, "E", 0x0, "M", 0x0, 0x0, 0x0 ; `string'

  00000			 AREA	 |.rdata|, DATA, READONLY
|??_C@_1BC@IBECJAAI@?$AAS?$AAE?$AAC?$AAU?$AAR?$AAI?$AAT?$AAY?$AA?$AA@| DCB "S"
	DCB	0x0, "E", 0x0, "C", 0x0, "U", 0x0, "R", 0x0, "I", 0x0, "T"
	DCB	0x0, "Y", 0x0, 0x0, 0x0			; `string'

  00000			 AREA	 |.rdata|, DATA, READONLY
|??_C@_17OMAOINJK@?$AAS?$AAA?$AAM?$AA?$AA@| DCB "S", 0x0, "A", 0x0, "M", 0x0
	DCB	0x0, 0x0				; `string'

  00000			 AREA	 |.rdata|, DATA, READONLY
|??_C@_19HLLLM@?$AAM?$AAi?$AAm?$AAe?$AA?$AA@| DCB "M", 0x0, "i", 0x0, "m", 0x0
	DCB	"e", 0x0, 0x0, 0x0			; `string'

  00000			 AREA	 |.rdata|, DATA, READONLY
|??_C@_1BC@MAICEHGI@?$AAH?$AAa?$AAr?$AAd?$AAw?$AAa?$AAr?$AAe?$AA?$AA@| DCB "H"
	DCB	0x0, "a", 0x0, "r", 0x0, "d", 0x0, "w", 0x0, "a", 0x0, "r"
	DCB	0x0, "e", 0x0, 0x0, 0x0			; `string'

  00000			 AREA	 |.rdata|, DATA, READONLY
|??_C@_1BE@EKPAFMCP@?$AAI?$AAn?$AAt?$AAe?$AAr?$AAf?$AAa?$AAc?$AAe?$AA?$AA@| DCB "I"
	DCB	0x0, "n", 0x0, "t", 0x0, "e", 0x0, "r", 0x0, "f", 0x0, "a"
	DCB	0x0, "c", 0x0, "e", 0x0, 0x0, 0x0	; `string'

  00000			 AREA	 |.rdata|, DATA, READONLY
|??_C@_1BC@NKMMNMGL@?$AAF?$AAi?$AAl?$AAe?$AAT?$AAy?$AAp?$AAe?$AA?$AA@| DCB "F"
	DCB	0x0, "i", 0x0, "l", 0x0, "e", 0x0, "T", 0x0, "y", 0x0, "p"
	DCB	0x0, "e", 0x0, 0x0, 0x0			; `string'

  00000			 AREA	 |.rdata|, DATA, READONLY
|??_C@_1CK@OEKPKBNA@?$AAC?$AAo?$AAm?$AAp?$AAo?$AAn?$AAe?$AAn?$AAt?$AA?5?$AAC?$AAa?$AAt?$AAe?$AAg?$AAo?$AAr?$AAi?$AAe?$AAs?$AA?$AA@| DCB "C"
	DCB	0x0, "o", 0x0, "m", 0x0, "p", 0x0, "o", 0x0, "n", 0x0, "e"
	DCB	0x0, "n", 0x0, "t", 0x0, " ", 0x0, "C", 0x0, "a", 0x0, "t"
	DCB	0x0, "e", 0x0, "g", 0x0, "o", 0x0, "r", 0x0, "i", 0x0, "e"
	DCB	0x0, "s", 0x0, 0x0, 0x0			; `string'

  00000			 AREA	 |.rdata|, DATA, READONLY
|??_C@_1M@KANJNLFF@?$AAC?$AAL?$AAS?$AAI?$AAD?$AA?$AA@| DCB "C", 0x0, "L", 0x0
	DCB	"S", 0x0, "I", 0x0, "D", 0x0, 0x0, 0x0	; `string'

  00000			 AREA	 |.rdata|, DATA, READONLY
|??_C@_1M@EJNEECMJ@?$AAA?$AAp?$AAp?$AAI?$AAD?$AA?$AA@| DCB "A", 0x0, "p", 0x0
	DCB	"p", 0x0, "I", 0x0, "D", 0x0, 0x0, 0x0	; `string'

  00000			 AREA	 |.rdata|, DATA, READONLY
|?MAX_TYPE@CRegParser@ATL@@1HB| DCD 0x1000		; ATL::CRegParser::MAX_TYPE

  00000			 AREA	 |.rdata|, DATA, READONLY
|?MAX_VALUE@CRegParser@ATL@@1HB| DCD 0x1000		; ATL::CRegParser::MAX_VALUE

  00000			 AREA	 |.rdata|, DATA, READONLY
|??_C@_1O@JDLOHAN@?$AAD?$AAe?$AAl?$AAe?$AAt?$AAe?$AA?$AA@| DCB "D", 0x0, "e"
	DCB	0x0, "l", 0x0, "e", 0x0, "t", 0x0, "e", 0x0, 0x0, 0x0 ; `string'

  00000			 AREA	 |.rdata|, DATA, READONLY
|??_C@_1BC@GCKHIPE@?$AAN?$AAo?$AAR?$AAe?$AAm?$AAo?$AAv?$AAe?$AA?$AA@| DCB "N"
	DCB	0x0, "o", 0x0, "R", 0x0, "e", 0x0, "m", 0x0, "o", 0x0, "v"
	DCB	0x0, "e", 0x0, 0x0, 0x0			; `string'

  00000			 AREA	 |.rdata|, DATA, READONLY
|??_C@_1BI@JFAIJMHL@?$AAF?$AAo?$AAr?$AAc?$AAe?$AAR?$AAe?$AAm?$AAo?$AAv?$AAe?$AA?$AA@| DCB "F"
	DCB	0x0, "o", 0x0, "r", 0x0, "c", 0x0, "e", 0x0, "R", 0x0, "e"
	DCB	0x0, "m", 0x0, "o", 0x0, "v", 0x0, "e", 0x0, 0x0, 0x0 ; `string'

  00000			 AREA	 |.rdata|, DATA, READONLY
|??_C@_17LLMMEOJD@?$AAV?$AAa?$AAl?$AA?$AA@| DCB "V", 0x0, "a", 0x0, "l", 0x0
	DCB	0x0, 0x0				; `string'

  00000			 AREA	 |.rdata|, DATA, READONLY
|??_C@_13OPKGLAFF@?$AAB?$AA?$AA@| DCB "B", 0x0, 0x0, 0x0 ; `string'

  00000			 AREA	 |.rdata|, DATA, READONLY
|??_C@_13MKMNOPIJ@?$AAD?$AA?$AA@| DCB "D", 0x0, 0x0, 0x0 ; `string'

  00000			 AREA	 |.rdata|, DATA, READONLY
|??_C@_13LHMFKAAD@?$AAM?$AA?$AA@| DCB "M", 0x0, 0x0, 0x0 ; `string'

  00000			 AREA	 |.rdata|, DATA, READONLY
|szStringVal| DCD |??_C@_13HADIAKP@?$AAS?$AA?$AA@|
|multiszStringVal| DCD |??_C@_13LHMFKAAD@?$AAM?$AA?$AA@|
|szDwordVal| DCD |??_C@_13MKMNOPIJ@?$AAD?$AA?$AA@|
|szBinaryVal| DCD |??_C@_13OPKGLAFF@?$AAB?$AA?$AA@|
|szValToken| DCD |??_C@_17LLMMEOJD@?$AAV?$AAa?$AAl?$AA?$AA@|
|szForceRemove| DCD |??_C@_1BI@JFAIJMHL@?$AAF?$AAo?$AAr?$AAc?$AAe?$AAR?$AAe?$AAm?$AAo?$AAv?$AAe?$AA?$AA@|
|szNoRemove| DCD |??_C@_1BC@GCKHIPE@?$AAN?$AAo?$AAR?$AAe?$AAm?$AAo?$AAv?$AAe?$AA?$AA@|
|szDelete| DCD	|??_C@_1O@JDLOHAN@?$AAD?$AAe?$AAl?$AAe?$AAt?$AAe?$AA?$AA@|

  00000			 AREA	 |.rdata|, DATA, READONLY
|??_C@_13HADIAKP@?$AAS?$AA?$AA@| DCB "S", 0x0, 0x0, 0x0	; `string'

  00000			 AREA	 |ATL$__z|, DATA, READONLY
|__pobjMapEntryLast| DCD 0x0

  00000			 AREA	 |ATL$__a|, DATA, READONLY
|__pobjMapEntryFirst| DCD 0x0

  00000			 AREA	 |.rdata|, DATA, READONLY
|IID_IAxWinAmbientDispatchEx| DCD 0xb2d0778b
	DCW	0xac99
	DCW	0x4c58
	DCB	0xa5
	DCB	0xc8
	DCB	0xe7
	DCB	0x72
	DCB	0x4e
	DCB	0x53
	DCB	0x16
	DCB	0xb5

  00000			 AREA	 |.rdata|, DATA, READONLY
|IID_IAxWinHostWindowLic| DCD 0x3935bda8
	DCW	0x4ed9
	DCW	0x495c
	DCB	0x86
	DCB	0x50
	DCB	0xe0
	DCB	0x1f
	DCB	0xc1
	DCB	0xe3
	DCB	0x8a
	DCB	0x4b

  00000			 AREA	 |.rdata|, DATA, READONLY
|IID_IDocHostUIHandlerDispatch| DCD 0x425b5af0
	DCW	0x65f1
	DCW	0x11d1
	DCB	0x96
	DCB	0x11
	DCB	0x0
	DCB	0x0
	DCB	0xf8
	DCB	0x1e
	DCB	0xd
	DCB	0xd

  00000			 AREA	 |.rdata|, DATA, READONLY
|IID_IInternalConnection| DCD 0x72ad0770
	DCW	0x6a9f
	DCW	0x11d1
	DCB	0xbc
	DCB	0xec
	DCB	0x0
	DCB	0x60
	DCB	0x8
	DCB	0x8f
	DCB	0x44
	DCB	0x4e

  00000			 AREA	 |.rdata|, DATA, READONLY
|IID_IAxWinAmbientDispatch| DCD 0xb6ea2051
	DCW	0x48a
	DCW	0x11d1
	DCB	0x82
	DCB	0xb9
	DCB	0x0
	DCB	0xc0
	DCB	0x4f
	DCB	0xb9
	DCB	0x94
	DCB	0x2e

  00000			 AREA	 |.rdata|, DATA, READONLY
|IID_IAxWinHostWindow| DCD 0xb6ea2050
	DCW	0x48a
	DCW	0x11d1
	DCB	0x82
	DCB	0xb9
	DCB	0x0
	DCB	0xc0
	DCB	0x4f
	DCB	0xb9
	DCB	0x94
	DCB	0x2e

  00000			 AREA	 |.rdata|, DATA, READONLY
|IID_IRegistrar| DCD 0x44ec053b
	DCW	0x400f
	DCW	0x11d0
	DCB	0x9d
	DCB	0xcd
	DCB	0x0
	DCB	0xa0
	DCB	0xc9
	DCB	0x3
	DCB	0x91
	DCB	0xd3

  00000			 AREA	 |.rdata|, DATA, READONLY
|CLSID_Registrar| DCD 0x44ec053a
	DCW	0x400f
	DCW	0x11d0
	DCB	0x9d
	DCB	0xcd
	DCB	0x0
	DCB	0xa0
	DCB	0xc9
	DCB	0x3
	DCB	0x91
	DCB	0xd3

  00000			 AREA	 |.rdata|, DATA, READONLY
|LIBID_ATLLib| DCD 0x44ec0535
	DCW	0x400f
	DCW	0x11d0
	DCB	0x9d
	DCB	0xcd
	DCB	0x0
	DCB	0xa0
	DCB	0xc9
	DCB	0x3
	DCB	0x91
	DCB	0xd3

  00000			 AREA	 |.rdata|, DATA, READONLY
|?pmField@?$CVarTypeInfo@PATtagCY@@@ATL@@2QQtagVARIANT@@PATtagCY@@Q3@| DCD 0x8 ; ATL::CVarTypeInfo<tagCY *>::pmField

  00000			 AREA	 |.rdata|, DATA, READONLY
|?VT@?$CVarTypeInfo@PATtagCY@@@ATL@@2GB| DCW 0x4006	; ATL::CVarTypeInfo<tagCY *>::VT

  00000			 AREA	 |.rdata|, DATA, READONLY
|?pmField@?$CVarTypeInfo@TtagCY@@@ATL@@2QQtagVARIANT@@TtagCY@@Q3@| DCD 0x8 ; ATL::CVarTypeInfo<tagCY>::pmField

  00000			 AREA	 |.rdata|, DATA, READONLY
|?VT@?$CVarTypeInfo@TtagCY@@@ATL@@2GB| DCW 0x6		; ATL::CVarTypeInfo<tagCY>::VT

  00000			 AREA	 |.rdata|, DATA, READONLY
|?pmField@?$CVarTypeInfo@PAPAUIDispatch@@@ATL@@2QQtagVARIANT@@PAPAUIDispatch@@Q3@| DCD 0x8 ; ATL::CVarTypeInfo<IDispatch * *>::pmField

  00000			 AREA	 |.rdata|, DATA, READONLY
|?VT@?$CVarTypeInfo@PAPAUIDispatch@@@ATL@@2GB| DCW 0x4009 ; ATL::CVarTypeInfo<IDispatch * *>::VT

  00000			 AREA	 |.rdata|, DATA, READONLY
|?pmField@?$CVarTypeInfo@PAUIDispatch@@@ATL@@2QQtagVARIANT@@PAUIDispatch@@Q3@| DCD 0x8 ; ATL::CVarTypeInfo<IDispatch *>::pmField

  00000			 AREA	 |.rdata|, DATA, READONLY
|?VT@?$CVarTypeInfo@PAUIDispatch@@@ATL@@2GB| DCW 0x9	; ATL::CVarTypeInfo<IDispatch *>::VT

  00000			 AREA	 |.rdata|, DATA, READONLY
|?pmField@?$CVarTypeInfo@PAPAUIUnknown@@@ATL@@2QQtagVARIANT@@PAPAUIUnknown@@Q3@| DCD 0x8 ; ATL::CVarTypeInfo<IUnknown * *>::pmField

  00000			 AREA	 |.rdata|, DATA, READONLY
|?VT@?$CVarTypeInfo@PAPAUIUnknown@@@ATL@@2GB| DCW 0x400d ; ATL::CVarTypeInfo<IUnknown * *>::VT

  00000			 AREA	 |.rdata|, DATA, READONLY
|?pmField@?$CVarTypeInfo@PAUIUnknown@@@ATL@@2QQtagVARIANT@@PAUIUnknown@@Q3@| DCD 0x8 ; ATL::CVarTypeInfo<IUnknown *>::pmField

  00000			 AREA	 |.rdata|, DATA, READONLY
|?VT@?$CVarTypeInfo@PAUIUnknown@@@ATL@@2GB| DCW 0xd	; ATL::CVarTypeInfo<IUnknown *>::VT

  00000			 AREA	 |.rdata|, DATA, READONLY
|?pmField@?$CVarTypeInfo@PAPA_W@ATL@@2QQtagVARIANT@@PAPA_WQ3@| DCD 0x8 ; ATL::CVarTypeInfo<wchar_t * *>::pmField

  00000			 AREA	 |.rdata|, DATA, READONLY
|?VT@?$CVarTypeInfo@PAPA_W@ATL@@2GB| DCW 0x4008		; ATL::CVarTypeInfo<wchar_t * *>::VT

  00000			 AREA	 |.rdata|, DATA, READONLY
|?pmField@?$CVarTypeInfo@PA_W@ATL@@2QQtagVARIANT@@PA_WQ3@| DCD 0x8 ; ATL::CVarTypeInfo<wchar_t *>::pmField

  00000			 AREA	 |.rdata|, DATA, READONLY
|?VT@?$CVarTypeInfo@PA_W@ATL@@2GB| DCW 0x8		; ATL::CVarTypeInfo<wchar_t *>::VT

  00000			 AREA	 |.rdata|, DATA, READONLY
|?VT@?$CVarTypeInfo@UtagVARIANT@@@ATL@@2GB| DCW 0xc	; ATL::CVarTypeInfo<tagVARIANT>::VT

  00000			 AREA	 |.rdata|, DATA, READONLY
|?pmField@?$CVarTypeInfo@PAN@ATL@@2QQtagVARIANT@@PANQ3@| DCD 0x8 ; ATL::CVarTypeInfo<double *>::pmField

  00000			 AREA	 |.rdata|, DATA, READONLY
|?VT@?$CVarTypeInfo@PAN@ATL@@2GB| DCW 0x4005		; ATL::CVarTypeInfo<double *>::VT

  00000			 AREA	 |.rdata|, DATA, READONLY
|?pmField@?$CVarTypeInfo@N@ATL@@2QQtagVARIANT@@NQ3@| DCD 0x8 ; ATL::CVarTypeInfo<double>::pmField

  00000			 AREA	 |.rdata|, DATA, READONLY
|?VT@?$CVarTypeInfo@N@ATL@@2GB| DCW 0x5			; ATL::CVarTypeInfo<double>::VT

  00000			 AREA	 |.rdata|, DATA, READONLY
|?pmField@?$CVarTypeInfo@PAM@ATL@@2QQtagVARIANT@@PAMQ3@| DCD 0x8 ; ATL::CVarTypeInfo<float *>::pmField

  00000			 AREA	 |.rdata|, DATA, READONLY
|?VT@?$CVarTypeInfo@PAM@ATL@@2GB| DCW 0x4004		; ATL::CVarTypeInfo<float *>::VT

  00000			 AREA	 |.rdata|, DATA, READONLY
|?pmField@?$CVarTypeInfo@M@ATL@@2QQtagVARIANT@@MQ3@| DCD 0x8 ; ATL::CVarTypeInfo<float>::pmField

  00000			 AREA	 |.rdata|, DATA, READONLY
|?VT@?$CVarTypeInfo@M@ATL@@2GB| DCW 0x4			; ATL::CVarTypeInfo<float>::VT

  00000			 AREA	 |.rdata|, DATA, READONLY
|?pmField@?$CVarTypeInfo@PAK@ATL@@2QQtagVARIANT@@PAKQ3@| DCD 0x8 ; ATL::CVarTypeInfo<unsigned long *>::pmField

  00000			 AREA	 |.rdata|, DATA, READONLY
|?VT@?$CVarTypeInfo@PAK@ATL@@2GB| DCW 0x4013		; ATL::CVarTypeInfo<unsigned long *>::VT

  00000			 AREA	 |.rdata|, DATA, READONLY
|?pmField@?$CVarTypeInfo@K@ATL@@2QQtagVARIANT@@KQ3@| DCD 0x8 ; ATL::CVarTypeInfo<unsigned long>::pmField

  00000			 AREA	 |.rdata|, DATA, READONLY
|?VT@?$CVarTypeInfo@K@ATL@@2GB| DCW 0x13		; ATL::CVarTypeInfo<unsigned long>::VT

  00000			 AREA	 |.rdata|, DATA, READONLY
|?pmField@?$CVarTypeInfo@PAJ@ATL@@2QQtagVARIANT@@PAJQ3@| DCD 0x8 ; ATL::CVarTypeInfo<long *>::pmField

  00000			 AREA	 |.rdata|, DATA, READONLY
|?VT@?$CVarTypeInfo@PAJ@ATL@@2GB| DCW 0x4003		; ATL::CVarTypeInfo<long *>::VT

  00000			 AREA	 |.rdata|, DATA, READONLY
|?pmField@?$CVarTypeInfo@J@ATL@@2QQtagVARIANT@@JQ3@| DCD 0x8 ; ATL::CVarTypeInfo<long>::pmField

  00000			 AREA	 |.rdata|, DATA, READONLY
|?VT@?$CVarTypeInfo@J@ATL@@2GB| DCW 0x3			; ATL::CVarTypeInfo<long>::VT

  00000			 AREA	 |.rdata|, DATA, READONLY
|?pmField@?$CVarTypeInfo@PAI@ATL@@2QQtagVARIANT@@PAIQ3@| DCD 0x8 ; ATL::CVarTypeInfo<unsigned int *>::pmField

  00000			 AREA	 |.rdata|, DATA, READONLY
|?VT@?$CVarTypeInfo@PAI@ATL@@2GB| DCW 0x4013		; ATL::CVarTypeInfo<unsigned int *>::VT

  00000			 AREA	 |.rdata|, DATA, READONLY
|?pmField@?$CVarTypeInfo@I@ATL@@2QQtagVARIANT@@IQ3@| DCD 0x8 ; ATL::CVarTypeInfo<unsigned int>::pmField

  00000			 AREA	 |.rdata|, DATA, READONLY
|?VT@?$CVarTypeInfo@I@ATL@@2GB| DCW 0x13		; ATL::CVarTypeInfo<unsigned int>::VT

  00000			 AREA	 |.rdata|, DATA, READONLY
|?pmField@?$CVarTypeInfo@PAH@ATL@@2QQtagVARIANT@@PAHQ3@| DCD 0x8 ; ATL::CVarTypeInfo<int *>::pmField

  00000			 AREA	 |.rdata|, DATA, READONLY
|?VT@?$CVarTypeInfo@PAH@ATL@@2GB| DCW 0x4003		; ATL::CVarTypeInfo<int *>::VT

  00000			 AREA	 |.rdata|, DATA, READONLY
|?pmField@?$CVarTypeInfo@H@ATL@@2QQtagVARIANT@@HQ3@| DCD 0x8 ; ATL::CVarTypeInfo<int>::pmField

  00000			 AREA	 |.rdata|, DATA, READONLY
|?VT@?$CVarTypeInfo@H@ATL@@2GB| DCW 0x3			; ATL::CVarTypeInfo<int>::VT

  00000			 AREA	 |.rdata|, DATA, READONLY
|?pmField@?$CVarTypeInfo@PAG@ATL@@2QQtagVARIANT@@PAGQ3@| DCD 0x8 ; ATL::CVarTypeInfo<unsigned short *>::pmField

  00000			 AREA	 |.rdata|, DATA, READONLY
|?VT@?$CVarTypeInfo@PAG@ATL@@2GB| DCW 0x4012		; ATL::CVarTypeInfo<unsigned short *>::VT

  00000			 AREA	 |.rdata|, DATA, READONLY
|?pmField@?$CVarTypeInfo@G@ATL@@2QQtagVARIANT@@GQ3@| DCD 0x8 ; ATL::CVarTypeInfo<unsigned short>::pmField

  00000			 AREA	 |.rdata|, DATA, READONLY
|?VT@?$CVarTypeInfo@G@ATL@@2GB| DCW 0x12		; ATL::CVarTypeInfo<unsigned short>::VT

  00000			 AREA	 |.rdata|, DATA, READONLY
|?pmField@?$CVarTypeInfo@PAF@ATL@@2QQtagVARIANT@@PAFQ3@| DCD 0x8 ; ATL::CVarTypeInfo<short *>::pmField

  00000			 AREA	 |.rdata|, DATA, READONLY
|?VT@?$CVarTypeInfo@PAF@ATL@@2GB| DCW 0x4002		; ATL::CVarTypeInfo<short *>::VT

  00000			 AREA	 |.rdata|, DATA, READONLY
|?pmField@?$CVarTypeInfo@F@ATL@@2QQtagVARIANT@@FQ3@| DCD 0x8 ; ATL::CVarTypeInfo<short>::pmField

  00000			 AREA	 |.rdata|, DATA, READONLY
|?VT@?$CVarTypeInfo@F@ATL@@2GB| DCW 0x2			; ATL::CVarTypeInfo<short>::VT

  00000			 AREA	 |.rdata|, DATA, READONLY
|?pmField@?$CVarTypeInfo@PAE@ATL@@2QQtagVARIANT@@PAEQ3@| DCD 0x8 ; ATL::CVarTypeInfo<unsigned char *>::pmField

  00000			 AREA	 |.rdata|, DATA, READONLY
|?VT@?$CVarTypeInfo@PAE@ATL@@2GB| DCW 0x4011		; ATL::CVarTypeInfo<unsigned char *>::VT

  00000			 AREA	 |.rdata|, DATA, READONLY
|?pmField@?$CVarTypeInfo@PAD@ATL@@2QQtagVARIANT@@PADQ3@| DCD 0x8 ; ATL::CVarTypeInfo<char *>::pmField

  00000			 AREA	 |.rdata|, DATA, READONLY
|?VT@?$CVarTypeInfo@PAD@ATL@@2GB| DCW 0x4010		; ATL::CVarTypeInfo<char *>::VT

  00000			 AREA	 |.rdata|, DATA, READONLY
|?pmField@?$CVarTypeInfo@E@ATL@@2QQtagVARIANT@@EQ3@| DCD 0x8 ; ATL::CVarTypeInfo<unsigned char>::pmField

  00000			 AREA	 |.rdata|, DATA, READONLY
|?VT@?$CVarTypeInfo@E@ATL@@2GB| DCW 0x11		; ATL::CVarTypeInfo<unsigned char>::VT

  00000			 AREA	 |.rdata|, DATA, READONLY
|?pmField@?$CVarTypeInfo@D@ATL@@2QQtagVARIANT@@DQ3@| DCD 0x8 ; ATL::CVarTypeInfo<char>::pmField

  00000			 AREA	 |.rdata|, DATA, READONLY
|?VT@?$CVarTypeInfo@D@ATL@@2GB| DCW 0x10		; ATL::CVarTypeInfo<char>::VT

  00000			 AREA	 |.rdata|, DATA, READONLY
|?_Max@?$AtlLimits@_K@ATL@@2_KB| DCD 0xffffffff, 0xffffffff ;  = 0xffffffffffffffff ; ATL::AtlLimits<unsigned __int64>::_Max

  00000			 AREA	 |.rdata|, DATA, READONLY
|?_Min@?$AtlLimits@_K@ATL@@2_KB| DCD 0x0, 0x0		;  = 0x0000000000000000 ; ATL::AtlLimits<unsigned __int64>::_Min

  00000			 AREA	 |.rdata|, DATA, READONLY
|?_Max@?$AtlLimits@_J@ATL@@2_JB| DCD 0xffffffff, 0x7fffffff ;  = 0x7fffffffffffffff ; ATL::AtlLimits<__int64>::_Max

  00000			 AREA	 |.rdata|, DATA, READONLY
|?_Min@?$AtlLimits@_J@ATL@@2_JB| DCD 0x0, 0x80000000	;  = 0x8000000000000000 ; ATL::AtlLimits<__int64>::_Min

  00000			 AREA	 |.rdata|, DATA, READONLY
|?_Max@?$AtlLimits@K@ATL@@2KB| DCD 0xffffffff		; ATL::AtlLimits<unsigned long>::_Max

  00000			 AREA	 |.rdata|, DATA, READONLY
|?_Min@?$AtlLimits@K@ATL@@2KB| DCD 0x0			; ATL::AtlLimits<unsigned long>::_Min

  00000			 AREA	 |.rdata|, DATA, READONLY
|?_Max@?$AtlLimits@J@ATL@@2JB| DCD 0x7fffffff		; ATL::AtlLimits<long>::_Max

  00000			 AREA	 |.rdata|, DATA, READONLY
|?_Min@?$AtlLimits@J@ATL@@2JB| DCD 0x80000000		; ATL::AtlLimits<long>::_Min

  00000			 AREA	 |.rdata|, DATA, READONLY
|?_Max@?$AtlLimits@I@ATL@@2IB| DCD 0xffffffff		; ATL::AtlLimits<unsigned int>::_Max

  00000			 AREA	 |.rdata|, DATA, READONLY
|?_Min@?$AtlLimits@I@ATL@@2IB| DCD 0x0			; ATL::AtlLimits<unsigned int>::_Min

  00000			 AREA	 |.rdata|, DATA, READONLY
|?_Max@?$AtlLimits@H@ATL@@2HB| DCD 0x7fffffff		; ATL::AtlLimits<int>::_Max

  00000			 AREA	 |.rdata|, DATA, READONLY
|?_Min@?$AtlLimits@H@ATL@@2HB| DCD 0x80000000		; ATL::AtlLimits<int>::_Min
	EXPORT	|??1CComBSTR@ATL@@QAA@XZ|		; ATL::CComBSTR::~CComBSTR
	IMPORT	|SysFreeString|
; File c:\program files (x86)\microsoft visual studio 9.0\vc\ce\atlmfc\include\atlcomcli.h

  00000			 AREA	 |.pdata|, PDATA
|$T65045| DCD	|$LN5@CComBSTR|
	DCD	0x40000200
; Function compile flags: /Ogspy

  00000			 AREA	 |.text|, CODE, ARM

  00000		 |??1CComBSTR@ATL@@QAA@XZ| PROC		; ATL::CComBSTR::~CComBSTR
; Line 1454
  00000		 |$LN5@CComBSTR|
  00000		 |$M65042|
; Line 1455
  00000	e5900000	 ldr         r0, [r0]
  00004	ea000000	 b           SysFreeString
  00008		 |$M65043|

			 ENDP  ; |??1CComBSTR@ATL@@QAA@XZ|, ATL::CComBSTR::~CComBSTR

	EXPORT	|??1stringdispid@CComTypeInfoHolder@ATL@@QAA@XZ| ; ATL::CComTypeInfoHolder::stringdispid::~stringdispid

  00000			 AREA	 |.pdata|, PDATA
|$T65056| DCD	|$LN7@stringdisp|
	DCD	0x40000200
; Function compile flags: /Ogspy

  00000			 AREA	 |.text|, CODE, ARM

  00000		 |??1stringdispid@CComTypeInfoHolder@ATL@@QAA@XZ| PROC ; ATL::CComTypeInfoHolder::stringdispid::~stringdispid
  00000		 |$LN7@stringdisp|
  00000		 |$M65053|
  00000	e5900000	 ldr         r0, [r0]
  00004	ea000000	 b           SysFreeString
  00008		 |$M65054|

			 ENDP  ; |??1stringdispid@CComTypeInfoHolder@ATL@@QAA@XZ|, ATL::CComTypeInfoHolder::stringdispid::~stringdispid

	EXPORT	|??_Estringdispid@CComTypeInfoHolder@ATL@@QAAPAXI@Z| ; ATL::CComTypeInfoHolder::stringdispid::`vector deleting destructor'
	IMPORT	|??3@YAXPAX@Z|				; operator delete
	IMPORT	|??_M@YAXPAXIHP6AX0@Z@Z|		; `eh vector destructor iterator'

  00000			 AREA	 |.pdata|, PDATA
|$T65075| DCD	|$LN12@vector|
	DCD	0x40001701
; Function compile flags: /Ogspy

  00000			 AREA	 |.text|, CODE, ARM

  00000		 |??_Estringdispid@CComTypeInfoHolder@ATL@@QAAPAXI@Z| PROC ; ATL::CComTypeInfoHolder::stringdispid::`vector deleting destructor'
  00000		 |$LN12@vector|
  00000	e92d4030	 stmdb       sp!, {r4, r5, lr}
  00004		 |$M65072|
  00004	e1a05001	 mov         r5, r1
  00008	e1a04000	 mov         r4, r0
  0000c	e3150002	 tst         r5, #2
  00010	0a000009	 beq         |$LN3@vector|
  00014	e59f303c	 ldr         r3, [pc, #0x3C]
  00018	e5142004	 ldr         r2, [r4, #-4]
  0001c	e3a0100c	 mov         r1, #0xC
  00020	eb000000	 bl          |??_M@YAXPAXIHP6AX0@Z@Z|
  00024	e3150001	 tst         r5, #1
  00028	12440004	 subne       r0, r4, #4
  0002c	1b000000	 blne        |??3@YAXPAX@Z|
  00030	e2444004	 sub         r4, r4, #4
  00034	e1a00004	 mov         r0, r4
  00038	e8bd8030	 ldmia       sp!, {r4, r5, pc}
  0003c		 |$LN3@vector|
  0003c	e5940000	 ldr         r0, [r4]
  00040	eb000000	 bl          SysFreeString
  00044	e3150001	 tst         r5, #1
  00048	11a00004	 movne       r0, r4
  0004c	1b000000	 blne        |??3@YAXPAX@Z|
  00050	e1a00004	 mov         r0, r4
  00054	e8bd8030	 ldmia       sp!, {r4, r5, pc}
  00058		 |$LN13@vector|
  00058		 |$LN14@vector|
  00058	00000000	 DCD         |??1stringdispid@CComTypeInfoHolder@ATL@@QAA@XZ|
  0005c		 |$M65073|

			 ENDP  ; |??_Estringdispid@CComTypeInfoHolder@ATL@@QAAPAXI@Z|, ATL::CComTypeInfoHolder::stringdispid::`vector deleting destructor'

	END
